 blakserv

 Timestamp is 5aa4930f (Sat Mar 10 20:23:11 2018)

 Preferred load address is 00400000

 Start         Length     Name                   Class
 0001:00000000 000736a0H .text$mn                CODE
 0001:000736a0 000001d0H .text$x                 CODE
 0002:00000000 000002dcH .idata$5                DATA
 0002:000002dc 00000004H .00cfg                  DATA
 0002:000002e0 00000004H .CRT$XCA                DATA
 0002:000002e4 00000004H .CRT$XCAA               DATA
 0002:000002e8 00000004H .CRT$XCZ                DATA
 0002:000002ec 00000004H .CRT$XIA                DATA
 0002:000002f0 00000004H .CRT$XIAA               DATA
 0002:000002f4 00000004H .CRT$XIAC               DATA
 0002:000002f8 00000010H .CRT$XIC                DATA
 0002:00000308 00000004H .CRT$XIZ                DATA
 0002:0000030c 00000004H .CRT$XPA                DATA
 0002:00000310 00000008H .CRT$XPX                DATA
 0002:00000318 00000004H .CRT$XPXA               DATA
 0002:0000031c 00000004H .CRT$XPZ                DATA
 0002:00000320 00000004H .CRT$XTA                DATA
 0002:00000324 0000000cH .CRT$XTZ                DATA
 0002:00000330 00019574H .rdata                  DATA
 0002:000198a4 0000026cH .rdata$r                DATA
 0002:00019b10 0000003cH .rdata$sxdata           DATA
 0002:00019b4c 00000344H .rdata$zzzdbg           DATA
 0002:00019e90 00000004H .rtc$IAA                DATA
 0002:00019e94 00000004H .rtc$IZZ                DATA
 0002:00019e98 00000004H .rtc$TAA                DATA
 0002:00019e9c 00000004H .rtc$TZZ                DATA
 0002:00019ea0 00000a44H .xdata$x                DATA
 0002:0001a8e4 00000000H .edata                  DATA
 0002:0001a8e4 000000a0H .idata$2                DATA
 0002:0001a984 00000014H .idata$3                DATA
 0002:0001a998 000002dcH .idata$4                DATA
 0002:0001ac74 00000bb6H .idata$6                DATA
 0003:00000000 00006b80H .data                   DATA
 0003:00006b80 00000100H .data$r                 DATA
 0003:00006c80 003a5104H .bss                    DATA
 0004:00000000 00000098H .gfids$x                DATA
 0004:00000098 00000090H .gfids$y                DATA
 0005:00000000 000004e0H .rsrc$01                DATA
 0005:000004e0 0000b1e8H .rsrc$02                DATA

  Address         Publics by Value              Rva+Base       Lib:Object

 0000:00000000       ___guard_longjmp_count     00000000     <absolute>
 0000:00000000       ___guard_iat_table         00000000     <absolute>
 0000:00000000       ___guard_iat_count         00000000     <absolute>
 0000:00000000       ___guard_longjmp_table     00000000     <absolute>
 0000:00000000       ___dynamic_value_reloc_table 00000000     <absolute>
 0000:00000000       ___guard_fids_table        00000000     <absolute>
 0000:00000000       ___guard_fids_count        00000000     <absolute>
 0000:00000000       __except_list              00000000     <absolute>
 0000:0000000f       ___safe_se_handler_count   0000000f     <absolute>
 0000:00000100       ___guard_flags             00000100     <absolute>
 0000:00000000       ___ImageBase               00400000     <linker-defined>
 0001:00000000       ___local_stdio_printf_options 00401000 f i md5.obj
 0001:00000010       __vsnprintf_l              00401010 f i md5.obj
 0001:00000050       _sprintf                   00401050 f i md5.obj
 0001:00000070       ___local_stdio_scanf_options 00401070 f i account.obj
 0001:00000080       _sscanf                    00401080 f i account.obj
 0001:000000b0       _fprintf                   004010b0 f i adminfn.obj
 0001:000000e0       _snprintf                  004010e0 f i ccode.obj
 0001:00000120       ??1?$basic_string@DU?$char_traits@D@std@@V?$allocator@D@2@@std@@QAE@XZ 00401120 f i files.obj
 0001:000001a0       ??0?$basic_string@DU?$char_traits@D@std@@V?$allocator@D@2@@std@@QAE@$$QAV01@@Z 004011a0 f i files.obj
 0001:00000240       ?_Reserve@?$vector@V?$basic_string@DU?$char_traits@D@std@@V?$allocator@D@2@@std@@V?$allocator@V?$basic_string@DU?$char_traits@D@std@@V?$allocator@D@2@@std@@@2@@std@@IAEXI@Z 00401240 f i files.obj
 0001:000002d0       ?assign@?$basic_string@DU?$char_traits@D@std@@V?$allocator@D@2@@std@@QAEAAV12@PBDI@Z 004012d0 f i files.obj
 0001:000003d0       ?assign@?$basic_string@DU?$char_traits@D@std@@V?$allocator@D@2@@std@@QAEAAV12@ABV12@II@Z 004013d0 f i files.obj
 0001:000004e0       ?_Reallocate@?$vector@V?$basic_string@DU?$char_traits@D@std@@V?$allocator@D@2@@std@@V?$allocator@V?$basic_string@DU?$char_traits@D@std@@V?$allocator@D@2@@std@@@2@@std@@IAEXI@Z 004014e0 f i files.obj
 0001:000005d0       ?deallocate@?$_Wrap_alloc@V?$allocator@D@std@@@std@@QAEXPADI@Z 004015d0 f i files.obj
 0001:00000620       ?erase@?$basic_string@DU?$char_traits@D@std@@V?$allocator@D@2@@std@@QAEAAV12@II@Z 00401620 f i files.obj
 0001:000006a0       ?deallocate@?$_Wrap_alloc@V?$allocator@V?$basic_string@DU?$char_traits@D@std@@V?$allocator@D@2@@std@@@std@@@std@@QAEXPAV?$basic_string@DU?$char_traits@D@std@@V?$allocator@D@2@@2@I@Z 004016a0 f i files.obj
 0001:00000700       ?_Copy@?$basic_string@DU?$char_traits@D@std@@V?$allocator@D@2@@std@@QAEXII@Z 00401700 f i files.obj
 0001:000008b0       ?allocate@?$_Wrap_alloc@V?$allocator@D@std@@@std@@QAEPADI@Z 004018b0 f i files.obj
 0001:00000900       ??$_Destroy_range1@V?$allocator@V?$basic_string@DU?$char_traits@D@std@@V?$allocator@D@2@@std@@@std@@PAV?$basic_string@DU?$char_traits@D@std@@V?$allocator@D@2@@2@@std@@YAXPAV?$basic_string@DU?$char_traits@D@std@@V?$allocator@D@2@@0@0AAU?$_Wrap_alloc@V?$allocator@V?$basic_string@DU?$char_traits@D@std@@V?$allocator@D@2@@std@@@std@@@0@U?$integral_constant@_N$0A@@0@@Z 00401900 f i files.obj
 0001:000009c0       ??$_Uninitialized_move_al_unchecked1@PAV?$basic_string@DU?$char_traits@D@std@@V?$allocator@D@2@@std@@PAV12@V?$allocator@V?$basic_string@DU?$char_traits@D@std@@V?$allocator@D@2@@std@@@2@@std@@YAPAV?$basic_string@DU?$char_traits@D@std@@V?$allocator@D@2@@0@PAV10@00AAU?$_Wrap_alloc@V?$allocator@V?$basic_string@DU?$char_traits@D@std@@V?$allocator@D@2@@std@@@std@@@0@U_General_ptr_iterator_tag@0@U_Any_tag@0@@Z 004019c0 f i files.obj
 0001:00000ab0       ??1?$vector@V?$basic_string@DU?$char_traits@D@std@@V?$allocator@D@2@@std@@V?$allocator@V?$basic_string@DU?$char_traits@D@std@@V?$allocator@D@2@@std@@@2@@std@@QAE@XZ 00401ab0 f i loadkod.obj
 0001:00000b30       ?ParseClientSendBlakodError@@YAXHHHHH@Z 00401b30 f i parsecli.obj
 0001:00000c20       ?GetCRC16BufferList@@YAGPAUbuffer_struct@@@Z 00401c20 f i session.obj
 0001:00000c70       ?TimerHeapHeapify@@YAXH@Z  00401c70 f i timer.obj
 0001:00000e57       @__security_check_cookie@4 00401e57 f   LIBCMT:_secchk_.obj
 0001:00000e68       ___raise_securityfailure   00401e68 f   LIBCMT:gs_report.obj
 0001:00000e90       ___report_gsfailure        00401e90 f   LIBCMT:gs_report.obj
 0001:00000f8b       ___report_rangecheckfailure 00401f8b f   LIBCMT:gs_report.obj
 0001:00000f97       ___report_securityfailure  00401f97 f   LIBCMT:gs_report.obj
 0001:00001067       ??2@YAPAXI@Z               00402067 f   LIBCMT:new_scalar.obj
 0001:0000109a       ??3@YAXPAX@Z               0040209a f   LIBCMT:delete_scalar.obj
 0001:0000109f       ??3@YAXPAXI@Z              0040209f f   LIBCMT:delete_scalar_size.obj
 0001:000012d3       _WinMainCRTStartup         004022d3 f   LIBCMT:exe_winmain.obj
 0001:000012dd       ??0bad_alloc@std@@QAE@ABV01@@Z 004022dd f i LIBCMT:throw_bad_alloc.obj
 0001:000012f8       ??0bad_alloc@std@@QAE@XZ   004022f8 f i LIBCMT:throw_bad_alloc.obj
 0001:00001310       ??0bad_array_new_length@std@@QAE@ABV01@@Z 00402310 f i LIBCMT:throw_bad_alloc.obj
 0001:0000132b       ??0bad_array_new_length@std@@QAE@XZ 0040232b f i LIBCMT:throw_bad_alloc.obj
 0001:00001343       ??0exception@std@@QAE@ABV01@@Z 00402343 f i LIBCMT:throw_bad_alloc.obj
 0001:0000136f       ?__scrt_throw_std_bad_alloc@@YAXXZ 0040236f f   LIBCMT:throw_bad_alloc.obj
 0001:0000136f       ?_Xbad_alloc@std@@YAXXZ    0040236f f   libcpmt:xthrow.obj
 0001:0000138c       ?__scrt_throw_std_bad_array_new_length@@YAXXZ 0040238c f   LIBCMT:throw_bad_alloc.obj
 0001:000013a9       ?what@exception@std@@UBEPBDXZ 004023a9 f i LIBCMT:throw_bad_alloc.obj
 0001:000013fa       ___scrt_acquire_startup_lock 004023fa f   LIBCMT:utility.obj
 0001:0000142f       ___scrt_initialize_crt     0040242f f   LIBCMT:utility.obj
 0001:00001468       ___scrt_initialize_onexit_tables 00402468 f   LIBCMT:utility.obj
 0001:000014ff       ___scrt_is_nonwritable_in_current_image 004024ff f   LIBCMT:utility.obj
 0001:00001589       ___scrt_release_startup_lock 00402589 f   LIBCMT:utility.obj
 0001:000015a6       ___scrt_uninitialize_crt   004025a6 f   LIBCMT:utility.obj
 0001:000015ce       __onexit                   004025ce f   LIBCMT:utility.obj
 0001:00001609       _atexit                    00402609 f   LIBCMT:utility.obj
 0001:0000161e       ___security_init_cookie    0040261e f   LIBCMT:gs_support.obj
 0001:000016ba       __get_startup_argv_mode    004026ba f   LIBCMT:argv_mode.obj
 0001:000016be       __get_startup_commit_mode  004026be f   LIBCMT:commit_mode.obj
 0001:000016be       __get_startup_new_mode     004026be f   LIBCMT:new_mode.obj
 0001:000016be       ___scrt_initialize_winrt   004026be f   LIBCMT:utility_desktop.obj
 0001:000016be       __matherr                  004026be f   LIBCMT:matherr.obj
 0001:000016be       __get_startup_thread_locale_mode 004026be f   LIBCMT:thread_locale.obj
 0001:000016c1       __get_startup_file_mode    004026c1 f   LIBCMT:file_mode.obj
 0001:000016c7       ?__scrt_initialize_type_info@@YAXXZ 004026c7 f   LIBCMT:tncleanup.obj
 0001:000016d3       __initialize_default_precision 004026d3 f   LIBCMT:default_precision.obj
 0001:000016f4       ___scrt_initialize_default_local_stdio_options 004026f4 f   LIBCMT:default_local_stdio_options.obj
 0001:00001711       ___scrt_is_user_matherr_present 00402711 f   LIBCMT:matherr_detection.obj
 0001:0000171d       ___scrt_get_dyn_tls_init_callback 0040271d f   LIBCMT:dyn_tls_init.obj
 0001:00001723       ___scrt_get_dyn_tls_dtor_callback 00402723 f   LIBCMT:dyn_tls_dtor.obj
 0001:00001729       ___scrt_fastfail           00402729 f   LIBCMT:utility_desktop.obj
 0001:00001844       ___scrt_get_show_window_mode 00402844 f   LIBCMT:utility_desktop.obj
 0001:00001877       ___scrt_is_managed_app     00402877 f   LIBCMT:utility_desktop.obj
 0001:000018bb       ___scrt_set_unhandled_exception_filter 004028bb f   LIBCMT:utility_desktop.obj
 0001:000018c7       ___scrt_unhandled_exception_filter@4 004028c7 f   LIBCMT:utility_desktop.obj
 0001:00001908       __crt_debugger_hook        00402908 f   LIBCMT:utility_desktop.obj
 0001:00001910       __RTC_Initialize           00402910 f   LIBCMT:_initsect_.obj
 0001:0000193b       __RTC_Terminate            0040293b f   LIBCMT:_initsect_.obj
 0001:00001966       @_guard_check_icall@4      00402966 f i LIBCMT:checkcfg.obj
 0001:00001970       __SEH_prolog4              00402970 f   LIBCMT:_sehprolg4_.obj
 0001:000019b6       __SEH_epilog4              004029b6 f   LIBCMT:_sehprolg4_.obj
 0001:000019cb       ??_Gtype_info@@UAEPAXI@Z   004029cb f i LIBCMT:std_type_info_static.obj
 0001:000019cb       ??_Etype_info@@UAEPAXI@Z   004029cb f i LIBCMT:std_type_info_static.obj
 0001:000019ee       ___isa_available_init      004029ee f   LIBCMT:_cpu_disp_.obj
 0001:00001b88       ___scrt_is_ucrt_dll_in_use 00402b88 f   LIBCMT:ucrt_detection.obj
 0001:00001b94       ??0exception@std@@QAE@QBD@Z 00402b94 f i libcpmt:xthrow.obj
 0001:00001bcb       ??0length_error@std@@QAE@ABV01@@Z 00402bcb f i libcpmt:xthrow.obj
 0001:00001be6       ??0length_error@std@@QAE@PBD@Z 00402be6 f i libcpmt:xthrow.obj
 0001:00001c07       ??0logic_error@std@@QAE@ABV01@@Z 00402c07 f i libcpmt:xthrow.obj
 0001:00001c22       ??0out_of_range@std@@QAE@ABV01@@Z 00402c22 f i libcpmt:xthrow.obj
 0001:00001c3d       ??0out_of_range@std@@QAE@PBD@Z 00402c3d f i libcpmt:xthrow.obj
 0001:00001c5e       ??1out_of_range@std@@UAE@XZ 00402c5e f i libcpmt:xthrow.obj
 0001:00001c5e       ??1bad_alloc@std@@UAE@XZ   00402c5e f i LIBCMT:throw_bad_alloc.obj
 0001:00001c5e       ??1bad_exception@std@@UAE@XZ 00402c5e f i libvcruntime:frame.obj
 0001:00001c5e       ??1length_error@std@@UAE@XZ 00402c5e f i libcpmt:xthrow.obj
 0001:00001c5e       ??1bad_array_new_length@std@@UAE@XZ 00402c5e f i LIBCMT:throw_bad_alloc.obj
 0001:00001c6f       ??_Ebad_exception@std@@UAEPAXI@Z 00402c6f f i libvcruntime:frame.obj
 0001:00001c6f       ??_Eout_of_range@std@@UAEPAXI@Z 00402c6f f i libcpmt:xthrow.obj
 0001:00001c6f       ??_Elogic_error@std@@UAEPAXI@Z 00402c6f f i libcpmt:xthrow.obj
 0001:00001c6f       ??_Ebad_array_new_length@std@@UAEPAXI@Z 00402c6f f i LIBCMT:throw_bad_alloc.obj
 0001:00001c6f       ??_Glength_error@std@@UAEPAXI@Z 00402c6f f i libcpmt:xthrow.obj
 0001:00001c6f       ??_Glogic_error@std@@UAEPAXI@Z 00402c6f f i libcpmt:xthrow.obj
 0001:00001c6f       ??_Elength_error@std@@UAEPAXI@Z 00402c6f f i libcpmt:xthrow.obj
 0001:00001c6f       ??_Gbad_alloc@std@@UAEPAXI@Z 00402c6f f i LIBCMT:throw_bad_alloc.obj
 0001:00001c6f       ??_Gbad_array_new_length@std@@UAEPAXI@Z 00402c6f f i LIBCMT:throw_bad_alloc.obj
 0001:00001c6f       ??_Gexception@std@@UAEPAXI@Z 00402c6f f i LIBCMT:throw_bad_alloc.obj
 0001:00001c6f       ??_Ebad_alloc@std@@UAEPAXI@Z 00402c6f f i LIBCMT:throw_bad_alloc.obj
 0001:00001c6f       ??_Gout_of_range@std@@UAEPAXI@Z 00402c6f f i libcpmt:xthrow.obj
 0001:00001c6f       ??_Gbad_exception@std@@UAEPAXI@Z 00402c6f f i libvcruntime:frame.obj
 0001:00001c6f       ??_Eexception@std@@UAEPAXI@Z 00402c6f f i LIBCMT:throw_bad_alloc.obj
 0001:00001c9c       ?_Xlength_error@std@@YAXPBD@Z 00402c9c f   libcpmt:xthrow.obj
 0001:00001cbc       ?_Xout_of_range@std@@YAXPBD@Z 00402cbc f   libcpmt:xthrow.obj
 0001:00001cdc       _IsProcessorFeaturePresent@4 00402cdc f   kernel32:KERNEL32.dll
 0001:00001ce2       ___DestructExceptionObject 00402ce2 f   libvcruntime:frame.obj
 0001:00001d76       ??0bad_exception@std@@QAE@ABV01@@Z 00402d76 f i libvcruntime:frame.obj
 0001:00001d91       ??0bad_exception@std@@QAE@XZ 00402d91 f i libvcruntime:frame.obj
 0001:000025c2       ?_CallMemberFunction2@@YGXQAX00H@Z 004035c2 f i libvcruntime:frame.obj
 0001:000025c2       ?_CallMemberFunction0@@YGXQAX0@Z 004035c2 f i libvcruntime:frame.obj
 0001:000025c2       ?_CallMemberFunction1@@YGXQAX00@Z 004035c2 f i libvcruntime:frame.obj
 0001:000025c9       ___AdjustPointer           004035c9 f   libvcruntime:frame.obj
 0001:000025ee       ___BuildCatchObject        004035ee f   libvcruntime:frame.obj
 0001:0000267d       ___BuildCatchObjectHelper  0040367d f   libvcruntime:frame.obj
 0001:000027ab       ___FrameUnwindFilter       004037ab f   libvcruntime:frame.obj
 0001:000027f0       ___FrameUnwindToState      004037f0 f   libvcruntime:frame.obj
 0001:000028b8       ___InternalCxxFrameHandler 004038b8 f   libvcruntime:frame.obj
 0001:000029b4       ___TypeMatch               004039b4 f   libvcruntime:frame.obj
 0001:00002a42       ___std_terminate           00403a42 f   libvcruntime:frame.obj
 0001:00002a50       _strchr                    00403a50 f   libvcruntime:strchr.obj
 0001:00002abe       ___from_strstr_to_strchr   00403abe     libvcruntime:strchr.obj
 0001:00002b80       _strstr                    00403b80 f   libvcruntime:strstr.obj
 0001:00002df0       _memmove                   00403df0 f   libvcruntime:memmove.obj
 0001:00003370       _strrchr                   00404370 f   libvcruntime:strrchr.obj
 0001:000034f0       __except_handler4          004044f0 f   libvcruntime:_chandler4_.obj
 0001:00003656       ___std_exception_copy      00404656 f   libvcruntime:std_exception.obj
 0001:000036b9       ___std_exception_destroy   004046b9 f   libvcruntime:std_exception.obj
 0001:000036d8       __CxxThrowException@8      004046d8 f   libvcruntime:throw.obj
 0001:00003746       ___vcrt_initialize         00404746 f   libvcruntime:initialization.obj
 0001:0000376f       ___vcrt_uninitialize       0040476f f   libvcruntime:initialization.obj
 0001:0000378e       ___std_type_info_compare   0040478e f   libvcruntime:std_type_info.obj
 0001:000037d0       _memset                    004047d0 f   libvcruntime:memset.obj
 0001:0000392a       _unexpected                0040492a f   libvcruntime:unexpected.obj
 0001:00003946       ___vcrt_freefls@4          00404946 f   libvcruntime:per_thread_data.obj
 0001:00003962       ___vcrt_getptd             00404962 f   libvcruntime:per_thread_data.obj
 0001:00003970       ___vcrt_getptd_noexit      00404970 f   libvcruntime:per_thread_data.obj
 0001:00003a02       ___vcrt_initialize_ptd     00404a02 f   libvcruntime:per_thread_data.obj
 0001:00003a35       ___vcrt_uninitialize_ptd   00404a35 f   libvcruntime:per_thread_data.obj
 0001:00003a50       __CallSettingFrame@12      00404a50 f   libvcruntime:lowhelpr.obj
 0001:00003a77       __NLG_Return               00404a77     libvcruntime:lowhelpr.obj
 0001:00003a9c       ?_CallCatchBlock2@@YAPAXPAUEHRegistrationNode@@PBU_s_FuncInfo@@PAXHK@Z 00404a9c f   libvcruntime:trnsctrl.obj
 0001:00003afc       ?_CallSETranslator@@YAHPAUEHExceptionRecord@@PAUEHRegistrationNode@@PAX2PBU_s_FuncInfo@@H1@Z 00404afc f   libvcruntime:trnsctrl.obj
 0001:00003bd9       ?_GetRangeOfTrysToCheck@@YAPBU_s_TryBlockMapEntry@@PBU_s_FuncInfo@@HHPAI1@Z 00404bd9 f   libvcruntime:trnsctrl.obj
 0001:00003c51       ?_JumpToContinuation@@YGXPAXPAUEHRegistrationNode@@@Z 00404c51 f   libvcruntime:trnsctrl.obj
 0001:00003c83       ?_UnwindNestedFrames@@YGXPAUEHRegistrationNode@@PAUEHExceptionRecord@@@Z 00404c83 f   libvcruntime:trnsctrl.obj
 0001:00003cd8       __CatchGuardHandler        00404cd8 f   libvcruntime:trnsctrl.obj
 0001:00003d09       __CreateFrameInfo          00404d09 f   libvcruntime:trnsctrl.obj
 0001:00003d2d       __FindAndUnlinkFrame       00404d2d f   libvcruntime:trnsctrl.obj
 0001:00003d77       __IsExceptionObjectToBeDestroyed 00404d77 f   libvcruntime:trnsctrl.obj
 0001:00003d9d       __TranslatorGuardHandler   00404d9d f   libvcruntime:trnsctrl.obj
 0001:00003e3c       ___CxxFrameHandler3        00404e3c f   libvcruntime:trnsctrl.obj
 0001:00003e72       __initialize_denormal_control 00404e72 f   LIBCMT:denormal_control.obj
 0001:00003e72       ___except_validate_jump_buffer 00404e72 f   libvcruntime:jbcxrval.obj
 0001:00003e72       __initialize_invalid_parameter_handler 00404e72 f   LIBCMT:invalid_parameter_handler.obj
 0001:00003e72       @_guard_check_icall_nop@4  00404e72 f   LIBCMT:guard_support.obj
 0001:00003e72       ___except_validate_context_record 00404e72 f   libvcruntime:jbcxrval.obj
 0001:00003e80       __local_unwind4            00404e80 f   libvcruntime:_exsup4_.obj
 0001:00003f56       __seh_longjmp_unwind4@4    00404f56 f   libvcruntime:_exsup4_.obj
 0001:00003f7e       @_EH4_CallFilterFunc@8     00404f7e f   libvcruntime:_exsup4_.obj
 0001:00003f95       @_EH4_TransferToHandler@8  00404f95 f   libvcruntime:_exsup4_.obj
 0001:00003fae       @_EH4_GlobalUnwind2@8      00404fae f   libvcruntime:_exsup4_.obj
 0001:00003fc7       @_EH4_LocalUnwind@16       00404fc7 f   libvcruntime:_exsup4_.obj
 0001:00003fe1       ___vcrt_initialize_locks   00404fe1 f   libvcruntime:locks.obj
 0001:0000401d       ___vcrt_uninitialize_locks 0040501d f   libvcruntime:locks.obj
 0001:0000404c       ??$__crt_fast_encode_pointer@PAX@@YAPAXQAX@Z 0040504c f i libvcruntime:winapi_downlevel.obj
 0001:0000404c       ??$__crt_fast_encode_pointer@PAP6AXXZ@@YAPAP6AXXZQAP6AXXZ@Z 0040504c f i LIBCMT:utility.obj
 0001:0000418a       ___vcrt_FlsAlloc           0040518a f   libvcruntime:winapi_downlevel.obj
 0001:000041c4       ___vcrt_FlsFree            004051c4 f   libvcruntime:winapi_downlevel.obj
 0001:000041fe       ___vcrt_FlsGetValue        004051fe f   libvcruntime:winapi_downlevel.obj
 0001:00004238       ___vcrt_FlsSetValue        00405238 f   libvcruntime:winapi_downlevel.obj
 0001:00004275       ___vcrt_InitializeCriticalSectionEx 00405275 f   libvcruntime:winapi_downlevel.obj
 0001:000042bb       ___vcrt_initialize_winapi_thunks 004052bb f   libvcruntime:winapi_downlevel.obj
 0001:000042f5       ___vcrt_uninitialize_winapi_thunks 004052f5 f   libvcruntime:winapi_downlevel.obj
 0001:00004327       ___vcrt_initialize_pure_virtual_call_handler 00405327 f   libvcruntime:purevirt_data.obj
 0001:00004350       __global_unwind2           00405350 f   libvcruntime:_exsup_.obj
 0001:000043b5       __local_unwind2            004053b5 f   libvcruntime:_exsup_.obj
 0001:00004439       __abnormal_termination     00405439 f   libvcruntime:_exsup_.obj
 0001:0000445c       __NLG_Notify1              0040545c f   libvcruntime:_exsup_.obj
 0001:00004465       __NLG_Notify               00405465 f   libvcruntime:_exsup_.obj
 0001:0000447c       __NLG_Dispatch2            0040547c     libvcruntime:_exsup_.obj
 0001:0000447c       __NLG_Dispatch             0040547c     libvcruntime:_exsup_.obj
 0001:00004484       __NLG_Call                 00405484 f   libvcruntime:_exsup_.obj
 0001:00004486       __NLG_Return2              00405486     libvcruntime:_exsup_.obj
 0001:00004487       ??$?RV<lambda_ab9923ffb5d694ec0d78876dd103e44f>@@AAV<lambda_481dd5778c961fbcd3b60b650e9b9dc4>@@V<lambda_7923d86c9e3f319b415918ec4b39749c>@@@?$__crt_seh_guarded_call@H@@QAEH$$QAV<lambda_ab9923ffb5d694ec0d78876dd103e44f>@@AAV<lambda_481dd5778c961fbcd3b60b650e9b9dc4>@@$$QAV<lambda_7923d86c9e3f319b415918ec4b39749c>@@@Z 00405487 f i libucrt:output.obj
 0001:000044d8       ??$?RV<lambda_db08b09ef7aa9d4f8620ce68402612bc>@@AAV<lambda_4f2c1eaeead2a5fc776db5b62ea0fb9b>@@V<lambda_3ae262bc35d4ba6a3825c4f6bcaaf95c>@@@?$__crt_seh_guarded_call@H@@QAEH$$QAV<lambda_db08b09ef7aa9d4f8620ce68402612bc>@@AAV<lambda_4f2c1eaeead2a5fc776db5b62ea0fb9b>@@$$QAV<lambda_3ae262bc35d4ba6a3825c4f6bcaaf95c>@@@Z 004054d8 f i libucrt:output.obj
 0001:00004529       ??$__acrt_lock_stream_and_call@V<lambda_481dd5778c961fbcd3b60b650e9b9dc4>@@@@YAHQAU_iobuf@@$$QAV<lambda_481dd5778c961fbcd3b60b650e9b9dc4>@@@Z 00405529 f i libucrt:output.obj
 0001:00004551       ??$__acrt_lock_stream_and_call@V<lambda_4f2c1eaeead2a5fc776db5b62ea0fb9b>@@@@YAHQAU_iobuf@@$$QAV<lambda_4f2c1eaeead2a5fc776db5b62ea0fb9b>@@@Z 00405551 f i libucrt:output.obj
 0001:0000487a       ??$count@D@formatting_buffer@__crt_stdio_output@@QBEIXZ 0040587a f i libucrt:output.obj
 0001:00004892       ??$ensure_buffer_is_big_enough@D@formatting_buffer@__crt_stdio_output@@QAE_NI@Z 00405892 f i libucrt:output.obj
 0001:00004918       ??$is_wide_character_specifier@D@__crt_stdio_output@@YA_N_KDW4length_modifier@0@@Z 00405918 f i libucrt:output.obj
 0001:00004958       ??$is_wide_character_specifier@_W@__crt_stdio_output@@YA_N_K_WW4length_modifier@0@@Z 00405958 f i libucrt:output.obj
 0001:000049a7       ??$scratch_data@D@formatting_buffer@__crt_stdio_output@@QAEPADXZ 004059a7 f i libucrt:output.obj
 0001:000049c5       ??$type_case_integer_parse_into_buffer@I@?$output_processor@_WV?$string_output_adapter@_W@__crt_stdio_output@@V?$standard_base@_WV?$string_output_adapter@_W@__crt_stdio_output@@@2@@__crt_stdio_output@@AAEXII_N@Z 004059c5 f i libucrt:output.obj
 0001:000049c5       ??$type_case_integer_parse_into_buffer@I@?$output_processor@DV?$string_output_adapter@D@__crt_stdio_output@@V?$standard_base@DV?$string_output_adapter@D@__crt_stdio_output@@@2@@__crt_stdio_output@@AAEXII_N@Z 004059c5 f i libucrt:output.obj
 0001:000049c5       ??$type_case_integer_parse_into_buffer@I@?$output_processor@_WV?$stream_output_adapter@_W@__crt_stdio_output@@V?$standard_base@_WV?$stream_output_adapter@_W@__crt_stdio_output@@@2@@__crt_stdio_output@@AAEXII_N@Z 004059c5 f i libucrt:output.obj
 0001:000049c5       ??$type_case_integer_parse_into_buffer@I@?$output_processor@DV?$stream_output_adapter@D@__crt_stdio_output@@V?$standard_base@DV?$stream_output_adapter@D@__crt_stdio_output@@@2@@__crt_stdio_output@@AAEXII_N@Z 004059c5 f i libucrt:output.obj
 0001:00004a3a       ??$type_case_integer_parse_into_buffer@_K@?$output_processor@DV?$string_output_adapter@D@__crt_stdio_output@@V?$standard_base@DV?$string_output_adapter@D@__crt_stdio_output@@@2@@__crt_stdio_output@@AAEX_KI_N@Z 00405a3a f i libucrt:output.obj
 0001:00004a3a       ??$type_case_integer_parse_into_buffer@_K@?$output_processor@_WV?$string_output_adapter@_W@__crt_stdio_output@@V?$standard_base@_WV?$string_output_adapter@_W@__crt_stdio_output@@@2@@__crt_stdio_output@@AAEX_KI_N@Z 00405a3a f i libucrt:output.obj
 0001:00004a3a       ??$type_case_integer_parse_into_buffer@_K@?$output_processor@_WV?$stream_output_adapter@_W@__crt_stdio_output@@V?$standard_base@_WV?$stream_output_adapter@_W@__crt_stdio_output@@@2@@__crt_stdio_output@@AAEX_KI_N@Z 00405a3a f i libucrt:output.obj
 0001:00004a3a       ??$type_case_integer_parse_into_buffer@_K@?$output_processor@DV?$stream_output_adapter@D@__crt_stdio_output@@V?$standard_base@DV?$stream_output_adapter@D@__crt_stdio_output@@@2@@__crt_stdio_output@@AAEX_KI_N@Z 00405a3a f i libucrt:output.obj
 0001:00004ac2       ??$write_multiple_characters@V?$stream_output_adapter@D@__crt_stdio_output@@D@__crt_stdio_output@@YAXABV?$stream_output_adapter@D@0@DHQAH@Z 00405ac2 f i libucrt:output.obj
 0001:00004aee       ??$write_multiple_characters@V?$stream_output_adapter@_W@__crt_stdio_output@@D@__crt_stdio_output@@YAXABV?$stream_output_adapter@_W@0@DHQAH@Z 00405aee f i libucrt:output.obj
 0001:00004b1f       ??$write_multiple_characters@V?$string_output_adapter@D@__crt_stdio_output@@D@__crt_stdio_output@@YAXABV?$string_output_adapter@D@0@DHQAH@Z 00405b1f f i libucrt:output.obj
 0001:00004b4b       ??$write_multiple_characters@V?$string_output_adapter@_W@__crt_stdio_output@@D@__crt_stdio_output@@YAXABV?$string_output_adapter@_W@0@DHQAH@Z 00405b4b f i libucrt:output.obj
 0001:00004b7c       ??0?$common_data@D@__crt_stdio_output@@IAE@XZ 00405b7c f i libucrt:output.obj
 0001:00004bc3       ??0?$common_data@_W@__crt_stdio_output@@IAE@XZ 00405bc3 f i libucrt:output.obj
 0001:00004c0f       ??0?$output_adapter_data@DV?$stream_output_adapter@D@__crt_stdio_output@@@__crt_stdio_output@@IAE@ABV?$stream_output_adapter@D@1@_KQBDQAU__crt_locale_pointers@@QAD@Z 00405c0f f i libucrt:output.obj
 0001:00004c0f       ??0?$output_adapter_data@DV?$string_output_adapter@D@__crt_stdio_output@@@__crt_stdio_output@@IAE@ABV?$string_output_adapter@D@1@_KQBDQAU__crt_locale_pointers@@QAD@Z 00405c0f f i libucrt:output.obj
 0001:00004c4b       ??0?$output_adapter_data@_WV?$string_output_adapter@_W@__crt_stdio_output@@@__crt_stdio_output@@IAE@ABV?$string_output_adapter@_W@1@_KQB_WQAU__crt_locale_pointers@@QAD@Z 00405c4b f i libucrt:output.obj
 0001:00004c4b       ??0?$output_adapter_data@_WV?$stream_output_adapter@_W@__crt_stdio_output@@@__crt_stdio_output@@IAE@ABV?$stream_output_adapter@_W@1@_KQB_WQAU__crt_locale_pointers@@QAD@Z 00405c4b f i libucrt:output.obj
 0001:00004c87       ??0?$output_processor@DV?$string_output_adapter@D@__crt_stdio_output@@V?$standard_base@DV?$string_output_adapter@D@__crt_stdio_output@@@2@@__crt_stdio_output@@QAE@ABV?$string_output_adapter@D@1@_KQBDQAU__crt_locale_pointers@@QAD@Z 00405c87 f i libucrt:output.obj
 0001:00004c87       ??0?$output_processor@DV?$stream_output_adapter@D@__crt_stdio_output@@V?$standard_base@DV?$stream_output_adapter@D@__crt_stdio_output@@@2@@__crt_stdio_output@@QAE@ABV?$stream_output_adapter@D@1@_KQBDQAU__crt_locale_pointers@@QAD@Z 00405c87 f i libucrt:output.obj
 0001:00004cbc       ??0?$output_processor@_WV?$string_output_adapter@_W@__crt_stdio_output@@V?$standard_base@_WV?$string_output_adapter@_W@__crt_stdio_output@@@2@@__crt_stdio_output@@QAE@ABV?$string_output_adapter@_W@1@_KQB_WQAU__crt_locale_pointers@@QAD@Z 00405cbc f i libucrt:output.obj
 0001:00004cbc       ??0?$output_processor@_WV?$stream_output_adapter@_W@__crt_stdio_output@@V?$standard_base@_WV?$stream_output_adapter@_W@__crt_stdio_output@@@2@@__crt_stdio_output@@QAE@ABV?$stream_output_adapter@_W@1@_KQB_WQAU__crt_locale_pointers@@QAD@Z 00405cbc f i libucrt:output.obj
 0001:00004cf1       ??0_LocaleUpdate@@QAE@QAU__crt_locale_pointers@@@Z 00405cf1 f i libucrt:output.obj
 0001:00004d74       ??1formatting_buffer@__crt_stdio_output@@QAE@XZ 00405d74 f i libucrt:output.obj
 0001:00004d8e       ??4?$__crt_unique_heap_ptr@DU__crt_internal_free_policy@@@@QAEAAV0@$$QAV0@@Z 00405d8e f i libucrt:output.obj
 0001:00004f2c       ?crop_zeroes@__crt_stdio_output@@YAXPADQAU__crt_locale_pointers@@@Z 00405f2c f i libucrt:output.obj
 0001:00004f83       ?find_next_state@?$output_processor@DV?$stream_output_adapter@D@__crt_stdio_output@@V?$standard_base@DV?$stream_output_adapter@D@__crt_stdio_output@@@2@@__crt_stdio_output@@ABE?AW4state@2@DW432@@Z 00405f83 f i libucrt:output.obj
 0001:00004f83       ?find_next_state@?$output_processor@DV?$string_output_adapter@D@__crt_stdio_output@@V?$standard_base@DV?$string_output_adapter@D@__crt_stdio_output@@@2@@__crt_stdio_output@@ABE?AW4state@2@DW432@@Z 00405f83 f i libucrt:output.obj
 0001:00004fb5       ?find_next_state@?$output_processor@_WV?$string_output_adapter@_W@__crt_stdio_output@@V?$standard_base@_WV?$string_output_adapter@_W@__crt_stdio_output@@@2@@__crt_stdio_output@@ABE?AW4state@2@_WW432@@Z 00405fb5 f i libucrt:output.obj
 0001:00004fb5       ?find_next_state@?$output_processor@_WV?$stream_output_adapter@_W@__crt_stdio_output@@V?$standard_base@_WV?$stream_output_adapter@_W@__crt_stdio_output@@@2@@__crt_stdio_output@@ABE?AW4state@2@_WW432@@Z 00405fb5 f i libucrt:output.obj
 0001:00004fe9       ?force_decimal_point@__crt_stdio_output@@YAXPADQAU__crt_locale_pointers@@@Z 00405fe9 f i libucrt:output.obj
 0001:00005045       ?parse_int_from_format_string@?$output_processor@DV?$stream_output_adapter@D@__crt_stdio_output@@V?$standard_base@DV?$stream_output_adapter@D@__crt_stdio_output@@@2@@__crt_stdio_output@@AAE_NQAH@Z 00406045 f i libucrt:output.obj
 0001:00005045       ?parse_int_from_format_string@?$output_processor@DV?$string_output_adapter@D@__crt_stdio_output@@V?$standard_base@DV?$string_output_adapter@D@__crt_stdio_output@@@2@@__crt_stdio_output@@AAE_NQAH@Z 00406045 f i libucrt:output.obj
 0001:000050a1       ?parse_int_from_format_string@?$output_processor@_WV?$string_output_adapter@_W@__crt_stdio_output@@V?$standard_base@_WV?$string_output_adapter@_W@__crt_stdio_output@@@2@@__crt_stdio_output@@AAE_NQAH@Z 004060a1 f i libucrt:output.obj
 0001:000050a1       ?parse_int_from_format_string@?$output_processor@_WV?$stream_output_adapter@_W@__crt_stdio_output@@V?$standard_base@_WV?$stream_output_adapter@_W@__crt_stdio_output@@@2@@__crt_stdio_output@@AAE_NQAH@Z 004060a1 f i libucrt:output.obj
 0001:000050ff       ?process@?$output_processor@DV?$stream_output_adapter@D@__crt_stdio_output@@V?$standard_base@DV?$stream_output_adapter@D@__crt_stdio_output@@@2@@__crt_stdio_output@@QAEHXZ 004060ff f i libucrt:output.obj
 0001:0000521b       ?process@?$output_processor@DV?$string_output_adapter@D@__crt_stdio_output@@V?$standard_base@DV?$string_output_adapter@D@__crt_stdio_output@@@2@@__crt_stdio_output@@QAEHXZ 0040621b f i libucrt:output.obj
 0001:00005337       ?process@?$output_processor@_WV?$stream_output_adapter@_W@__crt_stdio_output@@V?$standard_base@_WV?$stream_output_adapter@_W@__crt_stdio_output@@@2@@__crt_stdio_output@@QAEHXZ 00406337 f i libucrt:output.obj
 0001:00005457       ?process@?$output_processor@_WV?$string_output_adapter@_W@__crt_stdio_output@@V?$standard_base@_WV?$string_output_adapter@_W@__crt_stdio_output@@@2@@__crt_stdio_output@@QAEHXZ 00406457 f i libucrt:output.obj
 0001:00005577       ?state_case_flag@?$output_processor@DV?$string_output_adapter@D@__crt_stdio_output@@V?$standard_base@DV?$string_output_adapter@D@__crt_stdio_output@@@2@@__crt_stdio_output@@AAE_NXZ 00406577 f i libucrt:output.obj
 0001:00005577       ?state_case_flag@?$output_processor@DV?$stream_output_adapter@D@__crt_stdio_output@@V?$standard_base@DV?$stream_output_adapter@D@__crt_stdio_output@@@2@@__crt_stdio_output@@AAE_NXZ 00406577 f i libucrt:output.obj
 0001:000055b4       ?state_case_flag@?$output_processor@_WV?$stream_output_adapter@_W@__crt_stdio_output@@V?$standard_base@_WV?$stream_output_adapter@_W@__crt_stdio_output@@@2@@__crt_stdio_output@@AAE_NXZ 004065b4 f i libucrt:output.obj
 0001:000055b4       ?state_case_flag@?$output_processor@_WV?$string_output_adapter@_W@__crt_stdio_output@@V?$standard_base@_WV?$string_output_adapter@_W@__crt_stdio_output@@@2@@__crt_stdio_output@@AAE_NXZ 004065b4 f i libucrt:output.obj
 0001:000055f1       ?state_case_normal@?$output_processor@DV?$stream_output_adapter@D@__crt_stdio_output@@V?$standard_base@DV?$stream_output_adapter@D@__crt_stdio_output@@@2@@__crt_stdio_output@@AAE_NXZ 004065f1 f i libucrt:output.obj
 0001:00005610       ?state_case_normal@?$output_processor@DV?$string_output_adapter@D@__crt_stdio_output@@V?$standard_base@DV?$string_output_adapter@D@__crt_stdio_output@@@2@@__crt_stdio_output@@AAE_NXZ 00406610 f i libucrt:output.obj
 0001:0000562f       ?state_case_normal@?$output_processor@_WV?$stream_output_adapter@_W@__crt_stdio_output@@V?$standard_base@_WV?$stream_output_adapter@_W@__crt_stdio_output@@@2@@__crt_stdio_output@@AAE_NXZ 0040662f f i libucrt:output.obj
 0001:0000564e       ?state_case_normal@?$output_processor@_WV?$string_output_adapter@_W@__crt_stdio_output@@V?$standard_base@_WV?$string_output_adapter@_W@__crt_stdio_output@@@2@@__crt_stdio_output@@AAE_NXZ 0040664e f i libucrt:output.obj
 0001:0000566d       ?state_case_normal_common@?$output_processor@DV?$stream_output_adapter@D@__crt_stdio_output@@V?$standard_base@DV?$stream_output_adapter@D@__crt_stdio_output@@@2@@__crt_stdio_output@@AAE_NXZ 0040666d f i libucrt:output.obj
 0001:00005697       ?state_case_normal_common@?$output_processor@DV?$string_output_adapter@D@__crt_stdio_output@@V?$standard_base@DV?$string_output_adapter@D@__crt_stdio_output@@@2@@__crt_stdio_output@@AAE_NXZ 00406697 f i libucrt:output.obj
 0001:000056c1       ?state_case_normal_common@?$output_processor@_WV?$stream_output_adapter@_W@__crt_stdio_output@@V?$standard_base@_WV?$stream_output_adapter@_W@__crt_stdio_output@@@2@@__crt_stdio_output@@AAE_NXZ 004066c1 f i libucrt:output.obj
 0001:000056dc       ?state_case_normal_common@?$output_processor@_WV?$string_output_adapter@_W@__crt_stdio_output@@V?$standard_base@_WV?$string_output_adapter@_W@__crt_stdio_output@@@2@@__crt_stdio_output@@AAE_NXZ 004066dc f i libucrt:output.obj
 0001:000056f7       ?state_case_normal_tchar@?$output_processor@DV?$stream_output_adapter@D@__crt_stdio_output@@V?$standard_base@DV?$stream_output_adapter@D@__crt_stdio_output@@@2@@__crt_stdio_output@@AAE_ND@Z 004066f7 f i libucrt:output.obj
 0001:00005758       ?state_case_normal_tchar@?$output_processor@DV?$string_output_adapter@D@__crt_stdio_output@@V?$standard_base@DV?$string_output_adapter@D@__crt_stdio_output@@@2@@__crt_stdio_output@@AAE_ND@Z 00406758 f i libucrt:output.obj
 0001:000057b9       ?state_case_precision@?$output_processor@DV?$string_output_adapter@D@__crt_stdio_output@@V?$standard_base@DV?$string_output_adapter@D@__crt_stdio_output@@@2@@__crt_stdio_output@@AAE_NXZ 004067b9 f i libucrt:output.obj
 0001:000057b9       ?state_case_precision@?$output_processor@DV?$stream_output_adapter@D@__crt_stdio_output@@V?$standard_base@DV?$stream_output_adapter@D@__crt_stdio_output@@@2@@__crt_stdio_output@@AAE_NXZ 004067b9 f i libucrt:output.obj
 0001:000057e1       ?state_case_precision@?$output_processor@_WV?$string_output_adapter@_W@__crt_stdio_output@@V?$standard_base@_WV?$string_output_adapter@_W@__crt_stdio_output@@@2@@__crt_stdio_output@@AAE_NXZ 004067e1 f i libucrt:output.obj
 0001:000057e1       ?state_case_precision@?$output_processor@_WV?$stream_output_adapter@_W@__crt_stdio_output@@V?$standard_base@_WV?$stream_output_adapter@_W@__crt_stdio_output@@@2@@__crt_stdio_output@@AAE_NXZ 004067e1 f i libucrt:output.obj
 0001:0000580a       ?state_case_size@?$output_processor@DV?$stream_output_adapter@D@__crt_stdio_output@@V?$standard_base@DV?$stream_output_adapter@D@__crt_stdio_output@@@2@@__crt_stdio_output@@AAE_NXZ 0040680a f i libucrt:output.obj
 0001:00005973       ?state_case_size@?$output_processor@DV?$string_output_adapter@D@__crt_stdio_output@@V?$standard_base@DV?$string_output_adapter@D@__crt_stdio_output@@@2@@__crt_stdio_output@@AAE_NXZ 00406973 f i libucrt:output.obj
 0001:00005adc       ?state_case_size@?$output_processor@_WV?$stream_output_adapter@_W@__crt_stdio_output@@V?$standard_base@_WV?$stream_output_adapter@_W@__crt_stdio_output@@@2@@__crt_stdio_output@@AAE_NXZ 00406adc f i libucrt:output.obj
 0001:00005c58       ?state_case_size@?$output_processor@_WV?$string_output_adapter@_W@__crt_stdio_output@@V?$standard_base@_WV?$string_output_adapter@_W@__crt_stdio_output@@@2@@__crt_stdio_output@@AAE_NXZ 00406c58 f i libucrt:output.obj
 0001:00005dd4       ?state_case_type@?$output_processor@DV?$stream_output_adapter@D@__crt_stdio_output@@V?$standard_base@DV?$stream_output_adapter@D@__crt_stdio_output@@@2@@__crt_stdio_output@@AAE_NXZ 00406dd4 f i libucrt:output.obj
 0001:00006003       ?state_case_type@?$output_processor@DV?$string_output_adapter@D@__crt_stdio_output@@V?$standard_base@DV?$string_output_adapter@D@__crt_stdio_output@@@2@@__crt_stdio_output@@AAE_NXZ 00407003 f i libucrt:output.obj
 0001:00006232       ?state_case_type@?$output_processor@_WV?$stream_output_adapter@_W@__crt_stdio_output@@V?$standard_base@_WV?$stream_output_adapter@_W@__crt_stdio_output@@@2@@__crt_stdio_output@@AAE_NXZ 00407232 f i libucrt:output.obj
 0001:0000648f       ?state_case_type@?$output_processor@_WV?$string_output_adapter@_W@__crt_stdio_output@@V?$standard_base@_WV?$string_output_adapter@_W@__crt_stdio_output@@@2@@__crt_stdio_output@@AAE_NXZ 0040748f f i libucrt:output.obj
 0001:000066ec       ?state_case_width@?$output_processor@DV?$stream_output_adapter@D@__crt_stdio_output@@V?$standard_base@DV?$stream_output_adapter@D@__crt_stdio_output@@@2@@__crt_stdio_output@@AAE_NXZ 004076ec f i libucrt:output.obj
 0001:000066ec       ?state_case_width@?$output_processor@DV?$string_output_adapter@D@__crt_stdio_output@@V?$standard_base@DV?$string_output_adapter@D@__crt_stdio_output@@@2@@__crt_stdio_output@@AAE_NXZ 004076ec f i libucrt:output.obj
 0001:00006717       ?state_case_width@?$output_processor@_WV?$stream_output_adapter@_W@__crt_stdio_output@@V?$standard_base@_WV?$stream_output_adapter@_W@__crt_stdio_output@@@2@@__crt_stdio_output@@AAE_NXZ 00407717 f i libucrt:output.obj
 0001:00006717       ?state_case_width@?$output_processor@_WV?$string_output_adapter@_W@__crt_stdio_output@@V?$standard_base@_WV?$string_output_adapter@_W@__crt_stdio_output@@@2@@__crt_stdio_output@@AAE_NXZ 00407717 f i libucrt:output.obj
 0001:00006743       ?to_integer_size@__crt_stdio_output@@YAIW4length_modifier@1@@Z 00407743 f i libucrt:output.obj
 0001:0000679f       ?type_case_Z@?$output_processor@DV?$stream_output_adapter@D@__crt_stdio_output@@V?$standard_base@DV?$stream_output_adapter@D@__crt_stdio_output@@@2@@__crt_stdio_output@@AAE_NXZ 0040779f f i libucrt:output.obj
 0001:0000679f       ?type_case_Z@?$output_processor@DV?$string_output_adapter@D@__crt_stdio_output@@V?$standard_base@DV?$string_output_adapter@D@__crt_stdio_output@@@2@@__crt_stdio_output@@AAE_NXZ 0040779f f i libucrt:output.obj
 0001:00006802       ?type_case_Z@?$output_processor@_WV?$string_output_adapter@_W@__crt_stdio_output@@V?$standard_base@_WV?$string_output_adapter@_W@__crt_stdio_output@@@2@@__crt_stdio_output@@AAE_NXZ 00407802 f i libucrt:output.obj
 0001:00006802       ?type_case_Z@?$output_processor@_WV?$stream_output_adapter@_W@__crt_stdio_output@@V?$standard_base@_WV?$stream_output_adapter@_W@__crt_stdio_output@@@2@@__crt_stdio_output@@AAE_NXZ 00407802 f i libucrt:output.obj
 0001:00006865       ?type_case_a@?$output_processor@DV?$stream_output_adapter@D@__crt_stdio_output@@V?$standard_base@DV?$stream_output_adapter@D@__crt_stdio_output@@@2@@__crt_stdio_output@@AAE_NXZ 00407865 f i libucrt:output.obj
 0001:00006865       ?type_case_a@?$output_processor@DV?$string_output_adapter@D@__crt_stdio_output@@V?$standard_base@DV?$string_output_adapter@D@__crt_stdio_output@@@2@@__crt_stdio_output@@AAE_NXZ 00407865 f i libucrt:output.obj
 0001:000069bf       ?type_case_a@?$output_processor@_WV?$stream_output_adapter@_W@__crt_stdio_output@@V?$standard_base@_WV?$stream_output_adapter@_W@__crt_stdio_output@@@2@@__crt_stdio_output@@AAE_NXZ 004079bf f i libucrt:output.obj
 0001:000069bf       ?type_case_a@?$output_processor@_WV?$string_output_adapter@_W@__crt_stdio_output@@V?$standard_base@_WV?$string_output_adapter@_W@__crt_stdio_output@@@2@@__crt_stdio_output@@AAE_NXZ 004079bf f i libucrt:output.obj
 0001:00006b31       ?type_case_c_tchar@?$output_processor@DV?$stream_output_adapter@D@__crt_stdio_output@@V?$standard_base@DV?$stream_output_adapter@D@__crt_stdio_output@@@2@@__crt_stdio_output@@AAE_ND@Z 00407b31 f i libucrt:output.obj
 0001:00006b31       ?type_case_c_tchar@?$output_processor@DV?$string_output_adapter@D@__crt_stdio_output@@V?$standard_base@DV?$string_output_adapter@D@__crt_stdio_output@@@2@@__crt_stdio_output@@AAE_ND@Z 00407b31 f i libucrt:output.obj
 0001:00006bc1       ?type_case_c_tchar@?$output_processor@_WV?$stream_output_adapter@_W@__crt_stdio_output@@V?$standard_base@_WV?$stream_output_adapter@_W@__crt_stdio_output@@@2@@__crt_stdio_output@@AAE_N_W@Z 00407bc1 f i libucrt:output.obj
 0001:00006bc1       ?type_case_c_tchar@?$output_processor@_WV?$string_output_adapter@_W@__crt_stdio_output@@V?$standard_base@_WV?$string_output_adapter@_W@__crt_stdio_output@@@2@@__crt_stdio_output@@AAE_N_W@Z 00407bc1 f i libucrt:output.obj
 0001:00006c59       ?type_case_integer@?$output_processor@DV?$stream_output_adapter@D@__crt_stdio_output@@V?$standard_base@DV?$stream_output_adapter@D@__crt_stdio_output@@@2@@__crt_stdio_output@@AAE_NI_N@Z 00407c59 f i libucrt:output.obj
 0001:00006c59       ?type_case_integer@?$output_processor@_WV?$stream_output_adapter@_W@__crt_stdio_output@@V?$standard_base@_WV?$stream_output_adapter@_W@__crt_stdio_output@@@2@@__crt_stdio_output@@AAE_NI_N@Z 00407c59 f i libucrt:output.obj
 0001:00006c59       ?type_case_integer@?$output_processor@_WV?$string_output_adapter@_W@__crt_stdio_output@@V?$standard_base@_WV?$string_output_adapter@_W@__crt_stdio_output@@@2@@__crt_stdio_output@@AAE_NI_N@Z 00407c59 f i libucrt:output.obj
 0001:00006c59       ?type_case_integer@?$output_processor@DV?$string_output_adapter@D@__crt_stdio_output@@V?$standard_base@DV?$string_output_adapter@D@__crt_stdio_output@@@2@@__crt_stdio_output@@AAE_NI_N@Z 00407c59 f i libucrt:output.obj
 0001:00006da3       ?type_case_n@?$output_processor@_WV?$string_output_adapter@_W@__crt_stdio_output@@V?$standard_base@_WV?$string_output_adapter@_W@__crt_stdio_output@@@2@@__crt_stdio_output@@AAE_NXZ 00407da3 f i libucrt:output.obj
 0001:00006da3       ?type_case_n@?$output_processor@DV?$string_output_adapter@D@__crt_stdio_output@@V?$standard_base@DV?$string_output_adapter@D@__crt_stdio_output@@@2@@__crt_stdio_output@@AAE_NXZ 00407da3 f i libucrt:output.obj
 0001:00006da3       ?type_case_n@?$output_processor@_WV?$stream_output_adapter@_W@__crt_stdio_output@@V?$standard_base@_WV?$stream_output_adapter@_W@__crt_stdio_output@@@2@@__crt_stdio_output@@AAE_NXZ 00407da3 f i libucrt:output.obj
 0001:00006da3       ?type_case_n@?$output_processor@DV?$stream_output_adapter@D@__crt_stdio_output@@V?$standard_base@DV?$stream_output_adapter@D@__crt_stdio_output@@@2@@__crt_stdio_output@@AAE_NXZ 00407da3 f i libucrt:output.obj
 0001:00006e17       ?type_case_o@?$output_processor@DV?$stream_output_adapter@D@__crt_stdio_output@@V?$standard_base@DV?$stream_output_adapter@D@__crt_stdio_output@@@2@@__crt_stdio_output@@AAE_NXZ 00407e17 f i libucrt:output.obj
 0001:00006e17       ?type_case_o@?$output_processor@DV?$string_output_adapter@D@__crt_stdio_output@@V?$standard_base@DV?$string_output_adapter@D@__crt_stdio_output@@@2@@__crt_stdio_output@@AAE_NXZ 00407e17 f i libucrt:output.obj
 0001:00006e17       ?type_case_o@?$output_processor@_WV?$string_output_adapter@_W@__crt_stdio_output@@V?$standard_base@_WV?$string_output_adapter@_W@__crt_stdio_output@@@2@@__crt_stdio_output@@AAE_NXZ 00407e17 f i libucrt:output.obj
 0001:00006e17       ?type_case_o@?$output_processor@_WV?$stream_output_adapter@_W@__crt_stdio_output@@V?$standard_base@_WV?$stream_output_adapter@_W@__crt_stdio_output@@@2@@__crt_stdio_output@@AAE_NXZ 00407e17 f i libucrt:output.obj
 0001:00006e36       ?type_case_p@?$output_processor@_WV?$string_output_adapter@_W@__crt_stdio_output@@V?$standard_base@_WV?$string_output_adapter@_W@__crt_stdio_output@@@2@@__crt_stdio_output@@AAE_NXZ 00407e36 f i libucrt:output.obj
 0001:00006e36       ?type_case_p@?$output_processor@DV?$string_output_adapter@D@__crt_stdio_output@@V?$standard_base@DV?$string_output_adapter@D@__crt_stdio_output@@@2@@__crt_stdio_output@@AAE_NXZ 00407e36 f i libucrt:output.obj
 0001:00006e36       ?type_case_p@?$output_processor@_WV?$stream_output_adapter@_W@__crt_stdio_output@@V?$standard_base@_WV?$stream_output_adapter@_W@__crt_stdio_output@@@2@@__crt_stdio_output@@AAE_NXZ 00407e36 f i libucrt:output.obj
 0001:00006e36       ?type_case_p@?$output_processor@DV?$stream_output_adapter@D@__crt_stdio_output@@V?$standard_base@DV?$stream_output_adapter@D@__crt_stdio_output@@@2@@__crt_stdio_output@@AAE_NXZ 00407e36 f i libucrt:output.obj
 0001:00006e4e       ?type_case_s@?$output_processor@DV?$stream_output_adapter@D@__crt_stdio_output@@V?$standard_base@DV?$stream_output_adapter@D@__crt_stdio_output@@@2@@__crt_stdio_output@@AAE_NXZ 00407e4e f i libucrt:output.obj
 0001:00006e4e       ?type_case_s@?$output_processor@DV?$string_output_adapter@D@__crt_stdio_output@@V?$standard_base@DV?$string_output_adapter@D@__crt_stdio_output@@@2@@__crt_stdio_output@@AAE_NXZ 00407e4e f i libucrt:output.obj
 0001:00006ec1       ?type_case_s@?$output_processor@_WV?$stream_output_adapter@_W@__crt_stdio_output@@V?$standard_base@_WV?$stream_output_adapter@_W@__crt_stdio_output@@@2@@__crt_stdio_output@@AAE_NXZ 00407ec1 f i libucrt:output.obj
 0001:00006ec1       ?type_case_s@?$output_processor@_WV?$string_output_adapter@_W@__crt_stdio_output@@V?$standard_base@_WV?$string_output_adapter@_W@__crt_stdio_output@@@2@@__crt_stdio_output@@AAE_NXZ 00407ec1 f i libucrt:output.obj
 0001:00006f35       ?type_case_s_compute_narrow_string_length@?$output_processor@_WV?$stream_output_adapter@_W@__crt_stdio_output@@V?$standard_base@_WV?$stream_output_adapter@_W@__crt_stdio_output@@@2@@__crt_stdio_output@@ABEHH_W@Z 00407f35 f i libucrt:output.obj
 0001:00006f35       ?type_case_s_compute_narrow_string_length@?$output_processor@_WV?$string_output_adapter@_W@__crt_stdio_output@@V?$standard_base@_WV?$string_output_adapter@_W@__crt_stdio_output@@@2@@__crt_stdio_output@@ABEHH_W@Z 00407f35 f i libucrt:output.obj
 0001:00006f75       ?validate@?$stream_output_adapter@D@__crt_stdio_output@@QBE_NXZ 00407f75 f i libucrt:output.obj
 0001:00006f96       ?validate@?$c_string_character_source@D@__crt_strtox@@QBE_NXZ 00407f96 f i libucrt:atox.obj
 0001:00006f96       ?validate@?$stream_output_adapter@_W@__crt_stdio_output@@QBE_NXZ 00407f96 f i libucrt:output.obj
 0001:00006f96       ?validate@?$string_output_adapter@_W@__crt_stdio_output@@QBE_NXZ 00407f96 f i libucrt:output.obj
 0001:00006f96       ?validate@?$c_string_character_source@_W@__crt_strtox@@QBE_NXZ 00407f96 f i libucrt:atox.obj
 0001:00006f96       ?validate@?$string_output_adapter@D@__crt_stdio_output@@QBE_NXZ 00407f96 f i libucrt:output.obj
 0001:00006fb1       ?validate_stream_is_ansi_if_required@?$__acrt_stdio_char_traits@D@@SA_NQAU_iobuf@@@Z 00407fb1 f i libucrt:output.obj
 0001:00007033       ?write_character@?$stream_output_adapter@D@__crt_stdio_output@@QBEXDQAH@Z 00408033 f i libucrt:output.obj
 0001:00007070       ?write_character@?$stream_output_adapter@_W@__crt_stdio_output@@QBEX_WQAH@Z 00408070 f i libucrt:output.obj
 0001:000070b0       ?write_character@?$string_output_adapter@D@__crt_stdio_output@@QBE_NDQAH@Z 004080b0 f i libucrt:output.obj
 0001:000070f2       ?write_character@?$string_output_adapter@_W@__crt_stdio_output@@QBE_N_WQAH@Z 004080f2 f i libucrt:output.obj
 0001:00007137       ?write_stored_string_tchar@?$output_processor@DV?$stream_output_adapter@D@__crt_stdio_output@@V?$standard_base@DV?$stream_output_adapter@D@__crt_stdio_output@@@2@@__crt_stdio_output@@AAE_ND@Z 00408137 f i libucrt:output.obj
 0001:000071de       ?write_stored_string_tchar@?$output_processor@DV?$string_output_adapter@D@__crt_stdio_output@@V?$standard_base@DV?$string_output_adapter@D@__crt_stdio_output@@@2@@__crt_stdio_output@@AAE_ND@Z 004081de f i libucrt:output.obj
 0001:00007285       ?write_stored_string_tchar@?$output_processor@_WV?$stream_output_adapter@_W@__crt_stdio_output@@V?$standard_base@_WV?$stream_output_adapter@_W@__crt_stdio_output@@@2@@__crt_stdio_output@@AAE_N_W@Z 00408285 f i libucrt:output.obj
 0001:00007310       ?write_stored_string_tchar@?$output_processor@_WV?$string_output_adapter@_W@__crt_stdio_output@@V?$standard_base@_WV?$string_output_adapter@_W@__crt_stdio_output@@@2@@__crt_stdio_output@@AAE_N_W@Z 00408310 f i libucrt:output.obj
 0001:0000739b       ?write_string@?$stream_output_adapter@D@__crt_stdio_output@@QBEXQBDHQAH1@Z 0040839b f i libucrt:output.obj
 0001:00007425       ?write_string@?$stream_output_adapter@_W@__crt_stdio_output@@QBEXQB_WHQAH1@Z 00408425 f i libucrt:output.obj
 0001:000074b2       ?write_string@?$string_output_adapter@D@__crt_stdio_output@@QBEXQBDHQAH1@Z 004084b2 f i libucrt:output.obj
 0001:00007545       ?write_string@?$string_output_adapter@_W@__crt_stdio_output@@QBEXQB_WHQAH1@Z 00408545 f i libucrt:output.obj
 0001:000075df       ___stdio_common_vfprintf   004085df f   libucrt:output.obj
 0001:00007656       ___stdio_common_vfwprintf  00408656 f   libucrt:output.obj
 0001:000076cd       ___stdio_common_vsprintf   004086cd f   libucrt:output.obj
 0001:000076f1       ___stdio_common_vswprintf  004086f1 f   libucrt:output.obj
 0001:000077d6       _fopen                     004087d6 f   libucrt:fopen.obj
 0001:000077ed       __fclose_nolock            004087ed f   libucrt:fclose.obj
 0001:00007863       _fclose                    00408863 f   libucrt:fclose.obj
 0001:000078e3       _feof                      004088e3 f   libucrt:feoferr.obj
 0001:0000790e       _ferror                    0040890e f   libucrt:feoferr.obj
 0001:00007939       __fread_nolock_s           00408939 f   libucrt:fread.obj
 0001:00007b05       _fread                     00408b05 f   libucrt:fread.obj
 0001:00007b22       _fread_s                   00408b22 f   libucrt:fread.obj
 0001:00007bb5       ??$assemble_floating_point_ind@N@__crt_strtox@@YAXAAN@Z 00408bb5 f i libucrt:input.obj
 0001:00007be4       ??$assemble_floating_point_infinity@N@__crt_strtox@@YAX_NAAN@Z 00408be4 f i libucrt:input.obj
 0001:00007c23       ??$assemble_floating_point_qnan@N@__crt_strtox@@YAX_NAAN@Z 00408c23 f i libucrt:input.obj
 0001:00007c62       ??$assemble_floating_point_snan@N@__crt_strtox@@YAX_NAAN@Z 00408c62 f i libucrt:input.obj
 0001:00007ca6       ??$assemble_floating_point_value_t@M@__crt_strtox@@YA?AW4SLD_STATUS@@_NH_KAAM@Z 00408ca6 f i libucrt:input.obj
 0001:00007cd6       ??$assemble_floating_point_value_t@N@__crt_strtox@@YA?AW4SLD_STATUS@@_NH_KAAN@Z 00408cd6 f i libucrt:input.obj
 0001:00007d35       ??$assemble_floating_point_zero@N@__crt_strtox@@YAX_NAAN@Z 00408d35 f i libucrt:input.obj
 0001:00007e33       ??$convert_decimal_string_to_floating_type@M@__crt_strtox@@YA?AW4SLD_STATUS@@ABUfloating_point_string@0@AAM@Z 00408e33 f i libucrt:input.obj
 0001:00007e56       ??$convert_decimal_string_to_floating_type@N@__crt_strtox@@YA?AW4SLD_STATUS@@ABUfloating_point_string@0@AAN@Z 00408e56 f i libucrt:input.obj
 0001:00007e79       ??$convert_hexadecimal_string_to_floating_type@M@__crt_strtox@@YA?AW4SLD_STATUS@@ABUfloating_point_string@0@AAM@Z 00408e79 f i libucrt:input.obj
 0001:00007e9c       ??$convert_hexadecimal_string_to_floating_type@N@__crt_strtox@@YA?AW4SLD_STATUS@@ABUfloating_point_string@0@AAN@Z 00408e9c f i libucrt:input.obj
 0001:00007ebf       ??$is_overflow_condition@_K@__crt_strtox@@YA_NI_K@Z 00408ebf f i libucrt:input.obj
 0001:00007f02       ??$make_input_adapter_character_source@V?$string_input_adapter@D@__crt_stdio_input@@@__crt_strtox@@YA?AV?$input_adapter_character_source@V?$string_input_adapter@D@__crt_stdio_input@@@0@QAV?$string_input_adapter@D@__crt_stdio_input@@_KQA_N@Z 00408f02 f i libucrt:input.obj
 0001:00007f20       ??$parse_floating_point@V?$input_adapter_character_source@V?$string_input_adapter@D@__crt_stdio_input@@@__crt_strtox@@M@__crt_strtox@@YA?AW4SLD_STATUS@@QAU__crt_locale_pointers@@V?$input_adapter_character_source@V?$string_input_adapter@D@__crt_stdio_input@@@0@QAM@Z 00408f20 f i libucrt:input.obj
 0001:00007f9b       ??$parse_floating_point@V?$input_adapter_character_source@V?$string_input_adapter@D@__crt_stdio_input@@@__crt_strtox@@N@__crt_strtox@@YA?AW4SLD_STATUS@@QAU__crt_locale_pointers@@V?$input_adapter_character_source@V?$string_input_adapter@D@__crt_stdio_input@@@0@QAN@Z 00408f9b f i libucrt:input.obj
 0001:00008016       ??$parse_floating_point_from_source@V?$input_adapter_character_source@V?$string_input_adapter@D@__crt_stdio_input@@@__crt_strtox@@@__crt_strtox@@YA?AW4floating_point_parse_result@0@QAU__crt_locale_pointers@@AAV?$input_adapter_character_source@V?$string_input_adapter@D@__crt_stdio_input@@@0@AAUfloating_point_string@0@@Z 00409016 f i libucrt:input.obj
 0001:0000847d       ??$parse_floating_point_possible_infinity@DV?$input_adapter_character_source@V?$string_input_adapter@D@__crt_stdio_input@@@__crt_strtox@@_K@__crt_strtox@@YA?AW4floating_point_parse_result@0@AADAAV?$input_adapter_character_source@V?$string_input_adapter@D@__crt_stdio_input@@@0@_K@Z 0040947d f i libucrt:input.obj
 0001:0000853e       ??$parse_floating_point_possible_nan@DV?$input_adapter_character_source@V?$string_input_adapter@D@__crt_stdio_input@@@__crt_strtox@@_K@__crt_strtox@@YA?AW4floating_point_parse_result@0@AADAAV?$input_adapter_character_source@V?$string_input_adapter@D@__crt_stdio_input@@@0@_K@Z 0040953e f i libucrt:input.obj
 0001:00008650       ??$parse_floating_point_possible_nan_is_ind@DV?$input_adapter_character_source@V?$string_input_adapter@D@__crt_stdio_input@@@__crt_strtox@@@__crt_strtox@@YA_NAADAAV?$input_adapter_character_source@V?$string_input_adapter@D@__crt_stdio_input@@@0@@Z 00409650 f i libucrt:input.obj
 0001:0000868a       ??$parse_floating_point_possible_nan_is_snan@DV?$input_adapter_character_source@V?$string_input_adapter@D@__crt_stdio_input@@@__crt_strtox@@@__crt_strtox@@YA_NAADAAV?$input_adapter_character_source@V?$string_input_adapter@D@__crt_stdio_input@@@0@@Z 0040968a f i libucrt:input.obj
 0001:000086c4       ??$parse_floating_point_write_result@M@__crt_strtox@@YA?AW4SLD_STATUS@@W4floating_point_parse_result@0@ABUfloating_point_string@0@QAM@Z 004096c4 f i libucrt:input.obj
 0001:000087d4       ??$parse_floating_point_write_result@N@__crt_strtox@@YA?AW4SLD_STATUS@@W4floating_point_parse_result@0@ABUfloating_point_string@0@QAN@Z 004097d4 f i libucrt:input.obj
 0001:000088d8       ??$parse_integer@_KV?$input_adapter_character_source@V?$string_input_adapter@D@__crt_stdio_input@@@__crt_strtox@@@__crt_strtox@@YA_KQAU__crt_locale_pointers@@V?$input_adapter_character_source@V?$string_input_adapter@D@__crt_stdio_input@@@0@H_N@Z 004098d8 f i libucrt:input.obj
 0001:00008b89       ??$process_floating_point_specifier_t@M@?$input_processor@DV?$string_input_adapter@D@__crt_stdio_input@@@__crt_stdio_input@@AAE_NXZ 00409b89 f i libucrt:input.obj
 0001:00008bf1       ??$process_floating_point_specifier_t@N@?$input_processor@DV?$string_input_adapter@D@__crt_stdio_input@@@__crt_stdio_input@@AAE_NXZ 00409bf1 f i libucrt:input.obj
 0001:00008c59       ??$process_string_specifier_tchar@D@?$input_processor@DV?$string_input_adapter@D@__crt_stdio_input@@@__crt_stdio_input@@AAE_NW4conversion_mode@1@D@Z 00409c59 f i libucrt:input.obj
 0001:00008dbb       ??$process_string_specifier_tchar@_W@?$input_processor@DV?$string_input_adapter@D@__crt_stdio_input@@@__crt_stdio_input@@AAE_NW4conversion_mode@1@_W@Z 00409dbb f i libucrt:input.obj
 0001:00008f27       ??$skip_whitespace@Vstring_input_adapter@__crt_stdio_input@@D@__crt_stdio_input@@YAHAAV?$string_input_adapter@D@0@QAU__crt_locale_pointers@@@Z 00409f27 f i libucrt:input.obj
 0001:00008f56       ??$write_floating_point@M@?$input_processor@DV?$string_input_adapter@D@__crt_stdio_input@@@__crt_stdio_input@@AAE_NABM@Z 00409f56 f i libucrt:input.obj
 0001:00008f8d       ??$write_floating_point@N@?$input_processor@DV?$string_input_adapter@D@__crt_stdio_input@@@__crt_stdio_input@@AAE_NABN@Z 00409f8d f i libucrt:input.obj
 0001:00008fca       ??0?$format_string_parser@D@__crt_stdio_input@@QAE@_KQBE@Z 00409fca f i libucrt:input.obj
 0001:00009014       ??0?$input_adapter_character_source@V?$string_input_adapter@D@__crt_stdio_input@@@__crt_strtox@@QAE@QAV?$string_input_adapter@D@__crt_stdio_input@@_KQA_N@Z 0040a014 f i libucrt:input.obj
 0001:00009045       ??0?$input_processor@DV?$string_input_adapter@D@__crt_stdio_input@@@__crt_stdio_input@@QAE@ABV?$string_input_adapter@D@1@_KQBDQAU__crt_locale_pointers@@QAD@Z 0040a045 f i libucrt:input.obj
 0001:000090b7       ?advance@?$format_string_parser@D@__crt_stdio_input@@QAE_NXZ 0040a0b7 f i libucrt:input.obj
 0001:000091d7       ?as_double@floating_point_value@__crt_strtox@@QBEAANXZ 0040a1d7 f i libucrt:input.obj
 0001:000091fc       ?as_float@floating_point_value@__crt_strtox@@QBEAAMXZ 0040a1fc f i libucrt:input.obj
 0001:00009221       ?assemble_floating_point_infinity@__crt_strtox@@YAX_NABVfloating_point_value@1@@Z 0040a221 f i libucrt:input.obj
 0001:0000925b       ?assemble_floating_point_value@__crt_strtox@@YA?AW4SLD_STATUS@@_KH_N1ABVfloating_point_value@1@@Z 0040a25b f i libucrt:input.obj
 0001:000095a7       ?assemble_floating_point_value_from_big_integer@__crt_strtox@@YA?AW4SLD_STATUS@@ABUbig_integer@1@I_N1ABVfloating_point_value@1@@Z 0040a5a7 f i libucrt:input.obj
 0001:00009735       ?assemble_floating_point_zero@__crt_strtox@@YAX_NABVfloating_point_value@1@@Z 0040a735 f i libucrt:input.obj
 0001:00009769       ?convert_decimal_string_to_floating_type_common@__crt_strtox@@YA?AW4SLD_STATUS@@ABUfloating_point_string@1@ABVfloating_point_value@1@@Z 0040a769 f i libucrt:input.obj
 0001:0000b52c       ?convert_hexadecimal_string_to_floating_type_common@__crt_strtox@@YA?AW4SLD_STATUS@@ABUfloating_point_string@1@ABVfloating_point_value@1@@Z 0040c52c f i libucrt:input.obj
 0001:0000b5d8       ?denormal_mantissa_mask@floating_point_value@__crt_strtox@@QBE_KXZ 0040c5d8 f i libucrt:input.obj
 0001:0000b5f0       ?divide@__crt_strtox@@YA_KAAUbig_integer@1@ABU21@@Z 0040c5f0 f i libucrt:input.obj
 0001:0000ba9e       ?get@?$input_adapter_character_source@V?$string_input_adapter@D@__crt_stdio_input@@@__crt_strtox@@QAEDXZ 0040ca9e f i libucrt:input.obj
 0001:0000bad8       ?get@?$string_input_adapter@D@__crt_stdio_input@@QAEHXZ 0040cad8 f i libucrt:input.obj
 0001:0000baee       ?invert@?$scanset_buffer@E@__crt_stdio_input@@QAEXXZ 0040caee f i libucrt:input.obj
 0001:0000bb0c       ?is_character_allowed_in_string@?$input_processor@DV?$string_input_adapter@D@__crt_stdio_input@@@__crt_stdio_input@@ABE_NW4conversion_mode@2@H@Z 0040cb0c f i libucrt:input.obj
 0001:0000bb52       ?length@?$format_string_parser@D@__crt_stdio_input@@QBEIXZ 0040cb52 f i libucrt:input.obj
 0001:0000bb93       ?normal_mantissa_mask@floating_point_value@__crt_strtox@@QBE_KXZ 0040cb93 f i libucrt:input.obj
 0001:0000bbaa       ?process@?$input_processor@DV?$string_input_adapter@D@__crt_stdio_input@@@__crt_stdio_input@@QAEHXZ 0040cbaa f i libucrt:input.obj
 0001:0000bc2f       ?process_character_count_specifier@?$input_processor@DV?$string_input_adapter@D@__crt_stdio_input@@@__crt_stdio_input@@AAE_NXZ 0040cc2f f i libucrt:input.obj
 0001:0000bc49       ?process_conversion_specifier@?$input_processor@DV?$string_input_adapter@D@__crt_stdio_input@@@__crt_stdio_input@@AAE_NXZ 0040cc49 f i libucrt:input.obj
 0001:0000bcbd       ?process_floating_point_specifier@?$input_processor@DV?$string_input_adapter@D@__crt_stdio_input@@@__crt_stdio_input@@AAE_NXZ 0040ccbd f i libucrt:input.obj
 0001:0000bced       ?process_integer_specifier@?$input_processor@DV?$string_input_adapter@D@__crt_stdio_input@@@__crt_stdio_input@@AAE_NI_N@Z 0040cced f i libucrt:input.obj
 0001:0000bd53       ?process_literal_character@?$input_processor@DV?$string_input_adapter@D@__crt_stdio_input@@@__crt_stdio_input@@AAE_NXZ 0040cd53 f i libucrt:input.obj
 0001:0000bd89       ?process_literal_character_tchar@?$input_processor@DV?$string_input_adapter@D@__crt_stdio_input@@@__crt_stdio_input@@AAE_ND@Z 0040cd89 f i libucrt:input.obj
 0001:0000bddf       ?process_state@?$input_processor@DV?$string_input_adapter@D@__crt_stdio_input@@@__crt_stdio_input@@AAE_NXZ 0040cddf f i libucrt:input.obj
 0001:0000be15       ?process_string_specifier@?$input_processor@DV?$string_input_adapter@D@__crt_stdio_input@@@__crt_stdio_input@@AAE_NW4conversion_mode@2@@Z 0040ce15 f i libucrt:input.obj
 0001:0000be5d       ?process_whitespace@?$input_processor@DV?$string_input_adapter@D@__crt_stdio_input@@@__crt_stdio_input@@AAE_NXZ 0040ce5d f i libucrt:input.obj
 0001:0000be7a       ?restore_state@?$input_adapter_character_source@V?$string_input_adapter@D@__crt_stdio_input@@@__crt_strtox@@QAE_N_K@Z 0040ce7a f i libucrt:input.obj
 0001:0000be9f       ?scan_conversion_specifier@?$format_string_parser@D@__crt_stdio_input@@AAE_NXZ 0040ce9f f i libucrt:input.obj
 0001:0000c00a       ?scan_optional_field_width@?$format_string_parser@D@__crt_stdio_input@@AAE_NXZ 0040d00a f i libucrt:input.obj
 0001:0000c0a9       ?scan_optional_length_modifier@?$format_string_parser@D@__crt_stdio_input@@AAEXXZ 0040d0a9 f i libucrt:input.obj
 0001:0000c1c9       ?scan_optional_literal_character_trail_bytes_tchar@?$format_string_parser@D@__crt_stdio_input@@AAE_ND@Z 0040d1c9 f i libucrt:input.obj
 0001:0000c21e       ?scan_optional_wide_modifier@?$format_string_parser@D@__crt_stdio_input@@AAEXXZ 0040d21e f i libucrt:input.obj
 0001:0000c23c       ?scan_scanset_range@?$format_string_parser@D@__crt_stdio_input@@AAE_NXZ 0040d23c f i libucrt:input.obj
 0001:0000c343       ?set@?$scanset_buffer@E@__crt_stdio_input@@QAEXE@Z 0040d343 f i libucrt:input.obj
 0001:0000c36e       ?set_wide_for_c_s_or_scanset@?$format_string_parser@D@__crt_stdio_input@@AAEXXZ 0040d36e f i libucrt:input.obj
 0001:0000c38e       ?test@?$scanset_buffer@E@__crt_stdio_input@@QBE_NE@Z 0040d38e f i libucrt:input.obj
 0001:0000c3bf       ?to_floating_point_length@__crt_stdio_input@@YAIW4length_modifier@1@@Z 0040d3bf f i libucrt:input.obj
 0001:0000c3e2       ?to_integer_length@__crt_stdio_input@@YAIW4length_modifier@1@@Z 0040d3e2 f i libucrt:input.obj
 0001:0000c43a       ?unget@?$input_adapter_character_source@V?$string_input_adapter@D@__crt_stdio_input@@@__crt_strtox@@QAEXD@Z 0040d43a f i libucrt:input.obj
 0001:0000c47b       ?unget@?$string_input_adapter@D@__crt_stdio_input@@QAEXH@Z 0040d47b f i libucrt:input.obj
 0001:0000c49a       ?validate@?$format_string_parser@D@__crt_stdio_input@@QBE_NXZ 0040d49a f i libucrt:input.obj
 0001:0000c4b6       ?validate@?$input_adapter_character_source@V?$string_input_adapter@D@__crt_stdio_input@@@__crt_strtox@@QBE_NXZ 0040d4b6 f i libucrt:input.obj
 0001:0000c4d7       ?validate@?$string_input_adapter@D@__crt_stdio_input@@QAE_NXZ 0040d4d7 f i libucrt:input.obj
 0001:0000c4f9       ?write_character@?$input_processor@DV?$string_input_adapter@D@__crt_stdio_input@@@__crt_stdio_input@@AAE_NQA_WIAAPA_WAAID@Z 0040d4f9 f i libucrt:input.obj
 0001:0000c56a       ?write_integer@?$input_processor@DV?$string_input_adapter@D@__crt_stdio_input@@@__crt_stdio_input@@AAE_N_K_N@Z 0040d56a f i libucrt:input.obj
 0001:0000c5e1       ___stdio_common_vsscanf    0040d5e1 f   libucrt:input.obj
 0001:0000c605       __chvalidchk_l             0040d605 f i libucrt:input.obj
 0001:0000c62f       __ischartype_l             0040d62f f i libucrt:input.obj
 0001:0000c6e3       _strtok                    0040d6e3 f   libucrt:strtok.obj
 0001:0000c7c6       _fgets                     0040d7c6 f   libucrt:fgets.obj
 0001:0000ca9f       __tolower_l                0040da9f f   libucrt:tolower_toupper.obj
 0001:0000cab9       __toupper_l                0040dab9 f   libucrt:tolower_toupper.obj
 0001:0000cad3       _tolower                   0040dad3 f   libucrt:tolower_toupper.obj
 0001:0000cb03       _toupper                   0040db03 f   libucrt:tolower_toupper.obj
 0001:0000cb33       ??$is_overflow_condition@K@__crt_strtox@@YA_NIK@Z 0040db33 f i libucrt:atox.obj
 0001:0000cb66       ??$parse_integer@KV?$c_string_character_source@D@__crt_strtox@@@__crt_strtox@@YAKQAU__crt_locale_pointers@@V?$c_string_character_source@D@0@H_N@Z 0040db66 f i libucrt:atox.obj
 0001:0000cd8e       ??$parse_integer@KV?$c_string_character_source@_W@__crt_strtox@@@__crt_strtox@@YAKQAU__crt_locale_pointers@@V?$c_string_character_source@_W@0@H_N@Z 0040dd8e f i libucrt:atox.obj
 0001:0000d473       ??$parse_integer@_KV?$c_string_character_source@D@__crt_strtox@@@__crt_strtox@@YA_KQAU__crt_locale_pointers@@V?$c_string_character_source@D@0@H_N@Z 0040e473 f i libucrt:atox.obj
 0001:0000d719       ?unget@?$c_string_character_source@D@__crt_strtox@@QAEXD@Z 0040e719 f i libucrt:atox.obj
 0001:0000d741       ?unget@?$c_string_character_source@_W@__crt_strtox@@QAEX_W@Z 0040e741 f i libucrt:atox.obj
 0001:0000d76d       _atol                      0040e76d f   libucrt:atox.obj
 0001:0000d76d       _atoi                      0040e76d f   libucrt:atox.obj
 0001:0000d797       _malloc                    0040e797 f   libucrt:malloc.obj
 0001:0000d7a2       _rand                      0040e7a2 f   libucrt:rand.obj
 0001:0000d7c3       ??$make_c_string_character_source@D$$T@__crt_strtox@@YA?AV?$c_string_character_source@D@0@QBD$$T@Z 0040e7c3 f i libucrt:atox.obj
 0001:0000d7c3       ??$make_c_string_character_source@DPAPAD@__crt_strtox@@YA?AV?$c_string_character_source@D@0@QBDQAPAD@Z 0040e7c3 f i libucrt:strtox.obj
 0001:0000d7c3       ??$make_c_string_character_source@_WPAPA_W@__crt_strtox@@YA?AV?$c_string_character_source@_W@0@QB_WQAPA_W@Z 0040e7c3 f i libucrt:strtox.obj
 0001:0000d7de       _strtol                    0040e7de f   libucrt:strtox.obj
 0001:0000d80a       _strtoull                  0040e80a f   libucrt:strtox.obj
 0001:0000d836       _wcstol                    0040e836 f   libucrt:strtox.obj
 0001:0000d862       ___acrt_stdio_flush_nolock 0040e862 f   libucrt:fflush.obj
 0001:0000d8c8       __fflush_nolock            0040e8c8 f   libucrt:fflush.obj
 0001:0000d90f       __flushall                 0040e90f f   libucrt:fflush.obj
 0001:0000d9f0       _fflush                    0040e9f0 f   libucrt:fflush.obj
 0001:0000da49       ??$?RV<lambda_11b4f7b0d3157825a5656a18eba1ae27>@@AAV<lambda_b51c0495177f500e782686251704ae76>@@V<lambda_cf89b47920b5017557bfe891e78aca36>@@@?$__crt_seh_guarded_call@I@@QAEI$$QAV<lambda_11b4f7b0d3157825a5656a18eba1ae27>@@AAV<lambda_b51c0495177f500e782686251704ae76>@@$$QAV<lambda_cf89b47920b5017557bfe891e78aca36>@@@Z 0040ea49 f i libucrt:fwrite.obj
 0001:0000da9a       ??$__acrt_lock_stream_and_call@V<lambda_b51c0495177f500e782686251704ae76>@@@@YAIQAU_iobuf@@$$QAV<lambda_b51c0495177f500e782686251704ae76>@@@Z 0040ea9a f i libucrt:fwrite.obj
 0001:0000db08       __fwrite_nolock            0040eb08 f   libucrt:fwrite.obj
 0001:0000dc81       _fwrite                    0040ec81 f   libucrt:fwrite.obj
 0001:0000e0ce       ??$loctotime@AAGAAGAAGAAGAAGAAGH@?$__crt_integer_traits@_J@@SA_JAAG00000$$QAH@Z 0040f0ce f i libucrt:stat.obj
 0001:0000e4c4       __stat64i32                0040f4c4 f   libucrt:stat.obj
 0001:0000e5a3       ??Rthread_parameter_free_policy@?A0xe57bf005@@QAEXQAU__acrt_thread_parameter@@@Z 0040f5a3 f i libucrt:thread.obj
 0001:0000e67a       __beginthread              0040f67a f   libucrt:thread.obj
 0001:0000e706       __endthread                0040f706 f   libucrt:thread.obj
 0001:0000e70e       __endthreadex              0040f70e f   libucrt:thread.obj
 0001:0000e71c       __strdup                   0040f71c f   libucrt:strdup.obj
 0001:0000e71c       _strdup                    0040f71c f   libucrt:strdup.obj
 0001:0000e772       _free                      0040f772 f   libucrt:free.obj
 0001:0000e777       ___acrt_call_reportfault   0040f777 f   libucrt:invalid_parameter.obj
 0001:0000e8b2       ___acrt_initialize_invalid_parameter_handler 0040f8b2 f   libucrt:invalid_parameter.obj
 0001:0000e8c6       __invalid_parameter        0040f8c6 f   libucrt:invalid_parameter.obj
 0001:0000e941       __invalid_parameter_noinfo 0040f941 f   libucrt:invalid_parameter.obj
 0001:0000e951       __invalid_parameter_noinfo_noreturn 0040f951 f   libucrt:invalid_parameter.obj
 0001:0000e96e       __invoke_watson            0040f96e f   libucrt:invalid_parameter.obj
 0001:0000e9b0       _strncpy                   0040f9b0 f   libucrt:strncpy.obj
 0001:0000ead4       ??$__crt_fast_encode_pointer@P6GXPAXK0@Z@@YAP6GXPAXK0@ZQ6GX0K0@Z@Z 0040fad4 f i libucrt:exit.obj
 0001:0000ead4       ??$__crt_fast_encode_pointer@P6AHXZ@@YAP6AHXZQ6AHXZ@Z 0040fad4 f i libucrt:onexit.obj
 0001:0000ead4       ??$__crt_fast_encode_pointer@P6AHPAU_exception@@@Z@@YAP6AHPAU_exception@@@ZQ6AH0@Z@Z 0040fad4 f i libucrt:matherr.obj
 0001:0000ecca       ___acrt_initialize_thread_local_exit_callback 0040fcca f   libucrt:exit.obj
 0001:0000ecd9       __c_exit                   0040fcd9 f   libucrt:exit.obj
 0001:0000ece8       __cexit                    0040fce8 f   libucrt:exit.obj
 0001:0000ecf7       __exit                     0040fcf7 f   libucrt:exit.obj
 0001:0000ed0d       __register_thread_local_exe_atexit_callback 0040fd0d f   libucrt:exit.obj
 0001:0000ed45       _exit                      0040fd45 f   libucrt:exit.obj
 0001:0000f2a7       __ftelli64_nolock          004102a7 f   libucrt:ftell.obj
 0001:0000f2b2       _ftell                     004102b2 f   libucrt:ftell.obj
 0001:0000f921       ??$ftprintf@PAU_iobuf@@PB_WABQB_WABQB_WABI@?$__crt_char_traits@_W@@SAH$$QAPAU_iobuf@@$$QAPB_WABQB_W2ABI@Z 00410921 f i libucrt:assert.obj
 0001:0000fa00       __vfwprintf_l              00410a00 f i libucrt:assert.obj
 0001:0000fa25       __vswprintf_c_l            00410a25 f i libucrt:assert.obj
 0001:0000fa54       __wassert                  00410a54 f   libucrt:assert.obj
 0001:0000fa9c       _fwprintf                  00410a9c f i libucrt:assert.obj
 0001:0000fab7       _swprintf                  00410ab7 f i libucrt:assert.obj
 0001:0000fad5       ?LongLongSub@@YAJ_J0PA_J@Z 00410ad5 f i libucrt:fseek.obj
 0001:0000fd8f       _fseek                     00410d8f f   libucrt:fseek.obj
 0001:0000fdaa       _calloc                    00410daa f   libucrt:calloc.obj
 0001:0000fdb5       _realloc                   00410db5 f   libucrt:realloc.obj
 0001:0000fdc0       _rename                    00410dc0 f   libucrt:rename.obj
 0001:0000fe86       _roundf                    00410e86 f   libucrt:roundf.obj
 0001:0000fed8       _fmaxf                     00410ed8 f   libucrt:fmaxf.obj
 0001:0000ff34       _fminf                     00410f34 f   libucrt:fminf.obj
 0001:0000ff90       __Strftime_l               00410f90 f   libucrt:strftime.obj
 0001:000100bf       _strftime                  004110bf f   libucrt:strftime.obj
 0001:0001015d       __time64                   0041115d f   libucrt:time.obj
 0001:00010429       __localtime64              00411429 f   libucrt:localtime.obj
 0001:00010450       ___acrt_initialize_new_handler 00411450 f   libucrt:new_handler.obj
 0001:00010464       __callnewh                 00411464 f   libucrt:new_handler.obj
 0001:000104a8       __query_new_handler        004114a8 f   libucrt:new_handler.obj
 0001:000104fa       __seh_filter_exe           004114fa f   libucrt:exception_filter.obj
 0001:0001066d       __query_app_type           0041166d f   libucrt:report_runtime_error.obj
 0001:00010673       __set_app_type             00411673 f   libucrt:report_runtime_error.obj
 0001:00010682       ___acrt_has_user_matherr   00411682 f   libucrt:matherr.obj
 0001:0001069b       ___acrt_initialize_user_matherr 0041169b f   libucrt:matherr.obj
 0001:000106af       ___acrt_invoke_user_matherr 004116af f   libucrt:matherr.obj
 0001:000106f8       ___setusermatherr          004116f8 f   libucrt:matherr.obj
 0001:000109a6       ___acrt_allocate_buffer_for_argv 004119a6 f   libucrt:argv_parsing.obj
 0001:000109fb       __configure_narrow_argv    004119fb f   libucrt:argv_parsing.obj
 0001:00010c0d       ??$uninitialize@A6AXAAPAPAD@Z@?$dual_state_global@PAPAD@__crt_state_management@@QAEXA6AXAAPAPAD@Z@Z 00411c0d f i libucrt:environment_initialization.obj
 0001:00010c0d       ??$uninitialize@A6AXAAPAPA_W@Z@?$dual_state_global@PAPA_W@__crt_state_management@@QAEXA6AXAAPAPA_W@Z@Z 00411c0d f i libucrt:environment_initialization.obj
 0001:00010c83       ___dcrt_get_or_create_narrow_environment_nolock 00411c83 f   libucrt:environment_initialization.obj
 0001:00010c88       ___dcrt_uninitialize_environments_nolock 00411c88 f   libucrt:environment_initialization.obj
 0001:00010cbf       __initialize_narrow_environment 00411cbf f   libucrt:environment_initialization.obj
 0001:00010cc4       __get_narrow_winmain_command_line 00411cc4 f   libucrt:argv_winmain.obj
 0001:00010d17       __initterm                 00411d17 f   libucrt:initterm.obj
 0001:00010d73       __initterm_e               00411d73 f   libucrt:initterm.obj
 0001:00010db8       __get_fmode                00411db8 f   libucrt:setmode.obj
 0001:00010de4       __set_fmode                00411de4 f   libucrt:setmode.obj
 0001:00010e21       __setmode_nolock           00411e21 f   libucrt:setmode.obj
 0001:00010ef2       ___acrt_set_locale_changed 00411ef2 f   libucrt:wsetlocale.obj
 0001:00010efd       ___acrt_uninitialize_locale 00411efd f   libucrt:wsetlocale.obj
 0001:00010f4f       __configthreadlocale       00411f4f f   libucrt:wsetlocale.obj
 0001:00010fb1       __query_new_mode           00411fb1 f   libucrt:new_mode.obj
 0001:00010fb7       __set_new_mode             00411fb7 f   libucrt:new_mode.obj
 0001:00010fe6       ___p__commode              00411fe6 f   libucrt:ncommode.obj
 0001:00010fec       ??$?RV<lambda_800076c951b434888f4765a74a194fcc>@@AAV<lambda_4e60a939b0d047cfe11ddc22648dfba9>@@V<lambda_6dbb1268764f43b569ce7b67e331d33a>@@@?$__crt_seh_guarded_call@H@@QAEH$$QAV<lambda_800076c951b434888f4765a74a194fcc>@@AAV<lambda_4e60a939b0d047cfe11ddc22648dfba9>@@$$QAV<lambda_6dbb1268764f43b569ce7b67e331d33a>@@@Z 00411fec f i libucrt:onexit.obj
 0001:0001103d       ??$?RV<lambda_995298e7d72eb4c2aab26c0585b3abe5>@@AAV<lambda_275893d493268fdec8709772e3fcec0e>@@V<lambda_293819299cbf9a7022e18b56a874bb5c>@@@?$__crt_seh_guarded_call@H@@QAEH$$QAV<lambda_995298e7d72eb4c2aab26c0585b3abe5>@@AAV<lambda_275893d493268fdec8709772e3fcec0e>@@$$QAV<lambda_293819299cbf9a7022e18b56a874bb5c>@@@Z 0041203d f i libucrt:onexit.obj
 0001:0001108e       ??$__acrt_lock_and_call@V<lambda_275893d493268fdec8709772e3fcec0e>@@@@YAHW4__acrt_lock_id@@$$QAV<lambda_275893d493268fdec8709772e3fcec0e>@@@Z 0041208e f i libucrt:onexit.obj
 0001:000110b6       ??$__acrt_lock_and_call@V<lambda_4e60a939b0d047cfe11ddc22648dfba9>@@@@YAHW4__acrt_lock_id@@$$QAV<lambda_4e60a939b0d047cfe11ddc22648dfba9>@@@Z 004120b6 f i libucrt:onexit.obj
 0001:0001133f       __crt_atexit               0041233f f   libucrt:onexit.obj
 0001:00011355       __execute_onexit_table     00412355 f   libucrt:onexit.obj
 0001:00011372       __initialize_onexit_table  00412372 f   libucrt:onexit.obj
 0001:000113af       __register_onexit_function 004123af f   libucrt:onexit.obj
 0001:00011407       ___acrt_uninitialize_command_line 00412407 f   libucrt:argv_data.obj
 0001:00011407       __should_initialize_environment 00412407 f   LIBCMT:env_mode.obj
 0001:000114c7       ___acrt_initialize         004124c7 f   libucrt:initialization.obj
 0001:000114d9       ___acrt_uninitialize       004124d9 f   libucrt:initialization.obj
 0001:000114eb       __controlfp_s              004124eb f   libucrt:contrlfp.obj
 0001:0001154a       _terminate                 0041254a f   libucrt:terminate.obj
 0001:00011586       ___ascii_stricmp           00412586 f   libucrt:stricmp.obj
 0001:000115c1       __stricmp                  004125c1 f   libucrt:stricmp.obj
 0001:000115c1       _stricmp                   004125c1 f   libucrt:stricmp.obj
 0001:00011609       __stricmp_l                00412609 f   libucrt:stricmp.obj
 0001:000116a3       _strnicmp                  004126a3 f   libucrt:strnicmp.obj
 0001:000116a3       __strnicmp                 004126a3 f   libucrt:strnicmp.obj
 0001:0001170f       __strnicmp_l               0041270f f   libucrt:strnicmp.obj
 0001:00011e50       __open                     00412e50 f   libucrt:open.obj
 0001:00011e50       _open                      00412e50 f   libucrt:open.obj
 0001:00011e68       __sopen_nolock             00412e68 f   libucrt:open.obj
 0001:00011eb9       __sopen_s                  00412eb9 f   libucrt:open.obj
 0001:00011ed9       __wsopen_nolock            00412ed9 f   libucrt:open.obj
 0001:000126ea       __read                     004136ea f   libucrt:read.obj
 0001:000126ea       _read                      004136ea f   libucrt:read.obj
 0001:000127fd       __read_nolock              004137fd f   libucrt:read.obj
 0001:00012bb2       ??$?RV<lambda_123407a5e2ac06da108355a851863b7a>@@AAV<lambda_2fe9b910cf3cbf4a0ab98a02ba45b3ec>@@V<lambda_ae55bdf541ad94d75914d381c370e64d>@@@?$__crt_seh_guarded_call@H@@QAEH$$QAV<lambda_123407a5e2ac06da108355a851863b7a>@@AAV<lambda_2fe9b910cf3cbf4a0ab98a02ba45b3ec>@@$$QAV<lambda_ae55bdf541ad94d75914d381c370e64d>@@@Z 00413bb2 f i libucrt:close.obj
 0001:00012c34       ??$__acrt_lowio_lock_fh_and_call@V<lambda_2fe9b910cf3cbf4a0ab98a02ba45b3ec>@@@@YAHH$$QAV<lambda_2fe9b910cf3cbf4a0ab98a02ba45b3ec>@@@Z 00413c34 f i libucrt:close.obj
 0001:00012c5c       _close                     00413c5c f   libucrt:close.obj
 0001:00012c5c       __close                    00413c5c f   libucrt:close.obj
 0001:00012cdb       __close_nolock             00413cdb f   libucrt:close.obj
 0001:00012d77       __unlink                   00413d77 f   libucrt:unlink.obj
 0001:00012d77       _unlink                    00413d77 f   libucrt:unlink.obj
 0001:00012d82       _remove                    00413d82 f   libucrt:unlink.obj
 0001:00012dcf       __access                   00413dcf f   libucrt:access.obj
 0001:00012dcf       _access                    00413dcf f   libucrt:access.obj
 0001:00012de7       __access_s                 00413de7 f   libucrt:access.obj
 0001:000133cc       __write                    004143cc f   libucrt:write.obj
 0001:000133cc       _write                     004143cc f   libucrt:write.obj
 0001:000134b7       __write_nolock             004144b7 f   libucrt:write.obj
 0001:000136c3       _strcpy_s                  004146c3 f   libucrt:strcpy_s.obj
 0001:0001371d       __free_base                0041471d f   libucrt:free_base.obj
 0001:00013757       __malloc_base              00414757 f   libucrt:malloc_base.obj
 0001:000137a5       _abort                     004147a5 f   libucrt:abort.obj
 0001:000137e8       __calloc_base              004147e8 f   libucrt:calloc_base.obj
 0001:00013845       __isdigit_l                00414845 f i libucrt:_ctype.obj
 0001:0001387d       __isspace_l                0041487d f i libucrt:_ctype.obj
 0001:000138b5       _isdigit                   004148b5 f i libucrt:_ctype.obj
 0001:000138e2       _isspace                   004148e2 f i libucrt:_ctype.obj
 0001:0001390f       ___acrt_errno_from_os_error 0041490f f   libucrt:errno.obj
 0001:00013952       ___acrt_errno_map_os_error 00414952 f   libucrt:errno.obj
 0001:00013975       ___doserrno                00414975 f   libucrt:errno.obj
 0001:00013988       __errno                    00414988 f   libucrt:errno.obj
 0001:0001399b       __mbtowc_l                 0041499b f   libucrt:mbtowc.obj
 0001:00013a95       _mbtowc                    00414a95 f   libucrt:mbtowc.obj
 0001:00013aaf       __wctomb_s_l               00414aaf f   libucrt:wctomb.obj
 0001:00013bd0       _wctomb_s                  00414bd0 f   libucrt:wctomb.obj
 0001:00013bed       _strnlen                   00414bed f   libucrt:strnlen.obj
 0001:00013d14       _wcsnlen                   00414d14 f   libucrt:strnlen.obj
 0001:00013ecb       ??$?RV<lambda_3518db117f0e7cdb002338c5d3c47b6c>@@AAV<lambda_b2ea41f6bbb362cd97d94c6828d90b61>@@V<lambda_abdedf541bb04549bc734292b4a045d4>@@@?$__crt_seh_guarded_call@X@@QAEX$$QAV<lambda_3518db117f0e7cdb002338c5d3c47b6c>@@AAV<lambda_b2ea41f6bbb362cd97d94c6828d90b61>@@$$QAV<lambda_abdedf541bb04549bc734292b4a045d4>@@@Z 00414ecb f i libucrt:per_thread_data.obj
 0001:00013f1b       ??$?RV<lambda_51b6e8b1eb166f2a3faf91f424b38130>@@AAV<lambda_6250bd4b2a391816dd638c3bf72b0bcb>@@V<lambda_0b5a4a3e68152e1d9b943535f5f47bed>@@@?$__crt_seh_guarded_call@X@@QAEX$$QAV<lambda_51b6e8b1eb166f2a3faf91f424b38130>@@AAV<lambda_6250bd4b2a391816dd638c3bf72b0bcb>@@$$QAV<lambda_0b5a4a3e68152e1d9b943535f5f47bed>@@@Z 00414f1b f i libucrt:per_thread_data.obj
 0001:00013f7c       ??$?RV<lambda_5b71d36f03204c0beab531769a5b5694>@@AAV<lambda_be2b3da3f62db62e9dad5dc70221a656>@@V<lambda_8f9ce462984622f9bf76b59e2aaaf805>@@@?$__crt_seh_guarded_call@X@@QAEX$$QAV<lambda_5b71d36f03204c0beab531769a5b5694>@@AAV<lambda_be2b3da3f62db62e9dad5dc70221a656>@@$$QAV<lambda_8f9ce462984622f9bf76b59e2aaaf805>@@@Z 00414f7c f i libucrt:per_thread_data.obj
 0001:00013fc7       ??$?RV<lambda_9df27f884b057bc3edfc946cb5b7cf47>@@AAV<lambda_e69574bed617af4e071282c136b37893>@@V<lambda_cc0d902bcbbeb830f749456577db4721>@@@?$__crt_seh_guarded_call@X@@QAEX$$QAV<lambda_9df27f884b057bc3edfc946cb5b7cf47>@@AAV<lambda_e69574bed617af4e071282c136b37893>@@$$QAV<lambda_cc0d902bcbbeb830f749456577db4721>@@@Z 00414fc7 f i libucrt:per_thread_data.obj
 0001:0001400f       ??$__acrt_lock_and_call@V<lambda_6250bd4b2a391816dd638c3bf72b0bcb>@@@@YAXW4__acrt_lock_id@@$$QAV<lambda_6250bd4b2a391816dd638c3bf72b0bcb>@@@Z 0041500f f i libucrt:per_thread_data.obj
 0001:00014037       ??$__acrt_lock_and_call@V<lambda_b2ea41f6bbb362cd97d94c6828d90b61>@@@@YAXW4__acrt_lock_id@@$$QAV<lambda_b2ea41f6bbb362cd97d94c6828d90b61>@@@Z 00415037 f i libucrt:per_thread_data.obj
 0001:0001405f       ??$__acrt_lock_and_call@V<lambda_be2b3da3f62db62e9dad5dc70221a656>@@@@YAXW4__acrt_lock_id@@$$QAV<lambda_be2b3da3f62db62e9dad5dc70221a656>@@@Z 0041505f f i libucrt:per_thread_data.obj
 0001:00014087       ??$__acrt_lock_and_call@V<lambda_e69574bed617af4e071282c136b37893>@@@@YAXW4__acrt_lock_id@@$$QAV<lambda_e69574bed617af4e071282c136b37893>@@@Z 00415087 f i libucrt:per_thread_data.obj
 0001:0001423d       ___acrt_getptd             0041523d f   libucrt:per_thread_data.obj
 0001:000142c1       ___acrt_getptd_noexit      004152c1 f   libucrt:per_thread_data.obj
 0001:00014346       ___acrt_initialize_ptd     00415346 f   libucrt:per_thread_data.obj
 0001:00014372       ___acrt_uninitialize_ptd   00415372 f   libucrt:per_thread_data.obj
 0001:0001438c       ___acrt_update_locale_info 0041538c f   libucrt:locale_update.obj
 0001:000143b9       ___acrt_update_multibyte_info 004153b9 f   libucrt:locale_update.obj
 0001:000143e6       ?__acrt_fp_classify@@YA?AW4__acrt_fp_class@@ABN@Z 004153e6 f i libucrt:cvt.obj
 0001:00014452       ?__acrt_fp_is_negative@@YA_NABN@Z 00415452 f i libucrt:cvt.obj
 0001:00014cb1       ___acrt_fp_format          00415cb1 f   libucrt:cvt.obj
 0001:00014e2d       __fputwc_nolock            00415e2d f   libucrt:fputwc.obj
 0001:00014f53       __fileno                   00415f53 f   libucrt:fileno.obj
 0001:00014f79       ___acrt_initialize_stdio   00415f79 f   libucrt:_file.obj
 0001:00015041       ___acrt_iob_func           00416041 f   libucrt:_file.obj
 0001:00015051       ___acrt_uninitialize_stdio 00416051 f   libucrt:_file.obj
 0001:0001509d       __lock_file                0041609d f   libucrt:_file.obj
 0001:000150b1       __unlock_file              004160b1 f   libucrt:_file.obj
 0001:000150c5       __fputc_nolock             004160c5 f   libucrt:fputc.obj
 0001:000150ee       __get_printf_count_output  004160ee f   libucrt:printf_count_output.obj
 0001:00015103       ___acrt_stdio_begin_temporary_buffering_nolock 00416103 f   libucrt:_sftbuf.obj
 0001:000151b8       ___acrt_stdio_end_temporary_buffering_nolock 004161b8 f   libucrt:_sftbuf.obj
 0001:0001535d       ___acrt_initialize_lowio   0041635d f   libucrt:ioinit.obj
 0001:000153b3       ___acrt_uninitialize_lowio 004163b3 f   libucrt:ioinit.obj
 0001:000153df       ?__acrt_stdio_allocate_stream@@YA?AV__crt_stdio_stream@@XZ 004163df f   libucrt:stream.obj
 0001:0001543e       ?__acrt_stdio_free_stream@@YAXV__crt_stdio_stream@@@Z 0041643e f   libucrt:stream.obj
 0001:0001553c       ??$__acrt_stdio_parse_mode@D@@YA?AU__acrt_stdio_stream_mode@@QBD@Z 0041653c f i libucrt:openfile.obj
 0001:000157f3       ?__acrt_stdio_parse_mode_D@@YA_NAAU__acrt_stdio_stream_mode@@@Z 004167f3 f i libucrt:openfile.obj
 0001:0001580e       ?__acrt_stdio_parse_mode_T@@YA_NAAU__acrt_stdio_stream_mode@@@Z 0041680e f i libucrt:openfile.obj
 0001:0001582d       ?__acrt_stdio_parse_mode_b@@YA_NAAU__acrt_stdio_stream_mode@@@Z 0041682d f i libucrt:openfile.obj
 0001:0001584d       ?__acrt_stdio_parse_mode_c@@YA_NAAU__acrt_stdio_stream_mode@@AA_N@Z 0041684d f i libucrt:openfile.obj
 0001:0001586f       ?__acrt_stdio_parse_mode_n@@YA_NAAU__acrt_stdio_stream_mode@@AA_N@Z 0041686f f i libucrt:openfile.obj
 0001:00015891       ?__acrt_stdio_parse_mode_plus@@YA_NAAU__acrt_stdio_stream_mode@@AA_N@Z 00416891 f i libucrt:openfile.obj
 0001:000158c6       ?__acrt_stdio_parse_mode_t@@YA_NAAU__acrt_stdio_stream_mode@@@Z 004168c6 f i libucrt:openfile.obj
 0001:000158e6       __openfile                 004168e6 f   libucrt:openfile.obj
 0001:000158f1       ___acrt_stdio_free_buffer_nolock 004168f1 f   libucrt:_freebuf.obj
 0001:00015ab0       ___acrt_stdio_refill_and_read_narrow_nolock 00416ab0 f   libucrt:_filbuf.obj
 0001:00015abb       ___pctype_func             00416abb f   libucrt:ctype.obj
 0001:00015ae1       _iswctype                  00416ae1 f   libucrt:iswctype.obj
 0001:00015b40       __isctype_l                00416b40 f   libucrt:isctype.obj
 0001:00015c12       __fgetc_nolock             00416c12 f   libucrt:fgetc.obj
 0001:00015c4e       __getc_nolock              00416c4e f   libucrt:fgetc.obj
 0001:00015c59       _fegetround                00416c59 f   libucrt:fegetround.obj
 0001:00015c64       ___acrt_strtok_s_novalidation 00416c64 f   libucrt:strtok_s.obj
 0001:00015d43       __isleadbyte_l             00416d43 f i libucrt:_wctype.obj
 0001:00015f99       ___acrt_LCMapStringA       00416f99 f   libucrt:lcmapstringa.obj
 0001:00015fe4       __freea_crt                00416fe4 f i libucrt:lcmapstringa.obj
 0001:00016004       ___acrt_initialize_locks   00417004 f   libucrt:locks.obj
 0001:00016045       ___acrt_lock               00417045 f   libucrt:locks.obj
 0001:0001605c       ___acrt_uninitialize_locks 0041705c f   libucrt:locks.obj
 0001:0001608d       ___acrt_unlock             0041708d f   libucrt:locks.obj
 0001:000160a4       ??$?RV<lambda_61cee617f5178ae960314fd4d05640a0>@@AAV<lambda_6978c1fb23f02e42e1d9e99668cc68aa>@@V<lambda_9cd88cf8ad10232537feb2133f08c833>@@@?$__crt_seh_guarded_call@H@@QAEH$$QAV<lambda_61cee617f5178ae960314fd4d05640a0>@@AAV<lambda_6978c1fb23f02e42e1d9e99668cc68aa>@@$$QAV<lambda_9cd88cf8ad10232537feb2133f08c833>@@@Z 004170a4 f i libucrt:commit.obj
 0001:0001613c       ??$__acrt_lowio_lock_fh_and_call@V<lambda_6978c1fb23f02e42e1d9e99668cc68aa>@@@@YAHH$$QAV<lambda_6978c1fb23f02e42e1d9e99668cc68aa>@@@Z 0041713c f i libucrt:commit.obj
 0001:00016164       __commit                   00417164 f   libucrt:commit.obj
 0001:00016599       ___acrt_stdio_flush_and_write_narrow_nolock 00417599 f   libucrt:_flsbuf.obj
 0001:000165a4       ___acrt_stdio_flush_and_write_wide_nolock 004175a4 f   libucrt:_flsbuf.obj
 0001:000165dc       __getdrive                 004175dc f   libucrt:drive.obj
 0001:00016760       __wfullpath                00417760 f   libucrt:fullpath.obj
 0001:000167b6       _wcspbrk                   004177b6 f   libucrt:wcspbrk.obj
 0001:000167fb       __wcsicmp                  004177fb f   libucrt:wcsicmp.obj
 0001:00016890       __wcsicmp_l                00417890 f   libucrt:wcsicmp.obj
 0001:00016970       ___acrt_copy_path_to_wide_string 00417970 f   libucrt:string_utilities.obj
 0001:00016b9c       ___acrt_AreFileApisANSI@0  00417b9c f   libucrt:winapi_thunks.obj
 0001:00016bea       ___acrt_CompareStringEx@36 00417bea f   libucrt:winapi_thunks.obj
 0001:00016c5e       ___acrt_FlsAlloc@4         00417c5e f   libucrt:winapi_thunks.obj
 0001:00016cb4       ___acrt_FlsFree@4          00417cb4 f   libucrt:winapi_thunks.obj
 0001:00016d0a       ___acrt_FlsGetValue@4      00417d0a f   libucrt:winapi_thunks.obj
 0001:00016d60       ___acrt_FlsSetValue@8      00417d60 f   libucrt:winapi_thunks.obj
 0001:00016db9       ___acrt_GetDateFormatEx@28 00417db9 f   libucrt:winapi_thunks.obj
 0001:00016e3b       ___acrt_GetFileInformationByHandleEx@16 00417e3b f   libucrt:winapi_thunks.obj
 0001:00016e9e       ___acrt_GetSystemTimePreciseAsFileTime@4 00417e9e f   libucrt:winapi_thunks.obj
 0001:00016ef4       ___acrt_GetTimeFormatEx@24 00417ef4 f   libucrt:winapi_thunks.obj
 0001:00016f64       ___acrt_InitializeCriticalSectionEx@12 00417f64 f   libucrt:winapi_thunks.obj
 0001:00016fc6       ___acrt_LCMapStringEx@36   00417fc6 f   libucrt:winapi_thunks.obj
 0001:0001704e       ___acrt_LocaleNameToLCID@8 0041804e f   libucrt:winapi_thunks.obj
 0001:000170aa       ___acrt_MessageBoxW@16     004180aa f   libucrt:winapi_thunks.obj
 0001:000170f3       ___acrt_RoInitialize@4     004180f3 f   libucrt:winapi_thunks.obj
 0001:00017145       ___acrt_RoUninitialize@0   00418145 f   libucrt:winapi_thunks.obj
 0001:0001718e       ___acrt_can_show_message_box 0041818e f   libucrt:winapi_thunks.obj
 0001:000171a7       ___acrt_get_parent_window  004181a7 f   libucrt:winapi_thunks.obj
 0001:00017226       ___acrt_initialize_winapi_thunks 00418226 f   libucrt:winapi_thunks.obj
 0001:0001724c       ___acrt_is_interactive     0041824c f   libucrt:winapi_thunks.obj
 0001:000172f2       ___acrt_is_packaged_app    004182f2 f   libucrt:winapi_thunks.obj
 0001:00017379       ___acrt_uninitialize_winapi_thunks 00418379 f   libucrt:winapi_thunks.obj
 0001:000173af       ___acrt_lowio_create_handle_array 004183af f   libucrt:osfinfo.obj
 0001:00017429       ___acrt_lowio_destroy_handle_array 00418429 f   libucrt:osfinfo.obj
 0001:0001745e       ___acrt_lowio_ensure_fh_exists 0041845e f   libucrt:osfinfo.obj
 0001:000174f6       ___acrt_lowio_lock_fh      004184f6 f   libucrt:osfinfo.obj
 0001:00017519       ___acrt_lowio_set_os_handle 00418519 f   libucrt:osfinfo.obj
 0001:000175ad       ___acrt_lowio_unlock_fh    004185ad f   libucrt:osfinfo.obj
 0001:000175d0       __alloc_osfhnd             004185d0 f   libucrt:osfinfo.obj
 0001:000176e2       __free_osfhnd              004186e2 f   libucrt:osfinfo.obj
 0001:00017773       __get_osfhandle            00418773 f   libucrt:osfinfo.obj
 0001:000177dd       ??$__crt_time_elapsed_leap_years@H@@YAHH@Z 004187dd f i libucrt:loctotime.obj
 0001:00017817       ??$__crt_time_is_leap_year@H@@YA_NH@Z 00418817 f i libucrt:loctotime.obj
 0001:00017a3a       ?__crt_time_is_day_valid@@YA_NHHH@Z 00418a3a f i libucrt:loctotime.obj
 0001:00017a81       ___loctotime64_t           00418a81 f   libucrt:loctotime.obj
 0001:00017c0f       __lseeki64                 00418c0f f   libucrt:lseek.obj
 0001:00017c2a       __lseeki64_nolock          00418c2a f   libucrt:lseek.obj
 0001:00017d32       __itow_s                   00418d32 f   libucrt:xtoa.obj
 0001:00017d67       __set_error_mode           00418d67 f   libucrt:set_error_mode.obj
 0001:00017da6       _wcscat_s                  00418da6 f   libucrt:wcscat_s.obj
 0001:00017e1b       _wcscpy_s                  00418e1b f   libucrt:wcscpy_s.obj
 0001:00017f68       _wcsncat_s                 00418f68 f   libucrt:wcsncat_s.obj
 0001:00018070       ___acrt_show_wide_message_box 00419070 f   libucrt:crtmbox.obj
 0001:0001807b       ??$?RV<lambda_d92cfe8357b99225085016881b624cb0>@@AAV<lambda_b721fa326cdb32351d23dfa67958c160>@@V<lambda_42d75b0848218ec137fa420c8ba9fdf9>@@@?$__crt_seh_guarded_call@H@@QAEH$$QAV<lambda_d92cfe8357b99225085016881b624cb0>@@AAV<lambda_b721fa326cdb32351d23dfa67958c160>@@$$QAV<lambda_42d75b0848218ec137fa420c8ba9fdf9>@@@Z 0041907b f i libucrt:setvbuf.obj
 0001:000180cc       ??$__acrt_lock_stream_and_call@V<lambda_b721fa326cdb32351d23dfa67958c160>@@@@YAHQAU_iobuf@@$$QAV<lambda_b721fa326cdb32351d23dfa67958c160>@@@Z 004190cc f i libucrt:setvbuf.obj
 0001:000181c1       _setvbuf                   004191c1 f   libucrt:setvbuf.obj
 0001:00018237       ??$?RV<lambda_a048d3beccc847880fc8490e18b82769>@@AAV<lambda_ec61778202f4f5fc7e7711acc23c3bca>@@V<lambda_f7496a158712204296dd6628a163878e>@@@?$__crt_seh_guarded_call@P6AXH@Z@@QAEP6AXH@Z$$QAV<lambda_a048d3beccc847880fc8490e18b82769>@@AAV<lambda_ec61778202f4f5fc7e7711acc23c3bca>@@$$QAV<lambda_f7496a158712204296dd6628a163878e>@@@Z 00419237 f i libucrt:signal.obj
 0001:00018291       ??$__acrt_lock_and_call@V<lambda_ec61778202f4f5fc7e7711acc23c3bca>@@@@YAP6AXH@ZW4__acrt_lock_id@@$$QAV<lambda_ec61778202f4f5fc7e7711acc23c3bca>@@@Z 00419291 f i libucrt:signal.obj
 0001:00018323       ___acrt_get_sigabrt_handler 00419323 f   libucrt:signal.obj
 0001:0001833a       ___acrt_initialize_signal_handlers 0041933a f   libucrt:signal.obj
 0001:00018375       ___fpecode                 00419375 f   libucrt:signal.obj
 0001:0001837e       _raise                     0041937e f   libucrt:signal.obj
 0001:00018586       __realloc_base             00419586 f   libucrt:realloc_base.obj
 0001:000185ef       __wrename                  004195ef f   libucrt:wrename.obj
 0001:0001861c       __fd_int                   0041961c f   libucrt:_test.obj
 0001:000186eb       __fdtest                   004196eb f   libucrt:_test.obj
 0001:000198ec       __Wcsftime_l               0041a8ec f   libucrt:wcsftime.obj
 0001:00019a6d       ?initialize@?$dual_state_global@H@__crt_state_management@@QAEXH@Z 0041aa6d f i libucrt:timeset.obj
 0001:00019a6d       ?initialize@?$dual_state_global@PAPAD@__crt_state_management@@QAEXQAPAD@Z 0041aa6d f i libucrt:environment_initialization.obj
 0001:00019a6d       ?initialize@?$dual_state_global@P6AHPAU_exception@@@Z@__crt_state_management@@QAEXQ6AHPAU_exception@@@Z@Z 0041aa6d f i libucrt:matherr.obj
 0001:00019a6d       ?initialize@?$dual_state_global@P6AXPB_W00II@Z@__crt_state_management@@QAEXQ6AXPB_W00II@Z@Z 0041aa6d f i libucrt:invalid_parameter.obj
 0001:00019a6d       ?initialize@?$dual_state_global@PAU__crt_locale_data@@@__crt_state_management@@QAEXQAU__crt_locale_data@@@Z 0041aa6d f i libucrt:initialization.obj
 0001:00019a6d       ?initialize@?$dual_state_global@P6AXH@Z@__crt_state_management@@QAEXQ6AXH@Z@Z 0041aa6d f i libucrt:signal.obj
 0001:00019a6d       ?initialize@?$dual_state_global@P6AHI@Z@__crt_state_management@@QAEXQ6AHI@Z@Z 0041aa6d f i libucrt:new_handler.obj
 0001:00019a6d       ?initialize@?$dual_state_global@J@__crt_state_management@@QAEXJ@Z 0041aa6d f i libucrt:timeset.obj
 0001:00019a9e       ___acrt_initialize_timeset 0041aa9e f   libucrt:timeset.obj
 0001:00019ad5       ___daylight                0041aad5 f   libucrt:timeset.obj
 0001:00019adb       ___dstbias                 0041aadb f   libucrt:timeset.obj
 0001:00019ae1       ___timezone                0041aae1 f   libucrt:timeset.obj
 0001:00019ae7       ___tzname                  0041aae7 f   libucrt:timeset.obj
 0001:00019aed       __get_daylight             0041aaed f   libucrt:timeset.obj
 0001:00019b19       __get_dstbias              0041ab19 f   libucrt:timeset.obj
 0001:00019b45       __get_timezone             0041ab45 f   libucrt:timeset.obj
 0001:00019d62       ___getgmtimebuf            0041ad62 f   libucrt:gmtime.obj
 0001:00019da0       __gmtime64_s               0041ada0 f   libucrt:gmtime.obj
 0001:0001a4f2       ___tzset                   0041b4f2 f   libucrt:tzset.obj
 0001:0001a543       __isindst                  0041b543 f   libucrt:tzset.obj
 0001:0001a94f       ??1?$argument_list@D@?A0xb0e4b824@@QAE@XZ 0041b94f f i libucrt:argv_wildcards.obj
 0001:0001a974       ?append@?$argument_list@D@?A0xb0e4b824@@QAEHQAD@Z 0041b974 f i libucrt:argv_wildcards.obj
 0001:0001a9a9       ?expand_if_necessary@?$argument_list@D@?A0xb0e4b824@@AAEHXZ 0041b9a9 f i libucrt:argv_wildcards.obj
 0001:0001aa30       ___acrt_expand_narrow_argv_wildcards 0041ba30 f   libucrt:argv_wildcards.obj
 0001:0001aa3b       ??$?RV<lambda_978dc153c237d78434369da87b74ff60>@@AAV<lambda_ad1ced32f4ac17aa236e5ef05d6b3b7c>@@V<lambda_4a8533e2866a575feecb8298ce776b0d>@@@?$__crt_seh_guarded_call@X@@QAEX$$QAV<lambda_978dc153c237d78434369da87b74ff60>@@AAV<lambda_ad1ced32f4ac17aa236e5ef05d6b3b7c>@@$$QAV<lambda_4a8533e2866a575feecb8298ce776b0d>@@@Z 0041ba3b f i libucrt:mbctype.obj
 0001:0001aa7e       ??$__acrt_lock_and_call@V<lambda_ad1ced32f4ac17aa236e5ef05d6b3b7c>@@@@YAXW4__acrt_lock_id@@$$QAV<lambda_ad1ced32f4ac17aa236e5ef05d6b3b7c>@@@Z 0041ba7e f i libucrt:mbctype.obj
 0001:0001af15       ___acrt_initialize_multibyte 0041bf15 f   libucrt:mbctype.obj
 0001:0001af33       ___acrt_update_thread_multibyte_data 0041bf33 f   libucrt:mbctype.obj
 0001:0001afd5       __setmbcp_nolock           0041bfd5 f   libucrt:mbctype.obj
 0001:0001b21f       __ismbblead                0041c21f f   libucrt:ismbbyte.obj
 0001:0001b237       ___acrt_initialize_command_line 0041c237 f   libucrt:argv_data.obj
 0001:0001b287       ___dcrt_get_narrow_environment_from_os 0041c287 f   libucrt:get_environment_from_os.obj
 0001:0001b64a       ___dcrt_set_variable_in_narrow_environment_nolock 0041c64a f   libucrt:setenv.obj
 0001:0001b655       ____lc_codepage_func       0041c655 f   libucrt:initctype.obj
 0001:0001b67c       ___acrt_locale_free_monetary 0041c67c f   libucrt:initmon.obj
 0001:0001b77a       ___acrt_locale_free_numeric 0041c77a f   libucrt:initnum.obj
 0001:0001b81f       ___acrt_locale_free_time   0041c81f f   libucrt:inittime.obj
 0001:0001b903       ___acrt_GetStringTypeA     0041c903 f   libucrt:getstringtypea.obj
 0001:0001ba20       ___acrt_add_locale_ref     0041ca20 f   libucrt:locale_refcounting.obj
 0001:0001ba9d       ___acrt_free_locale        0041ca9d f   libucrt:locale_refcounting.obj
 0001:0001bbe7       ___acrt_locale_add_lc_time_reference 0041cbe7 f   libucrt:locale_refcounting.obj
 0001:0001bc10       ___acrt_locale_free_lc_time_if_unreferenced 0041cc10 f   libucrt:locale_refcounting.obj
 0001:0001bc40       ___acrt_locale_release_lc_time_reference 0041cc40 f   libucrt:locale_refcounting.obj
 0001:0001bc69       ___acrt_release_locale_ref 0041cc69 f   libucrt:locale_refcounting.obj
 0001:0001bcea       ___acrt_update_thread_locale_data 0041ccea f   libucrt:locale_refcounting.obj
 0001:0001bd61       __updatetlocinfoEx_nolock  0041cd61 f   libucrt:locale_refcounting.obj
 0001:0001bdb1       __recalloc                 0041cdb1 f   libucrt:recalloc.obj
 0001:0001bdbc       __recalloc_base            0041cdbc f   libucrt:recalloc.obj
 0001:0001be29       ___acrt_initialize_heap    0041ce29 f   libucrt:heap_handle.obj
 0001:0001be3a       ___acrt_uninitialize_heap  0041ce3a f   libucrt:heap_handle.obj
 0001:0001be44       ___acrt_execute_initializers 0041ce44 f   libucrt:shared_initialization.obj
 0001:0001bec7       ___acrt_execute_uninitializers 0041cec7 f   libucrt:shared_initialization.obj
 0001:0001bfbf       __clearfp                  0041cfbf f   libucrt:ieee87.obj
 0001:0001c09d       __control87                0041d09d f   libucrt:ieee87.obj
 0001:0001c440       ___ascii_strnicmp          0041d440 f   libucrt:_strnicm.obj
 0001:0001c4a1       __chsize_nolock            0041d4a1 f   libucrt:chsize.obj
 0001:0001c632       __isatty                   0041d632 f   libucrt:isatty.obj
 0001:0001c688       __wremove                  0041d688 f   libucrt:wunlink.obj
 0001:0001c6b0       __waccess_s                0041d6b0 f   libucrt:waccess.obj
 0001:0001c770       __putwch_nolock            0041d770 f   libucrt:putwch.obj
 0001:0001c7b5       ___acrt_fp_strflt_to_string 0041d7b5 f   libucrt:_fptostr.obj
 0001:0001c871       ??0scoped_fp_state_reset@?A0x48fbfdd4@@QAE@XZ 0041d871 f i libucrt:cfout.obj
 0001:0001c89b       ___acrt_fltout             0041d89b f   libucrt:cfout.obj
 0001:0001dc37       __fcloseall                0041ec37 f   libucrt:closeall.obj
 0001:0001dce0       _strncmp                   0041ece0 f   libucrt:strncmp.obj
 0001:0001dd58       ___acrt_stdio_allocate_buffer_nolock 0041ed58 f   libucrt:_getbuf.obj
 0001:0001e058       __getfpcontrolword         0041f058 f   libucrt:_fenvutils.obj
 0001:0001e09b       __getfpstatusword          0041f09b f   libucrt:_fenvutils.obj
 0001:0001e143       __setfpcontrolword         0041f143 f   libucrt:_fenvutils.obj
 0001:0001e1c3       __setfpstatusword          0041f1c3 f   libucrt:_fenvutils.obj
 0001:0001e243       ___strncnt                 0041f243 f   libucrt:strncnt.obj
 0001:0001e4a5       __wgetcwd                  0041f4a5 f   libucrt:getcwd.obj
 0001:0001e4c1       __towlower_l               0041f4c1 f   libucrt:towlower.obj
 0001:0001e646       ___acrt_DownlevelLocaleNameToLCID 0041f646 f   libucrt:lcidtoname_downlevel.obj
 0001:0001e7eb       __mbstowcs_s_l             0041f7eb f   libucrt:mbstowcs.obj
 0001:0001ea3b       _getenv_s                  0041fa3b f   libucrt:getenv.obj
 0001:0001eaf7       _strncpy_s                 0041faf7 f   libucrt:strncpy_s.obj
 0001:0001ebf0       _qsort                     0041fbf0 f   libucrt:qsort.obj
 0001:0001ef90       _strpbrk                   0041ff90 f   libucrt:strpbrk.obj
 0001:0001efd0       __mbsdec                   0041ffd0 f   libucrt:mbsdec.obj
 0001:0001efe7       __mbsdec_l                 0041ffe7 f   libucrt:mbsdec.obj
 0001:0001f083       __strnicoll                00420083 f   libucrt:strnicol.obj
 0001:0001f0ac       __strnicoll_l              004200ac f   libucrt:strnicol.obj
 0001:0001f176       __msize                    00420176 f   libucrt:msize.obj
 0001:0001f1a9       ___set_fpsr_sse2           004201a9 f   libucrt:fpctrl.obj
 0001:0001f21f       __clrfp                    0042021f f   libucrt:fpctrl.obj
 0001:0001f232       __ctrlfp                   00420232 f   libucrt:fpctrl.obj
 0001:0001f25e       __set_statfp               0042025e f   libucrt:fpctrl.obj
 0001:0001f2b9       __statfp                   004202b9 f   libucrt:fpctrl.obj
 0001:0001f2cb       ___dcrt_lowio_initialize_console_output 004202cb f   libucrt:initcon.obj
 0001:0001f2ea       ___dcrt_terminate_console_output 004202ea f   libucrt:initcon.obj
 0001:0001f301       _fegetenv                  00420301 f   libucrt:fegetenv.obj
 0001:0001f31e       _fesetenv                  0042031e f   libucrt:fesetenv.obj
 0001:0001f367       _feholdexcept              00420367 f   libucrt:feholdexcept.obj
 0001:0001f3c0       _log10                     004203c0 f   libucrt:log10.obj
 0001:0001f400       __CIlog10                  00420400 f   libucrt:log10.obj
 0001:0001f43b       __CIlog10_default          0042043b f   libucrt:log10.obj
 0001:0001f44f       __log10_default            0042044f     libucrt:log10.obj
 0001:0001f510       _ceil                      00420510 f   libucrt:ceil_pentium4.obj
 0001:0001f550       __ceil_pentium4            00420550 f   libucrt:ceil_pentium4.obj
 0001:0001f62d       ___acrt_LCMapStringW       0042062d f   libucrt:lcmapstringw.obj
 0001:0001f913       ___acrt_CompareStringA     00420913 f   libucrt:comparestringa.obj
 0001:0001f95b       ___acrt_initialize_sse2    0042095b f   libucrt:mathfcns.obj
 0001:0001f970       __CIlog10_pentium4         00420970 f   libucrt:log10_pentium4.obj
 0001:0001f988       __log10_pentium4           00420988     libucrt:log10_pentium4.obj
 0001:0001fc11       __fFEXP                    00420c11     libucrt:87tran.obj
 0001:0001fc68       __rtinfpopse               00420c68     libucrt:87tran.obj
 0001:0001fc6a       __rtinfnpopse              00420c6a     libucrt:87tran.obj
 0001:0001fc7a       __fFLN                     00420c7a     libucrt:87tran.obj
 0001:0001fd2f       __rtinfpop                 00420d2f     libucrt:87tran.obj
 0001:0001fd31       __rtinfnpop                00420d31     libucrt:87tran.obj
 0001:0001fd4e       __ffexpm1                  00420d4e     libucrt:87tran.obj
 0001:0001fe00       __trandisp1                00420e00 f   libucrt:87disp.obj
 0001:0001fe67       __trandisp2                00420e67 f   libucrt:87disp.obj
 0001:0001fef3       __rttospopde               00420ef3     libucrt:87disp.obj
 0001:0001fef8       __rttospop                 00420ef8     libucrt:87disp.obj
 0001:0001fefa       __rtnospop                 00420efa     libucrt:87disp.obj
 0001:0001fefc       __rttosnpop                00420efc     libucrt:87disp.obj
 0001:0001fefd       __rtnospopde               00420efd     libucrt:87disp.obj
 0001:0001ff04       __rtzeropop                00420f04     libucrt:87disp.obj
 0001:0001ff06       __rtzeronpop               00420f06     libucrt:87disp.obj
 0001:0001ff0b       __rtzerospop               00420f0b     libucrt:87disp.obj
 0001:0001ff18       __rtonepop                 00420f18     libucrt:87disp.obj
 0001:0001ff1a       __rtonenpop                00420f1a     libucrt:87disp.obj
 0001:0001ff1f       __tosnan1                  00420f1f     libucrt:87disp.obj
 0001:0001ff4a       __nosnan2                  00420f4a     libucrt:87disp.obj
 0001:0001ff4c       __tosnan2                  00420f4c     libucrt:87disp.obj
 0001:0001ff74       __nan2                     00420f74     libucrt:87disp.obj
 0001:0001ffb3       __rtindfpop                00420fb3     libucrt:87disp.obj
 0001:0001ffb5       __rtindfnpop               00420fb5     libucrt:87disp.obj
 0001:0001ffc6       __rttosnpopde              00420fc6     libucrt:87disp.obj
 0001:0001ffd0       __rtatan2inf               00420fd0     libucrt:87disp.obj
 0001:0001ffed       __rtchsifneg               00420fed     libucrt:87disp.obj
 0001:00020000       __twoToTOS                 00421000 f   libucrt:common.obj
 0001:00020015       __load_CW                  00421015 f   libucrt:common.obj
 0001:0002002c       __convertTOStoQNaN         0042102c f   libucrt:common.obj
 0001:00020045       __fload_withFB             00421045 f   libucrt:common.obj
 0001:00020088       __checkTOS_withFB          00421088 f   libucrt:common.obj
 0001:0002009e       __fast_exit                0042109e f   libucrt:common.obj
 0001:000200ab       __math_exit                004210ab f   libucrt:common.obj
 0001:000200d5       __check_overflow_exit      004210d5 f   libucrt:common.obj
 0001:000200e9       __check_range_exit         004210e9 f   libucrt:common.obj
 0001:00020190       __startTwoArgErrorHandling 00421190 f   libucrt:genexcep.obj
 0001:000201a7       __startOneArgErrorHandling 004211a7 f   libucrt:genexcep.obj
 0001:000201e3       ___libm_error_support      004211e3 f   libucrt:libm_error.obj
 0001:000203fb       __ceil_default             004213fb f   libucrt:ceil.obj
 0001:000204b4       __d_inttype                004214b4 f   libucrt:powhlp.obj
 0001:0002051e       __powhlp                   0042151e f   libucrt:powhlp.obj
 0001:00020649       __87except                 00421649 f   libucrt:87except.obj
 0001:00020754       __frnd                     00421754 f   libucrt:frnd.obj
 0001:0002076a       __errcode                  0042176a f   libucrt:fpexcept.obj
 0001:0002079e       __except1                  0042179e f   libucrt:fpexcept.obj
 0001:0002086c       __handle_exc               0042186c f   libucrt:fpexcept.obj
 0001:00020a4c       __raise_exc                00421a4c f   libucrt:fpexcept.obj
 0001:00020a6f       __raise_exc_ex             00421a6f f   libucrt:fpexcept.obj
 0001:00020d60       __set_errno_from_matherr   00421d60 f   libucrt:fpexcept.obj
 0001:00020d8f       __umatherr                 00421d8f f   libucrt:fpexcept.obj
 0001:00020e31       __decomp                   00421e31 f   libucrt:util.obj
 0001:00020f05       __set_exp                  00421f05 f   libucrt:util.obj
 0001:00020f34       __sptype                   00421f34 f   libucrt:util.obj
 0001:00020f92       __fpclass                  00421f92 f   libucrt:ieeemisc.obj
 0001:00021036       __EH_prolog3_catch         00422036 f   LIBCMT:ehprolg3.obj
 0001:00021070       __FindPESection            00422070 f   LIBCMT:pesect.obj
 0001:000210c0       __IsNonwritableInCurrentImage 004220c0 f   LIBCMT:pesect.obj
 0001:00021180       __ValidateImageBase        00422180 f   LIBCMT:pesect.obj
 0001:000211c0       __aulldvrm                 004221c0 f   LIBCMT:ulldvrm.obj
 0001:00021260       __allmul                   00422260 f   LIBCMT:llmul.obj
 0001:000212a0       __allshl                   004222a0 f   LIBCMT:llshl.obj
 0001:000212c0       __aullshr                  004222c0 f   LIBCMT:ullshr.obj
 0001:000212e0       __SEH_prolog4_GS           004222e0 f   LIBCMT:_sehprolg4gs_.obj
 0001:00021329       __SEH_epilog4_GS           00422329 f   LIBCMT:_sehprolg4gs_.obj
 0001:00021340       __alldiv                   00422340 f   LIBCMT:lldiv.obj
 0001:000213f0       __chkstk                   004223f0 f   LIBCMT:chkstk.obj
 0001:000213f0       __alloca_probe             004223f0 f   LIBCMT:chkstk.obj
 0001:00021420       __alldvrm                  00422420 f   LIBCMT:lldvrm.obj
 0001:00021500       __allrem                   00422500 f   LIBCMT:llrem.obj
 0001:000215c0       __alloca_probe_16          004225c0 f   LIBCMT:alloca16.obj
 0001:000215d6       __alloca_probe_8           004225d6     LIBCMT:alloca16.obj
 0001:000215f0       __ftol2_sse                004225f0 f   LIBCMT:_ftol2_.obj
 0001:000215f9       __ftol2_pentium4           004225f9 f   LIBCMT:_ftol2_.obj
 0001:0002160c       __ftol2_sse_excpt          0042260c f   LIBCMT:_ftol2_.obj
 0001:00021630       __ftol2                    00422630 f   LIBCMT:_ftol2_.obj
 0001:000216a6       _RtlUnwind@16              004226a6 f   kernel32:KERNEL32.dll
 0001:000216b0       _memcpy                    004226b0 f   libvcruntime:memcpy.obj
 0001:00021c24       _wcsrchr                   00422c24 f   libvcruntime:wcsrchr.obj
 0001:00021cd0       ?CRC32@@YAIPBDH@Z          00422cd0 f   crc.obj
 0001:00021d00       ?CRC32Incremental@@YAIIPBDH@Z 00422d00 f   crc.obj
 0001:00021d30       ?MDStringBytes@@YAXPADPAEI@Z 00422d30 f   md5.obj
 0001:00021da0       ?MDString@@YAXPADPAE@Z     00422da0 f   md5.obj
 0001:00022900       ?RscFileLoad@@YA_NPADP6A_N0HH0@Z@Z 00423900 f   rscload.obj
 0001:00022940       ?CompactAccounts@@YAXXZ    00423940 f   account.obj
 0001:00022990       ?DeleteAccountIfUnused@@YAXPAUaccount_node_struct@@@Z 00423990 f   account.obj
 0001:000229a0       ?DeleteAccountsIfUnused@@YAXXZ 004239a0 f   account.obj
 0001:000229d0       ?DeleteAccountAndAssociatedUsersByID@@YAXH@Z 004239d0 f   account.obj
 0001:00022ad0       ?ForEachAccountWithString@@YAXP6AXPAUaccount_node_struct@@PAD@Z1@Z 00423ad0 f   account.obj
 0001:00022b30       ?ForEachAccount@@YAXP6AXPAUaccount_node_struct@@@Z@Z 00423b30 f   account.obj
 0001:00022b50       ?DoneLoadAccounts@@YAXXZ   00423b50 f   account.obj
 0001:00022b60       ?AccountLogoff@@YAXPAUaccount_node_struct@@@Z 00423b60 f   account.obj
 0001:00022b70       ?AccountLoginByName@@YAPAUaccount_node_struct@@PAD@Z 00423b70 f   account.obj
 0001:00022d00       ?GetAccountByName@@YAPAUaccount_node_struct@@PAD@Z 00423d00 f   account.obj
 0001:00022d40       ?GetAccountByID@@YAPAUaccount_node_struct@@H@Z 00423d40 f   account.obj
 0001:00022d60       ?GetActiveAccountCount@@YAHXZ 00423d60 f   account.obj
 0001:00022d90       ?SuspendAccountRelative@@YADPAUaccount_node_struct@@H@Z 00423d90 f   account.obj
 0001:00022dd0       ?SuspendAccountAbsolute@@YADPAUaccount_node_struct@@H@Z 00423dd0 f   account.obj
 0001:00022ec0       ?SetAccountEmail@@YAXPAUaccount_node_struct@@PAD@Z 00423ec0 f   account.obj
 0001:00022f80       ?SetAccountPasswordAlreadyEncrypted@@YAXPAUaccount_node_struct@@PAD@Z 00423f80 f   account.obj
 0001:00023040       ?SetAccountPassword@@YAXPAUaccount_node_struct@@PAD@Z 00424040 f   account.obj
 0001:00023130       ?SetAccountName@@YAXPAUaccount_node_struct@@PAD@Z 00424130 f   account.obj
 0001:000231f0       ?DeleteAccount@@YADH@Z     004241f0 f   account.obj
 0001:00023370       ?LoadAccount@@YAXHPAD00HHHH@Z 00424370 f   account.obj
 0001:00023580       ?RecreateAccountSecurePassword@@YAHHPAD00H@Z 00424580 f   account.obj
 0001:00023840       ?CreateAccountSecurePassword@@YAHPAD00H@Z 00424840 f   account.obj
 0001:00023b70       ?CreateAccount@@YADPAD00HPAH@Z 00424b70 f   account.obj
 0001:00023dd0       ?AccountValidateEmail@@YA_NPAD@Z 00424dd0 f   account.obj
 0001:00023e00       ?InsertAccount@@YAXPAUaccount_node_struct@@@Z 00424e00 f   account.obj
 0001:00023e40       ?GetUsedGuestAccounts@@YAHXZ 00424e40 f   account.obj
 0001:00023e60       ?CountUsedGuestAccounts@@YAXPAUsession_node@@@Z 00424e60 f   account.obj
 0001:00023e90       ?SetNextAccountID@@YAXH@Z  00424e90 f   account.obj
 0001:00023ea0       ?GetNextAccountID@@YAHXZ   00424ea0 f   account.obj
 0001:00023eb0       ?GetConsoleAccount@@YAPAUaccount_node_struct@@XZ 00424eb0 f   account.obj
 0001:00023ec0       ?ResetAccount@@YAXXZ       00424ec0 f   account.obj
 0001:00023fa0       ?InitAccount@@YAXXZ        00424fa0 f   account.obj
 0001:000240c0       ?AdminInputChar@@YAXPAUsession_node@@D@Z 004250c0 f   admin.obj
 0001:000241a0       ?AdminProcessSessionBuffer@@YAXPAUsession_node@@@Z 004251a0 f   admin.obj
 0001:00024250       ?AdminExit@@YAXPAUsession_node@@@Z 00425250 f   admin.obj
 0001:00024260       ?AdminInit@@YAXPAUsession_node@@@Z 00425260 f   admin.obj
 0001:00024290       ?LookupAdminConstant@@YADPBDPAH@Z 00425290 f   admincons.obj
 0001:000242d0       ?LoadAdminConstants@@YAXXZ 004252d0 f   admincons.obj
 0001:00024500       ?AddAdminConstant@@YAXPADH@Z 00425500 f   admincons.obj
 0001:000245c0       ?ResetAdminConstants@@YAXXZ 004255c0 f   admincons.obj
 0001:00024630       ?AdminMark@@YAXHQA_KHQAUparm_node@@@Z 00425630 f   adminfn.obj
 0001:00024670       ?AdminRead@@YAXHQA_KHQAUparm_node@@@Z 00425670 f   adminfn.obj
 0001:000247d0       ?AdminSayEachAdminSession@@YAXPAUsession_node@@@Z 004257d0 f   adminfn.obj
 0001:00024870       ?AdminSay@@YAXHQA_KHQAUparm_node@@@Z 00425870 f   adminfn.obj
 0001:000248a0       ?AdminEnableSysTimer@@YAXHQA_KHQAUparm_node@@@Z 004258a0 f   adminfn.obj
 0001:000248e0       ?AdminDisableSysTimer@@YAXHQA_KHQAUparm_node@@@Z 004258e0 f   adminfn.obj
 0001:00024920       ?AdminReloadPackages@@YAXHQA_KHQAUparm_node@@@Z 00425920 f   adminfn.obj
 0001:00024980       ?AdminReloadMotd@@YAXHQA_KHQAUparm_node@@@Z 00425980 f   adminfn.obj
 0001:000249f0       ?AdminReloadGameEachSession@@YAXPAUsession_node@@@Z 004259f0 f   adminfn.obj
 0001:00024a10       ?AdminDeleteUnusedAccounts@@YAXHQA_KHQAUparm_node@@@Z 00425a10 f   adminfn.obj
 0001:00024b10       ?AdminReloadGame@@YAXHQA_KHQAUparm_node@@@Z 00425b10 f   adminfn.obj
 0001:00024c60       ?AdminReloadSystem@@YAXHQA_KHQAUparm_node@@@Z 00425c60 f   adminfn.obj
 0001:00024da0       ?AdminHangupSession@@YAXHQA_KHQAUparm_node@@@Z 00425da0 f   adminfn.obj
 0001:00024e30       ?AdminHangupAccount@@YAXHQA_KHQAUparm_node@@@Z 00425e30 f   adminfn.obj
 0001:00024f70       ?AdminBlockIP@@YAXHQA_KHQAUparm_node@@@Z 00425f70 f   adminfn.obj
 0001:00025020       ?AdminHangupUser@@YAXHQA_KHQAUparm_node@@@Z 00426020 f   adminfn.obj
 0001:00025150       ?AdminHangupEachSession@@YAXPAUsession_node@@@Z 00426150 f   adminfn.obj
 0001:00025180       ?AdminHangupAll@@YAXHQA_KHQAUparm_node@@@Z 00426180 f   adminfn.obj
 0001:000251a0       ?AdminKickoffAccount@@YAXHQA_KHQAUparm_node@@@Z 004261a0 f   adminfn.obj
 0001:00025230       ?AdminKickoffEachSession@@YAXPAUsession_node@@@Z 00426230 f   adminfn.obj
 0001:00025260       ?AdminKickoffAll@@YAXHQA_KHQAUparm_node@@@Z 00426260 f   adminfn.obj
 0001:00025280       ?AdminAddCredits@@YAXHQA_KHQAUparm_node@@@Z 00426280 f   adminfn.obj
 0001:000252d0       ?AdminTraceOffMessage@@YAXHQA_KHQAUparm_node@@@Z 004262d0 f   adminfn.obj
 0001:00025390       ?AdminTraceOnMessage@@YAXHQA_KHQAUparm_node@@@Z 00426390 f   adminfn.obj
 0001:00025450       ?AdminSendClass@@YAXHQA_KHQAUparm_node@@@Z 00426450 f   adminfn.obj
 0001:00025510       ?AdminSendUsers@@YAXHQA_KHQAUparm_node@@@Z 00426510 f   adminfn.obj
 0001:000255b0       ?AdminSendObject@@YAXHQA_KHQAUparm_node@@@Z 004265b0 f   adminfn.obj
 0001:00025890       ?AdminSendList@@YAXHQA_KHQAUparm_node@@@Z 00426890 f   adminfn.obj
 0001:000259c0       ?AdminSendInt@@YAXHQA_KHQAUparm_node@@@Z 004269c0 f   adminfn.obj
 0001:00025a70       ?AdminCheckUserLoggedOn@@YAXPAUsession_node@@@Z 00426a70 f   adminfn.obj
 0001:00025ab0       ?AdminDeleteUser@@YAXHQA_KHQAUparm_node@@@Z 00426ab0 f   adminfn.obj
 0001:00025b40       ?AdminDeleteAccount@@YAXHQA_KHQAUparm_node@@@Z 00426b40 f   adminfn.obj
 0001:00025bb0       ?AdminDeleteTimer@@YAXHQA_KHQAUparm_node@@@Z 00426bb0 f   adminfn.obj
 0001:00025c10       ?AdminCreateResource@@YAXHQA_KHQAUparm_node@@@Z 00426c10 f   adminfn.obj
 0001:00025ca0       ?AdminCreateTimer@@YAXHQA_KHQAUparm_node@@@Z 00426ca0 f   adminfn.obj
 0001:00025d00       ?AdminCreateTable@@YAXHQA_KHQAUparm_node@@@Z 00426d00 f   adminfn.obj
 0001:00025d60       ?AdminCreateListNode@@YAXHQA_KHQAUparm_node@@@Z 00426d60 f   adminfn.obj
 0001:00025e70       ?AdminCreateObject@@YAXHQA_KHQAUparm_node@@@Z 00426e70 f   adminfn.obj
 0001:00025ee0       ?AdminCreateDM@@YAXHQA_KHQAUparm_node@@@Z 00426ee0 f   adminfn.obj
 0001:00025f40       ?AdminCreateAdmin@@YAXHQA_KHQAUparm_node@@@Z 00426f40 f   adminfn.obj
 0001:00025fa0       ?AdminCreateEscapedConvict@@YAXHQA_KHQAUparm_node@@@Z 00426fa0 f   adminfn.obj
 0001:00026000       ?AdminCreateUser@@YAXHQA_KHQAUparm_node@@@Z 00427000 f   adminfn.obj
 0001:00026060       ?AdminAddUserToEachAccount@@YAXHQA_KHQAUparm_node@@@Z 00427060 f   adminfn.obj
 0001:000260a0       ?AdminResetHighestTimed@@YAXHQA_KHQAUparm_node@@@Z 004270a0 f   adminfn.obj
 0001:000261b0       ?AdminRecreateAutomated@@YAXHQA_KHQAUparm_node@@@Z 004271b0 f   adminfn.obj
 0001:00026220       ?AdminCreateAutomated@@YAXHQA_KHQAUparm_node@@@Z 00427220 f   adminfn.obj
 0001:00026320       ?AdminCreateAccount@@YAXHQA_KHQAUparm_node@@@Z 00427320 f   adminfn.obj
 0001:00026490       ?AdminUnsuspendAccount@@YAXHQA_KHQAUparm_node@@@Z 00427490 f   adminfn.obj
 0001:00026570       ?AdminUnsuspendUser@@YAXHQA_KHQAUparm_node@@@Z 00427570 f   adminfn.obj
 0001:00026620       ?AdminSuspendAccount@@YAXHQA_KHQAUparm_node@@@Z 00427620 f   adminfn.obj
 0001:00026760       ?AdminSuspendUser@@YAXHQA_KHQAUparm_node@@@Z 00427760 f   adminfn.obj
 0001:00026850       ?AdminSetConfigStr@@YAXHQA_KHQAUparm_node@@@Z 00427850 f   adminfn.obj
 0001:00026920       ?AdminSetConfigBool@@YAXHQA_KHQAUparm_node@@@Z 00427920 f   adminfn.obj
 0001:00026a70       ?AdminSetConfigInt@@YAXHQA_KHQAUparm_node@@@Z 00427a70 f   adminfn.obj
 0001:00026b40       ?AdminSetAccountObject@@YAXHQA_KHQAUparm_node@@@Z 00427b40 f   adminfn.obj
 0001:00026c00       ?AdminSetAccountCredits@@YAXHQA_KHQAUparm_node@@@Z 00427c00 f   adminfn.obj
 0001:00026c50       ?AdminSetAccountEmail@@YAXHQA_KHQAUparm_node@@@Z 00427c50 f   adminfn.obj
 0001:00026d10       ?AdminSetAccountPassword@@YAXHQA_KHQAUparm_node@@@Z 00427d10 f   adminfn.obj
 0001:00026d70       ?AdminSetAccountName@@YAXHQA_KHQAUparm_node@@@Z 00427d70 f   adminfn.obj
 0001:00026e10       ?AdminSetObject@@YAXHQA_KHQAUparm_node@@@Z 00427e10 f   adminfn.obj
 0001:00026f50       ?AdminSetClass@@YAXHQA_KHQAUparm_node@@@Z 00427f50 f   adminfn.obj
 0001:00027050       ?AdminShowProtocol@@YAXHQA_KHQAUparm_node@@@Z 00428050 f   adminfn.obj
 0001:00027180       ?AdminShowReferencesEachTable@@YAXHH@Z 00428180 f   adminfn.obj
 0001:000272a0       ?AdminShowReferencesEachList@@YAXHH@Z 004282a0 f   adminfn.obj
 0001:000273a0       ?AdminShowReferencesEachObject@@YAXPAUobject_node@@@Z 004283a0 f   adminfn.obj
 0001:000274c0       ?AdminShowReferences@@YAXHQA_KHQAUparm_node@@@Z 004284c0 f   adminfn.obj
 0001:000275f0       ?AdminShowName@@YAXHQA_KHQAUparm_node@@@Z 004285f0 f   adminfn.obj
 0001:00027630       ?AdminPrintNameID@@YAXPAUnameid_struct@@@Z 00428630 f   adminfn.obj
 0001:00027660       ?AdminShowNameIDs@@YAXHQA_KHQAUparm_node@@@Z 00428660 f   adminfn.obj
 0001:00027690       ?AdminShowTable@@YAXHQA_KHQAUparm_node@@@Z 00428690 f   adminfn.obj
 0001:000277a0       ?AdminShowTransmitted@@YAXHQA_KHQAUparm_node@@@Z 004287a0 f   adminfn.obj
 0001:000277c0       ?AdminShowConstant@@YAXHQA_KHQAUparm_node@@@Z 004287c0 f   adminfn.obj
 0001:00027810       ?AdminShowOnePackage@@YAXPAUdllist_struct@@@Z 00428810 f   adminfn.obj
 0001:00027830       ?AdminShowPackages@@YAXHQA_KHQAUparm_node@@@Z 00428830 f   adminfn.obj
 0001:00027860       ?AdminShowMatches@@YAXHQA_KHQAUparm_node@@@Z 00428860 f   adminfn.obj
 0001:00027d00       ?AdminShowInstances@@YAXHQA_KHQAUparm_node@@@Z 00428d00 f   adminfn.obj
 0001:00027dd0       ?AdminShowClass@@YAXHQA_KHQAUparm_node@@@Z 00428dd0 f   adminfn.obj
 0001:00027fb0       ?AdminShowMessage@@YAXHQA_KHQAUparm_node@@@Z 00428fb0 f   adminfn.obj
 0001:00028300       ?AdminShowCalls@@YAXHQA_KHQAUparm_node@@@Z 00429300 f   adminfn.obj
 0001:00029100       ?AdminShowEachSysTimer@@YAXPAUsystimer_struct@@@Z 0042a100 f   adminfn.obj
 0001:000291e0       ?AdminShowSysTimers@@YAXHQA_KHQAUparm_node@@@Z 0042a1e0 f   adminfn.obj
 0001:00029230       ?AdminShowString@@YAXHQA_KHQAUparm_node@@@Z 0042a230 f   adminfn.obj
 0001:000292b0       ?AdminShowOneConfigNode@@YAXPAUconfig_node@@PBD1@Z 0042a2b0 f   adminfn.obj
 0001:00029390       ?AdminShowConfiguration@@YAXHQA_KHQAUparm_node@@@Z 0042a390 f   adminfn.obj
 0001:000293c0       ?AdminShowTime@@YAXHQA_KHQAUparm_node@@@Z 0042a3c0 f   adminfn.obj
 0001:000293f0       ?AdminShowOneTimer@@YAXPAUtimer_struct@@@Z 0042a3f0 f   adminfn.obj
 0001:00029470       ?AdminShowTimerObjectID@@YAXHQA_KHQAUparm_node@@@Z 0042a470 f   adminfn.obj
 0001:000294f0       ?AdminShowTimerMessageID@@YAXHQA_KHQAUparm_node@@@Z 0042a4f0 f   adminfn.obj
 0001:000295a0       ?AdminShowTimer@@YAXHQA_KHQAUparm_node@@@Z 0042a5a0 f   adminfn.obj
 0001:00029610       ?AdminShowTimers@@YAXHQA_KHQAUparm_node@@@Z 0042a610 f   adminfn.obj
 0001:00029680       ?AdminCheckTimerHeap@@YAXHQA_KHQAUparm_node@@@Z 0042a680 f   adminfn.obj
 0001:000296f0       ?AdminShowDynamicResources@@YAXHQA_KHQAUparm_node@@@Z 0042a6f0 f   adminfn.obj
 0001:00029720       ?AdminPrintResource@@YAXPAUresource_struct@@@Z 0042a720 f   adminfn.obj
 0001:00029760       ?AdminShowResource@@YAXHQA_KHQAUparm_node@@@Z 0042a760 f   adminfn.obj
 0001:00029870       ?AdminShowOneAccountIfSuspended@@YAXPAUaccount_node_struct@@@Z 0042a870 f   adminfn.obj
 0001:00029890       ?AdminShowSuspended@@YAXHQA_KHQAUparm_node@@@Z 0042a890 f   adminfn.obj
 0001:000298f0       ?AdminShowOneAccount@@YAXPAUaccount_node_struct@@@Z 0042a8f0 f   adminfn.obj
 0001:000299e0       ?AdminShowAccountHeader@@YAXXZ 0042a9e0 f   adminfn.obj
 0001:00029a10       ?AdminShowAccount@@YAXHQA_KHQAUparm_node@@@Z 0042aa10 f   adminfn.obj
 0001:00029b40       ?AdminPrintAccountByEmail@@YAXPAUaccount_node_struct@@PAD@Z 0042ab40 f   adminfn.obj
 0001:00029b90       ?AdminShowAccByEmail@@YAXHQA_KHQAUparm_node@@@Z 0042ab90 f   adminfn.obj
 0001:00029bd0       ?AdminShowOneAccountIfActive@@YAXPAUaccount_node_struct@@@Z 0042abd0 f   adminfn.obj
 0001:00029bf0       ?AdminShowActive@@YAXHQA_KHQAUparm_node@@@Z 0042abf0 f   adminfn.obj
 0001:00029c90       ?AdminShowAccounts@@YAXHQA_KHQAUparm_node@@@Z 0042ac90 f   adminfn.obj
 0001:00029ce0       ?AdminShowUsage@@YAXHQA_KHQAUparm_node@@@Z 0042ace0 f   adminfn.obj
 0001:00029d30       ?AdminShowUser@@YAXHQA_KHQAUparm_node@@@Z 0042ad30 f   adminfn.obj
 0001:00029dd0       ?AdminShowOneUser@@YAXPAUuser_struct@@@Z 0042add0 f   adminfn.obj
 0001:00029eb0       ?AdminShowUserHeader@@YAXXZ 0042aeb0 f   adminfn.obj
 0001:00029ee0       ?AdminShowUsers@@YAXHQA_KHQAUparm_node@@@Z 0042aee0 f   adminfn.obj
 0001:00029f30       ?AdminShowListParen@@YAXHH@Z 0042af30 f   adminfn.obj
 0001:0002a0e0       ?AdminShowList@@YAXHQA_KHQAUparm_node@@@Z 0042b0e0 f   adminfn.obj
 0001:0002a110       ?AdminShowListNode@@YAXHQA_KHQAUparm_node@@@Z 0042b110 f   adminfn.obj
 0001:0002a1b0       ?AdminShowObject@@YAXHQA_KHQAUparm_node@@@Z 0042b1b0 f   adminfn.obj
 0001:0002a360       ?AdminShowObjects@@YAXHQA_KHQAUparm_node@@@Z 0042b360 f   adminfn.obj
 0001:0002a510       ?AdminShowBlockers@@YAXHQA_KHQAUparm_node@@@Z 0042b510 f   adminfn.obj
 0001:0002a620       ?AdminShowRoomTable@@YAXHQA_KHQAUparm_node@@@Z 0042b620 f   adminfn.obj
 0001:0002a630       ?AdminShowCalledClass@@YAXPAUclass_struct@@@Z 0042b630 f   adminfn.obj
 0001:0002a710       ?AdminShowCalled@@YAXHQA_KHQAUparm_node@@@Z 0042b710 f   adminfn.obj
 0001:0002a850       ?AdminShowMemory@@YAXHQA_KHQAUparm_node@@@Z 0042b850 f   adminfn.obj
 0001:0002a8f0       ?AdminShowStatus@@YAXHQA_KHQAUparm_node@@@Z 0042b8f0 f   adminfn.obj
 0001:0002ad10       ?AdminPage@@YAXHQA_KHQAUparm_node@@@Z 0042bd10 f   adminfn.obj
 0001:0002ada0       ?AdminMail@@YAXHQA_KHQAUparm_node@@@Z 0042bda0 f   adminfn.obj
 0001:0002aed0       ?AdminUnlock@@YAXHQA_KHQAUparm_node@@@Z 0042bed0 f   adminfn.obj
 0001:0002af40       ?AdminLock@@YAXHQA_KHQAUparm_node@@@Z 0042bf40 f   adminfn.obj
 0001:0002b040       ?AdminWhoEachSession@@YAXPAUsession_node@@@Z 0042c040 f   adminfn.obj
 0001:0002b1e0       ?AdminWho@@YAXHQA_KHQAUparm_node@@@Z 0042c1e0 f   adminfn.obj
 0001:0002b220       ?AdminSaveOneConfigNode@@YAXPAUconfig_node@@PBD1@Z 0042c220 f   adminfn.obj
 0001:0002b450       ?AdminSaveConfiguration@@YAXHQA_KHQAUparm_node@@@Z 0042c450 f   adminfn.obj
 0001:0002b500       ?AdminSaveGame@@YAXHQA_KHQAUparm_node@@@Z 0042c500 f   adminfn.obj
 0001:0002b5f0       ?AdminGarbage@@YAXHQA_KHQAUparm_node@@@Z 0042c5f0 f   adminfn.obj
 0001:0002b6e0       ?AdminTerminateSave@@YAXHQA_KHQAUparm_node@@@Z 0042c6e0 f   adminfn.obj
 0001:0002b7c0       ?AdminTerminateNoSave@@YAXHQA_KHQAUparm_node@@@Z 0042c7c0 f   adminfn.obj
 0001:0002b800       ?AdminHelp@@YAXHHQAUadmin_table_struct@@@Z 0042c800 f   adminfn.obj
 0001:0002b8d0       ?AdminIsValidBlakParm@@YADTval_type@@@Z 0042c8d0 f   adminfn.obj
 0001:0002b970       ?AdminTable@@YAXHQAUadmin_table_struct@@HPAD@Z 0042c970 f   adminfn.obj
 0001:0002c110       ?DoAdminCommand@@YAXPAD@Z  0042d110 f   adminfn.obj
 0001:0002c150       ?SendSessionAdminText@@YAXHPBDZZ 0042d150 f   adminfn.obj
 0001:0002c1e0       ?SendAdminBuffer@@YAXPADH@Z 0042d1e0 f   adminfn.obj
 0001:0002c300       ?AdminSendBufferList@@YAXXZ 0042d300 f   adminfn.obj
 0001:0002c3f0       ?AdminBufferSend@@YAXPADH@Z 0042d3f0 f   adminfn.obj
 0001:0002c410       ?to_lowercase@@YAPADPAD@Z  0042d410 f   adminfn.obj
 0001:0002c450       ?TryAdminCommand@@YAXHPAD@Z 0042d450 f   adminfn.obj
 0001:0002c530       ?AdminDeleteEachUserObject@@YAXPAUuser_struct@@@Z 0042d530 f   adminfn.obj
 0001:0002c550       ?AsyncSocketRead@@YAXI@Z   0042d550 f   async.obj
 0001:0002c700       ?AsyncSocketWrite@@YAXI@Z  0042d700 f   async.obj
 0001:0002c860       ?AsyncSocketClose@@YAXI@Z  0042d860 f   async.obj
 0001:0002c890       ?AsyncEachSessionNameLookup@@YAXPAUsession_node@@@Z 0042d890 f   async.obj
 0001:0002c900       ?AsyncNameLookup@@YAXPAXH@Z 0042d900 f   async.obj
 0001:0002c930       ?AcceptSocketConnections@@YAXHH@Z 0042d930 f   async.obj
 0001:0002cb70       ?AsyncSocketStart@@YAXXZ   0042db70 f   async.obj
 0001:0002cc60       ?CheckMaintenanceMask@@YADPAUsockaddr_in6@@H@Z 0042dc60 f   async_windows.obj
 0001:0002cd00       ?AsyncSocketSelect@@YAXIHH@Z 0042dd00 f   async_windows.obj
 0001:0002cde0       ?AsyncSocketAccept@@YAXIHHH@Z 0042dde0 f   async_windows.obj
 0001:0002d0e0       ?ExitAsyncConnections@@YAXXZ 0042e0e0 f   async_windows.obj
 0001:0002d100       ?InitAsyncConnections@@YAXXZ 0042e100 f   async_windows.obj
 0001:0002d2a0       ?ForEachResource@@YAXP6AXPAUresource_struct@@@Z@Z 0042e2a0 f   blakres.obj
 0001:0002d2f0       ?GetResourceStrByLanguageID@@YAPADHH@Z 0042e2f0 f   blakres.obj
 0001:0002d350       ?DynamicResourceChangeNotify@@YAXPAUsession_node@@@Z 0042e350 f   blakres.obj
 0001:0002d420       ?ChangeDynamicResource@@YAXPAUresource_struct@@PADH@Z 0042e420 f   blakres.obj
 0001:0002d500       ?SetResourceName@@YAXHPAD@Z 0042e500 f   blakres.obj
 0001:0002d5f0       ?AddResource@@YAXHHPAD@Z   0042e5f0 f   blakres.obj
 0001:0002d6e0       ?ResetResource@@YAXXZ      0042e6e0 f   blakres.obj
 0001:0002d890       ?InitResource@@YAXXZ       0042e890 f   blakres.obj
 0001:0002da10       ?GetRsbMD5@@YAPADXZ        0042ea10 f   blakres.obj
 0001:0002da20       ?SaveRsbMD5@@YAXPAD@Z      0042ea20 f   blakres.obj
 0001:0002da30       ?GetResourceByName@@YAPAUresource_struct@@PBD@Z 0042ea30 f   blakres.obj
 0001:0002da80       ?GetResourceByID@@YAPAUresource_struct@@H@Z 0042ea80 f   blakres.obj
 0001:0002dab0       ?IsResourceByID@@YADH@Z    0042eab0 f   blakres.obj
 0001:0002dae0       ?AddDynamicResource@@YAHPAD@Z 0042eae0 f   blakres.obj
 0001:0002db50       ?ForEachDynamicRsc@@YAXP6AXPAUresource_struct@@@Z@Z 0042eb50 f   blakres.obj
 0001:0002dba0       ?BuildBannedIPBlocks@@YAXPAD@Z 0042eba0 f   block.obj
 0001:0002dd80       ?DeleteAllBlocks@@YAXXZ    0042ed80 f   block.obj
 0001:0002ddc0       ?CheckBlockList@@YA_NPAUin6_addr@@@Z 0042edc0 f   block.obj
 0001:0002de00       ?DeleteBlock@@YAXPAUin6_addr@@@Z 0042ee00 f   block.obj
 0001:0002de60       ?FindBlock@@YAPAUblock_node_struct@@PAUin6_addr@@@Z 0042ee60 f   block.obj
 0001:0002deb0       ?AddBlock@@YAXHPAUin6_addr@@@Z 0042eeb0 f   block.obj
 0001:0002df50       ?DeleteBufferList@@YAXPAUbuffer_struct@@@Z 0042ef50 f   bufpool.obj
 0001:0002dfc0       ?CopyBufferList@@YAPAUbuffer_struct@@PAU1@@Z 0042efc0 f   bufpool.obj
 0001:0002e140       ?InitBufferPool@@YAXXZ     0042f140 f   bufpool.obj
 0001:0002e160       ?DeleteBuffer@@YAXPAUbuffer_struct@@@Z 0042f160 f   bufpool.obj
 0001:0002e1b0       ?AddToBufferList@@YAPAUbuffer_struct@@PAU1@PAXH@Z 0042f1b0 f   bufpool.obj
 0001:0002e360       ?AddByteToBufferList@@YAPAUbuffer_struct@@PAU1@D@Z 0042f360 f   bufpool.obj
 0001:0002e380       ?GetBuffer@@YAPAUbuffer_struct@@XZ 0042f380 f   bufpool.obj
 0001:0002e4b0       ?ResetBufferPool@@YAXXZ    0042f4b0 f   bufpool.obj
 0001:0002e540       ?CreateBuiltInAccounts@@YAXXZ 0042f540 f   builtin.obj
 0001:0002e680       ?C_SetClassVar@@YAHHPAUlocal_var_type@@HQAUparm_node@@H1@Z 0042f680 f   ccode.obj
 0001:0002eb70       ?C_GetSessionIP@@YAHHPAUlocal_var_type@@HQAUparm_node@@H1@Z 0042fb70 f   ccode.obj
 0001:0002ed40       ?C_RecordStat@@YAHHPAUlocal_var_type@@HQAUparm_node@@H1@Z 0042fd40 f   ccode.obj
 0001:00031c50       ?C_StringToNumber@@YAHHPAUlocal_var_type@@HQAUparm_node@@H1@Z 00432c50 f   ccode.obj
 0001:00031e10       ?C_IsObject@@YAHHPAUlocal_var_type@@HQAUparm_node@@H1@Z 00432e10 f   ccode.obj
 0001:00031f70       ?C_RecycleUser@@YAHHPAUlocal_var_type@@HQAUparm_node@@H1@Z 00432f70 f   ccode.obj
 0001:00032150       ?C_IsTable@@YAHHPAUlocal_var_type@@HQAUparm_node@@H1@Z 00433150 f   ccode.obj
 0001:000322d0       ?C_DeleteTable@@YAHHPAUlocal_var_type@@HQAUparm_node@@H1@Z 004332d0 f   ccode.obj
 0001:00032430       ?C_DeleteTableEntry@@YAHHPAUlocal_var_type@@HQAUparm_node@@H1@Z 00433430 f   ccode.obj
 0001:00032680       ?C_GetTableEntry@@YAHHPAUlocal_var_type@@HQAUparm_node@@H1@Z 00433680 f   ccode.obj
 0001:000328d0       ?C_AddTableEntry@@YAHHPAUlocal_var_type@@HQAUparm_node@@H1@Z 004338d0 f   ccode.obj
 0001:00032cd0       ?C_CreateTable@@YAHHPAUlocal_var_type@@HQAUparm_node@@H1@Z 00433cd0 f   ccode.obj
 0001:00032e40       ?C_Bound@@YAHHPAUlocal_var_type@@HQAUparm_node@@H1@Z 00433e40 f   ccode.obj
 0001:00033240       ?C_Sqrt@@YAHHPAUlocal_var_type@@HQAUparm_node@@H1@Z 00434240 f   ccode.obj
 0001:000333d0       ?C_Abs@@YAHHPAUlocal_var_type@@HQAUparm_node@@H1@Z 004343d0 f   ccode.obj
 0001:00033530       ?C_Random@@YAHHPAUlocal_var_type@@HQAUparm_node@@H1@Z 00434530 f   ccode.obj
 0001:00033810       ?C_GetTickCount@@YAHHPAUlocal_var_type@@HQAUparm_node@@H1@Z 00434810 f   ccode.obj
 0001:00033830       ?C_GetTime@@YAHHPAUlocal_var_type@@HQAUparm_node@@H1@Z 00434830 f   ccode.obj
 0001:00033850       ?C_GetTimeZoneOffset@@YAHHPAUlocal_var_type@@HQAUparm_node@@H1@Z 00434850 f   ccode.obj
 0001:00033860       ?C_ListCopy@@YAHHPAUlocal_var_type@@HQAUparm_node@@H1@Z 00434860 f   ccode.obj
 0001:000339b0       ?C_GetListElemByClass@@YAHHPAUlocal_var_type@@HQAUparm_node@@H1@Z 004349b0 f   ccode.obj
 0001:00033c50       ?C_GetListNode@@YAHHPAUlocal_var_type@@HQAUparm_node@@H1@Z 00434c50 f   ccode.obj
 0001:00034080       ?C_GetAllListNodesByClass@@YAHHPAUlocal_var_type@@HQAUparm_node@@H1@Z 00435080 f   ccode.obj
 0001:00034490       ?C_FindListElem@@YAHHPAUlocal_var_type@@HQAUparm_node@@H1@Z 00435490 f   ccode.obj
 0001:000346f0       ?C_DelLastListElem@@YAHHPAUlocal_var_type@@HQAUparm_node@@H1@Z 004356f0 f   ccode.obj
 0001:00034830       ?C_DelListElem@@YAHHPAUlocal_var_type@@HQAUparm_node@@H1@Z 00435830 f   ccode.obj
 0001:00034ae0       ?C_SwapListElem@@YAHHPAUlocal_var_type@@HQAUparm_node@@H1@Z 00435ae0 f   ccode.obj
 0001:00034f00       ?C_InsertListElem@@YAHHPAUlocal_var_type@@HQAUparm_node@@H1@Z 00435f00 f   ccode.obj
 0001:00035320       ?C_SetNth@@YAHHPAUlocal_var_type@@HQAUparm_node@@H1@Z 00436320 f   ccode.obj
 0001:00035700       ?C_SetFirst@@YAHHPAUlocal_var_type@@HQAUparm_node@@H1@Z 00436700 f   ccode.obj
 0001:00035980       ?C_IsList@@YAHHPAUlocal_var_type@@HQAUparm_node@@H1@Z 00436980 f   ccode.obj
 0001:00035ac0       ?C_List@@YAHHPAUlocal_var_type@@HQAUparm_node@@H1@Z 00436ac0 f   ccode.obj
 0001:00035c30       ?C_IsListMatch@@YAHHPAUlocal_var_type@@HQAUparm_node@@H1@Z 00436c30 f   ccode.obj
 0001:00035ee0       ?C_Nth@@YAHHPAUlocal_var_type@@HQAUparm_node@@H1@Z 00436ee0 f   ccode.obj
 0001:000361a0       ?C_Last@@YAHHPAUlocal_var_type@@HQAUparm_node@@H1@Z 004371a0 f   ccode.obj
 0001:000362e0       ?C_Length@@YAHHPAUlocal_var_type@@HQAUparm_node@@H1@Z 004372e0 f   ccode.obj
 0001:00036430       ?C_Rest@@YAHHPAUlocal_var_type@@HQAUparm_node@@H1@Z 00437430 f   ccode.obj
 0001:000365e0       ?C_First@@YAHHPAUlocal_var_type@@HQAUparm_node@@H1@Z 004375e0 f   ccode.obj
 0001:00036790       ?C_Cons@@YAHHPAUlocal_var_type@@HQAUparm_node@@H1@Z 00437790 f   ccode.obj
 0001:000369f0       ?C_AppendListElem@@YAHHPAUlocal_var_type@@HQAUparm_node@@H1@Z 004379f0 f   ccode.obj
 0001:00036c50       ?C_GetStepTowardsBSP@@YAHHPAUlocal_var_type@@HQAUparm_node@@H1@Z 00437c50 f   ccode.obj
 0001:00037d80       ?C_GetRandomPointBSP@@YAHHPAUlocal_var_type@@HQAUparm_node@@H1@Z 00438d80 f   ccode.obj
 0001:000386f0       ?C_BlockerClearBSP@@YAHHPAUlocal_var_type@@HQAUparm_node@@H1@Z 004396f0 f   ccode.obj
 0001:000388a0       ?C_BlockerRemoveBSP@@YAHHPAUlocal_var_type@@HQAUparm_node@@H1@Z 004398a0 f   ccode.obj
 0001:00038b70       ?C_BlockerMoveBSP@@YAHHPAUlocal_var_type@@HQAUparm_node@@H1@Z 00439b70 f   ccode.obj
 0001:00039440       ?C_BlockerAddBSP@@YAHHPAUlocal_var_type@@HQAUparm_node@@H1@Z 0043a440 f   ccode.obj
 0001:00039d10       ?C_MoveSectorBSP@@YAHHPAUlocal_var_type@@HQAUparm_node@@H1@Z 0043ad10 f   ccode.obj
 0001:0003a420       ?C_ChangeTextureBSP@@YAHHPAUlocal_var_type@@HQAUparm_node@@H1@Z 0043b420 f   ccode.obj
 0001:0003a9c0       ?C_LineOfSightBSP@@YAHHPAUlocal_var_type@@HQAUparm_node@@H1@Z 0043b9c0 f   ccode.obj
 0001:0003b840       ?C_LineOfSightView@@YAHHPAUlocal_var_type@@HQAUparm_node@@H1@Z 0043c840 f   ccode.obj
 0001:0003c520       ?C_CanMoveInRoomBSP@@YAHHPAUlocal_var_type@@HQAUparm_node@@H1@Z 0043d520 f   ccode.obj
 0001:0003d550       ?C_GetLocationInfoBSP@@YAHHPAUlocal_var_type@@HQAUparm_node@@H1@Z 0043e550 f   ccode.obj
 0001:0003e630       ?C_RoomData@@YAHHPAUlocal_var_type@@HQAUparm_node@@H1@Z 0043f630 f   ccode.obj
 0001:0003e880       ?C_FreeRoom@@YAHHPAUlocal_var_type@@HQAUparm_node@@H1@Z 0043f880 f   ccode.obj
 0001:0003ea30       ?C_LoadRoom@@YAHHPAUlocal_var_type@@HQAUparm_node@@H1@Z 0043fa30 f   ccode.obj
 0001:0003eb70       ?C_IsTimer@@YAHHPAUlocal_var_type@@HQAUparm_node@@H1@Z 0043fb70 f   ccode.obj
 0001:0003ecc0       ?C_GetTimeRemaining@@YAHHPAUlocal_var_type@@HQAUparm_node@@H1@Z 0043fcc0 f   ccode.obj
 0001:0003ee90       ?C_DeleteTimer@@YAHHPAUlocal_var_type@@HQAUparm_node@@H1@Z 0043fe90 f   ccode.obj
 0001:0003efe0       ?C_CreateTimer@@YAHHPAUlocal_var_type@@HQAUparm_node@@H1@Z 0043ffe0 f   ccode.obj
 0001:0003f430       ?C_StringConsistsOf@@YAHHPAUlocal_var_type@@HQAUparm_node@@H1@Z 00440430 f   ccode.obj
 0001:0003f6d0       ?C_StringLength@@YAHHPAUlocal_var_type@@HQAUparm_node@@H1@Z 004406d0 f   ccode.obj
 0001:0003f810       ?C_IsString@@YAHHPAUlocal_var_type@@HQAUparm_node@@H1@Z 00440810 f   ccode.obj
 0001:0003f950       ?C_CreateString@@YAHHPAUlocal_var_type@@HQAUparm_node@@H1@Z 00440950 f   ccode.obj
 0001:0003f970       ?C_AppendTempString@@YAHHPAUlocal_var_type@@HQAUparm_node@@H1@Z 00440970 f   ccode.obj
 0001:0003fc30       ?C_GetTempString@@YAHHPAUlocal_var_type@@HQAUparm_node@@H1@Z 00440c30 f   ccode.obj
 0001:0003fc40       ?C_ClearTempString@@YAHHPAUlocal_var_type@@HQAUparm_node@@H1@Z 00440c40 f   ccode.obj
 0001:0003fc60       ?C_SetString@@YAHHPAUlocal_var_type@@HQAUparm_node@@H1@Z 00440c60 f   ccode.obj
 0001:00040250       ?C_ParseString@@YAHHPAUlocal_var_type@@HQAUparm_node@@H1@Z 00441250 f   ccode.obj
 0001:000407a0       ?C_SetResource@@YAHHPAUlocal_var_type@@HQAUparm_node@@H1@Z 004417a0 f   ccode.obj
 0001:00040b00       ?FuzzyBufferContain@@YA_NPBDH0H@Z 00441b00 f   ccode.obj
 0001:00040b60       ?C_StringContain@@YAHHPAUlocal_var_type@@HQAUparm_node@@H1@Z 00441b60 f   ccode.obj
 0001:00041060       ?C_StringSubstitute@@YAHHPAUlocal_var_type@@HQAUparm_node@@H1@Z 00442060 f   ccode.obj
 0001:00041770       ?FuzzyBufferEqual@@YA_NPBDH0H@Z 00442770 f   ccode.obj
 0001:00041870       ?FuzzyCollapseString@@YAXPADPBDH@Z 00442870 f   ccode.obj
 0001:00041900       ?C_StringEqual@@YAHHPAUlocal_var_type@@HQAUparm_node@@H1@Z 00442900 f   ccode.obj
 0001:00041e00       ?LookupString@@YA_NTval_type@@PBDPAPBDPAH@Z 00442e00 f   ccode.obj
 0001:00041f70       ?C_GetClass@@YAHHPAUlocal_var_type@@HQAUparm_node@@H1@Z 00442f70 f   ccode.obj
 0001:000420f0       ?C_CreateObject@@YAHHPAUlocal_var_type@@HQAUparm_node@@H1@Z 004430f0 f   ccode.obj
 0001:00042240       ?C_SendListMessageByClassBreak@@YAHHPAUlocal_var_type@@HQAUparm_node@@H1@Z 00443240 f   ccode.obj
 0001:000428a0       ?C_SendListMessageByClass@@YAHHPAUlocal_var_type@@HQAUparm_node@@H1@Z 004438a0 f   ccode.obj
 0001:00042f00       ?C_SendListMessageBreak@@YAHHPAUlocal_var_type@@HQAUparm_node@@H1@Z 00443f00 f   ccode.obj
 0001:000433f0       ?C_SendListMessage@@YAHHPAUlocal_var_type@@HQAUparm_node@@H1@Z 004443f0 f   ccode.obj
 0001:000438e0       ?C_PostMessage@@YAHHPAUlocal_var_type@@HQAUparm_node@@H1@Z 004448e0 f   ccode.obj
 0001:00043ca0       ?C_SendMessage@@YAHHPAUlocal_var_type@@HQAUparm_node@@H1@Z 00444ca0 f   ccode.obj
 0001:00044070       ?C_DumpStack@@YAHHPAUlocal_var_type@@HQAUparm_node@@H1@Z 00445070 f   ccode.obj
 0001:000440d0       ?C_GetInactiveTime@@YAHHPAUlocal_var_type@@HQAUparm_node@@H1@Z 004450d0 f   ccode.obj
 0001:000442a0       ?C_Debug@@YAHHPAUlocal_var_type@@HQAUparm_node@@H1@Z 004452a0 f   ccode.obj
 0001:00044890       ?C_GodLog@@YAHHPAUlocal_var_type@@HQAUparm_node@@H1@Z 00445890 f   ccode.obj
 0001:00044e50       ?C_ClearPacket@@YAHHPAUlocal_var_type@@HQAUparm_node@@H1@Z 00445e50 f   ccode.obj
 0001:00044e70       ?C_SendCopyPacket@@YAHHPAUlocal_var_type@@HQAUparm_node@@H1@Z 00445e70 f   ccode.obj
 0001:00044fc0       ?C_SendPacket@@YAHHPAUlocal_var_type@@HQAUparm_node@@H1@Z 00445fc0 f   ccode.obj
 0001:00045120       ?C_AddPacket@@YAHHPAUlocal_var_type@@HQAUparm_node@@H1@Z 00446120 f   ccode.obj
 0001:000454f0       ?C_LoadGame@@YAHHPAUlocal_var_type@@HQAUparm_node@@H1@Z 004464f0 f   ccode.obj
 0001:000456c0       ?C_SaveGame@@YAHHPAUlocal_var_type@@HQAUparm_node@@H1@Z 004466c0 f   ccode.obj
 0001:00045800       ?C_Invalid@@YAHHPAUlocal_var_type@@HQAUparm_node@@H1@Z 00446800 f   ccode.obj
 0001:00045810       ?stristr@@YAPBDPBD0@Z      00446810 f   ccode.obj
 0001:00045880       ?DoneChannelBuffer@@YAXXZ  00446880 f   chanbuf.obj
 0001:000458a0       ?GetChannelBuffer@@YAPAUchannel_buffer_node@@XZ 004468a0 f   chanbuf.obj
 0001:000458c0       ?IsNewChannelText@@YADXZ   004468c0 f   chanbuf.obj
 0001:000458f0       ?WriteChannelBuffer@@YAXHPAD@Z 004468f0 f   chanbuf.obj
 0001:000459e0       ?InitChannelBuffer@@YAXXZ  004469e0 f   chanbuf.obj
 0001:00045a00       ?CreateFileChannel@@YAPAU_iobuf@@H@Z 00446a00 f   channel.obj
 0001:00045ac0       ?WriteStrChannel@@YAXHPAD@Z 00446ac0 f   channel.obj
 0001:00045ba0       ?CloseDefaultChannels@@YAXXZ 00446ba0 f   channel.obj
 0001:00045bd0       ?OpenDefaultChannels@@YAXXZ 00446bd0 f   channel.obj
 0001:00045c30       ?bprintf@@YAXPBDZZ         00446c30 f   channel.obj
 0001:00045d10       ?FlushDefaultChannels@@YAXXZ 00446d10 f   channel.obj
 0001:00045d40       ?gprintf@@YAXPBDZZ         00446d40 f   channel.obj
 0001:00045e80       ?dprintf@@YAXPBDZZ         00446e80 f   channel.obj
 0001:00045f50       ?aprintf@@YAXPBDZZ         00446f50 f   channel.obj
 0001:00045ff0       ?eprintf@@YAXPBDZZ         00446ff0 f   channel.obj
 0001:00046080       ?lprintf@@YAXPBDZZ         00447080 f   channel.obj
 0001:00046150       ?GetSourceLine@@YAHPAUclass_struct@@PAD@Z 00447150 f   class.obj
 0001:000461a0       ?SetOneClassPropertyNames@@YAXPAUclass_struct@@@Z 004471a0 f   class.obj
 0001:000462a0       ?SetClassPropertyNames@@YAXXZ 004472a0 f   class.obj
 0001:00046350       ?AddClassPropertyName@@YAXPAUclass_struct@@PADH@Z 00447350 f   class.obj
 0001:00046420       ?SetOneClassVariables@@YAXPAUclass_struct@@0@Z 00447420 f   class.obj
 0001:00046490       ?SetClassVariables@@YAXXZ  00447490 f   class.obj
 0001:00046500       ?SetClassesSuperPtr@@YAXXZ 00447500 f   class.obj
 0001:000465a0       ?SetClassName@@YAXHPAD@Z   004475a0 f   class.obj
 0001:00046690       ?AddClass@@YAXHPAUbof_class_header@@PAD1PAUbof_dstring@@PAUbof_line_table@@PAUbof_class_props@@@Z 00447690 f   class.obj
 0001:00046880       ?ResetClass@@YAXXZ         00447880 f   class.obj
 0001:00046b00       ?InitClass@@YAXXZ          00447b00 f   class.obj
 0001:00046c80       ?GetClassByID@@YAPAUclass_struct@@H@Z 00447c80 f   class.obj
 0001:00046cb0       ?ForEachClass@@YAXP6AXPAUclass_struct@@@Z@Z 00447cb0 f   class.obj
 0001:00046cf0       ?GetClassDebugStr@@YAPBDPAUclass_struct@@H@Z 00447cf0 f   class.obj
 0001:00046d20       ?GetPropertyIDByName@@YAHPAUclass_struct@@PBD@Z 00447d20 f   class.obj
 0001:00046d60       ?GetPropertyNameByID@@YAPBDPAUclass_struct@@H@Z 00447d60 f   class.obj
 0001:00046da0       ?GetClassVarIDByName@@YAHPAUclass_struct@@PBD@Z 00447da0 f   class.obj
 0001:00046de0       ?GetClassVarNameByID@@YAPADPAUclass_struct@@H@Z 00447de0 f   class.obj
 0001:00046e10       ?GetClassByName@@YAPAUclass_struct@@PBD@Z 00447e10 f   class.obj
 0001:00046e60       ?ClientHangupToBlakod@@YAXPAUsession_node@@@Z 00447e60 f   commcli.obj
 0001:00046ed0       ?AddShortToPacket@@YAXF@Z  00447ed0 f   commcli.obj
 0001:00046ef0       ?InitCommCli@@YAXXZ        00447ef0 f   commcli.obj
 0001:00046f00       ?ClearPacket@@YAXXZ        00447f00 f   commcli.obj
 0001:00046f20       ?SendCopyPacket@@YAXH@Z    00447f20 f   commcli.obj
 0001:00046f40       ?AddBlakodToPacket@@YAXTval_type@@0@Z 00447f40 f   commcli.obj
 0001:00047130       ?AddIntToPacket@@YAXH@Z    00448130 f   commcli.obj
 0001:00047150       ?SendBlakodBeginSystemEvent@@YAXH@Z 00448150 f   commcli.obj
 0001:000471b0       ?AddStringToPacket@@YAXHPBD@Z 004481b0 f   commcli.obj
 0001:000471f0       ?AddByteToPacket@@YAXE@Z   004481f0 f   commcli.obj
 0001:00047210       ?SendBlakodEndSystemEvent@@YAXH@Z 00448210 f   commcli.obj
 0001:00047270       ?SecurePacketBufferList@@YAXHPAUbuffer_struct@@@Z 00448270 f   commcli.obj
 0001:00047380       ?SendPacket@@YAXH@Z        00448380 f   commcli.obj
 0001:000473b0       ?LoadConfigLine@@YAHPADHPBDH@Z 004483b0 f   config.obj
 0001:00047610       ?LoadConfig@@YAXXZ         00448610 f   config.obj
 0001:00047730       ?UnlockDynamicConfig@@YAXXZ 00448730 f   config.obj
 0001:00047740       ?LockDynamicConfig@@YAXXZ  00448740 f   config.obj
 0001:00047750       ?AddConfig@@YAPBDHPBDHH@Z  00448750 f   config.obj
 0001:00047a10       ?ResetConfig@@YAXXZ        00448a10 f   config.obj
 0001:00047a20       ?InitConfig@@YAXXZ         00448a20 f   config.obj
 0001:00047a70       ?SetConfigBool@@YAXHD@Z    00448a70 f   config.obj
 0001:00047b20       ?GetConfigIDByGroupAndName@@YAHPAD0@Z 00448b20 f   config.obj
 0001:00047ba0       ?ForEachConfigNode@@YAXP6AXPAUconfig_node@@PBD1@Z@Z 00448ba0 f   config.obj
 0001:00047be0       ?SetConfigInt@@YAXHH@Z     00448be0 f   config.obj
 0001:00047c90       ?UnlockConfigStr@@YAXXZ    00448c90 f   config.obj
 0001:00047ca0       ?LockConfigStr@@YAPADH@Z   00448ca0 f   config.obj
 0001:00047d30       ?GetConfigByID@@YAPAUconfig_node@@H@Z 00448d30 f   config.obj
 0001:00047d60       ?SetConfigStr@@YAXHPAD@Z   00448d60 f   config.obj
 0001:00047ec0       ?ConfigBool@@YADH@Z        00448ec0 f   config.obj
 0001:00047f50       ?ConfigInt@@YAHH@Z         00448f50 f   config.obj
 0001:00047fe0       ?ConfigStr@@YAPADH@Z       00448fe0 f   config.obj
 0001:00048070       ?_MySQLWriteGuildDisband@@YAXPAUsql_record_guilddisband@@H@Z 00449070 f   database.obj
 0001:00048100       ?_MySQLWriteGuild@@YAXPAUsql_record_guild@@H@Z 00449100 f   database.obj
 0001:00048240       ?_MySQLWritePlayerSuicide@@YAXPAUsql_record_playersuicide@@H@Z 00449240 f   database.obj
 0001:00048300       ?_MySQLWritePlayer@@YAXPAUsql_record_player@@H@Z 00449300 f   database.obj
 0001:00048620       ?_MySQLWritePlayerDeath@@YAXPAUsql_record_playerdeath@@H@Z 00449620 f   database.obj
 0001:000487e0       ?_MySQLWritePlayerAssessDamage@@YAXPAUsql_record_playerassessdamage@@H@Z 004497e0 f   database.obj
 0001:000489e0       ?_MySQLWritePlayerLogin@@YAXPAUsql_record_playerlogin@@H@Z 004499e0 f   database.obj
 0001:00048b40       ?_MySQLWriteMoneyCreated@@YAXPAUsql_record_moneycreated@@H@Z 00449b40 f   database.obj
 0001:00048bc0       ?_MySQLWriteTotalMoney@@YAXPAUsql_record_totalmoney@@H@Z 00449bc0 f   database.obj
 0001:00048c40       ?_MySQLWriteNode@@YAXPAUsql_queue_node@@H@Z 00449c40 f   database.obj
 0001:00048cc0       ?_MySQLCallProc@@YAXPADQAUst_mysql_bind@@@Z 00449cc0 f   database.obj
 0001:00048d20       ?_MySQLDequeue@@YAHH@Z     00449d20 f   database.obj
 0001:00048d90       ?_MySQLEnqueue@@YAHPAUsql_queue_node@@@Z 00449d90 f   database.obj
 0001:00048e10       ?_MySQLVerifySchema@@YAXXZ 00449e10 f   database.obj
 0001:00048f80       ?_MySQLWorker@@YAXPAX@Z    00449f80 f   database.obj
 0001:00049260       ?MySQLRecordPlayerLogin@@YAHPAD00@Z 0044a260 f   database.obj
 0001:00049340       ?MySQLEnd@@YAXXZ           0044a340 f   database.obj
 0001:00049350       ?MySQLInit@@YAXPAD000@Z    0044a350 f   database.obj
 0001:000493d0       ?MySQLRecordGuild@@YAHPAD00@Z 0044a3d0 f   database.obj
 0001:000494b0       ?MySQLRecordGuildDisband@@YAHPAD@Z 0044a4b0 f   database.obj
 0001:00049540       ?MySQLRecordPlayerAssessDamage@@YAHPAD0HHHH0@Z 0044a540 f   database.obj
 0001:00049640       ?MySQLRecordPlayerSuicide@@YAHHPAD@Z 0044a640 f   database.obj
 0001:000496e0       ?MySQLRecordPlayer@@YAHHPAD000HHHHHHHH@Z 0044a6e0 f   database.obj
 0001:00049880       ?MySQLRecordMoneyCreated@@YAHH@Z 0044a880 f   database.obj
 0001:00049900       ?MySQLRecordTotalMoney@@YAHH@Z 0044a900 f   database.obj
 0001:00049980       ?MySQLRecordPlayerDeath@@YAHPAD000H@Z 0044a980 f   database.obj
 0001:00049a90       ?DebugHeapAll@@YAXXZ       0044aa90 f   debug.obj
 0001:00049ab0       ?InitDebug@@YAXXZ          0044aab0 f   debug.obj
 0001:00049b20       ?DebugCheckHeap@@YAXXZ     0044ab20 f   debug.obj
 0001:00049b30       ?ForEachNewDLFile@@YAXPAUsession_node@@P6AXPADHHH@Z@Z 0044ab30 f   dllist.obj
 0001:00049b90       ?CountNewDLFile@@YAHPAUsession_node@@@Z 0044ab90 f   dllist.obj
 0001:00049bd0       ?AddOrUpdateDLlist@@YAXPADHHH@Z 0044abd0 f   dllist.obj
 0001:00049c70       ?AddDLlist@@YAXPADHHH@Z    0044ac70 f   dllist.obj
 0001:00049d50       ?InitDLlist@@YAXXZ         0044ad50 f   dllist.obj
 0001:00049d60       ?ForEachDLlist@@YAXP6AXPAUdllist_struct@@@Z@Z 0044ad60 f   dllist.obj
 0001:00049da0       ?AddBuiltInDLlist@@YAXXZ   0044ada0 f   dllist.obj
 0001:00049fd0       ?ResetDLlist@@YAXXZ        0044afd0 f   dllist.obj
 0001:0004a010       ?BlakMoveFile@@YA_NPBD0@Z  0044b010 f   files.obj
 0001:0004a0d0       ?FindMatchingFiles@@YA_NPBDPAV?$vector@V?$basic_string@DU?$char_traits@D@std@@V?$allocator@D@2@@std@@V?$allocator@V?$basic_string@DU?$char_traits@D@std@@V?$allocator@D@2@@std@@@2@@std@@@Z 0044b0d0 f   files.obj
 0001:0004a290       ?GetSecurityRedbookID@@YAHXZ 0044b290 f   game.obj
 0001:0004a2a0       ?UpdateSecurityRedbook@@YAXXZ 0044b2a0 f   game.obj
 0001:0004a3f0       ?GameDMCommand@@YAXPAUsession_node@@HPAD@Z 0044b3f0 f   game.obj
 0001:0004a620       ?GameSendSystemEnter@@YAXPAUsession_node@@@Z 0044b620 f   game.obj
 0001:0004a680       ?GameSendEachUserChoice@@YAXPAUuser_struct@@@Z 0044b680 f   game.obj
 0001:0004a7f0       ?GameTryGetUser@@YAXPAUsession_node@@@Z 0044b7f0 f   game.obj
 0001:0004ab70       ?GameStartUser@@YAXPAUsession_node@@PAUuser_struct@@@Z 0044bb70 f   game.obj
 0001:0004acc0       ?GameProtocolParse@@YAXPAUsession_node@@PAUclient_msg@@@Z 0044bcc0 f   game.obj
 0001:0004b100       ?GameEchoPing@@YAXPAUsession_node@@@Z 0044c100 f   game.obj
 0001:0004b1b0       ?GameSyncInputChar@@YAXPAUsession_node@@D@Z 0044c1b0 f   game.obj
 0001:0004b290       ?GameSyncProcessSessionBuffer@@YAXPAUsession_node@@@Z 0044c290 f   game.obj
 0001:0004b350       ?GameSyncInit@@YAXPAUsession_node@@@Z 0044c350 f   game.obj
 0001:0004b3b0       ?GameSendResync@@YAXPAUsession_node@@@Z 0044c3b0 f   game.obj
 0001:0004b410       ?GameRandomStreamsStep@@YAIPAUsession_node@@@Z 0044c410 f   game.obj
 0001:0004b4a0       ?GameProcessSessionBuffer@@YAXPAUsession_node@@@Z 0044c4a0 f   game.obj
 0001:0004b740       ?GameProcessSessionTimer@@YAXPAUsession_node@@@Z 0044c740 f   game.obj
 0001:0004b840       ?GameExit@@YAXPAUsession_node@@@Z 0044c840 f   game.obj
 0001:0004b910       ?GameInit@@YAXPAUsession_node@@@Z 0044c910 f   game.obj
 0001:0004ba20       ?GetSecurityRedbook@@YAPADXZ 0044ca20 f   game.obj
 0001:0004ba40       ?GameClientExit@@YAXPAUsession_node@@@Z 0044ca40 f   game.obj
 0001:0004ba90       ?InitGameLock@@YAXXZ       0044ca90 f   gamelock.obj
 0001:0004baa0       ?SetGameLock@@YAXPAD@Z     0044caa0 f   gamelock.obj
 0001:0004bac0       ?SetGameUnlock@@YAXXZ      0044cac0 f   gamelock.obj
 0001:0004bad0       ?GetGameLockedReason@@YAPADXZ 0044cad0 f   gamelock.obj
 0001:0004bae0       ?IsGameLocked@@YADXZ       0044cae0 f   gamelock.obj
 0001:0004baf0       ?CompactString@@YAXPAUstring_node@@H@Z 0044caf0 f   garbage.obj
 0001:0004bb20       ?ResetStringReference@@YAXPATval_type@@@Z 0044cb20 f   garbage.obj
 0001:0004bbb0       ?RenumberString@@YAXPAUstring_node@@H@Z 0044cbb0 f   garbage.obj
 0001:0004bbd0       ?MarkString@@YAXH@Z        0044cbd0 f   garbage.obj
 0001:0004bc20       ?ClearStringGarbageRef@@YAXPAUstring_node@@H@Z 0044cc20 f   garbage.obj
 0001:0004bc30       ?CompactTimer@@YAXPAUtimer_struct@@@Z 0044cc30 f   garbage.obj
 0001:0004bc40       ?ResetTimerReference@@YAXPATval_type@@@Z 0044cc40 f   garbage.obj
 0001:0004bcb0       ?RenumberTimer@@YAXPAUtimer_struct@@@Z 0044ccb0 f   garbage.obj
 0001:0004bcd0       ?RenumberTableTimerStringReferences@@YAXPAUtable_struct@@H@Z 0044ccd0 f   garbage.obj
 0001:0004be10       ?RenumberListNodeTimerStringReferences@@YAXPAUlist_node@@H@Z 0044ce10 f   garbage.obj
 0001:0004be60       ?RenumberObjectTimerStringReferences@@YAXPAUobject_node@@@Z 0044ce60 f   garbage.obj
 0001:0004bf10       ?CompactObject@@YAXPAUobject_node@@@Z 0044cf10 f   garbage.obj
 0001:0004bf20       ?ResetObjectReference@@YADPATval_type@@@Z 0044cf20 f   garbage.obj
 0001:0004bf60       ?RenumberTimerObjectReferences@@YAXPAUtimer_struct@@@Z 0044cf60 f   garbage.obj
 0001:0004bfd0       ?RenumberSessionObjectReferences@@YAXPAUsession_node@@@Z 0044cfd0 f   garbage.obj
 0001:0004c020       ?RenumberUserObjectReferences@@YAXPAUuser_struct@@@Z 0044d020 f   garbage.obj
 0001:0004c050       ?RenumberTableObjectReferences@@YAXPAUtable_struct@@H@Z 0044d050 f   garbage.obj
 0001:0004c1b0       ?RenumberListNodeObjectReferences@@YAXPAUlist_node@@H@Z 0044d1b0 f   garbage.obj
 0001:0004c300       ?RenumberObjectReferences@@YAXPAUobject_node@@@Z 0044d300 f   garbage.obj
 0001:0004c450       ?RenumberBlockerObjects@@YAXPAUroom_node@@@Z 0044d450 f   garbage.obj
 0001:0004c500       ?RenumberObject@@YAXPAUobject_node@@@Z 0044d500 f   garbage.obj
 0001:0004c520       ?DeleteUnreferencedObject@@YAXPAUobject_node@@@Z 0044d520 f   garbage.obj
 0001:0004c540       ?MarkTableObject@@YAXH@Z   0044d540 f   garbage.obj
 0001:0004c5f0       ?MarkListNodeObject@@YAXH@Z 0044d5f0 f   garbage.obj
 0001:0004c6d0       ?MarkObject@@YAXH@Z        0044d6d0 f   garbage.obj
 0001:0004c760       ?MarkUserObjectNodes@@YAXPAUuser_struct@@@Z 0044d760 f   garbage.obj
 0001:0004c770       ?ClearObjectGarbageRef@@YAXPAUobject_node@@@Z 0044d770 f   garbage.obj
 0001:0004c780       ?DeleteUnreferencedTable@@YAXPAUtable_struct@@H@Z 0044d780 f   garbage.obj
 0001:0004c7a0       ?CompactTable@@YAXPAUtable_struct@@H@Z 0044d7a0 f   garbage.obj
 0001:0004c7c0       ?RenumberTableReferences@@YAXPATval_type@@@Z 0044d7c0 f   garbage.obj
 0001:0004c8b0       ?RenumberListNodeTableReferences@@YAXPAUlist_node@@H@Z 0044d8b0 f   garbage.obj
 0001:0004c8f0       ?RenumberTable@@YAXPAUtable_struct@@H@Z 0044d8f0 f   garbage.obj
 0001:0004c910       ?ClearTableGarbageRef@@YAXPAUtable_struct@@H@Z 0044d910 f   garbage.obj
 0001:0004c920       ?CompactListNode@@YAXPAUlist_node@@H@Z 0044d920 f   garbage.obj
 0001:0004c940       ?RenumberListNodeReferences@@YAXPATval_type@@@Z 0044d940 f   garbage.obj
 0001:0004ca10       ?RenumberTableListNodeReferences@@YAXPAUtable_struct@@H@Z 0044da10 f   garbage.obj
 0001:0004cb30       ?RenumberObjectContainerReferences@@YAXPAUobject_node@@@Z 0044db30 f   garbage.obj
 0001:0004cb70       ?RenumberListNode@@YAXPAUlist_node@@H@Z 0044db70 f   garbage.obj
 0001:0004cb90       ?MarkListNode@@YAXH@Z      0044db90 f   garbage.obj
 0001:0004cc30       ?MarkTableListNode@@YAXH@Z 0044dc30 f   garbage.obj
 0001:0004ccd0       ?MarkObjectListNodesAndTables@@YAXPAUobject_node@@@Z 0044dcd0 f   garbage.obj
 0001:0004cd20       ?ClearListNodeGarbageRef@@YAXPAUlist_node@@H@Z 0044dd20 f   garbage.obj
 0001:0004cd30       ?GarbageWarnAdminSession@@YAXPAUsession_node@@@Z 0044dd30 f   garbage.obj
 0001:0004cd70       ?GarbageKickoffGamePick@@YAXPAUsession_node@@@Z 0044dd70 f   garbage.obj
 0001:0004cda0       ?GarbageCollect@@YAXXZ     0044dda0 f   garbage.obj
 0001:0004d910       ?InterfaceUpdateAdmin@@YAXXZ 0044e910 f   interface_windows.obj
 0001:0004d970       ?InterfaceAddAdminBuffer@@YAXPADH@Z 0044e970 f   interface_windows.obj
 0001:0004d9c0       ?InterfaceSendBytes@@YAXPADH@Z 0044e9c0 f   interface_windows.obj
 0001:0004da30       ?InterfaceSendBufferList@@YAXPAUbuffer_struct@@@Z 0044ea30 f   interface_windows.obj
 0001:0004dac0       ?InterfaceAdminResponseProc@@YGJPAUHWND__@@IIJ@Z 0044eac0 f   interface_windows.obj
 0001:0004db10       ?InterfaceAdminInputProc@@YGJPAUHWND__@@IIJ@Z 0044eb10 f   interface_windows.obj
 0001:0004dc60       ?InterfaceTabPageCommand@@YAXPAUHWND__@@H0I@Z 0044ec60 f   interface_windows.obj
 0001:0004dd00       ?InterfaceDialogTabPage@@YGHPAUHWND__@@IIJ@Z 0044ed00 f   interface_windows.obj
 0001:0004dd50       ?InterfaceDialogAbout@@YGHPAUHWND__@@IIJ@Z 0044ed50 f   interface_windows.obj
 0001:0004ddc0       ?InterfaceDialogMotd@@YGHPAUHWND__@@IIJ@Z 0044edc0 f   interface_windows.obj
 0001:0004def0       ?CenterWindow@@YAXPAUHWND__@@0@Z 0044eef0 f   interface_windows.obj
 0001:0004e000       ?InterfaceReloadSystem@@YAXXZ 0044f000 f   interface_windows.obj
 0001:0004e110       ?InterfaceSave@@YAXXZ      0044f110 f   interface_windows.obj
 0001:0004e270       ?InterfaceCheckChannels@@YAXXZ 0044f270 f   interface_windows.obj
 0001:0004e430       ?InterfaceDrawText@@YAXPAUHWND__@@@Z 0044f430 f   interface_windows.obj
 0001:0004e610       ?InterfaceCommand@@YAXPAUHWND__@@H0I@Z 0044f610 f   interface_windows.obj
 0001:0004e750       ?InterfaceCreateListControl@@YAXXZ 0044f750 f   interface_windows.obj
 0001:0004e860       ?InterfaceSetup@@YAXXZ     0044f860 f   interface_windows.obj
 0001:0004eac0       ?InterfaceTabChange@@YAXXZ 0044fac0 f   interface_windows.obj
 0001:0004eb20       ?InterfaceSetTab@@YAXH@Z   0044fb20 f   interface_windows.obj
 0001:0004ebc0       ?InterfaceCreateTabControl@@YAXPAUHWND__@@@Z 0044fbc0 f   interface_windows.obj
 0001:0004ede0       ?InterfaceCreate@@YAXPAUHWND__@@IJ@Z 0044fde0 f   interface_windows.obj
 0001:0004edf0       ?StartupComplete@@YAXXZ    0044fdf0 f   interface_windows.obj
 0001:0004efa0       ?InterfaceLogoff@@YAXPAUsession_node@@@Z 0044ffa0 f   interface_windows.obj
 0001:0004eff0       ?InterfaceLogon@@YAXPAUsession_node@@@Z 0044fff0 f   interface_windows.obj
 0001:0004f040       ?InterfaceUpdateList@@YAXH@Z 00450040 f   interface_windows.obj
 0001:0004f220       ?InterfaceRemoveList@@YAXH@Z 00450220 f   interface_windows.obj
 0001:0004f270       ?InterfaceAddList@@YAXH@Z  00450270 f   interface_windows.obj
 0001:0004f460       ?InterfaceWindowProc@@YGJPAUHWND__@@IIJ@Z 00450460 f   interface_windows.obj
 0001:0004f970       ?InterfaceThread@@YAXPAX@Z 00450970 f   interface_windows.obj
 0001:0004fac0       ?StoreInstanceData@@YAXPAUHINSTANCE__@@H@Z 00450ac0 f   interface_windows.obj
 0001:0004fad0       ?InitInterface@@YAXXZ      00450ad0 f   interface_windows.obj
 0001:0004fb30       ?FatalErrorShow@@YAXPBDH0@Z 00450b30 f   interface_windows.obj
 0001:0004fb90       ?StartupPrintf@@YAXPBDZZ   00450b90 f   interface_windows.obj
 0001:0004fc20       ?InterfaceUpdateChannel@@YAXXZ 00450c20 f   interface_windows.obj
 0001:0004fc60       ?StartAsyncSession@@YAXPAUsession_node@@@Z 00450c60 f   interface_windows.obj
 0001:0004fc90       ?InterfaceUpdateSession@@YAXPAUsession_node@@@Z 00450c90 f   interface_windows.obj
 0001:0004fce0       ?StartAsyncSocketAccept@@YAXIH@Z 00450ce0 f   interface_windows.obj
 0001:0004fd20       ?InterfaceSignalConsole@@YAXXZ 00450d20 f   interface_windows.obj
 0001:0004fd60       ?GetUsedSessions@@YAHXZ    00450d60 f   interface_windows.obj
 0001:0004fd70       ?InterfaceUpdate@@YAXXZ    00450d70 f   interface_windows.obj
 0001:0004fdb0       ?InitInterfaceLocks@@YAXXZ 00450db0 f   intrlock.obj
 0001:0004fde0       ?GetQuit@@YADXZ            00450de0 f   intrlock.obj
 0001:0004fe10       ?TryEnterServerLock@@YADXZ 00450e10 f   intrlock.obj
 0001:0004fe30       ?SignalSession@@YAXH@Z     00450e30 f   intrlock.obj
 0001:0004fe50       ?LeaveServerLock@@YAXXZ    00450e50 f   intrlock.obj
 0001:0004fe60       ?EnterServerLock@@YAXXZ    00450e60 f   intrlock.obj
 0001:0004fe70       ?SetQuit@@YAXXZ            00450e70 f   intrlock.obj
 0001:0004fea0       ?ISHashFind@@YAPBDPAUishash_table@@H@Z 00450ea0 f   intstringhash.obj
 0001:0004fee0       ?ISHashInsert@@YAXPAUishash_table@@HPBD@Z 00450ee0 f   intstringhash.obj
 0001:0004fff0       ?FreeISHash@@YAXPAUishash_table@@@Z 00450ff0 f   intstringhash.obj
 0001:000500a0       ?CreateISHash@@YAPAUishash_table@@H@Z 004510a0 f   intstringhash.obj
 0001:000501a0       ?LoadKodbaseResource@@YAXPADH@Z 004511a0 f   kodbase.obj
 0001:000501b0       ?LoadKodbaseParameter@@YAXPADH@Z 004511b0 f   kodbase.obj
 0001:000501c0       ?LoadKodbaseMessage@@YAXPADH@Z 004511c0 f   kodbase.obj
 0001:000501d0       ?LoadKodbaseClassVariable@@YAXPADH@Z 004511d0 f   kodbase.obj
 0001:000502b0       ?LoadKodbaseProperty@@YAXPADH@Z 004512b0 f   kodbase.obj
 0001:000502e0       ?LoadKodbaseClass@@YAXPADH@Z 004512e0 f   kodbase.obj
 0001:00050340       ?LoadKodbase@@YAXXZ        00451340 f   kodbase.obj
 0001:00050730       ?LoadList@@YADHTval_type@@0@Z 00451730 f   list.obj
 0001:00050770       ?AllocateListNode@@YAHXZ   00451770 f   list.obj
 0001:00050820       ?ClearList@@YAXXZ          00451820 f   list.obj
 0001:000508a0       ?InitList@@YAXXZ           004518a0 f   list.obj
 0001:00050910       ?SetNumListNodes@@YAXH@Z   00451910 f   list.obj
 0001:00050920       ?ForEachListNode@@YAXP6AXPAUlist_node@@H@Z@Z 00451920 f   list.obj
 0001:00050950       ?MoveListNode@@YAXHH@Z     00451950 f   list.obj
 0001:000509f0       ?SendNthListMessage@@YAHHH_NHHQAUparm_node@@@Z 004519f0 f   list.obj
 0001:00050b50       ?SendListMessage@@YAHH_NHHQAUparm_node@@@Z 00451b50 f   list.obj
 0001:00050c60       ?IsListMatch@@YAHHH@Z      00451c60 f   list.obj
 0001:00050e50       ?SwapListElem@@YAHHHH@Z    00451e50 f   list.obj
 0001:00050f60       ?Rest@@YAHH@Z              00451f60 f   list.obj
 0001:00050fa0       ?SetNth@@YAHHHTval_type@@@Z 00451fa0 f   list.obj
 0001:00051080       ?DelListElem@@YAHTval_type@@0@Z 00452080 f   list.obj
 0001:00051170       ?FindListElem@@YAHTval_type@@0@Z 00452170 f   list.obj
 0001:00051220       ?Nth@@YAHHH@Z              00452220 f   list.obj
 0001:000512f0       ?GetListNode@@YAHTval_type@@H0@Z 004522f0 f   list.obj
 0001:00051450       ?SendFirstListMessage@@YAHH_NHHQAUparm_node@@@Z 00452450 f   list.obj
 0001:000515f0       ?SendFirstListMessageByClass@@YAHHH_NHHQAUparm_node@@@Z 004525f0 f   list.obj
 0001:000518f0       ?GetAllListNodesByClass@@YAHHHH@Z 004528f0 f   list.obj
 0001:00051c00       ?ListCopy@@YAHH@Z          00452c00 f   list.obj
 0001:00051e50       ?First@@YAHH@Z             00452e50 f   list.obj
 0001:00051e90       ?DelLastListElem@@YAHTval_type@@@Z 00452e90 f   list.obj
 0001:00051f60       ?SendNthListMessageByClass@@YAHHHH_NHHQAUparm_node@@@Z 00452f60 f   list.obj
 0001:000521b0       ?SetFirst@@YAHHTval_type@@@Z 004531b0 f   list.obj
 0001:000521f0       ?AppendListElem@@YAHTval_type@@0@Z 004531f0 f   list.obj
 0001:000523c0       ?InsertListElem@@YAHHHTval_type@@@Z 004533c0 f   list.obj
 0001:000525d0       ?Length@@YAHH@Z            004535d0 f   list.obj
 0001:00052640       ?Last@@YAHH@Z              00453640 f   list.obj
 0001:00052700       ?SendListMessageByClass@@YAHHH_NHHQAUparm_node@@@Z 00453700 f   list.obj
 0001:000529e0       ?GetListElemByClass@@YAHTval_type@@H@Z 004539e0 f   list.obj
 0001:00052b60       ?GetListNodesUsed@@YAHXZ   00453b60 f   list.obj
 0001:00052b70       ?GetListNodeByID@@YAPAUlist_node@@H@Z 00453b70 f   list.obj
 0001:00052ba0       ?Cons@@YAHTval_type@@0@Z   00453ba0 f   list.obj
 0001:00052c70       ?ResetList@@YAXXZ          00453c70 f   list.obj
 0001:00052c80       ?IsListNodeByID@@YADH@Z    00453c80 f   list.obj
 0001:00052ca0       ?LoadLineAccount@@YADPAD0000000@Z 00453ca0 f   loadacco.obj
 0001:00052e80       ?LoadAccounts@@YADPAD@Z    00453e80 f   loadacco.obj
 0001:00053080       ?LoadControlFile@@YADPAH@Z 00454080 f   loadall.obj
 0001:00053240       ?LoadFromKod@@YADH@Z       00454240 f   loadall.obj
 0001:000532f0       ?LoadAllButAccountAtTime@@YADPAD@Z 004542f0 f   loadall.obj
 0001:00053560       ?LoadAll@@YADXZ            00454560 f   loadall.obj
 0001:00053730       ?LoadAllButAccount@@YADXZ  00454730 f   loadall.obj
 0001:000537e0       ?LoadGameTranslateVal@@YAXPATval_type@@@Z 004547e0 f   loadgame.obj
 0001:000538e0       ?GetLoadGameResourceByID@@YAPBDH@Z 004548e0 f   loadgame.obj
 0001:00053910       ?GetLoadGamePropertyNameByID@@YAPADPAUload_game_class_struct@@H@Z 00454910 f   loadgame.obj
 0001:00053930       ?GetLoadGameClassByID@@YAPAUload_game_class_struct@@H@Z 00454930 f   loadgame.obj
 0001:00053960       ?CreateLoadGameResource@@YAXHPAD@Z 00454960 f   loadgame.obj
 0001:00053970       ?CreateLoadGameClass@@YAPAUload_game_class_struct@@HPADH@Z 00454970 f   loadgame.obj
 0001:00053aa0       ?LoadGameResource@@YADXZ   00454aa0 f   loadgame.obj
 0001:00053bb0       ?LoadAddPropertyName@@YAXPAUload_game_class_struct@@HPAD@Z 00454bb0 f   loadgame.obj
 0001:00053c60       ?LoadGameClass@@YADXZ      00454c60 f   loadgame.obj
 0001:00053e30       ?LoadGameUser@@YADXZ       00454e30 f   loadgame.obj
 0001:00053ec0       ?LoadGameTimer@@YADXZ      00454ec0 f   loadgame.obj
 0001:00054040       ?LoadGameTables@@YADXZ     00455040 f   loadgame.obj
 0001:00054270       ?LoadGameListNodes@@YADXZ  00455270 f   loadgame.obj
 0001:000543b0       ?LoadGameObject@@YADXZ     004553b0 f   loadgame.obj
 0001:00054570       ?LoadGameBuiltInObjects@@YADXZ 00455570 f   loadgame.obj
 0001:000546e0       ?LoadGameVersion@@YADXZ    004556e0 f   loadgame.obj
 0001:00054730       ?LoadGameParse@@YADPAD@Z   00455730 f   loadgame.obj
 0001:000548a0       ?LoadGameClose@@YAXXZ      004558a0 f   loadgame.obj
 0001:000548b0       ?LoadGameOpen@@YADPAD@Z    004558b0 f   loadgame.obj
 0001:000548d0       ?LoadGame@@YADPAD@Z        004558d0 f   loadgame.obj
 0001:00054c60       ?FindMessages@@YAXPADHPAUbof_dispatch@@@Z 00455c60 f   loadkod.obj
 0001:00054db0       ?FindClasses@@YAXPAD0@Z    00455db0 f   loadkod.obj
 0001:00054e40       ?AddFileMem@@YAXPAD0H@Z    00455e40 f   loadkod.obj
 0001:00054f00       ?LoadBofName@@YADPAD@Z     00455f00 f   loadkod.obj
 0001:000550c0       ?ResetLoadBof@@YAXXZ       004560c0 f   loadkod.obj
 0001:00055130       ?LoadBof@@YAXXZ            00456130 f   loadkod.obj
 0001:000555c0       ?InitLoadBof@@YAXXZ        004565c0 f   loadkod.obj
 0001:000555e0       ?LoadDynamicRscName@@YADPAD@Z 004565e0 f   loadrsc.obj
 0001:00055790       ?EachLoadRsc@@YA_NPADHH0@Z 00456790 f   loadrsc.obj
 0001:000557b0       ?LoadRSBHash@@YAXPAD@Z     004567b0 f   loadrsc.obj
 0001:000558b0       ?LoadRsc@@YAXXZ            004568b0 f   loadrsc.obj
 0001:00055bb0       ?LoadDynamicRsc@@YAXPAD@Z  00456bb0 f   loadrsc.obj
 0001:00055bd0       ?LoadBlakodStrings@@YADPAD@Z 00456bd0 f   loadstr.obj
 0001:00055c80       _WinMain@16                00456c80 f   main.obj
 0001:00055cb0       ?GetLastErrorStr@@YAPADXZ  00456cb0 f   main.obj
 0001:00055ce0       ?MainReloadGameData@@YAXXZ 00456ce0 f   main.obj
 0001:00055e20       ?MainExitServer@@YAXXZ     00456e20 f   main_windows.obj
 0001:00056060       ?MainServer@@YAXXZ         00457060 f   main_windows.obj
 0001:00056510       ?MaintenanceInputChar@@YAXPAUsession_node@@D@Z 00457510 f   maintenance.obj
 0001:00056600       ?MaintenanceProcessSessionBuffer@@YAXPAUsession_node@@@Z 00457600 f   maintenance.obj
 0001:000566b0       ?MaintenanceExit@@YAXPAUsession_node@@@Z 004576b0 f   maintenance.obj
 0001:000566c0       ?MaintenanceInit@@YAXPAUsession_node@@@Z 004576c0 f   maintenance.obj
 0001:000566d0       ?FreeMemorySIMD@@YAXHPAXH@Z 004576d0 f   memory.obj
 0001:000566f0       ?AllocateMemorySIMD@@YAPAXHH@Z 004576f0 f   memory.obj
 0001:00056710       ?AllocateMemoryCallocDebug@@YAPAXHHHPBDH@Z 00457710 f   memory.obj
 0001:00056790       ?InitMemory@@YAXXZ         00457790 f   memory.obj
 0001:00056800       ?ResizeMemory@@YAPAXHPAXHH@Z 00457800 f   memory.obj
 0001:00056880       ?GetMemoryTotal@@YAHXZ     00457880 f   memory.obj
 0001:00056920       ?GetMemoryStatName@@YAPBDH@Z 00457920 f   memory.obj
 0001:00056930       ?GetNumMemoryStats@@YAHXZ  00457930 f   memory.obj
 0001:00056940       ?GetMemoryStats@@YAPAUmemory_statistics@@XZ 00457940 f   memory.obj
 0001:00056950       ?FreeMemoryX@@YAXHPAPAXH@Z 00457950 f   memory.obj
 0001:000569a0       ?AllocateMemoryDebug@@YAPAXHHPBDH@Z 004579a0 f   memory.obj
 0001:00056a20       ?SetEachClassMessagesPropagate@@YAXPAUclass_struct@@@Z 00457a20 f   message.obj
 0001:00056b00       ?ResetMessageClass@@YAXPAUclass_struct@@@Z 00457b00 f   message.obj
 0001:00056b80       ?InitMessage@@YAXXZ        00457b80 f   message.obj
 0001:00056ba0       ?ResetMessage@@YAXXZ       00457ba0 f   message.obj
 0001:00056c00       ?SetMessagesPropagate@@YAXXZ 00457c00 f   message.obj
 0001:00056c40       ?AddMessage@@YAXHHHPADH@Z  00457c40 f   message.obj
 0001:00056d30       ?SetClassNumMessages@@YAXHH@Z 00457d30 f   message.obj
 0001:00056df0       ?GetMessageByID@@YAPAUmessage_struct@@HHPAPAUclass_struct@@@Z 00457df0 f   message.obj
 0001:00056e80       ?GetMessageByName@@YAPAUmessage_struct@@HPADPAPAUclass_struct@@@Z 00457e80 f   message.obj
 0001:00056ee0       ?GetNumMessageHashCollisions@@YAHXZ 00457ee0 f   message.obj
 0001:00056ef0       ?LoadMotdName@@YADPAD@Z    00457ef0 f   motd.obj
 0001:00057020       ?InitMotd@@YAXXZ           00458020 f   motd.obj
 0001:00057030       ?SetMotd@@YAXPAD@Z         00458030 f   motd.obj
 0001:000571d0       ?GetMotd@@YAPADXZ          004581d0 f   motd.obj
 0001:00057240       ?GetMotdLength@@YAHXZ      00458240 f   motd.obj
 0001:000572d0       ?ResetLoadMotd@@YAXXZ      004582d0 f   motd.obj
 0001:00057310       ?LoadMotd@@YAXXZ           00458310 f   motd.obj
 0001:00057490       ?MutexClose@@YA_NPAX@Z     00458490 f   mutex_windows.obj
 0001:000574a0       ?MutexAcquire@@YA_NPAX@Z   004584a0 f   mutex_windows.obj
 0001:000574c0       ?MutexCreate@@YAPAXXZ      004584c0 f   mutex_windows.obj
 0001:000574d0       ?MutexRelease@@YA_NPAX@Z   004584d0 f   mutex_windows.obj
 0001:000574e0       ?MutexAcquireWithTimeout@@YA_NPAXH@Z 004584e0 f   mutex_windows.obj
 0001:000574f0       ?GetNameIDNode@@YAPAUnameid_struct@@H@Z 004584f0 f   nameid.obj
 0001:00057520       ?ResetNameID@@YAXXZ        00458520 f   nameid.obj
 0001:000575e0       ?InitNameID@@YAXXZ         004585e0 f   nameid.obj
 0001:00057660       ?CreateNameID@@YAXPADH@Z   00458660 f   nameid.obj
 0001:000577f0       ?GetNameByID@@YAPADH@Z     004587f0 f   nameid.obj
 0001:00057820       ?GetIDByName@@YAHPBD@Z     00458820 f   nameid.obj
 0001:00057850       ?ForEachNameID@@YAXP6AXPAUnameid_struct@@@Z@Z 00458850 f   nameid.obj
 0001:000578a0       ?SetObjectProperties@@YAXHPAUclass_struct@@@Z 004588a0 f   object.obj
 0001:00057930       ?GetObjectByIDEvenDeleted@@YAPAUobject_node@@H@Z 00458930 f   object.obj
 0001:00057960       ?AllocateObject@@YAHH@Z    00458960 f   object.obj
 0001:00057ae0       ?InitObject@@YAXXZ         00458ae0 f   object.obj
 0001:00057b50       ?LoadObject@@YADHPAD@Z     00458b50 f   object.obj
 0001:00057bf0       ?SetObjectPropertyByName@@YADHPADTval_type@@@Z 00458bf0 f   object.obj
 0001:00057cf0       ?ClearObject@@YAXXZ        00458cf0 f   object.obj
 0001:00057d70       ?MoveObject@@YAXHH@Z       00458d70 f   object.obj
 0001:00057e60       ?SetNumObjects@@YAXH@Z     00458e60 f   object.obj
 0001:00057e70       ?DeleteBlakodObject@@YAXH@Z 00458e70 f   object.obj
 0001:00057f10       ?GetObjectByIDQuietly@@YAPAUobject_node@@H@Z 00458f10 f   object.obj
 0001:00057f40       ?IsObjectByID@@YADH@Z      00458f40 f   object.obj
 0001:00057f70       ?GetObjectsUsed@@YAHXZ     00458f70 f   object.obj
 0001:00057f80       ?ResetObject@@YAXXZ        00458f80 f   object.obj
 0001:000580b0       ?ForEachObject@@YAXP6AXPAUobject_node@@@Z@Z 004590b0 f   object.obj
 0001:000580f0       ?GetObjectByID@@YAPAUobject_node@@H@Z 004590f0 f   object.obj
 0001:00058170       ?CreateObject@@YAHHHQAUparm_node@@@Z 00459170 f   object.obj
 0001:00058240       ?ParseClientSendBlakod@@YAXHHPAEHQAUclient_table_node@@@Z 00459240 f   parsecli.obj
 0001:00058ae0       ?LoadParseClientTables@@YAXXZ 00459ae0 f   parsecli.obj
 0001:00058b80       ?InitParseClient@@YAXXZ    00459b80 f   parsecli.obj
 0001:00058b90       ?ClientToBlakodUser@@YAXPAUsession_node@@HPAD@Z 00459b90 f   parsecli.obj
 0001:00058bb0       ?GameMessageCount@@YAXE@Z  00459bb0 f   parsecli.obj
 0001:00058bd0       ?AllocateParseClientListNodes@@YAXXZ 00459bd0 f   parsecli.obj
 0001:00058c80       ?ResyncInputChar@@YAXPAUsession_node@@D@Z 00459c80 f   resync.obj
 0001:00058d60       ?ResyncProcessSessionBuffer@@YAXPAUsession_node@@@Z 00459d60 f   resync.obj
 0001:00058db0       ?ResyncProcessSessionTimer@@YAXPAUsession_node@@@Z 00459db0 f   resync.obj
 0001:00058dd0       ?ResyncExit@@YAXPAUsession_node@@@Z 00459dd0 f   resync.obj
 0001:00058de0       ?ResyncInit@@YAXPAUsession_node@@@Z 00459de0 f   resync.obj
 0001:00058e10       ?BSPFreeRoom@@YAXPAUroom_type@@@Z 00459e10 f   roofile.obj
 0001:00058ff0       ?BSPLoadRoom@@YA_NPADPAUroom_type@@@Z 00459ff0 f   roofile.obj
 0001:0005a2b0       ?BSPCanMoveInRoomTree@@YA_NPBUBspNode@@PBUV2@@1PAPAUWall@@@Z 0045b2b0 f   roofile.obj
 0001:0005aac0       ?BSPLineOfSightTree@@YA_NPBUBspNode@@PBUV3@@1@Z 0045bac0 f   roofile.obj
 0001:0005b560       ?BSPMoveSector@@YAXPAUroom_type@@I_NMM@Z 0045c560 f   roofile.obj
 0001:0005b770       ?BSPBlockerClear@@YAXPAUroom_type@@@Z 0045c770 f   roofile.obj
 0001:0005b7b0       ?BSPBlockerRemove@@YA_NPAUroom_type@@H@Z 0045c7b0 f   roofile.obj
 0001:0005b800       ?BSPChangeTexture@@YAXPAUroom_type@@IGI@Z 0045c800 f   roofile.obj
 0001:0005b950       ?BSPLineOfSightView@@YA_NPAUV2@@0H@Z 0045c950 f   roofile.obj
 0001:0005ba80       ?BSPGetLocationInfo@@YA_NPAUroom_type@@PAUV2@@IPAIPAM33PAPAUBspLeaf@@@Z 0045ca80 f   roofile.obj
 0001:0005bbd0       ?BSPGetHeight@@YA_NPAUroom_type@@PAUV2@@PAM22PAPAUBspLeaf@@@Z 0045cbd0 f   roofile.obj
 0001:0005bd70       ?BSPBlockerAdd@@YA_NPAUroom_type@@HPAUV2@@@Z 0045cd70 f   roofile.obj
 0001:0005be10       ?BSPGetRandomPoint@@YA_NPAUroom_type@@HPAUV2@@@Z 0045ce10 f   roofile.obj
 0001:0005bf80       ?BSPBlockerMove@@YA_NPAUroom_type@@HPAUV2@@@Z 0045cf80 f   roofile.obj
 0001:0005bfd0       ?BSPCanMoveInRoom@@YA_NPAUroom_type@@PAUV2@@1H_NPAPAUWall@@@Z 0045cfd0 f   roofile.obj
 0001:0005c240       ?BSPLineOfSight@@YA_NPAUroom_type@@PAUV3@@1@Z 0045d240 f   roofile.obj
 0001:0005c440       ?BSPGetStepTowards@@YA_NPAUroom_type@@PAUV2@@11PAIH@Z 0045d440 f   roofile.obj
 0001:0005ca90       ?ExitRooms@@YAXXZ          0045da90 f   roomdata.obj
 0001:0005cac0       ?InitRooms@@YAXXZ          0045dac0 f   roomdata.obj
 0001:0005cb20       ?ForEachRoom@@YAXP6AXPAUroom_node@@@Z@Z 0045db20 f   roomdata.obj
 0001:0005cb50       ?LoadRoom@@YAHH@Z          0045db50 f   roomdata.obj
 0001:0005cd10       ?UnloadRoom@@YAXPAUroom_node@@@Z 0045dd10 f   roomdata.obj
 0001:0005cde0       ?ResetRooms@@YAXXZ         0045dde0 f   roomdata.obj
 0001:0005d060       ?PrintRoomTable@@YAXXZ     0045e060 f   roomdata.obj
 0001:0005d0e0       ?GetRoomDataByID@@YAPAUroom_node@@H@Z 0045e0e0 f   roomdata.obj
 0001:0005d120       ?SaveEachAccount@@YAXPAUaccount_node_struct@@@Z 0045e120 f   saveacco.obj
 0001:0005d1b0       ?SaveAccounts@@YADPAD@Z    0045e1b0 f   saveacco.obj
 0001:0005d200       ?SaveAll@@YAHXZ            0045e200 f   saveall.obj
 0001:0005d590       ?SaveControlFile@@YAXH@Z   0045e590 f   saveall.obj
 0001:0005d8c0       ?SaveEachUser@@YAXPAUuser_struct@@@Z 0045e8c0 f   savegame.obj
 0001:0005d9d0       ?SaveUsers@@YAXXZ          0045e9d0 f   savegame.obj
 0001:0005da00       ?SaveEachTimer@@YAXPAUtimer_struct@@@Z 0045ea00 f   savegame.obj
 0001:0005db90       ?SaveTimers@@YAXXZ         0045eb90 f   savegame.obj
 0001:0005dbc0       ?SaveEachTable@@YAXPAUtable_struct@@H@Z 0045ebc0 f   savegame.obj
 0001:0005dd50       ?SaveTables@@YAXXZ         0045ed50 f   savegame.obj
 0001:0005de40       ?SaveEachListNode@@YAXPAUlist_node@@H@Z 0045ee40 f   savegame.obj
 0001:0005df00       ?SaveListNodes@@YAXXZ      0045ef00 f   savegame.obj
 0001:0005dff0       ?SaveEachObject@@YAXPAUobject_node@@@Z 0045eff0 f   savegame.obj
 0001:0005e200       ?SaveObjects@@YAXXZ        0045f200 f   savegame.obj
 0001:0005e240       ?SaveBuiltInObjects@@YAXXZ 0045f240 f   savegame.obj
 0001:0005e5a0       ?SaveEachResource@@YAXPAUresource_struct@@@Z 0045f5a0 f   savegame.obj
 0001:0005e680       ?SaveResources@@YAXXZ      0045f680 f   savegame.obj
 0001:0005e690       ?SaveEachClass@@YAXPAUclass_struct@@@Z 0045f690 f   savegame.obj
 0001:0005e800       ?SaveClasses@@YAXXZ        0045f800 f   savegame.obj
 0001:0005e840       ?SaveGameVersion@@YAXXZ    0045f840 f   savegame.obj
 0001:0005e900       ?SaveGameFlushBuffer@@YAXXZ 0045f900 f   savegame.obj
 0001:0005e950       ?SaveGameCopyStringBuffer@@YAXPBD@Z 0045f950 f   savegame.obj
 0001:0005ea10       ?SaveGameCopyByteBuffer@@YAXD@Z 0045fa10 f   savegame.obj
 0001:0005ea60       ?SaveGameCopyIntBuffer@@YAXH@Z 0045fa60 f   savegame.obj
 0001:0005eab0       ?SaveGame@@YADPAD@Z        0045fab0 f   savegame.obj
 0001:0005ec50       ?SaveRscFlushBuffer@@YAXXZ 0045fc50 f   saversc.obj
 0001:0005eca0       ?SaveRscCopyStringBuffer@@YAXPBD@Z 0045fca0 f   saversc.obj
 0001:0005ed60       ?SaveRscCopyIntBuffer@@YAXH@Z 0045fd60 f   saversc.obj
 0001:0005edb0       ?SaveEachDynamicRsc@@YAXPAUresource_struct@@@Z 0045fdb0 f   saversc.obj
 0001:0005ee80       ?CountEachDynamicRsc@@YAXPAUresource_struct@@@Z 0045fe80 f   saversc.obj
 0001:0005ee90       ?SaveDynamicRsc@@YADPAD@Z  0045fe90 f   saversc.obj
 0001:0005f080       ?SaveStrFlushBuffer@@YAXXZ 00460080 f   savestr.obj
 0001:0005f0d0       ?SaveStrCopySnodBuffer@@YAXPAUstring_node@@@Z 004600d0 f   savestr.obj
 0001:0005f180       ?SaveStrCopyIntBuffer@@YAXH@Z 00460180 f   savestr.obj
 0001:0005f1d0       ?SaveEachString@@YAXPAUstring_node@@H@Z 004601d0 f   savestr.obj
 0001:0005f240       ?SaveStrings@@YADPAD@Z     00460240 f   savestr.obj
 0001:0005f480       ?CreateOpcodeTable@@YAXXZ  00460480 f   sendmsg.obj
 0001:0005f6d0       ?InterpretIsClassConst_P@@YAXHPAUlocal_var_type@@@Z 004606d0 f   sendmsg.obj
 0001:0005f930       ?InterpretIsClassConst_L@@YAXHPAUlocal_var_type@@@Z 00460930 f   sendmsg.obj
 0001:0005fb60       ?InterpretIsClass_P@@YAXHPAUlocal_var_type@@@Z 00460b60 f   sendmsg.obj
 0001:0005ff00       ?InterpretIsClass_L@@YAXHPAUlocal_var_type@@@Z 00460f00 f   sendmsg.obj
 0001:00060250       ?InterpretBinaryBitOr_P@@YAXHPAUlocal_var_type@@@Z 00461250 f   sendmsg.obj
 0001:00060530       ?InterpretBinaryBitOr_L@@YAXHPAUlocal_var_type@@@Z 00461530 f   sendmsg.obj
 0001:00060800       ?InterpretBinaryBitAnd_P@@YAXHPAUlocal_var_type@@@Z 00461800 f   sendmsg.obj
 0001:00060ae0       ?InterpretBinaryBitAnd_L@@YAXHPAUlocal_var_type@@@Z 00461ae0 f   sendmsg.obj
 0001:00060da0       ?InterpretBinaryGEq_P@@YAXHPAUlocal_var_type@@@Z 00461da0 f   sendmsg.obj
 0001:00061090       ?InterpretBinaryGEq_L@@YAXHPAUlocal_var_type@@@Z 00462090 f   sendmsg.obj
 0001:00061360       ?InterpretBinaryLEq_P@@YAXHPAUlocal_var_type@@@Z 00462360 f   sendmsg.obj
 0001:00061650       ?InterpretBinaryLEq_L@@YAXHPAUlocal_var_type@@@Z 00462650 f   sendmsg.obj
 0001:00061920       ?InterpretBinaryGreater_P@@YAXHPAUlocal_var_type@@@Z 00462920 f   sendmsg.obj
 0001:00061c10       ?InterpretBinaryGreater_L@@YAXHPAUlocal_var_type@@@Z 00462c10 f   sendmsg.obj
 0001:00061ee0       ?InterpretBinaryLess_P@@YAXHPAUlocal_var_type@@@Z 00462ee0 f   sendmsg.obj
 0001:000621d0       ?InterpretBinaryLess_L@@YAXHPAUlocal_var_type@@@Z 004631d0 f   sendmsg.obj
 0001:000624a0       ?InterpretBinaryNEq_P@@YAXHPAUlocal_var_type@@@Z 004634a0 f   sendmsg.obj
 0001:00062770       ?InterpretBinaryNEq_L@@YAXHPAUlocal_var_type@@@Z 00463770 f   sendmsg.obj
 0001:00062a20       ?InterpretBinaryEqual_P@@YAXHPAUlocal_var_type@@@Z 00463a20 f   sendmsg.obj
 0001:00062cf0       ?InterpretBinaryEqual_L@@YAXHPAUlocal_var_type@@@Z 00463cf0 f   sendmsg.obj
 0001:00062fa0       ?InterpretBinaryOr_P@@YAXHPAUlocal_var_type@@@Z 00463fa0 f   sendmsg.obj
 0001:000632a0       ?InterpretBinaryOr_L@@YAXHPAUlocal_var_type@@@Z 004642a0 f   sendmsg.obj
 0001:00063580       ?InterpretBinaryAnd_P@@YAXHPAUlocal_var_type@@@Z 00464580 f   sendmsg.obj
 0001:00063880       ?InterpretBinaryAnd_L@@YAXHPAUlocal_var_type@@@Z 00464880 f   sendmsg.obj
 0001:00063b60       ?InterpretBinaryMod_P@@YAXHPAUlocal_var_type@@@Z 00464b60 f   sendmsg.obj
 0001:00063ea0       ?InterpretBinaryMod_L@@YAXHPAUlocal_var_type@@@Z 00464ea0 f   sendmsg.obj
 0001:000641b0       ?InterpretBinaryDiv_P@@YAXHPAUlocal_var_type@@@Z 004651b0 f   sendmsg.obj
 0001:00064500       ?InterpretBinaryDiv_L@@YAXHPAUlocal_var_type@@@Z 00465500 f   sendmsg.obj
 0001:00064810       ?InterpretBinaryMul_P@@YAXHPAUlocal_var_type@@@Z 00465810 f   sendmsg.obj
 0001:00064af0       ?InterpretBinaryMul_L@@YAXHPAUlocal_var_type@@@Z 00465af0 f   sendmsg.obj
 0001:00064dc0       ?InterpretBinarySub_P@@YAXHPAUlocal_var_type@@@Z 00465dc0 f   sendmsg.obj
 0001:000650b0       ?InterpretBinarySub_L@@YAXHPAUlocal_var_type@@@Z 004660b0 f   sendmsg.obj
 0001:00065380       ?InterpretBinaryAdd_P@@YAXHPAUlocal_var_type@@@Z 00466380 f   sendmsg.obj
 0001:00065660       ?InterpretBinaryAdd_L@@YAXHPAUlocal_var_type@@@Z 00466660 f   sendmsg.obj
 0001:00065930       ?InterpretUnaryPreDec@@YAXHPAUlocal_var_type@@@Z 00466930 f   sendmsg.obj
 0001:00065c10       ?InterpretUnaryPreInc@@YAXHPAUlocal_var_type@@@Z 00466c10 f   sendmsg.obj
 0001:00065ef0       ?InterpretUnaryPostDec@@YAXHPAUlocal_var_type@@@Z 00466ef0 f   sendmsg.obj
 0001:000661d0       ?InterpretUnaryPostInc@@YAXHPAUlocal_var_type@@@Z 004671d0 f   sendmsg.obj
 0001:000664b0       ?InterpretUnaryBitNot_P@@YAXHPAUlocal_var_type@@@Z 004674b0 f   sendmsg.obj
 0001:00066660       ?InterpretUnaryBitNot_L@@YAXHPAUlocal_var_type@@@Z 00467660 f   sendmsg.obj
 0001:000667f0       ?InterpretUnaryNone_P@@YAXHPAUlocal_var_type@@@Z 004677f0 f   sendmsg.obj
 0001:00066970       ?InterpretUnaryNone_L@@YAXHPAUlocal_var_type@@@Z 00467970 f   sendmsg.obj
 0001:00066ad0       ?InterpretUnaryNeg_P@@YAXHPAUlocal_var_type@@@Z 00467ad0 f   sendmsg.obj
 0001:00066c80       ?InterpretUnaryNeg_L@@YAXHPAUlocal_var_type@@@Z 00467c80 f   sendmsg.obj
 0001:00066e10       ?InterpretUnaryNot_P@@YAXHPAUlocal_var_type@@@Z 00467e10 f   sendmsg.obj
 0001:00066fc0       ?InterpretUnaryNot_L@@YAXHPAUlocal_var_type@@@Z 00467fc0 f   sendmsg.obj
 0001:00067150       ?InterpretCallStoreProperty@@YAXHPAUlocal_var_type@@@Z 00468150 f   sendmsg.obj
 0001:00067680       ?InterpretCallStoreLocal@@YAXHPAUlocal_var_type@@@Z 00468680 f   sendmsg.obj
 0001:00067b00       ?InterpretCallStoreNone@@YAXHPAUlocal_var_type@@@Z 00468b00 f   sendmsg.obj
 0001:00067f40       ?InterpretGotoIfFalseClassVar@@YAXHPAUlocal_var_type@@@Z 00468f40 f   sendmsg.obj
 0001:00068020       ?InterpretGotoIfFalseProperty@@YAXHPAUlocal_var_type@@@Z 00469020 f   sendmsg.obj
 0001:00068060       ?InterpretGotoIfFalseLocal@@YAXHPAUlocal_var_type@@@Z 00469060 f   sendmsg.obj
 0001:00068090       ?InterpretGotoIfFalseConstant@@YAXHPAUlocal_var_type@@@Z 00469090 f   sendmsg.obj
 0001:000680b0       ?InterpretGotoIfTrueClassVar@@YAXHPAUlocal_var_type@@@Z 004690b0 f   sendmsg.obj
 0001:00068190       ?InterpretGotoIfTrueProperty@@YAXHPAUlocal_var_type@@@Z 00469190 f   sendmsg.obj
 0001:000681d0       ?InterpretGotoIfTrueLocal@@YAXHPAUlocal_var_type@@@Z 004691d0 f   sendmsg.obj
 0001:00068200       ?InterpretGotoIfTrueConstant@@YAXHPAUlocal_var_type@@@Z 00469200 f   sendmsg.obj
 0001:00068220       ?InterpretGotoUncond@@YAXHPAUlocal_var_type@@@Z 00469220 f   sendmsg.obj
 0001:00068240       ?InterpretAtMessage@@YAHHPAUclass_struct@@PAUmessage_struct@@HQAUparm_node@@PATval_type@@@Z 00469240 f   sendmsg.obj
 0001:000687b0       ?SendClassMessage@@YAXPAUobject_node@@@Z 004697b0 f   sendmsg.obj
 0001:00068830       ?TraceInfo@@YAXHPADHHQAUparm_node@@@Z 00469830 f   sendmsg.obj
 0001:00068a30       ?IsInterpreting@@YADXZ     00469a30 f   sendmsg.obj
 0001:00068a40       ?InitBkodInterpret@@YAXXZ  00469a40 f   sendmsg.obj
 0001:00068e00       ?SendBlakodMessage@@YAHHHHQAUparm_node@@@Z 00469e00 f   sendmsg.obj
 0001:000691a0       ?BlakodDebugInfo@@YAPADXZ  0046a1a0 f   sendmsg.obj
 0001:00069240       ?PostBlakodMessage@@YAXHHHQAUparm_node@@@Z 0046a240 f   sendmsg.obj
 0001:00069330       ?BlakodStackInfo@@YAPADXZ  0046a330 f   sendmsg.obj
 0001:00069720       ?InitTimeProfiling@@YAXXZ  0046a720 f   sendmsg.obj
 0001:00069730       ?EndTimeProfiling@@YAXXZ   0046a730 f   sendmsg.obj
 0001:00069740       ?SendTopLevelBlakodMessage@@YAHHHHQAUparm_node@@@Z 0046a740 f   sendmsg.obj
 0001:000699a0       ?SendBlakodClassMessage@@YAHHHHQAUparm_node@@@Z 0046a9a0 f   sendmsg.obj
 0001:00069a10       ?InitProfiling@@YAXXZ      0046aa10 f   sendmsg.obj
 0001:00069b40       ?GetKodStats@@YAPAUkod_statistics@@XZ 0046ab40 f   sendmsg.obj
 0001:00069b50       ?SessionAddBufferList@@YAXPAUsession_node@@PAUbuffer_struct@@@Z 0046ab50 f   session.obj
 0001:00069c30       ?SendBufferList@@YAXPAUsession_node@@PAUbuffer_struct@@@Z 0046ac30 f   session.obj
 0001:00069db0       ?SendGameClientBufferList@@YAXPAUsession_node@@PAUbuffer_struct@@D@Z 0046adb0 f   session.obj
 0001:00069e10       ?SendGameClient@@YAXPAUsession_node@@PADGH@Z 0046ae10 f   session.obj
 0001:00069ed0       ?SendClientStr@@YAXHPAD@Z  0046aed0 f   session.obj
 0001:00069f00       ?GetSessionReadBytes@@YAHPAUsession_node@@@Z 0046af00 f   session.obj
 0001:00069f30       ?ProcessSessionTimer@@YAXPAUsession_node@@@Z 0046af30 f   session.obj
 0001:00069fa0       ?ProcessSessionBuffer@@YAXPAUsession_node@@@Z 0046afa0 f   session.obj
 0001:0006a020       ?VerifiedLoginSession@@YAXH@Z 0046b020 f   session.obj
 0001:0006a070       ?PollSessions@@YAXXZ       0046b070 f   session.obj
 0001:0006a0f0       ?CloseSession@@YAXH@Z      0046b0f0 f   session.obj
 0001:0006a340       ?CloseConnection@@YAXUconnection_node@@@Z 0046b340 f   session.obj
 0001:0006a360       ?ClearSessionTimer@@YAXPAUsession_node@@@Z 0046b360 f   session.obj
 0001:0006a370       ?ExitSessionState@@YAXPAUsession_node@@@Z 0046b370 f   session.obj
 0001:0006a3b0       ?AllocateSession@@YAPAUsession_node@@XZ 0046b3b0 f   session.obj
 0001:0006a540       ?ResetTransmittedBytes@@YAXXZ 0046b540 f   session.obj
 0001:0006a550       ?InitSession@@YAXXZ        0046b550 f   session.obj
 0001:0006a640       ?CloseAllSessions@@YAXXZ   0046b640 f   session.obj
 0001:0006a940       ?HangupSessionNow@@YAXPAUsession_node@@@Z 0046b940 f   session.obj
 0001:0006a980       ?NewEpoch@@YAXXZ           0046b980 f   session.obj
 0001:0006a9a0       ?PeekSessionBytes@@YADPAUsession_node@@HPAX@Z 0046b9a0 f   session.obj
 0001:0006aa60       ?SendBytes@@YAXPAUsession_node@@PADH@Z 0046ba60 f   session.obj
 0001:0006ab70       ?GetEpoch@@YAHXZ           0046bb70 f   session.obj
 0001:0006ab80       ?SetSessionTimer@@YAXPAUsession_node@@H@Z 0046bb80 f   session.obj
 0001:0006aba0       ?InitSessionState@@YAXPAUsession_node@@H@Z 0046bba0 f   session.obj
 0001:0006ac70       ?CreateSession@@YAPAUsession_node@@Uconnection_node@@@Z 0046bc70 f   session.obj
 0001:0006ad40       ?EnterSessionLock@@YAXXZ   0046bd40 f   session.obj
 0001:0006ad50       ?LeaveSessionLock@@YAXXZ   0046bd50 f   session.obj
 0001:0006ad60       ?GetSessionBySocket@@YAPAUsession_node@@I@Z 0046bd60 f   session.obj
 0001:0006adb0       ?SendClient@@YAXHPADG@Z    0046bdb0 f   session.obj
 0001:0006ae40       ?SendClientBufferList@@YAXHPAUbuffer_struct@@@Z 0046be40 f   session.obj
 0001:0006aed0       ?GetStateName@@YAPBDPAUsession_node@@@Z 0046bed0 f   session.obj
 0001:0006afc0       ?GetTransmittedBytes@@YAHXZ 0046bfc0 f   session.obj
 0001:0006afd0       ?SetSessionState@@YAXPAUsession_node@@H@Z 0046bfd0 f   session.obj
 0001:0006b020       ?ReadSessionBytes@@YADPAUsession_node@@HPAX@Z 0046c020 f   session.obj
 0001:0006b1b0       ?GetSessionByID@@YAPAUsession_node@@H@Z 0046c1b0 f   session.obj
 0001:0006b1e0       ?PollSession@@YAXH@Z       0046c1e0 f   session.obj
 0001:0006b2a0       ?ForEachSession@@YAXP6AXPAUsession_node@@@Z@Z 0046c2a0 f   session.obj
 0001:0006b2f0       ?GetSessionByAccount@@YAPAUsession_node@@PAUaccount_node_struct@@@Z 0046c2f0 f   session.obj
 0001:0006b340       ?HangupSession@@YAXPAUsession_node@@@Z 0046c340 f   session.obj
 0001:0006b360       ?GetParseClientTable@@YAPAUclient_table_node@@H@Z 0046c360 f   sprocket.obj
 0001:0006b390       ?InitSprocket@@YAXXZ       0046c390 f   sprocket.obj
 0001:0006b4b0       ?AllocateString@@YAHXZ     0046c4b0 f   string.obj
 0001:0006b570       ?GetNumStrings@@YAHXZ      0046c570 f   string.obj
 0001:0006b580       ?CreateStringWithLen@@YAHPBDH@Z 0046c580 f   string.obj
 0001:0006b640       ?InitString@@YAXXZ         0046c640 f   string.obj
 0001:0006b6e0       ?LoadBlakodString@@YADPAU_iobuf@@HH@Z 0046c6e0 f   string.obj
 0001:0006b7d0       ?SetNumStrings@@YAXH@Z     0046c7d0 f   string.obj
 0001:0006b7e0       ?ForEachString@@YAXP6AXPAUstring_node@@H@Z@Z 0046c7e0 f   string.obj
 0001:0006b810       ?MoveStringNode@@YAXHH@Z   0046c810 f   string.obj
 0001:0006b930       ?FreeString@@YAXH@Z        0046c930 f   string.obj
 0001:0006b9b0       ?AppendTempString@@YAXPBDH@Z 0046c9b0 f   string.obj
 0001:0006ba00       ?ClearTempString@@YAXXZ    0046ca00 f   string.obj
 0001:0006ba20       ?AppendNumToTempString@@YAXH@Z 0046ca20 f   string.obj
 0001:0006bab0       ?SetString@@YAXPAUstring_node@@PADH@Z 0046cab0 f   string.obj
 0001:0006bba0       ?CreateString@@YAHPBD@Z    0046cba0 f   string.obj
 0001:0006bbb0       ?GetStringByID@@YAPAUstring_node@@H@Z 0046cbb0 f   string.obj
 0001:0006bbe0       ?GetStringsUsed@@YAHXZ     0046cbe0 f   string.obj
 0001:0006bbf0       ?ResetString@@YAXXZ        0046cbf0 f   string.obj
 0001:0006bcc0       ?SetTempString@@YAXPADH@Z  0046ccc0 f   string.obj
 0001:0006bcf0       ?IsStringByID@@YADH@Z      0046ccf0 f   string.obj
 0001:0006bd10       ?GetTempString@@YAPAUstring_node@@XZ 0046cd10 f   string.obj
 0001:0006bd20       ?SIHashFindByValue@@YAPBDPAUsihash_table@@H@Z 0046cd20 f   stringinthash.obj
 0001:0006bd60       ?SIHashInsert@@YAXPAUsihash_table@@PBDH@Z 0046cd60 f   stringinthash.obj
 0001:0006be80       ?SIHashFind@@YADPAUsihash_table@@PBDPAH@Z 0046ce80 f   stringinthash.obj
 0001:0006bee0       ?FreeSIHash@@YAXPAUsihash_table@@@Z 0046cee0 f   stringinthash.obj
 0001:0006bf90       ?CreateSIHash@@YAPAUsihash_table@@H@Z 0046cf90 f   stringinthash.obj
 0001:0006c090       ?SynchedSendDLFileInfo@@YAXPADHHH@Z 0046d090 f   synched.obj
 0001:0006c130       ?SynchedGotoGame@@YAXPAUsession_node@@H@Z 0046d130 f   synched.obj
 0001:0006c6b0       ?SynchedSendMenuChoice@@YAXPAUsession_node@@@Z 0046d6b0 f   synched.obj
 0001:0006c790       ?SynchedDoMenu@@YAXPAUsession_node@@@Z 0046d790 f   synched.obj
 0001:0006c800       ?LogUserData@@YAXPAUsession_node@@@Z 0046d800 f   synched.obj
 0001:0006cca0       ?SynchedSendClientPatchOldClassic@@YAXPAUsession_node@@@Z 0046dca0 f   synched.obj
 0001:0006cff0       ?SynchedSendClientPatchOgre@@YAXPAUsession_node@@@Z 0046dff0 f   synched.obj
 0001:0006d3d0       ?SynchedSendClientPatchClassic@@YAXPAUsession_node@@@Z 0046e3d0 f   synched.obj
 0001:0006d7b0       ?SynchedSendGetClient@@YAXPAUsession_node@@@Z 0046e7b0 f   synched.obj
 0001:0006d950       ?SendSynchedMessage@@YAXPAUsession_node@@PADD@Z 0046e950 f   synched.obj
 0001:0006da00       ?SynchedAcceptLogin@@YAXPAUsession_node@@PAD1@Z 0046ea00 f   synched.obj
 0001:0006df60       ?CheckIPAddress@@YAXPAUsession_node@@@Z 0046ef60 f   synched.obj
 0001:0006df90       ?SynchedProtocolParse@@YAXPAUsession_node@@PAUclient_msg@@@Z 0046ef90 f   synched.obj
 0001:0006e430       ?SynchedInit@@YAXPAUsession_node@@@Z 0046f430 f   synched.obj
 0001:0006e550       ?SynchedProcessSessionBuffer@@YAXPAUsession_node@@@Z 0046f550 f   synched.obj
 0001:0006e730       ?VerifyLogin@@YAXPAUsession_node@@@Z 0046f730 f   synched.obj
 0001:0006e9c0       ?SynchedExit@@YAXPAUsession_node@@@Z 0046f9c0 f   synched.obj
 0001:0006e9d0       ?SynchedProcessSessionTimer@@YAXPAUsession_node@@@Z 0046f9d0 f   synched.obj
 0001:0006ea40       ?SetEventEngineObjectID@@YAXH@Z 0046fa40 f   system.obj
 0001:0006ea50       ?SetRealTimeObjectID@@YAXH@Z 0046fa50 f   system.obj
 0001:0006ea60       ?SetSettingsObjectID@@YAXH@Z 0046fa60 f   system.obj
 0001:0006ea70       ?GetEventEngineObjectID@@YAHXZ 0046fa70 f   system.obj
 0001:0006ea80       ?GetSettingsObjectID@@YAHXZ 0046fa80 f   system.obj
 0001:0006ea90       ?GetRealTimeObjectID@@YAHXZ 0046fa90 f   system.obj
 0001:0006eaa0       ?SetBuiltInObjectIDByClass@@YAXHH@Z 0046faa0 f   system.obj
 0001:0006eae0       ?SetSystemObjectID@@YAXH@Z 0046fae0 f   system.obj
 0001:0006eaf0       ?SetBuiltInObjectID@@YAXHH@Z 0046faf0 f   system.obj
 0001:0006eb30       ?CreateBuiltInObjects@@YAXXZ 0046fb30 f   system.obj
 0001:0006eb80       ?GetSystemObjectID@@YAHXZ  0046fb80 f   system.obj
 0001:0006eb90       ?GetBuiltInObjectID@@YAHH@Z 0046fb90 f   system.obj
 0001:0006ebd0       ?ProcessOneSysTimer@@YAXPAUsystimer_struct@@@Z 0046fbd0 f   systimer.obj
 0001:0006ece0       ?CreateInitialSysTimers@@YAXXZ 0046fce0 f   systimer.obj
 0001:0006f0f0       ?CreateSysTimer@@YAXHHH@Z  004700f0 f   systimer.obj
 0001:0006f1c0       ?ProcessSysTimer@@YAXH@Z   004701c0 f   systimer.obj
 0001:0006f420       ?ResetSysTimer@@YAXXZ      00470420 f   systimer.obj
 0001:0006f450       ?InitSysTimer@@YAXXZ       00470450 f   systimer.obj
 0001:0006f470       ?DisableSysTimer@@YADH@Z   00470470 f   systimer.obj
 0001:0006f4a0       ?EnableSysTimer@@YADH@Z    004704a0 f   systimer.obj
 0001:0006f4d0       ?ForEachSysTimer@@YAXP6AXPAUsystimer_struct@@@Z@Z 004704d0 f   systimer.obj
 0001:0006f500       ?GetTableHash@@YAITval_type@@@Z 00470500 f   table.obj
 0001:0006f660       ?EqualTableEntry@@YADTval_type@@0@Z 00470660 f   table.obj
 0001:0006f890       ?ResizeTable@@YAXH@Z       00470890 f   table.obj
 0001:0006fa40       ?AllocateTableEntry@@YAPAUhash_struct@@Tval_type@@0@Z 00470a40 f   table.obj
 0001:0006faa0       ?AllocateTable@@YAHXZ      00470aa0 f   table.obj
 0001:0006fc90       ?GetBufferHash@@YAIPBDI@Z  00470c90 f   table.obj
 0001:0006fce0       ?InitTables@@YAXXZ         00470ce0 f   table.obj
 0001:0006fd50       ?MoveTable@@YAXHH@Z        00470d50 f   table.obj
 0001:0006fe30       ?DeleteTable@@YAXH@Z       00470e30 f   table.obj
 0001:0006fed0       ?SetNumTables@@YAXH@Z      00470ed0 f   table.obj
 0001:0006fee0       ?ForEachTable@@YAXP6AXPAUtable_struct@@H@Z@Z 00470ee0 f   table.obj
 0001:0006ff10       ?GetTableEntry@@YAHHTval_type@@@Z 00470f10 f   table.obj
 0001:0006ffa0       ?InsertTable@@YAXHTval_type@@0@Z 00470fa0 f   table.obj
 0001:00070090       ?DeleteTableEntry@@YAXHTval_type@@@Z 00471090 f   table.obj
 0001:000701d0       ?CreateTable@@YAHH@Z       004711d0 f   table.obj
 0001:000702a0       ?ResetTables@@YAXXZ        004712a0 f   table.obj
 0001:00070340       ?GetTableByID@@YAPAUtable_struct@@H@Z 00471340 f   table.obj
 0001:00070370       ?GetTablesUsed@@YAHXZ      00471370 f   table.obj
 0001:00070380       ?GetTagName@@YAPBDTval_type@@@Z 00471380 f   term.obj
 0001:00070450       ?GetDataName@@YAPBDTval_type@@@Z 00471450 f   term.obj
 0001:00070560       ?GetDataNum@@YAHHPBD@Z     00471560 f   term.obj
 0001:00070650       ?GetTagNum@@YAHPBD@Z       00471650 f   term.obj
 0001:00070790       ?cprintf@@YAXHPBDZZ        00471790 f   term.obj
 0001:00070810       ?MessagePeek@@YAHPAUtagMSG@@PAUHWND__@@III@Z 00471810 f   thdmsgqueue_windows.obj
 0001:00070820       ?WaitForAnyMessageWithTimeout@@YA_N_J@Z 00471820 f   thdmsgqueue_windows.obj
 0001:00070840       ?MessagePost@@YAHKIIJ@Z    00471840 f   thdmsgqueue_windows.obj
 0001:00070880       ?InitTime@@YAXXZ           00471880 f   time.obj
 0001:00070890       ?ShortTimeStr@@YAPBD_J@Z   00471890 f   time.obj
 0001:000708e0       ?GetTimeZoneOffset@@YAHXZ  004718e0 f   time.obj
 0001:00070980       ?GetMicroCountDouble@@YANXZ 00471980 f   time.obj
 0001:00070a00       ?GetMilliCount@@YA_KXZ     00471a00 f   time.obj
 0001:00070a80       ?RelativeTimeStr@@YAPBDH@Z 00471a80 f   time.obj
 0001:00070bd0       ?TimeStr@@YAPBD_J@Z        00471bd0 f   time.obj
 0001:00070c30       ?GetTime@@YAHXZ            00471c30 f   time.obj
 0001:00070c50       ?TimerActivate@@YAXXZ      00471c50 f   timer.obj
 0001:00070ce0       ?ResetLastMessageTimes@@YAXPAUsession_node@@@Z 00471ce0 f   timer.obj
 0001:00070d10       ?ReallocTimerNodes@@YAXXZ  00471d10 f   timer.obj
 0001:00070e00       ?TimerHeapRemove@@YAXH@Z   00471e00 f   timer.obj
 0001:00070f60       ?InitTimer@@YAXXZ          00471f60 f   timer.obj
 0001:00071020       ?ServiceTimers@@YAXXZ      00472020 f   timer.obj
 0001:00071570       ?LoadTimer@@YADHHPADH@Z    00472570 f   timer.obj
 0001:000717a0       ?ClearTimer@@YAXXZ         004727a0 f   timer.obj
 0001:000717c0       ?InMainLoop@@YADXZ         004727c0 f   timer.obj
 0001:000717d0       ?SetNumTimers@@YAXH@Z      004727d0 f   timer.obj
 0001:000717e0       ?PauseTimers@@YAXXZ        004727e0 f   timer.obj
 0001:00071820       ?TimerHeapCheck@@YA_NHH@Z  00472820 f   timer.obj
 0001:000718c0       ?ForEachTimerMatchingObjID@@YAXP6AXPAUtimer_struct@@@ZH@Z 004728c0 f   timer.obj
 0001:00071900       ?DeleteTimer@@YADH@Z       00472900 f   timer.obj
 0001:00071950       ?CreateTimer@@YAHHHH@Z     00472950 f   timer.obj
 0001:00071ae0       ?GetTimerByID@@YAPAUtimer_struct@@H@Z 00472ae0 f   timer.obj
 0001:00071b20       ?ResetTimer@@YAXXZ         00472b20 f   timer.obj
 0001:00071b40       ?UnpauseTimers@@YAXXZ      00472b40 f   timer.obj
 0001:00071c00       ?ForEachTimer@@YAXP6AXPAUtimer_struct@@@Z@Z 00472c00 f   timer.obj
 0001:00071c30       ?GetNumActiveTimers@@YAHXZ 00472c30 f   timer.obj
 0001:00071c40       ?ForEachTimerMatchingMsgID@@YAXP6AXPAUtimer_struct@@@ZH@Z 00472c40 f   timer.obj
 0001:00071c80       ?TrySyncInputChar@@YAXPAUsession_node@@D@Z 00472c80 f   trysync.obj
 0001:00071d40       ?TrySyncProcessSessionTimer@@YAXPAUsession_node@@@Z 00472d40 f   trysync.obj
 0001:00071e00       ?TrySyncExit@@YAXPAUsession_node@@@Z 00472e00 f   trysync.obj
 0001:00071e10       ?TrySyncProcessSessionBuffer@@YAXPAUsession_node@@@Z 00472e10 f   trysync.obj
 0001:00071e80       ?TrySyncInit@@YAXPAUsession_node@@@Z 00472e80 f   trysync.obj
 0001:00071ec0       ?InitUser@@YAXXZ           00472ec0 f   user.obj
 0001:00071ed0       ?LoadUser@@YAXHH@Z         00472ed0 f   user.obj
 0001:00071ee0       ?ClearUser@@YAXXZ          00472ee0 f   user.obj
 0001:00071f20       ?CountUserByAccountID@@YAHH@Z 00472f20 f   user.obj
 0001:00071f50       ?GetFirstUserByAccountID@@YAPAUuser_struct@@H@Z 00472f50 f   user.obj
 0001:00071f70       ?AssociateUser@@YADHH@Z    00472f70 f   user.obj
 0001:00072000       ?CreateNewUser@@YAPAUuser_struct@@HH@Z 00473000 f   user.obj
 0001:00072140       ?GetUserByName@@YAPAUuser_struct@@PAD@Z 00473140 f   user.obj
 0001:00072210       ?ForEachUser@@YAXP6AXPAUuser_struct@@@Z@Z 00473210 f   user.obj
 0001:00072230       ?DeleteUserByObjectID@@YAHH@Z 00473230 f   user.obj
 0001:000722b0       ?GetUserByObjectID@@YAPAUuser_struct@@H@Z 004732b0 f   user.obj
 0001:000722d0       ?CreateUseronAccount@@YAXPAUaccount_node_struct@@@Z 004732d0 f   user.obj
 0001:000722e0       ?ResetUser@@YAXXZ          004732e0 f   user.obj
 0001:00072320       ?ChangeUserAccountID@@YAXHH@Z 00473320 f   user.obj
 0001:00072340       ?DeleteUserByAccountID@@YAHH@Z 00473340 f   user.obj
 0001:000723c0       ?ForEachUserByAccountID@@YAXP6AXPAUuser_struct@@@ZH@Z 004733c0 f   user.obj
 0001:000723f0       ?BlakServNameString@@YAPBDXZ 004733f0 f   version.obj
 0001:00072400       ?BlakServLongVersionString@@YAPBDXZ 00473400 f   version.obj
 0001:00072410       __aullrem                  00473410 f   LIBCMT:ullrem.obj
 0001:00072490       __ftoui3                   00473490 f   LIBCMT:_ftol3_.obj
 0001:0007249f       __ftoul3                   0047349f f   LIBCMT:_ftol3_.obj
 0001:000724ae       __ftol3                    004734ae f   LIBCMT:_ftol3_.obj
 0001:000724bb       __ftol3_NaN                004734bb f   LIBCMT:_ftol3_.obj
 0001:000724d3       __ftol3_work               004734d3 f   LIBCMT:_ftol3_.obj
 0001:00072559       __ftol3_common             00473559 f   LIBCMT:_ftol3_.obj
 0001:0007261b       __ftol3_arg_error          0047361b f   LIBCMT:_ftol3_.obj
 0001:0007262d       __ftol3_except             0047362d f   LIBCMT:_ftol3_.obj
 0001:00072671       __dtoui3                   00473671 f   LIBCMT:_ftol3_.obj
 0001:00072680       __dtoul3                   00473680 f   LIBCMT:_ftol3_.obj
 0001:0007268f       __dtol3                    0047368f f   LIBCMT:_ftol3_.obj
 0001:0007269c       __dtol3_NaN                0047369c f   LIBCMT:_ftol3_.obj
 0001:000726b9       __dtol3_work               004736b9 f   LIBCMT:_ftol3_.obj
 0001:000727a0       __ultod3                   004737a0 f   LIBCMT:_ftol3_.obj
 0001:000727e0       __ltod3                    004737e0 f   LIBCMT:_ftol3_.obj
 0001:00072810       _atan2                     00473810 f   libucrt:87ctriga.obj
 0001:0007281a       __CIatan2                  0047381a f   libucrt:87ctriga.obj
 0001:00072830       __libm_sse2_cos_precise    00473830 f   libucrt:cos_sse2_precise.obj
 0001:000729f0       __libm_sse2_sin_precise    004739f0 f   libucrt:sin_sse2_precise.obj
 0001:00072bc0       __libm_sse2_sqrt_precise   00473bc0 f   libucrt:sqrt_sse2_precise.obj
 0001:00072cdc       __fFATN2                   00473cdc     libucrt:87triga.obj
 0001:00072d2c       __rtpiby2                  00473d2c     libucrt:87triga.obj
 0001:00072d70       __cintrindisp2             00473d70 f   libucrt:87cdisp.obj
 0001:00072db4       __cintrindisp1             00473db4 f   libucrt:87cdisp.obj
 0001:00072df7       __ctrandisp2               00473df7 f   libucrt:87cdisp.obj
 0001:00072f86       __ctrandisp1               00473f86 f   libucrt:87cdisp.obj
 0001:00072fb9       __fload                    00473fb9 f   libucrt:87cdisp.obj
 0001:00073000       _cos                       00474000 f   libucrt:cos.obj
 0001:00073040       __CIcos                    00474040 f   libucrt:cos.obj
 0001:0007307b       __CIcos_default            0047407b f   libucrt:cos.obj
 0001:0007308f       __cos_default              0047408f     libucrt:cos.obj
 0001:00073130       _sin                       00474130 f   libucrt:sin.obj
 0001:00073170       __CIsin                    00474170 f   libucrt:sin.obj
 0001:000731ab       __CIsin_default            004741ab f   libucrt:sin.obj
 0001:000731bf       __sin_default              004741bf     libucrt:sin.obj
 0001:00073260       __CIsqrt                   00474260 f   libucrt:sqrt.obj
 0001:00073274       _sqrt                      00474274     libucrt:sqrt.obj
 0001:00073320       __CIcos_pentium4           00474320 f   libucrt:cos_pentium4.obj
 0001:00073338       __cos_pentium4             00474338     libucrt:cos_pentium4.obj
 0001:000734d0       __CIsin_pentium4           004744d0 f   libucrt:sin_pentium4.obj
 0001:000734e8       __sin_pentium4             004744e8     libucrt:sin_pentium4.obj
 0002:00000000       __imp__InitCommonControls@0 00475000     comctl32:COMCTL32.dll
 0002:00000004       __imp__CreateStatusWindowA@16 00475004     comctl32:COMCTL32.dll
 0002:00000008       \177COMCTL32_NULL_THUNK_DATA 00475008     comctl32:COMCTL32.dll
 0002:0000000c       __imp__GetStockObject@4    0047500c     gdi32:GDI32.dll
 0002:00000010       __imp__CreateFontIndirectA@4 00475010     gdi32:GDI32.dll
 0002:00000014       \177GDI32_NULL_THUNK_DATA  00475014     gdi32:GDI32.dll
 0002:00000018       __imp__SetEndOfFile@4      00475018     kernel32:KERNEL32.dll
 0002:0000001c       __imp__GetProcessHeap@0    0047501c     kernel32:KERNEL32.dll
 0002:00000020       __imp__SetEnvironmentVariableA@8 00475020     kernel32:KERNEL32.dll
 0002:00000024       __imp__FreeEnvironmentStringsW@4 00475024     kernel32:KERNEL32.dll
 0002:00000028       __imp__GetEnvironmentStringsW@0 00475028     kernel32:KERNEL32.dll
 0002:0000002c       __imp__GetCommandLineW@0   0047502c     kernel32:KERNEL32.dll
 0002:00000030       __imp__GetCommandLineA@0   00475030     kernel32:KERNEL32.dll
 0002:00000034       __imp__GetCPInfo@8         00475034     kernel32:KERNEL32.dll
 0002:00000038       __imp__GetOEMCP@0          00475038     kernel32:KERNEL32.dll
 0002:0000003c       __imp__IsValidCodePage@4   0047503c     kernel32:KERNEL32.dll
 0002:00000040       __imp__FindFirstFileExA@24 00475040     kernel32:KERNEL32.dll
 0002:00000044       __imp__MoveFileExW@12      00475044     kernel32:KERNEL32.dll
 0002:00000048       __imp__HeapReAlloc@16      00475048     kernel32:KERNEL32.dll
 0002:0000004c       __imp__WaitForSingleObjectEx@12 0047504c     kernel32:KERNEL32.dll
 0002:00000050       __imp__OutputDebugStringW@4 00475050     kernel32:KERNEL32.dll
 0002:00000054       __imp__SetFilePointerEx@20 00475054     kernel32:KERNEL32.dll
 0002:00000058       __imp__SetStdHandle@8      00475058     kernel32:KERNEL32.dll
 0002:0000005c       __imp__LCMapStringW@24     0047505c     kernel32:KERNEL32.dll
 0002:00000060       __imp__DeleteFileW@4       00475060     kernel32:KERNEL32.dll
 0002:00000064       __imp__GetTimeFormatW@24   00475064     kernel32:KERNEL32.dll
 0002:00000068       __imp__GetDateFormatW@24   00475068     kernel32:KERNEL32.dll
 0002:0000006c       __imp__GetFullPathNameW@16 0047506c     kernel32:KERNEL32.dll
 0002:00000070       __imp__GetCurrentDirectoryW@8 00475070     kernel32:KERNEL32.dll
 0002:00000074       __imp__FlushFileBuffers@4  00475074     kernel32:KERNEL32.dll
 0002:00000078       __imp__GetStringTypeW@16   00475078     kernel32:KERNEL32.dll
 0002:0000007c       __imp__HeapAlloc@12        0047507c     kernel32:KERNEL32.dll
 0002:00000080       __imp__HeapFree@12         00475080     kernel32:KERNEL32.dll
 0002:00000084       __imp__GetConsoleCP@0      00475084     kernel32:KERNEL32.dll
 0002:00000088       __imp__ReadConsoleW@20     00475088     kernel32:KERNEL32.dll
 0002:0000008c       __imp__GetConsoleMode@8    0047508c     kernel32:KERNEL32.dll
 0002:00000090       __imp__GetACP@0            00475090     kernel32:KERNEL32.dll
 0002:00000094       __imp__WriteFile@20        00475094     kernel32:KERNEL32.dll
 0002:00000098       __imp__WideCharToMultiByte@32 00475098     kernel32:KERNEL32.dll
 0002:0000009c       __imp__MultiByteToWideChar@24 0047509c     kernel32:KERNEL32.dll
 0002:000000a0       __imp__WriteConsoleW@20    004750a0     kernel32:KERNEL32.dll
 0002:000000a4       __imp__GetModuleFileNameW@12 004750a4     kernel32:KERNEL32.dll
 0002:000000a8       __imp__GetModuleFileNameA@12 004750a8     kernel32:KERNEL32.dll
 0002:000000ac       __imp__GetStdHandle@4      004750ac     kernel32:KERNEL32.dll
 0002:000000b0       __imp__ReadFile@20         004750b0     kernel32:KERNEL32.dll
 0002:000000b4       __imp__ExitProcess@4       004750b4     kernel32:KERNEL32.dll
 0002:000000b8       __imp__GetModuleHandleExW@12 004750b8     kernel32:KERNEL32.dll
 0002:000000bc       __imp__FreeLibraryAndExitThread@8 004750bc     kernel32:KERNEL32.dll
 0002:000000c0       __imp__ResumeThread@4      004750c0     kernel32:KERNEL32.dll
 0002:000000c4       __imp__ExitThread@4        004750c4     kernel32:KERNEL32.dll
 0002:000000c8       __imp__CreateThread@24     004750c8     kernel32:KERNEL32.dll
 0002:000000cc       __imp__FileTimeToSystemTime@8 004750cc     kernel32:KERNEL32.dll
 0002:000000d0       __imp__GetFileAttributesExW@12 004750d0     kernel32:KERNEL32.dll
 0002:000000d4       __imp__HeapSize@12         004750d4     kernel32:KERNEL32.dll
 0002:000000d8       __imp__CompareStringW@24   004750d8     kernel32:KERNEL32.dll
 0002:000000dc       __imp__SystemTimeToTzSpecificLocalTime@12 004750dc     kernel32:KERNEL32.dll
 0002:000000e0       __imp__PeekNamedPipe@24    004750e0     kernel32:KERNEL32.dll
 0002:000000e4       __imp__GetFileType@4       004750e4     kernel32:KERNEL32.dll
 0002:000000e8       __imp__GetDriveTypeW@4     004750e8     kernel32:KERNEL32.dll
 0002:000000ec       __imp__CreateFileW@28      004750ec     kernel32:KERNEL32.dll
 0002:000000f0       __imp__LoadLibraryExW@12   004750f0     kernel32:KERNEL32.dll
 0002:000000f4       __imp__GetProcAddress@8    004750f4     kernel32:KERNEL32.dll
 0002:000000f8       __imp__FreeLibrary@4       004750f8     kernel32:KERNEL32.dll
 0002:000000fc       __imp__TlsFree@4           004750fc     kernel32:KERNEL32.dll
 0002:00000100       __imp__TlsSetValue@8       00475100     kernel32:KERNEL32.dll
 0002:00000104       __imp__TlsGetValue@4       00475104     kernel32:KERNEL32.dll
 0002:00000108       __imp__TlsAlloc@0          00475108     kernel32:KERNEL32.dll
 0002:0000010c       __imp__InitializeCriticalSectionAndSpinCount@8 0047510c     kernel32:KERNEL32.dll
 0002:00000110       __imp__DeleteCriticalSection@4 00475110     kernel32:KERNEL32.dll
 0002:00000114       __imp__RtlUnwind@16        00475114     kernel32:KERNEL32.dll
 0002:00000118       __imp__GetLastError@0      00475118     kernel32:KERNEL32.dll
 0002:0000011c       __imp__EnterCriticalSection@4 0047511c     kernel32:KERNEL32.dll
 0002:00000120       __imp__LeaveCriticalSection@4 00475120     kernel32:KERNEL32.dll
 0002:00000124       __imp__InitializeCriticalSection@4 00475124     kernel32:KERNEL32.dll
 0002:00000128       __imp__CreateMutexA@12     00475128     kernel32:KERNEL32.dll
 0002:0000012c       __imp__WaitForSingleObject@8 0047512c     kernel32:KERNEL32.dll
 0002:00000130       __imp__ReleaseMutex@4      00475130     kernel32:KERNEL32.dll
 0002:00000134       __imp__Sleep@4             00475134     kernel32:KERNEL32.dll
 0002:00000138       __imp__CloseHandle@4       00475138     kernel32:KERNEL32.dll
 0002:0000013c       __imp__FindFirstFileA@8    0047513c     kernel32:KERNEL32.dll
 0002:00000140       __imp__FindNextFileA@8     00475140     kernel32:KERNEL32.dll
 0002:00000144       __imp__FindClose@4         00475144     kernel32:KERNEL32.dll
 0002:00000148       __imp__CopyFileA@12        00475148     kernel32:KERNEL32.dll
 0002:0000014c       __imp__DeleteFileA@4       0047514c     kernel32:KERNEL32.dll
 0002:00000150       __imp__SetEvent@4          00475150     kernel32:KERNEL32.dll
 0002:00000154       __imp__LoadLibraryA@4      00475154     kernel32:KERNEL32.dll
 0002:00000158       __imp__CreateEventA@16     00475158     kernel32:KERNEL32.dll
 0002:0000015c       __imp__GetCurrentThreadId@0 0047515c     kernel32:KERNEL32.dll
 0002:00000160       __imp__FormatMessageA@28   00475160     kernel32:KERNEL32.dll
 0002:00000164       __imp__GetTimeZoneInformation@4 00475164     kernel32:KERNEL32.dll
 0002:00000168       __imp__QueryPerformanceFrequency@4 00475168     kernel32:KERNEL32.dll
 0002:0000016c       __imp__QueryPerformanceCounter@4 0047516c     kernel32:KERNEL32.dll
 0002:00000170       __imp__UnhandledExceptionFilter@4 00475170     kernel32:KERNEL32.dll
 0002:00000174       __imp__SetUnhandledExceptionFilter@4 00475174     kernel32:KERNEL32.dll
 0002:00000178       __imp__GetCurrentProcess@0 00475178     kernel32:KERNEL32.dll
 0002:0000017c       __imp__TerminateProcess@8  0047517c     kernel32:KERNEL32.dll
 0002:00000180       __imp__IsProcessorFeaturePresent@4 00475180     kernel32:KERNEL32.dll
 0002:00000184       __imp__GetCurrentProcessId@0 00475184     kernel32:KERNEL32.dll
 0002:00000188       __imp__GetSystemTimeAsFileTime@4 00475188     kernel32:KERNEL32.dll
 0002:0000018c       __imp__InitializeSListHead@4 0047518c     kernel32:KERNEL32.dll
 0002:00000190       __imp__IsDebuggerPresent@0 00475190     kernel32:KERNEL32.dll
 0002:00000194       __imp__GetStartupInfoW@4   00475194     kernel32:KERNEL32.dll
 0002:00000198       __imp__GetModuleHandleW@4  00475198     kernel32:KERNEL32.dll
 0002:0000019c       __imp__EncodePointer@4     0047519c     kernel32:KERNEL32.dll
 0002:000001a0       __imp__RaiseException@16   004751a0     kernel32:KERNEL32.dll
 0002:000001a4       __imp__SetLastError@4      004751a4     kernel32:KERNEL32.dll
 0002:000001a8       __imp__DecodePointer@4     004751a8     kernel32:KERNEL32.dll
 0002:000001ac       \177KERNEL32_NULL_THUNK_DATA 004751ac     kernel32:KERNEL32.dll
 0002:000001b0       __imp__mysql_real_connect@32 004751b0     libmysql:LIBMYSQL.dll
 0002:000001b4       __imp__mysql_options@12    004751b4     libmysql:LIBMYSQL.dll
 0002:000001b8       __imp__mysql_init@4        004751b8     libmysql:LIBMYSQL.dll
 0002:000001bc       __imp__mysql_stmt_execute@4 004751bc     libmysql:LIBMYSQL.dll
 0002:000001c0       __imp__mysql_stmt_bind_param@8 004751c0     libmysql:LIBMYSQL.dll
 0002:000001c4       __imp__mysql_query@8       004751c4     libmysql:LIBMYSQL.dll
 0002:000001c8       __imp__mysql_stmt_close@4  004751c8     libmysql:LIBMYSQL.dll
 0002:000001cc       __imp__mysql_stmt_prepare@12 004751cc     libmysql:LIBMYSQL.dll
 0002:000001d0       __imp__mysql_stmt_init@4   004751d0     libmysql:LIBMYSQL.dll
 0002:000001d4       __imp__mysql_close@4       004751d4     libmysql:LIBMYSQL.dll
 0002:000001d8       __imp__mysql_ping@4        004751d8     libmysql:LIBMYSQL.dll
 0002:000001dc       \177LIBMYSQL_NULL_THUNK_DATA 004751dc     libmysql:LIBMYSQL.dll
 0002:000001e0       __imp__PostThreadMessageA@16 004751e0     user32:USER32.dll
 0002:000001e4       __imp__InvalidateRect@12   004751e4     user32:USER32.dll
 0002:000001e8       __imp__UpdateWindow@4      004751e8     user32:USER32.dll
 0002:000001ec       __imp__SetDlgItemInt@16    004751ec     user32:USER32.dll
 0002:000001f0       __imp__GetDesktopWindow@0  004751f0     user32:USER32.dll
 0002:000001f4       __imp__PostQuitMessage@4   004751f4     user32:USER32.dll
 0002:000001f8       __imp__KillTimer@8         004751f8     user32:USER32.dll
 0002:000001fc       __imp__GetDlgItem@8        004751fc     user32:USER32.dll
 0002:00000200       __imp__GetClientRect@8     00475200     user32:USER32.dll
 0002:00000204       __imp__LoadIconA@8         00475204     user32:USER32.dll
 0002:00000208       __imp__CreateDialogParamA@20 00475208     user32:USER32.dll
 0002:0000020c       __imp__SendMessageA@16     0047520c     user32:USER32.dll
 0002:00000210       __imp__SetDlgItemTextA@12  00475210     user32:USER32.dll
 0002:00000214       __imp__SendDlgItemMessageA@20 00475214     user32:USER32.dll
 0002:00000218       __imp__TranslateMessage@4  00475218     user32:USER32.dll
 0002:0000021c       __imp__SetFocus@4          0047521c     user32:USER32.dll
 0002:00000220       __imp__CreateWindowExA@48  00475220     user32:USER32.dll
 0002:00000224       __imp__FlashWindow@8       00475224     user32:USER32.dll
 0002:00000228       __imp__DefWindowProcA@16   00475228     user32:USER32.dll
 0002:0000022c       __imp__MsgWaitForMultipleObjects@20 0047522c     user32:USER32.dll
 0002:00000230       __imp__PeekMessageA@20     00475230     user32:USER32.dll
 0002:00000234       __imp__GetMessageA@16      00475234     user32:USER32.dll
 0002:00000238       __imp__DispatchMessageA@4  00475238     user32:USER32.dll
 0002:0000023c       __imp__GetWindowRect@8     0047523c     user32:USER32.dll
 0002:00000240       __imp__DestroyWindow@4     00475240     user32:USER32.dll
 0002:00000244       __imp__SetWindowPos@28     00475244     user32:USER32.dll
 0002:00000248       __imp__PostMessageA@16     00475248     user32:USER32.dll
 0002:0000024c       __imp__EndDialog@8         0047524c     user32:USER32.dll
 0002:00000250       __imp__GetSystemMetrics@4  00475250     user32:USER32.dll
 0002:00000254       __imp__MessageBeep@4       00475254     user32:USER32.dll
 0002:00000258       __imp__DialogBoxParamA@20  00475258     user32:USER32.dll
 0002:0000025c       __imp__ShowWindow@8        0047525c     user32:USER32.dll
 0002:00000260       __imp__OffsetRect@12       00475260     user32:USER32.dll
 0002:00000264       __imp__TranslateAcceleratorA@12 00475264     user32:USER32.dll
 0002:00000268       __imp__SetTimer@16         00475268     user32:USER32.dll
 0002:0000026c       __imp__SetWindowLongA@12   0047526c     user32:USER32.dll
 0002:00000270       __imp__CallWindowProcA@20  00475270     user32:USER32.dll
 0002:00000274       __imp__DestroyAcceleratorTable@4 00475274     user32:USER32.dll
 0002:00000278       __imp__GetWindowTextA@12   00475278     user32:USER32.dll
 0002:0000027c       __imp__LoadAcceleratorsA@8 0047527c     user32:USER32.dll
 0002:00000280       __imp__SetWindowTextA@8    00475280     user32:USER32.dll
 0002:00000284       __imp__MessageBoxA@16      00475284     user32:USER32.dll
 0002:00000288       __imp__RegisterClassA@4    00475288     user32:USER32.dll
 0002:0000028c       \177USER32_NULL_THUNK_DATA 0047528c     user32:USER32.dll
 0002:00000290       __imp__PlaySoundA@12       00475290     winmm:WINMM.dll
 0002:00000294       \177WINMM_NULL_THUNK_DATA  00475294     winmm:WINMM.dll
 0002:00000298       __imp__inet_ntop@16        00475298     ws2_32:WS2_32.dll
 0002:0000029c       __imp__inet_pton@12        0047529c     ws2_32:WS2_32.dll
 0002:000002a0       \177WS2_32_NULL_THUNK_DATA 004752a0     ws2_32:WS2_32.dll
 0002:000002a4       __imp__listen@8            004752a4     wsock32:WSOCK32.dll
 0002:000002a8       __imp__closesocket@4       004752a8     wsock32:WSOCK32.dll
 0002:000002ac       __imp__bind@12             004752ac     wsock32:WSOCK32.dll
 0002:000002b0       __imp__getpeername@12      004752b0     wsock32:WSOCK32.dll
 0002:000002b4       __imp__send@16             004752b4     wsock32:WSOCK32.dll
 0002:000002b8       __imp__accept@12           004752b8     wsock32:WSOCK32.dll
 0002:000002bc       __imp__WSACleanup@0        004752bc     wsock32:WSOCK32.dll
 0002:000002c0       __imp__WSAAsyncSelect@16   004752c0     wsock32:WSOCK32.dll
 0002:000002c4       __imp__socket@12           004752c4     wsock32:WSOCK32.dll
 0002:000002c8       __imp__recv@16             004752c8     wsock32:WSOCK32.dll
 0002:000002cc       __imp__htons@4             004752cc     wsock32:WSOCK32.dll
 0002:000002d0       __imp__WSAStartup@8        004752d0     wsock32:WSOCK32.dll
 0002:000002d4       __imp__setsockopt@20       004752d4     wsock32:WSOCK32.dll
 0002:000002d8       \177WSOCK32_NULL_THUNK_DATA 004752d8     wsock32:WSOCK32.dll
 0002:000002dc       ___guard_check_icall_fptr  004752dc     LIBCMT:guard_support.obj
 0002:000002e0       ___xc_a                    004752e0     LIBCMT:initializers.obj
 0002:000002e8       ___xc_z                    004752e8     LIBCMT:initializers.obj
 0002:000002ec       ___xi_a                    004752ec     LIBCMT:initializers.obj
 0002:000002f8       ___acrt_stdio_initializer  004752f8     libucrt:stdio_initializer.obj
 0002:000002fc       ___acrt_timeset_initializer 004752fc     libucrt:timeset_initializer.obj
 0002:00000300       ___acrt_multibyte_initializer 00475300     libucrt:multibyte_initializer.obj
 0002:00000304       ___acrt_tran_sse2_initializer 00475304     libucrt:sse2_initializer.obj
 0002:00000308       ___xi_z                    00475308     LIBCMT:initializers.obj
 0002:0000030c       ___xp_a                    0047530c     LIBCMT:initializers.obj
 0002:00000310       ___acrt_locale_terminator  00475310     libucrt:locale_initializer.obj
 0002:00000314       ___dcrt_console_output_terminator 00475314     libucrt:console_output_initializer.obj
 0002:00000318       ___acrt_stdio_terminator   00475318     libucrt:stdio_initializer.obj
 0002:0000031c       ___xp_z                    0047531c     LIBCMT:initializers.obj
 0002:00000320       ___xt_a                    00475320     LIBCMT:initializers.obj
 0002:00000324       ___xt_z                    00475324     LIBCMT:initializers.obj
 0002:00000330       _in6addr_any               00475330     ws2_32:indef.obj
 0002:0000034c       ??_7exception@std@@6B@     0047534c     LIBCMT:throw_bad_alloc.obj
 0002:00000354       ??_C@_0BC@EOODALEL@Unknown?5exception?$AA@ 00475354     LIBCMT:throw_bad_alloc.obj
 0002:0000036c       ??_7bad_alloc@std@@6B@     0047536c     LIBCMT:throw_bad_alloc.obj
 0002:00000374       ??_C@_0P@GHFPNOJB@bad?5allocation?$AA@ 00475374     LIBCMT:throw_bad_alloc.obj
 0002:00000388       ??_7bad_array_new_length@std@@6B@ 00475388     LIBCMT:throw_bad_alloc.obj
 0002:00000390       ??_C@_0BF@KINCDENJ@bad?5array?5new?5length?$AA@ 00475390     LIBCMT:throw_bad_alloc.obj
 0002:000003ac       ??_7type_info@@6B@         004753ac     LIBCMT:std_type_info_static.obj
 0002:000003b4       ??_7logic_error@std@@6B@   004753b4     libcpmt:xthrow.obj
 0002:000003c0       ??_7length_error@std@@6B@  004753c0     libcpmt:xthrow.obj
 0002:000003cc       ??_7out_of_range@std@@6B@  004753cc     libcpmt:xthrow.obj
 0002:000003d4       __pDestructExceptionObject 004753d4     libvcruntime:frame.obj
 0002:000003dc       ??_7bad_exception@std@@6B@ 004753dc     libvcruntime:frame.obj
 0002:000003e4       ??_C@_0O@DPKOEFFH@bad?5exception?$AA@ 004753e4     libvcruntime:frame.obj
 0002:00000424       ??_C@_1BC@DNHGCMLG@?$AAa?$AAd?$AAv?$AAa?$AAp?$AAi?$AA3?$AA2?$AA?$AA@ 00475424     libvcruntime:winapi_downlevel.obj
 0002:00000438       ??_C@_1DM@KHCHBNEB@?$AAa?$AAp?$AAi?$AA?9?$AAm?$AAs?$AA?9?$AAw?$AAi?$AAn?$AA?9?$AAc?$AAo?$AAr?$AAe?$AA?9?$AAf?$AAi?$AAb?$AAe?$AAr?$AAs?$AA?9?$AAl?$AA1?$AA?9?$AA1?$AA?9?$AA1?$AA?$AA@ 00475438     libvcruntime:winapi_downlevel.obj
 0002:00000474       ??_C@_1DK@LPPGFMPP@?$AAa?$AAp?$AAi?$AA?9?$AAm?$AAs?$AA?9?$AAw?$AAi?$AAn?$AA?9?$AAc?$AAo?$AAr?$AAe?$AA?9?$AAs?$AAy?$AAn?$AAc?$AAh?$AA?9?$AAl?$AA1?$AA?9?$AA2?$AA?9?$AA0?$AA?$AA@ 00475474     libvcruntime:winapi_downlevel.obj
 0002:000004b0       ??_C@_1BC@GDMECMAK@?$AAk?$AAe?$AAr?$AAn?$AAe?$AAl?$AA3?$AA2?$AA?$AA@ 004754b0     libvcruntime:winapi_downlevel.obj
 0002:000004cc       ??_C@_08KNHFBNJ@FlsAlloc?$AA@ 004754cc     libvcruntime:winapi_downlevel.obj
 0002:000004e0       ??_C@_07PEJMOBNF@FlsFree?$AA@ 004754e0     libvcruntime:winapi_downlevel.obj
 0002:000004f0       ??_C@_0M@GDNOONDI@FlsGetValue?$AA@ 004754f0     libvcruntime:winapi_downlevel.obj
 0002:00000504       ??_C@_0M@JCPCPOEF@FlsSetValue?$AA@ 00475504     libvcruntime:winapi_downlevel.obj
 0002:00000518       ??_C@_0BM@HCFOFFN@InitializeCriticalSectionEx?$AA@ 00475518     libvcruntime:winapi_downlevel.obj
 0002:000006c8       ??_C@_08EHJDFFNH@__based?$CI?$AA@ 004756c8     libvcruntime:undname.obj
 0002:000006d4       ??_C@_07KOLFKCDI@__cdecl?$AA@ 004756d4     libvcruntime:undname.obj
 0002:000006dc       ??_C@_08GHMPAG@__pascal?$AA@ 004756dc     libvcruntime:undname.obj
 0002:000006e8       ??_C@_09IFJBGAPI@__stdcall?$AA@ 004756e8     libvcruntime:undname.obj
 0002:000006f4       ??_C@_0L@NPHFGOKO@__thiscall?$AA@ 004756f4     libvcruntime:undname.obj
 0002:00000700       ??_C@_0L@JMKHOMEK@__fastcall?$AA@ 00475700     libvcruntime:undname.obj
 0002:0000070c       ??_C@_0N@BCKKPABJ@__vectorcall?$AA@ 0047570c     libvcruntime:undname.obj
 0002:0000071c       ??_C@_09HIJEGCPM@__clrcall?$AA@ 0047571c     libvcruntime:undname.obj
 0002:00000728       ??_C@_06GHPCKEAG@__eabi?$AA@ 00475728     libvcruntime:undname.obj
 0002:00000730       ??_C@_07JOMMBBKO@__ptr64?$AA@ 00475730     libvcruntime:undname.obj
 0002:00000738       ??_C@_0L@PILCLIHE@__restrict?$AA@ 00475738     libvcruntime:undname.obj
 0002:00000744       ??_C@_0M@GFIIJFMG@__unaligned?$AA@ 00475744     libvcruntime:undname.obj
 0002:00000750       ??_C@_09DHDLOLLB@restrict?$CI?$AA@ 00475750     libvcruntime:undname.obj
 0002:0000075c       ??_C@_04NIHEBCM@?5new?$AA@ 0047575c     libvcruntime:undname.obj
 0002:00000764       ??_C@_07FPCDHGMM@?5delete?$AA@ 00475764     libvcruntime:undname.obj
 0002:0000076c       ??_C@_01NEMOKFLO@?$DN?$AA@ 0047576c     libvcruntime:undname.obj
 0002:00000770       ??_C@_02GPIOPFAK@?$DO?$DO?$AA@ 00475770     libvcruntime:undname.obj
 0002:00000774       ??_C@_02FODMEDOG@?$DM?$DM?$AA@ 00475774     libvcruntime:undname.obj
 0002:00000778       ??_C@_01DCLJPIOD@?$CB?$AA@ 00475778     libvcruntime:undname.obj
 0002:0000077c       ??_C@_02EGOFBIJA@?$DN?$DN?$AA@ 0047577c     libvcruntime:undname.obj
 0002:00000780       ??_C@_02FDNJECIE@?$CB?$DN?$AA@ 00475780     libvcruntime:undname.obj
 0002:00000784       ??_C@_02GPECMEKF@?$FL?$FN?$AA@ 00475784     libvcruntime:undname.obj
 0002:00000788       ??_C@_08LHJFAFGD@operator?$AA@ 00475788     libvcruntime:undname.obj
 0002:00000794       ??_C@_02HBOOOICD@?9?$DO?$AA@ 00475794     libvcruntime:undname.obj
 0002:00000798       ??_C@_01NBENCBCI@?$CK?$AA@ 00475798     libvcruntime:undname.obj
 0002:0000079c       ??_C@_02ECNGHCIF@?$CL?$CL?$AA@ 0047579c     libvcruntime:undname.obj
 0002:000007a0       ??_C@_02BAABKJLB@?9?9?$AA@ 004757a0     libvcruntime:undname.obj
 0002:000007a4       ??_C@_01JOAMLHOP@?9?$AA@   004757a4     libvcruntime:undname.obj
 0002:000007a8       ??_C@_01MIFGBAGJ@?$CL?$AA@ 004757a8     libvcruntime:undname.obj
 0002:000007ac       ??_C@_03MNHNFDLC@?9?$DO?$CK?$AA@ 004757ac     libvcruntime:undname.obj
 0002:000007b0       ??_C@_01KMDKNFGN@?1?$AA@   004757b0     libvcruntime:undname.obj
 0002:000007b4       ??_C@_01FGNFDNOH@?$CF?$AA@ 004757b4     libvcruntime:undname.obj
 0002:000007b8       ??_C@_01MNNFJEPP@?$DM?$AA@ 004757b8     libvcruntime:undname.obj
 0002:000007bc       ??_C@_02EHCHHCKH@?$DM?$DN?$AA@ 004757bc     libvcruntime:undname.obj
 0002:000007c0       ??_C@_01PPODPGHN@?$DO?$AA@ 004757c0     libvcruntime:undname.obj
 0002:000007c4       ??_C@_02EEKDKGMJ@?$DO?$DN?$AA@ 004757c4     libvcruntime:undname.obj
 0002:000007c8       ??_C@_02HCKGKOFO@?$CI?$CJ?$AA@ 004757c8     libvcruntime:undname.obj
 0002:000007cc       ??_C@_01PJKLJHI@?$HO?$AA@  004757cc     libvcruntime:undname.obj
 0002:000007d0       ??_C@_01JKBOJNNK@?$FO?$AA@ 004757d0     libvcruntime:undname.obj
 0002:000007d4       ??_C@_01DNKMNLPK@?$HM?$AA@ 004757d4     libvcruntime:undname.obj
 0002:000007d8       ??_C@_02PPKAJPJL@?$CG?$CG?$AA@ 004757d8     libvcruntime:undname.obj
 0002:000007dc       ??_C@_02NONPIBCD@?$HM?$HM?$AA@ 004757dc     libvcruntime:undname.obj
 0002:000007e0       ??_C@_02FPIMKNGF@?$CK?$DN?$AA@ 004757e0     libvcruntime:undname.obj
 0002:000007e4       ??_C@_02FOEOMHFC@?$CL?$DN?$AA@ 004757e4     libvcruntime:undname.obj
 0002:000007e8       ??_C@_02FKMDLLOA@?9?$DN?$AA@ 004757e8     libvcruntime:undname.obj
 0002:000007ec       ??_C@_02FJEHGPIO@?1?$DN?$AA@ 004757ec     libvcruntime:undname.obj
 0002:000007f0       ??_C@_02FENAOKFI@?$CF?$DN?$AA@ 004757f0     libvcruntime:undname.obj
 0002:000007f4       ??_C@_03IKFCCPFF@?$DO?$DO?$DN?$AA@ 004757f4     libvcruntime:undname.obj
 0002:000007f8       ??_C@_03CDNPDDLA@?$DM?$DM?$DN?$AA@ 004757f8     libvcruntime:undname.obj
 0002:000007fc       ??_C@_02FGJGFEAB@?$CG?$DN?$AA@ 004757fc     libvcruntime:undname.obj
 0002:00000800       ??_C@_02DHLNPPGH@?$HM?$DN?$AA@ 00475800     libvcruntime:undname.obj
 0002:00000804       ??_C@_02MHEGNOJ@?$FO?$DN?$AA@ 00475804     libvcruntime:undname.obj
 0002:00000808       ??_C@_09IFPLHPGF@?$GAvftable?8?$AA@ 00475808     libvcruntime:undname.obj
 0002:00000814       ??_C@_09BLBHBJP@?$GAvbtable?8?$AA@ 00475814     libvcruntime:undname.obj
 0002:00000820       ??_C@_07FEEIOKP@?$GAvcall?8?$AA@ 00475820     libvcruntime:undname.obj
 0002:00000828       ??_C@_08LLFFHHDJ@?$GAtypeof?8?$AA@ 00475828     libvcruntime:undname.obj
 0002:00000834       ??_C@_0BF@KDPPACIK@?$GAlocal?5static?5guard?8?$AA@ 00475834     libvcruntime:undname.obj
 0002:0000084c       ??_C@_08OBABFOLI@?$GAstring?8?$AA@ 0047584c     libvcruntime:undname.obj
 0002:00000858       ??_C@_0BD@JDLKDPAB@?$GAvbase?5destructor?8?$AA@ 00475858     libvcruntime:undname.obj
 0002:0000086c       ??_C@_0BN@DEGPLNFK@?$GAvector?5deleting?5destructor?8?$AA@ 0047586c     libvcruntime:undname.obj
 0002:0000088c       ??_C@_0BO@OBMKPJIG@?$GAdefault?5constructor?5closure?8?$AA@ 0047588c     libvcruntime:undname.obj
 0002:000008ac       ??_C@_0BN@IMDCHIKM@?$GAscalar?5deleting?5destructor?8?$AA@ 004758ac     libvcruntime:undname.obj
 0002:000008cc       ??_C@_0BO@PFGOCPJJ@?$GAvector?5constructor?5iterator?8?$AA@ 004758cc     libvcruntime:undname.obj
 0002:000008ec       ??_C@_0BN@LFPFMEDL@?$GAvector?5destructor?5iterator?8?$AA@ 004758ec     libvcruntime:undname.obj
 0002:0000090c       ??_C@_0CE@IKBNEHA@?$GAvector?5vbase?5constructor?5iterat@ 0047590c     libvcruntime:undname.obj
 0002:00000930       ??_C@_0BL@NILFHHPC@?$GAvirtual?5displacement?5map?8?$AA@ 00475930     libvcruntime:undname.obj
 0002:0000094c       ??_C@_0CB@JONCMFFK@?$GAeh?5vector?5constructor?5iterator?8@ 0047594c     libvcruntime:undname.obj
 0002:00000970       ??_C@_0CA@GCEOPDGL@?$GAeh?5vector?5destructor?5iterator?8?$AA@ 00475970     libvcruntime:undname.obj
 0002:00000990       ??_C@_0CH@OOJPLCPH@?$GAeh?5vector?5vbase?5constructor?5ite@ 00475990     libvcruntime:undname.obj
 0002:000009b8       ??_C@_0BL@LLKPOHJI@?$GAcopy?5constructor?5closure?8?$AA@ 004759b8     libvcruntime:undname.obj
 0002:000009d4       ??_C@_0BA@KBCDOMBN@?$GAudt?5returning?8?$AA@ 004759d4     libvcruntime:undname.obj
 0002:000009e4       ??_C@_03KLGMFNMG@?$GAEH?$AA@ 004759e4     libvcruntime:undname.obj
 0002:000009e8       ??_C@_05KHLCHHI@?$GARTTI?$AA@ 004759e8     libvcruntime:undname.obj
 0002:000009f0       ??_C@_0BA@KKLDJDLB@?$GAlocal?5vftable?8?$AA@ 004759f0     libvcruntime:undname.obj
 0002:00000a00       ??_C@_0CE@IIHCMGGL@?$GAlocal?5vftable?5constructor?5closu@ 00475a00     libvcruntime:undname.obj
 0002:00000a24       ??_C@_06FHBGPFGH@?5new?$FL?$FN?$AA@ 00475a24     libvcruntime:undname.obj
 0002:00000a2c       ??_C@_09LBNFPBCA@?5delete?$FL?$FN?$AA@ 00475a2c     libvcruntime:undname.obj
 0002:00000a38       ??_C@_0P@HJKNJFNN@?$GAomni?5callsig?8?$AA@ 00475a38     libvcruntime:undname.obj
 0002:00000a48       ??_C@_0BL@CNOONJFP@?$GAplacement?5delete?5closure?8?$AA@ 00475a48     libvcruntime:undname.obj
 0002:00000a64       ??_C@_0BN@CKNJLHMB@?$GAplacement?5delete?$FL?$FN?5closure?8?$AA@ 00475a64     libvcruntime:undname.obj
 0002:00000a84       ??_C@_0CG@CFDHKGGD@?$GAmanaged?5vector?5constructor?5iter@ 00475a84     libvcruntime:undname.obj
 0002:00000aac       ??_C@_0CF@IMGKMJNO@?$GAmanaged?5vector?5destructor?5itera@ 00475aac     libvcruntime:undname.obj
 0002:00000ad4       ??_C@_0CG@HLDDJMAG@?$GAeh?5vector?5copy?5constructor?5iter@ 00475ad4     libvcruntime:undname.obj
 0002:00000afc       ??_C@_0CM@FCBBDIGB@?$GAeh?5vector?5vbase?5copy?5constructo@ 00475afc     libvcruntime:undname.obj
 0002:00000b28       ??_C@_0BL@CLIPGLGB@?$GAdynamic?5initializer?5for?5?8?$AA@ 00475b28     libvcruntime:undname.obj
 0002:00000b44       ??_C@_0CB@PDBIFEP@?$GAdynamic?5atexit?5destructor?5for?5?8@ 00475b44     libvcruntime:undname.obj
 0002:00000b68       ??_C@_0CD@CGAJBKEJ@?$GAvector?5copy?5constructor?5iterato@ 00475b68     libvcruntime:undname.obj
 0002:00000b8c       ??_C@_0CJ@GJELGAMM@?$GAvector?5vbase?5copy?5constructor?5i@ 00475b8c     libvcruntime:undname.obj
 0002:00000bb8       ??_C@_0CL@FGIJHLCE@?$GAmanaged?5vector?5copy?5constructor@ 00475bb8     libvcruntime:undname.obj
 0002:00000be4       ??_C@_0BM@PMGGMLDN@?$GAlocal?5static?5thread?5guard?8?$AA@ 00475be4     libvcruntime:undname.obj
 0002:00000c00       ??_C@_0N@BDNMDMOL@operator?5?$CC?$CC?5?$AA@ 00475c00     libvcruntime:undname.obj
 0002:00000c10       ??_C@_0BC@DAFEJGAK@?5Type?5Descriptor?8?$AA@ 00475c10     libvcruntime:undname.obj
 0002:00000c24       ??_C@_0BM@LDKODKLH@?5Base?5Class?5Descriptor?5at?5?$CI?$AA@ 00475c24     libvcruntime:undname.obj
 0002:00000c40       ??_C@_0BD@LGICGFMM@?5Base?5Class?5Array?8?$AA@ 00475c40     libvcruntime:undname.obj
 0002:00000c54       ??_C@_0BN@MECKDCOJ@?5Class?5Hierarchy?5Descriptor?8?$AA@ 00475c54     libvcruntime:undname.obj
 0002:00000c74       ??_C@_0BK@CFCOFLF@?5Complete?5Object?5Locator?8?$AA@ 00475c74     libvcruntime:undname.obj
 0002:00000c90       _standard_lookup_table     00475c90     libucrt:output.obj
 0002:00000cec       ??_C@_06OJHGLDPL@?$CInull?$CJ?$AA@ 00475cec     libucrt:output.obj
 0002:00000cf4       ??_C@_1O@CEDCILHN@?$AA?$CI?$AAn?$AAu?$AAl?$AAl?$AA?$CJ?$AA?$AA@ 00475cf4     libucrt:output.obj
 0002:00000d08       ?large_power_data@?1??multiply_by_power_of_ten@__crt_strtox@@YA_NAAUbig_integer@2@I@Z@4QBIB 00475d08     libucrt:input.obj
 0002:00001610       ?large_power_indices@?1??multiply_by_power_of_ten@__crt_strtox@@YA_NAAUbig_integer@2@I@Z@4QBUunpack_index@?1??12@YA_N0I@Z@B 00476610     libucrt:input.obj
 0002:000016a8       ?small_powers_of_ten@?6??multiply_by_power_of_ten@__crt_strtox@@YA_NAAUbig_integer@2@I@Z@4QBIB 004766a8     libucrt:input.obj
 0002:000016d0       ??_C@_1GE@DPGDJKLM@?$AAm?$AAi?$AAn?$AAk?$AAe?$AAr?$AAn?$AAe?$AAl?$AA?2?$AAc?$AAr?$AAt?$AAs?$AA?2?$AAu?$AAc?$AAr?$AAt?$AA?2?$AAi?$AAn?$AAc?$AA?2?$AAc?$AAo?$AAr?$AAe?$AAc?$AAr?$AAt?$AA_@ 004766d0     libucrt:input.obj
 0002:00001738       ??_C@_1FM@FELNCOBF@?$AA_?$AA_?$AAc?$AAr?$AAt?$AA_?$AAs?$AAt?$AAr?$AAt?$AAo?$AAx?$AA?3?$AA?3?$AAf?$AAl?$AAo?$AAa?$AAt?$AAi?$AAn?$AAg?$AA_?$AAp?$AAo?$AAi?$AAn?$AAt?$AA_?$AAv?$AAa?$AAl@ 00476738     libucrt:input.obj
 0002:00001794       ??_C@_1BG@GEMHBGAF@?$AA_?$AAi?$AAs?$AA_?$AAd?$AAo?$AAu?$AAb?$AAl?$AAe?$AA?$AA@ 00476794     libucrt:input.obj
 0002:000017b0       ??_C@_1FK@JOJELFFO@?$AA_?$AA_?$AAc?$AAr?$AAt?$AA_?$AAs?$AAt?$AAr?$AAt?$AAo?$AAx?$AA?3?$AA?3?$AAf?$AAl?$AAo?$AAa?$AAt?$AAi?$AAn?$AAg?$AA_?$AAp?$AAo?$AAi?$AAn?$AAt?$AA_?$AAv?$AAa?$AAl@ 004767b0     libucrt:input.obj
 0002:0000180c       ??_C@_1BI@BANMPGJI@?$AA?$CB?$AA_?$AAi?$AAs?$AA_?$AAd?$AAo?$AAu?$AAb?$AAl?$AAe?$AA?$AA@ 0047680c     libucrt:input.obj
 0002:00001828       ?constraints@?1??is_length_valid@__crt_stdio_input@@YA_NW4conversion_mode@2@W4length_modifier@2@@Z@4QAY0M@$$CBEA 00476828     libucrt:input.obj
 0002:000018a0       ?inf_uppercase@?2???$parse_floating_point_possible_infinity@DV?$input_adapter_character_source@V?$string_input_adapter@D@__crt_stdio_input@@@__crt_strtox@@_K@__crt_strtox@@YA?AW4floating_point_parse_result@1@AADAAV?$input_adapter_character_source@V?$string_input_adapter@D@__crt_stdio_input@@@1@_K@Z@4QBDB 004768a0     libucrt:input.obj
 0002:000018a4       ?inf_lowercase@?2???$parse_floating_point_possible_infinity@DV?$input_adapter_character_source@V?$string_input_adapter@D@__crt_stdio_input@@@__crt_strtox@@_K@__crt_strtox@@YA?AW4floating_point_parse_result@1@AADAAV?$input_adapter_character_source@V?$string_input_adapter@D@__crt_stdio_input@@@1@_K@Z@4QBDB 004768a4     libucrt:input.obj
 0002:000018a8       ?inity_uppercase@?5???$parse_floating_point_possible_infinity@DV?$input_adapter_character_source@V?$string_input_adapter@D@__crt_stdio_input@@@__crt_strtox@@_K@__crt_strtox@@YA?AW4floating_point_parse_result@1@AADAAV?$input_adapter_character_source@V?$string_input_adapter@D@__crt_stdio_input@@@1@_K@Z@4QBDB 004768a8     libucrt:input.obj
 0002:000018b0       ?inity_lowercase@?5???$parse_floating_point_possible_infinity@DV?$input_adapter_character_source@V?$string_input_adapter@D@__crt_stdio_input@@@__crt_strtox@@_K@__crt_strtox@@YA?AW4floating_point_parse_result@1@AADAAV?$input_adapter_character_source@V?$string_input_adapter@D@__crt_stdio_input@@@1@_K@Z@4QBDB 004768b0     libucrt:input.obj
 0002:000018b8       ?uppercase@?2???$parse_floating_point_possible_nan@DV?$input_adapter_character_source@V?$string_input_adapter@D@__crt_stdio_input@@@__crt_strtox@@_K@__crt_strtox@@YA?AW4floating_point_parse_result@1@AADAAV?$input_adapter_character_source@V?$string_input_adapter@D@__crt_stdio_input@@@1@_K@Z@4QBDB 004768b8     libucrt:input.obj
 0002:000018bc       ?lowercase@?2???$parse_floating_point_possible_nan@DV?$input_adapter_character_source@V?$string_input_adapter@D@__crt_stdio_input@@@__crt_strtox@@_K@__crt_strtox@@YA?AW4floating_point_parse_result@1@AADAAV?$input_adapter_character_source@V?$string_input_adapter@D@__crt_stdio_input@@@1@_K@Z@4QBDB 004768bc     libucrt:input.obj
 0002:000018c0       ?uppercase@?1???$parse_floating_point_possible_nan_is_snan@DV?$input_adapter_character_source@V?$string_input_adapter@D@__crt_stdio_input@@@__crt_strtox@@@__crt_strtox@@YA_NAADAAV?$input_adapter_character_source@V?$string_input_adapter@D@__crt_stdio_input@@@1@@Z@4QBDB 004768c0     libucrt:input.obj
 0002:000018c8       ?lowercase@?1???$parse_floating_point_possible_nan_is_snan@DV?$input_adapter_character_source@V?$string_input_adapter@D@__crt_stdio_input@@@__crt_strtox@@@__crt_strtox@@YA_NAADAAV?$input_adapter_character_source@V?$string_input_adapter@D@__crt_stdio_input@@@1@@Z@4QBDB 004768c8     libucrt:input.obj
 0002:000018d0       ?uppercase@?1???$parse_floating_point_possible_nan_is_ind@DV?$input_adapter_character_source@V?$string_input_adapter@D@__crt_stdio_input@@@__crt_strtox@@@__crt_strtox@@YA_NAADAAV?$input_adapter_character_source@V?$string_input_adapter@D@__crt_stdio_input@@@1@@Z@4QBDB 004768d0     libucrt:input.obj
 0002:000018d4       ?lowercase@?1???$parse_floating_point_possible_nan_is_ind@DV?$input_adapter_character_source@V?$string_input_adapter@D@__crt_stdio_input@@@__crt_strtox@@@__crt_strtox@@YA_NAADAAV?$input_adapter_character_source@V?$string_input_adapter@D@__crt_stdio_input@@@1@@Z@4QBDB 004768d4     libucrt:input.obj
 0002:000018d8       ??_C@_19DOGDICKI@?$AA?4?$AAe?$AAx?$AAe?$AA?$AA@ 004768d8     libucrt:stat.obj
 0002:000018e4       ??_C@_19BDKLHPGC@?$AA?4?$AAc?$AAm?$AAd?$AA?$AA@ 004768e4     libucrt:stat.obj
 0002:000018f0       ??_C@_19PINKOIBI@?$AA?4?$AAb?$AAa?$AAt?$AA?$AA@ 004768f0     libucrt:stat.obj
 0002:000018fc       ??_C@_19CDGLJBOD@?$AA?4?$AAc?$AAo?$AAm?$AA?$AA@ 004768fc     libucrt:stat.obj
 0002:00001908       ??_C@_17BAAFHAL@?$AA?4?$AA?1?$AA?2?$AA?$AA@ 00476908     libucrt:stat.obj
 0002:00001910       ??_C@_15HEJOKEHO@?$AA?$DP?$AA?$CK?$AA?$AA@ 00476910     libucrt:stat.obj
 0002:00001918       ??_C@_13CGOKJPIL@?$AA?1?$AA?$AA@ 00476918     libucrt:exit.obj
 0002:0000191c       ??_C@_1BI@BGOHAHKC@?$AAm?$AAs?$AAc?$AAo?$AAr?$AAe?$AAe?$AA?4?$AAd?$AAl?$AAl?$AA?$AA@ 0047691c     libucrt:exit.obj
 0002:00001934       ??_C@_0P@MIGLKIOC@CorExitProcess?$AA@ 00476934     libucrt:exit.obj
 0002:00001948       ??_C@_1EK@MBDPDCGA@?$AAM?$AAi?$AAc?$AAr?$AAo?$AAs?$AAo?$AAf?$AAt?$AA?5?$AAV?$AAi?$AAs?$AAu?$AAa?$AAl?$AA?5?$AAC?$AA?$CL?$AA?$CL?$AA?5?$AAR?$AAu?$AAn?$AAt?$AAi?$AAm?$AAe?$AA?5?$AAL?$AAi?$AAb@ 00476948     libucrt:assert.obj
 0002:00001998       ??_C@_1FE@LHBLIKM@?$AAA?$AAs?$AAs?$AAe?$AAr?$AAt?$AAi?$AAo?$AAn?$AA?5?$AAf?$AAa?$AAi?$AAl?$AAe?$AAd?$AA?3?$AA?5?$AA?$CF?$AAT?$AAs?$AA?0?$AA?5?$AAf?$AAi?$AAl?$AAe?$AA?5?$AA?$CF?$AAT?$AAs?$AA?0@ 00476998     libucrt:assert.obj
 0002:000019ec       ??_C@_1CE@OJBNHDMO@?$AAA?$AAs?$AAs?$AAe?$AAr?$AAt?$AAi?$AAo?$AAn?$AA?5?$AAf?$AAa?$AAi?$AAl?$AAe?$AAd?$AA?$CB?$AA?$AA@ 004769ec     libucrt:assert.obj
 0002:00001a10       ??_C@_1BE@PHKBBGE@?$AAP?$AAr?$AAo?$AAg?$AAr?$AAa?$AAm?$AA?3?$AA?5?$AA?$AA@ 00476a10     libucrt:assert.obj
 0002:00001a24       ??_C@_1O@HEMHKNDC@?$AAF?$AAi?$AAl?$AAe?$AA?3?$AA?5?$AA?$AA@ 00476a24     libucrt:assert.obj
 0002:00001a34       ??_C@_1O@KCAFKHJE@?$AAL?$AAi?$AAn?$AAe?$AA?3?$AA?5?$AA?$AA@ 00476a34     libucrt:assert.obj
 0002:00001a44       ??_C@_1BK@PEDCIPMA@?$AAE?$AAx?$AAp?$AAr?$AAe?$AAs?$AAs?$AAi?$AAo?$AAn?$AA?3?$AA?5?$AA?$AA@ 00476a44     libucrt:assert.obj
 0002:00001a60       ??_C@_1OA@EGMLFBHJ@?$AAF?$AAo?$AAr?$AA?5?$AAi?$AAn?$AAf?$AAo?$AAr?$AAm?$AAa?$AAt?$AAi?$AAo?$AAn?$AA?5?$AAo?$AAn?$AA?5?$AAh?$AAo?$AAw?$AA?5?$AAy?$AAo?$AAu?$AAr?$AA?5?$AAp?$AAr?$AAo?$AAg@ 00476a60     libucrt:assert.obj
 0002:00001b40       ??_C@_1HK@POCJMFGK@?$AA?$CI?$AAP?$AAr?$AAe?$AAs?$AAs?$AA?5?$AAR?$AAe?$AAt?$AAr?$AAy?$AA?5?$AAt?$AAo?$AA?5?$AAd?$AAe?$AAb?$AAu?$AAg?$AA?5?$AAt?$AAh?$AAe?$AA?5?$AAa?$AAp?$AAp?$AAl?$AAi?$AAc@ 00476b40     libucrt:assert.obj
 0002:00001bbc       ??_C@_17LGKOMLJ@?$AA?4?$AA?4?$AA?4?$AA?$AA@ 00476bbc     libucrt:assert.obj
 0002:00001bc4       ??_C@_13LBAGMAIH@?$AA?6?$AA?$AA@ 00476bc4     libucrt:assert.obj
 0002:00001bc8       ??_C@_15IABLJNFO@?$AA?6?$AA?6?$AA?$AA@ 00476bc8     libucrt:assert.obj
 0002:00001bd0       ??_C@_1CO@EAEJAADC@?$AA?$DM?$AAp?$AAr?$AAo?$AAg?$AAr?$AAa?$AAm?$AA?5?$AAn?$AAa?$AAm?$AAe?$AA?5?$AAu?$AAn?$AAk?$AAn?$AAo?$AAw?$AAn?$AA?$DO?$AA?$AA@ 00476bd0     libucrt:assert.obj
 0002:00001c00       __real@3ff0000000000000    00476c00     libucrt:roundf.obj
 0002:00001c08       ___acrt_exception_action_table 00476c08     libucrt:exception_filter.obj
 0002:00001c98       ___acrt_signal_action_table_count 00476c98     libucrt:exception_filter.obj
 0002:00001c9c       ___acrt_signal_action_first_fpe_index 00476c9c     libucrt:exception_filter.obj
 0002:00001ca0       ___acrt_signal_action_fpe_count 00476ca0     libucrt:exception_filter.obj
 0002:00001e88       ??_C@_03OEIAHPBN@INF?$AA@  00476e88     libucrt:cvt.obj
 0002:00001e8c       ??_C@_03OJHLLCGB@inf?$AA@  00476e8c     libucrt:cvt.obj
 0002:00001e90       ??_C@_03LKNCIKJB@NAN?$AA@  00476e90     libucrt:cvt.obj
 0002:00001e94       ??_C@_03LHCJEHON@nan?$AA@  00476e94     libucrt:cvt.obj
 0002:00001e98       ??_C@_09OFJJIMPC@NAN?$CISNAN?$CJ?$AA@ 00476e98     libucrt:cvt.obj
 0002:00001ea4       ??_C@_09IPFBKMDL@nan?$CIsnan?$CJ?$AA@ 00476ea4     libucrt:cvt.obj
 0002:00001eb0       ??_C@_08IKHNHAJ@NAN?$CIIND?$CJ?$AA@ 00476eb0     libucrt:cvt.obj
 0002:00001ebc       ??_C@_08OFCDMILK@nan?$CIind?$CJ?$AA@ 00476ebc     libucrt:cvt.obj
 0002:00001ec8       ??_C@_05KLBDPFGC@e?$CL000?$AA@ 00476ec8     libucrt:cvt.obj
 0002:00001ed0       ??_C@_03KOEHGMDN@Sun?$AA@  00476ed0     libucrt:nlsdata.obj
 0002:00001ed4       ??_C@_03PDAGKDH@Mon?$AA@   00476ed4     libucrt:nlsdata.obj
 0002:00001ed8       ??_C@_03NAGEINEP@Tue?$AA@  00476ed8     libucrt:nlsdata.obj
 0002:00001edc       ??_C@_03MHOMLAJA@Wed?$AA@  00476edc     libucrt:nlsdata.obj
 0002:00001ee0       ??_C@_03IOFIKPDN@Thu?$AA@  00476ee0     libucrt:nlsdata.obj
 0002:00001ee4       ??_C@_03IDIOELNC@Fri?$AA@  00476ee4     libucrt:nlsdata.obj
 0002:00001ee8       ??_C@_03FEFJNEK@Sat?$AA@   00476ee8     libucrt:nlsdata.obj
 0002:00001eec       ??_C@_06OOPIFAJ@Sunday?$AA@ 00476eec     libucrt:nlsdata.obj
 0002:00001ef4       ??_C@_06JLEDEDGH@Monday?$AA@ 00476ef4     libucrt:nlsdata.obj
 0002:00001efc       ??_C@_07BAAGCFCM@Tuesday?$AA@ 00476efc     libucrt:nlsdata.obj
 0002:00001f04       ??_C@_09DLIGFAKA@Wednesday?$AA@ 00476f04     libucrt:nlsdata.obj
 0002:00001f10       ??_C@_08HACCIKIA@Thursday?$AA@ 00476f10     libucrt:nlsdata.obj
 0002:00001f1c       ??_C@_06JECMNKMI@Friday?$AA@ 00476f1c     libucrt:nlsdata.obj
 0002:00001f24       ??_C@_08INBOOONO@Saturday?$AA@ 00476f24     libucrt:nlsdata.obj
 0002:00001f30       ??_C@_03JIHJHPIE@Jan?$AA@  00476f30     libucrt:nlsdata.obj
 0002:00001f34       ??_C@_03HJBDCHOM@Feb?$AA@  00476f34     libucrt:nlsdata.obj
 0002:00001f38       ??_C@_03ODNJBKGA@Mar?$AA@  00476f38     libucrt:nlsdata.obj
 0002:00001f3c       ??_C@_03LEOLGMJP@Apr?$AA@  00476f3c     libucrt:nlsdata.obj
 0002:00001f40       ??_C@_03CNMDKL@May?$AA@    00476f40     libucrt:nlsdata.obj
 0002:00001f44       ??_C@_03IDFGHECI@Jun?$AA@  00476f44     libucrt:nlsdata.obj
 0002:00001f48       ??_C@_03LBGABGKK@Jul?$AA@  00476f48     libucrt:nlsdata.obj
 0002:00001f4c       ??_C@_03IFJFEIGA@Aug?$AA@  00476f4c     libucrt:nlsdata.obj
 0002:00001f50       ??_C@_03GGCAPAJC@Sep?$AA@  00476f50     libucrt:nlsdata.obj
 0002:00001f54       ??_C@_03BMAOKBAD@Oct?$AA@  00476f54     libucrt:nlsdata.obj
 0002:00001f58       ??_C@_03JPJOFNIA@Nov?$AA@  00476f58     libucrt:nlsdata.obj
 0002:00001f5c       ??_C@_03MKABNOCG@Dec?$AA@  00476f5c     libucrt:nlsdata.obj
 0002:00001f60       ??_C@_07CGJPFGJA@January?$AA@ 00476f60     libucrt:nlsdata.obj
 0002:00001f68       ??_C@_08GNJGEPFN@February?$AA@ 00476f68     libucrt:nlsdata.obj
 0002:00001f74       ??_C@_05HPCKOFNC@March?$AA@ 00476f74     libucrt:nlsdata.obj
 0002:00001f7c       ??_C@_05DMJDNLEJ@April?$AA@ 00476f7c     libucrt:nlsdata.obj
 0002:00001f84       ??_C@_04CNLMGBGM@June?$AA@ 00476f84     libucrt:nlsdata.obj
 0002:00001f8c       ??_C@_04MIEPOIFP@July?$AA@ 00476f8c     libucrt:nlsdata.obj
 0002:00001f94       ??_C@_06LBBHFDDG@August?$AA@ 00476f94     libucrt:nlsdata.obj
 0002:00001f9c       ??_C@_09BHHEALKD@September?$AA@ 00476f9c     libucrt:nlsdata.obj
 0002:00001fa8       ??_C@_07JJNFCEND@October?$AA@ 00476fa8     libucrt:nlsdata.obj
 0002:00001fb0       ??_C@_08HCHEGEOA@November?$AA@ 00476fb0     libucrt:nlsdata.obj
 0002:00001fbc       ??_C@_08EDHMEBNP@December?$AA@ 00476fbc     libucrt:nlsdata.obj
 0002:00001fc8       ??_C@_02DEDBPAFC@AM?$AA@   00476fc8     libucrt:nlsdata.obj
 0002:00001fcc       ??_C@_02CJNFDJBF@PM?$AA@   00476fcc     libucrt:nlsdata.obj
 0002:00001fd0       ??_C@_08BPBNCDIB@MM?1dd?1yy?$AA@ 00476fd0     libucrt:nlsdata.obj
 0002:00001fdc       ??_C@_0BE@CKGJFCPC@dddd?0?5MMMM?5dd?0?5yyyy?$AA@ 00476fdc     libucrt:nlsdata.obj
 0002:00001ff0       ??_C@_08JCCMCCIL@HH?3mm?3ss?$AA@ 00476ff0     libucrt:nlsdata.obj
 0002:00001ffc       ??_C@_17MBGCMIPB@?$AAS?$AAu?$AAn?$AA?$AA@ 00476ffc     libucrt:nlsdata.obj
 0002:00002004       ??_C@_17KBOMKBF@?$AAM?$AAo?$AAn?$AA?$AA@ 00477004     libucrt:nlsdata.obj
 0002:0000200c       ??_C@_17BMKGEGOJ@?$AAT?$AAu?$AAe?$AA?$AA@ 0047700c     libucrt:nlsdata.obj
 0002:00002014       ??_C@_17CJEDCEPE@?$AAW?$AAe?$AAd?$AA?$AA@ 00477014     libucrt:nlsdata.obj
 0002:0000201c       ??_C@_17PDPHAADD@?$AAT?$AAh?$AAu?$AA?$AA@ 0047701c     libucrt:nlsdata.obj
 0002:00002024       ??_C@_17HFOLPPLP@?$AAF?$AAr?$AAi?$AA?$AA@ 00477024     libucrt:nlsdata.obj
 0002:0000202c       ??_C@_17GGIBDPIH@?$AAS?$AAa?$AAt?$AA?$AA@ 0047702c     libucrt:nlsdata.obj
 0002:00002034       ??_C@_1O@IHNHDHPB@?$AAS?$AAu?$AAn?$AAd?$AAa?$AAy?$AA?$AA@ 00477034     libucrt:nlsdata.obj
 0002:00002044       ??_C@_1O@MMNBFLIA@?$AAM?$AAo?$AAn?$AAd?$AAa?$AAy?$AA?$AA@ 00477044     libucrt:nlsdata.obj
 0002:00002054       ??_C@_1BA@ENFBFFEK@?$AAT?$AAu?$AAe?$AAs?$AAd?$AAa?$AAy?$AA?$AA@ 00477054     libucrt:nlsdata.obj
 0002:00002064       ??_C@_1BE@EBOGMDOH@?$AAW?$AAe?$AAd?$AAn?$AAe?$AAs?$AAd?$AAa?$AAy?$AA?$AA@ 00477064     libucrt:nlsdata.obj
 0002:00002078       ??_C@_1BC@HHMNLIHE@?$AAT?$AAh?$AAu?$AAr?$AAs?$AAd?$AAa?$AAy?$AA?$AA@ 00477078     libucrt:nlsdata.obj
 0002:0000208c       ??_C@_1O@PDICJHAG@?$AAF?$AAr?$AAi?$AAd?$AAa?$AAy?$AA?$AA@ 0047708c     libucrt:nlsdata.obj
 0002:0000209c       ??_C@_1BC@ENMNNPAJ@?$AAS?$AAa?$AAt?$AAu?$AAr?$AAd?$AAa?$AAy?$AA?$AA@ 0047709c     libucrt:nlsdata.obj
 0002:000020b0       ??_C@_17DKNBKCHM@?$AAJ?$AAa?$AAn?$AA?$AA@ 004770b0     libucrt:nlsdata.obj
 0002:000020b8       ??_C@_17LMDJEKJN@?$AAF?$AAe?$AAb?$AA?$AA@ 004770b8     libucrt:nlsdata.obj
 0002:000020c0       ??_C@_17CKNLEDEC@?$AAM?$AAa?$AAr?$AA?$AA@ 004770c0     libucrt:nlsdata.obj
 0002:000020c8       ??_C@_17LFPOIHDD@?$AAA?$AAp?$AAr?$AA?$AA@ 004770c8     libucrt:nlsdata.obj
 0002:000020d0       ??_C@_17PNNKMEED@?$AAM?$AAa?$AAy?$AA?$AA@ 004770d0     libucrt:nlsdata.obj
 0002:000020d8       ??_C@_17KCJGOCPB@?$AAJ?$AAu?$AAn?$AA?$AA@ 004770d8     libucrt:nlsdata.obj
 0002:000020e0       ??_C@_17IJPCKHK@?$AAJ?$AAu?$AAl?$AA?$AA@ 004770e0     libucrt:nlsdata.obj
 0002:000020e8       ??_C@_17ICPELBCN@?$AAA?$AAu?$AAg?$AA?$AA@ 004770e8     libucrt:nlsdata.obj
 0002:000020f0       ??_C@_17HCHCOKMG@?$AAS?$AAe?$AAp?$AA?$AA@ 004770f0     libucrt:nlsdata.obj
 0002:000020f8       ??_C@_17FNLKOI@?$AAO?$AAc?$AAt?$AA?$AA@ 004770f8     libucrt:nlsdata.obj
 0002:00002100       ??_C@_17BBDMLCIG@?$AAN?$AAo?$AAv?$AA?$AA@ 00477100     libucrt:nlsdata.obj
 0002:00002108       ??_C@_17EGKACKIF@?$AAD?$AAe?$AAc?$AA?$AA@ 00477108     libucrt:nlsdata.obj
 0002:00002110       ??_C@_1BA@EFMEIEBA@?$AAJ?$AAa?$AAn?$AAu?$AAa?$AAr?$AAy?$AA?$AA@ 00477110     libucrt:nlsdata.obj
 0002:00002120       ??_C@_1BC@JGDDFFAM@?$AAF?$AAe?$AAb?$AAr?$AAu?$AAa?$AAr?$AAy?$AA?$AA@ 00477120     libucrt:nlsdata.obj
 0002:00002134       ??_C@_1M@IKEENEDF@?$AAM?$AAa?$AAr?$AAc?$AAh?$AA?$AA@ 00477134     libucrt:nlsdata.obj
 0002:00002140       ??_C@_1M@GJNLMHFD@?$AAA?$AAp?$AAr?$AAi?$AAl?$AA?$AA@ 00477140     libucrt:nlsdata.obj
 0002:0000214c       ??_C@_19EPFLPGAP@?$AAJ?$AAu?$AAn?$AAe?$AA?$AA@ 0047714c     libucrt:nlsdata.obj
 0002:00002158       ??_C@_19BIFMLPCD@?$AAJ?$AAu?$AAl?$AAy?$AA?$AA@ 00477158     libucrt:nlsdata.obj
 0002:00002164       ??_C@_1O@PAHLKOAC@?$AAA?$AAu?$AAg?$AAu?$AAs?$AAt?$AA?$AA@ 00477164     libucrt:nlsdata.obj
 0002:00002174       ??_C@_1BE@DKAAMBJL@?$AAS?$AAe?$AAp?$AAt?$AAe?$AAm?$AAb?$AAe?$AAr?$AA?$AA@ 00477174     libucrt:nlsdata.obj
 0002:00002188       ??_C@_1BA@EPANDLNG@?$AAO?$AAc?$AAt?$AAo?$AAb?$AAe?$AAr?$AA?$AA@ 00477188     libucrt:nlsdata.obj
 0002:00002198       ??_C@_1BC@BGLIFPF@?$AAN?$AAo?$AAv?$AAe?$AAm?$AAb?$AAe?$AAr?$AA?$AA@ 00477198     libucrt:nlsdata.obj
 0002:000021ac       ??_C@_1BC@FEMKIFH@?$AAD?$AAe?$AAc?$AAe?$AAm?$AAb?$AAe?$AAr?$AA?$AA@ 004771ac     libucrt:nlsdata.obj
 0002:000021c0       ??_C@_15ODEHAHHF@?$AAA?$AAM?$AA?$AA@ 004771c0     libucrt:nlsdata.obj
 0002:000021c8       ??_C@_15CLMNNGEL@?$AAP?$AAM?$AA?$AA@ 004771c8     libucrt:nlsdata.obj
 0002:000021d0       ??_C@_1BC@IEBCMHCM@?$AAM?$AAM?$AA?1?$AAd?$AAd?$AA?1?$AAy?$AAy?$AA?$AA@ 004771d0     libucrt:nlsdata.obj
 0002:000021e4       ??_C@_1CI@KNAKOEBC@?$AAd?$AAd?$AAd?$AAd?$AA?0?$AA?5?$AAM?$AAM?$AAM?$AAM?$AA?5?$AAd?$AAd?$AA?0?$AA?5?$AAy?$AAy?$AAy?$AAy?$AA?$AA@ 004771e4     libucrt:nlsdata.obj
 0002:0000220c       ??_C@_1BC@GDGBMEMK@?$AAH?$AAH?$AA?3?$AAm?$AAm?$AA?3?$AAs?$AAs?$AA?$AA@ 0047720c     libucrt:nlsdata.obj
 0002:00002220       ??_C@_1M@BMHNFIME@?$AAe?$AAn?$AA?9?$AAU?$AAS?$AA?$AA@ 00477220     libucrt:nlsdata.obj
 0002:00002230       ___lc_time_c               00477230     libucrt:nlsdata.obj
 0002:00002394       ?ccs@?BL@???$__acrt_stdio_parse_mode@D@@YA?AU__acrt_stdio_stream_mode@@QBD@Z@4QBDB 00477394     libucrt:openfile.obj
 0002:00002398       ?utf8_encoding@?BL@???$__acrt_stdio_parse_mode@D@@YA?AU__acrt_stdio_stream_mode@@QBD@Z@4QBDB 00477398     libucrt:openfile.obj
 0002:000023a0       ?utf16_encoding@?BL@???$__acrt_stdio_parse_mode@D@@YA?AU__acrt_stdio_stream_mode@@QBD@Z@4QBDB 004773a0     libucrt:openfile.obj
 0002:000023a8       ?unicode_encoding@?BL@???$__acrt_stdio_parse_mode@D@@YA?AU__acrt_stdio_stream_mode@@QBD@Z@4QBDB 004773a8     libucrt:openfile.obj
 0002:000023b0       __wctype                   004773b0     libucrt:ctype.obj
 0002:000025b8       ___newctype                004775b8     libucrt:ctype.obj
 0002:000028b8       ___newclmap                004778b8     libucrt:ctype.obj
 0002:00002a38       ___newcumap                00477a38     libucrt:ctype.obj
 0002:00002c08       ??_C@_1EG@CNNIPFIM@?$AAa?$AAp?$AAi?$AA?9?$AAm?$AAs?$AA?9?$AAw?$AAi?$AAn?$AA?9?$AAa?$AAp?$AAp?$AAm?$AAo?$AAd?$AAe?$AAl?$AA?9?$AAr?$AAu?$AAn?$AAt?$AAi?$AAm?$AAe?$AA?9?$AAl?$AA1?$AA?9?$AA1@ 00477c08     libucrt:winapi_thunks.obj
 0002:00002c50       ??_C@_1EA@JGEFHKEI@?$AAa?$AAp?$AAi?$AA?9?$AAm?$AAs?$AA?9?$AAw?$AAi?$AAn?$AA?9?$AAc?$AAo?$AAr?$AAe?$AA?9?$AAd?$AAa?$AAt?$AAe?$AAt?$AAi?$AAm?$AAe?$AA?9?$AAl?$AA1?$AA?9?$AA1?$AA?9?$AA1?$AA?$AA@ 00477c50     libucrt:winapi_thunks.obj
 0002:00002c90       ??_C@_1DI@GCIAAENM@?$AAa?$AAp?$AAi?$AA?9?$AAm?$AAs?$AA?9?$AAw?$AAi?$AAn?$AA?9?$AAc?$AAo?$AAr?$AAe?$AA?9?$AAf?$AAi?$AAl?$AAe?$AA?9?$AAl?$AA2?$AA?9?$AA1?$AA?9?$AA1?$AA?$AA@ 00477c90     libucrt:winapi_thunks.obj
 0002:00002cc8       ??_C@_1EI@MPIAOHOC@?$AAa?$AAp?$AAi?$AA?9?$AAm?$AAs?$AA?9?$AAw?$AAi?$AAn?$AA?9?$AAc?$AAo?$AAr?$AAe?$AA?9?$AAl?$AAo?$AAc?$AAa?$AAl?$AAi?$AAz?$AAa?$AAt?$AAi?$AAo?$AAn?$AA?9?$AAl?$AA1?$AA?9@ 00477cc8     libucrt:winapi_thunks.obj
 0002:00002d10       ??_C@_1FK@FPHCKFIE@?$AAa?$AAp?$AAi?$AA?9?$AAm?$AAs?$AA?9?$AAw?$AAi?$AAn?$AA?9?$AAc?$AAo?$AAr?$AAe?$AA?9?$AAl?$AAo?$AAc?$AAa?$AAl?$AAi?$AAz?$AAa?$AAt?$AAi?$AAo?$AAn?$AA?9?$AAo?$AAb?$AAs@ 00477d10     libucrt:winapi_thunks.obj
 0002:00002d70       ??_C@_1EM@DILCGIIO@?$AAa?$AAp?$AAi?$AA?9?$AAm?$AAs?$AA?9?$AAw?$AAi?$AAn?$AA?9?$AAc?$AAo?$AAr?$AAe?$AA?9?$AAp?$AAr?$AAo?$AAc?$AAe?$AAs?$AAs?$AAt?$AAh?$AAr?$AAe?$AAa?$AAd?$AAs?$AA?9?$AAl@ 00477d70     libucrt:winapi_thunks.obj
 0002:00002dbc       ??_C@_1DM@LNCGDDPN@?$AAa?$AAp?$AAi?$AA?9?$AAm?$AAs?$AA?9?$AAw?$AAi?$AAn?$AA?9?$AAc?$AAo?$AAr?$AAe?$AA?9?$AAs?$AAt?$AAr?$AAi?$AAn?$AAg?$AA?9?$AAl?$AA1?$AA?9?$AA1?$AA?9?$AA0?$AA?$AA@ 00477dbc     libucrt:winapi_thunks.obj
 0002:00002df8       ??_C@_1DO@FPAPJEMD@?$AAa?$AAp?$AAi?$AA?9?$AAm?$AAs?$AA?9?$AAw?$AAi?$AAn?$AA?9?$AAc?$AAo?$AAr?$AAe?$AA?9?$AAs?$AAy?$AAs?$AAi?$AAn?$AAf?$AAo?$AA?9?$AAl?$AA1?$AA?9?$AA2?$AA?9?$AA1?$AA?$AA@ 00477df8     libucrt:winapi_thunks.obj
 0002:00002e38       ??_C@_1DK@NDHNAHIO@?$AAa?$AAp?$AAi?$AA?9?$AAm?$AAs?$AA?9?$AAw?$AAi?$AAn?$AA?9?$AAc?$AAo?$AAr?$AAe?$AA?9?$AAw?$AAi?$AAn?$AAr?$AAt?$AA?9?$AAl?$AA1?$AA?9?$AA1?$AA?9?$AA0?$AA?$AA@ 00477e38     libucrt:winapi_thunks.obj
 0002:00002e74       ??_C@_1DM@KGHDGBCM@?$AAa?$AAp?$AAi?$AA?9?$AAm?$AAs?$AA?9?$AAw?$AAi?$AAn?$AA?9?$AAc?$AAo?$AAr?$AAe?$AA?9?$AAx?$AAs?$AAt?$AAa?$AAt?$AAe?$AA?9?$AAl?$AA2?$AA?9?$AA1?$AA?9?$AA0?$AA?$AA@ 00477e74     libucrt:winapi_thunks.obj
 0002:00002eb0       ??_C@_1EO@IJIOEFOH@?$AAa?$AAp?$AAi?$AA?9?$AAm?$AAs?$AA?9?$AAw?$AAi?$AAn?$AA?9?$AAr?$AAt?$AAc?$AAo?$AAr?$AAe?$AA?9?$AAn?$AAt?$AAu?$AAs?$AAe?$AAr?$AA?9?$AAw?$AAi?$AAn?$AAd?$AAo?$AAw?$AA?9@ 00477eb0     libucrt:winapi_thunks.obj
 0002:00002f00       ??_C@_1FG@HHGEKANL@?$AAa?$AAp?$AAi?$AA?9?$AAm?$AAs?$AA?9?$AAw?$AAi?$AAn?$AA?9?$AAs?$AAe?$AAc?$AAu?$AAr?$AAi?$AAt?$AAy?$AA?9?$AAs?$AAy?$AAs?$AAt?$AAe?$AAm?$AAf?$AAu?$AAn?$AAc?$AAt?$AAi@ 00477f00     libucrt:winapi_thunks.obj
 0002:00002f58       ??_C@_1FG@NCKKOLKO@?$AAe?$AAx?$AAt?$AA?9?$AAm?$AAs?$AA?9?$AAw?$AAi?$AAn?$AA?9?$AAk?$AAe?$AAr?$AAn?$AAe?$AAl?$AA3?$AA2?$AA?9?$AAp?$AAa?$AAc?$AAk?$AAa?$AAg?$AAe?$AA?9?$AAc?$AAu?$AAr?$AAr@ 00477f58     libucrt:winapi_thunks.obj
 0002:00002fb0       ??_C@_1EG@DBIOJECG@?$AAe?$AAx?$AAt?$AA?9?$AAm?$AAs?$AA?9?$AAw?$AAi?$AAn?$AA?9?$AAn?$AAt?$AAu?$AAs?$AAe?$AAr?$AA?9?$AAd?$AAi?$AAa?$AAl?$AAo?$AAg?$AAb?$AAo?$AAx?$AA?9?$AAl?$AA1?$AA?9?$AA1@ 00477fb0     libucrt:winapi_thunks.obj
 0002:00002ff8       ??_C@_1EO@FIHMJCLF@?$AAe?$AAx?$AAt?$AA?9?$AAm?$AAs?$AA?9?$AAw?$AAi?$AAn?$AA?9?$AAn?$AAt?$AAu?$AAs?$AAe?$AAr?$AA?9?$AAw?$AAi?$AAn?$AAd?$AAo?$AAw?$AAs?$AAt?$AAa?$AAt?$AAi?$AAo?$AAn?$AA?9@ 00477ff8     libucrt:winapi_thunks.obj
 0002:00003048       ??_C@_1O@BCCLBEOE@?$AAu?$AAs?$AAe?$AAr?$AA3?$AA2?$AA?$AA@ 00478048     libucrt:winapi_thunks.obj
 0002:0000305c       ??_C@_0BA@FHFNEAED@AreFileApisANSI?$AA@ 0047805c     libucrt:winapi_thunks.obj
 0002:00003074       ??_C@_0BA@IHGNDAEB@CompareStringEx?$AA@ 00478074     libucrt:winapi_thunks.obj
 0002:000030ac       ??_C@_0BA@HNOPNCHB@GetActiveWindow?$AA@ 004780ac     libucrt:winapi_thunks.obj
 0002:000030c4       ??_C@_0BE@JOGNEJCI@GetCurrentPackageId?$AA@ 004780c4     libucrt:winapi_thunks.obj
 0002:000030e0       ??_C@_0BA@EPCJIIPD@GetDateFormatEx?$AA@ 004780e0     libucrt:winapi_thunks.obj
 0002:000030f8       ??_C@_0BN@NEEHBBPO@GetFileInformationByHandleEx?$AA@ 004780f8     libucrt:winapi_thunks.obj
 0002:00003120       ??_C@_0BD@HHGDFDBJ@GetLastActivePopup?$AA@ 00478120     libucrt:winapi_thunks.obj
 0002:0000313c       ??_C@_0BI@DFKBFLJE@GetProcessWindowStation?$AA@ 0047813c     libucrt:winapi_thunks.obj
 0002:00003158       ??_C@_0BP@FPNJPEJC@GetSystemTimePreciseAsFileTime?$AA@ 00478158     libucrt:winapi_thunks.obj
 0002:00003180       ??_C@_0BA@CIJJKCJJ@GetTimeFormatEx?$AA@ 00478180     libucrt:winapi_thunks.obj
 0002:00003198       ??_C@_0BK@DEKFELLI@GetUserObjectInformationW?$AA@ 00478198     libucrt:winapi_thunks.obj
 0002:000031c4       ??_C@_0O@KKBNKAPF@LCMapStringEx?$AA@ 004781c4     libucrt:winapi_thunks.obj
 0002:000031dc       ??_C@_0BB@HBDEELFH@LocaleNameToLCID?$AA@ 004781dc     libucrt:winapi_thunks.obj
 0002:000031f8       ??_C@_0M@CHKKJDAI@MessageBoxA?$AA@ 004781f8     libucrt:winapi_thunks.obj
 0002:0000320c       ??_C@_0M@DLDCCGNP@MessageBoxW?$AA@ 0047820c     libucrt:winapi_thunks.obj
 0002:0000321c       ??_C@_0N@PPOMPGGK@RoInitialize?$AA@ 0047821c     libucrt:winapi_thunks.obj
 0002:00003230       ??_C@_0P@LLFHBIJD@RoUninitialize?$AA@ 00478230     libucrt:winapi_thunks.obj
 0002:00003268       ??_C@_1M@PBPMMENC@?$AAa?$AAm?$AA?1?$AAp?$AAm?$AA?$AA@ 00478268     libucrt:wcsftime.obj
 0002:00003274       ??_C@_17BLFJJHMM@?$AAa?$AA?1?$AAp?$AA?$AA@ 00478274     libucrt:wcsftime.obj
 0002:0000327c       ??_C@_13HOIJIPNN@?$AA?5?$AA?$AA@ 0047827c     libucrt:wcsftime.obj
 0002:00003280       ??_C@_13IMODFHAA@?$AA?9?$AA?$AA@ 00478280     libucrt:wcsftime.obj
 0002:00003284       ??_C@_13EBCNDICG@?$AA?3?$AA?$AA@ 00478284     libucrt:wcsftime.obj
 0002:00003288       ??_C@_13KDLDGPGJ@?$AA?7?$AA?$AA@ 00478288     libucrt:wcsftime.obj
 0002:0000328c       ??_C@_13KJIIAINM@?$AA?$CL?$AA?$AA@ 0047828c     libucrt:wcsftime.obj
 0002:00003290       ??_C@_13EJFHHPOP@?$AA?$CF?$AA?$AA@ 00478290     libucrt:wcsftime.obj
 0002:00003294       ??_C@_02CLFPBFFP@TZ?$AA@   00478294     libucrt:tzset.obj
 0002:000032a8       ??_C@_1M@HPNHIDJI@?$AAj?$AAa?$AA?9?$AAJ?$AAP?$AA?$AA@ 004782a8     libucrt:mbctype.obj
 0002:000032b4       ??_C@_1M@BIBDDEMK@?$AAz?$AAh?$AA?9?$AAC?$AAN?$AA?$AA@ 004782b4     libucrt:mbctype.obj
 0002:000032c0       ??_C@_1M@JLOOOEGK@?$AAk?$AAo?$AA?9?$AAK?$AAR?$AA?$AA@ 004782c0     libucrt:mbctype.obj
 0002:000032cc       ??_C@_1M@CLNBBOPM@?$AAz?$AAh?$AA?9?$AAT?$AAW?$AA?$AA@ 004782cc     libucrt:mbctype.obj
 0002:000032d8       ??_C@_15PJPFLCCM@?$AAu?$AAk?$AA?$AA@ 004782d8     libucrt:get_qualified_locale.obj
 0002:000032e0       ??_C@_05DNEBIAHO@1?$CDINF?$AA@ 004782e0     libucrt:cfout.obj
 0002:000032e8       ??_C@_06IMKFLFPG@1?$CDQNAN?$AA@ 004782e8     libucrt:cfout.obj
 0002:000032f0       ??_C@_06PGGFOGJG@1?$CDSNAN?$AA@ 004782f0     libucrt:cfout.obj
 0002:000032f8       ??_C@_05PHHOCPM@1?$CDIND?$AA@ 004782f8     libucrt:cfout.obj
 0002:00003a20       ??_C@_15EMKDOKLE@?$AAa?$AAr?$AA?$AA@ 00478a20     libucrt:lcidtoname_downlevel.obj
 0002:00003a28       ??_C@_15KNPADPLH@?$AAb?$AAg?$AA?$AA@ 00478a28     libucrt:lcidtoname_downlevel.obj
 0002:00003a30       ??_C@_15EDMHLDMO@?$AAc?$AAa?$AA?$AA@ 00478a30     libucrt:lcidtoname_downlevel.obj
 0002:00003a38       ??_C@_1O@BPEAJADD@?$AAz?$AAh?$AA?9?$AAC?$AAH?$AAS?$AA?$AA@ 00478a38     libucrt:lcidtoname_downlevel.obj
 0002:00003a48       ??_C@_15LJNHCMNK@?$AAc?$AAs?$AA?$AA@ 00478a48     libucrt:lcidtoname_downlevel.obj
 0002:00003a50       ??_C@_15FOMCIDHG@?$AAd?$AAa?$AA?$AA@ 00478a50     libucrt:lcidtoname_downlevel.obj
 0002:00003a58       ??_C@_15NBKABECB@?$AAd?$AAe?$AA?$AA@ 00478a58     libucrt:lcidtoname_downlevel.obj
 0002:00003a60       ??_C@_15GHPEIIAO@?$AAe?$AAl?$AA?$AA@ 00478a60     libucrt:lcidtoname_downlevel.obj
 0002:00003a68       ??_C@_15MNPNEAIF@?$AAe?$AAn?$AA?$AA@ 00478a68     libucrt:lcidtoname_downlevel.obj
 0002:00003a70       ??_C@_15GPIOMPMH@?$AAe?$AAs?$AA?$AA@ 00478a70     libucrt:lcidtoname_downlevel.obj
 0002:00003a78       ??_C@_15NGLOAKJC@?$AAf?$AAi?$AA?$AA@ 00478a78     libucrt:lcidtoname_downlevel.obj
 0002:00003a80       ??_C@_15FBKGNKAM@?$AAf?$AAr?$AA?$AA@ 00478a80     libucrt:lcidtoname_downlevel.obj
 0002:00003a88       ??_C@_15KGGCNEFK@?$AAh?$AAe?$AA?$AA@ 00478a88     libucrt:lcidtoname_downlevel.obj
 0002:00003a90       ??_C@_15PGHLIDMF@?$AAh?$AAu?$AA?$AA@ 00478a90     libucrt:lcidtoname_downlevel.obj
 0002:00003a98       ??_C@_15BIEMAPLM@?$AAi?$AAs?$AA?$AA@ 00478a98     libucrt:lcidtoname_downlevel.obj
 0002:00003aa0       ??_C@_15IFJLDHAF@?$AAi?$AAt?$AA?$AA@ 00478aa0     libucrt:lcidtoname_downlevel.obj
 0002:00003aa8       ??_C@_15GEMIOCAG@?$AAj?$AAa?$AA?$AA@ 00478aa8     libucrt:lcidtoname_downlevel.obj
 0002:00003ab0       ??_C@_15EPELEGJA@?$AAk?$AAo?$AA?$AA@ 00478ab0     libucrt:lcidtoname_downlevel.obj
 0002:00003ab8       ??_C@_15NDDHIMN@?$AAn?$AAl?$AA?$AA@ 00478ab8     libucrt:lcidtoname_downlevel.obj
 0002:00003ac0       ??_C@_15BPIGNHCD@?$AAn?$AAo?$AA?$AA@ 00478ac0     libucrt:lcidtoname_downlevel.obj
 0002:00003ac8       ??_C@_15DEOPBLCG@?$AAp?$AAl?$AA?$AA@ 00478ac8     libucrt:lcidtoname_downlevel.obj
 0002:00003ad0       ??_C@_15KBECGEFG@?$AAp?$AAt?$AA?$AA@ 00478ad0     libucrt:lcidtoname_downlevel.obj
 0002:00003ad8       ??_C@_15GLJCBFMD@?$AAr?$AAo?$AA?$AA@ 00478ad8     libucrt:lcidtoname_downlevel.obj
 0002:00003ae0       ??_C@_15FEDGKCDI@?$AAr?$AAu?$AA?$AA@ 00478ae0     libucrt:lcidtoname_downlevel.obj
 0002:00003ae8       ??_C@_15GLKMLLHM@?$AAh?$AAr?$AA?$AA@ 00478ae8     libucrt:lcidtoname_downlevel.obj
 0002:00003af0       ??_C@_15CPKMFBDB@?$AAs?$AAk?$AA?$AA@ 00478af0     libucrt:lcidtoname_downlevel.obj
 0002:00003af8       ??_C@_15BAAIOGMK@?$AAs?$AAq?$AA?$AA@ 00478af8     libucrt:lcidtoname_downlevel.obj
 0002:00003b00       ??_C@_15INNPNOHD@?$AAs?$AAv?$AA?$AA@ 00478b00     libucrt:lcidtoname_downlevel.obj
 0002:00003b08       ??_C@_15CABMMOGH@?$AAt?$AAh?$AA?$AA@ 00478b08     libucrt:lcidtoname_downlevel.obj
 0002:00003b10       ??_C@_15BPLIHJJM@?$AAt?$AAr?$AA?$AA@ 00478b10     libucrt:lcidtoname_downlevel.obj
 0002:00003b18       ??_C@_15NEOEKKDJ@?$AAu?$AAr?$AA?$AA@ 00478b18     libucrt:lcidtoname_downlevel.obj
 0002:00003b20       ??_C@_15NFICGAJK@?$AAi?$AAd?$AA?$AA@ 00478b20     libucrt:lcidtoname_downlevel.obj
 0002:00003b28       ??_C@_15HPJPHDM@?$AAb?$AAe?$AA?$AA@ 00478b28     libucrt:lcidtoname_downlevel.obj
 0002:00003b30       ??_C@_15LCHLGJII@?$AAs?$AAl?$AA?$AA@ 00478b30     libucrt:lcidtoname_downlevel.obj
 0002:00003b38       ??_C@_15PCFJPHHO@?$AAe?$AAt?$AA?$AA@ 00478b38     libucrt:lcidtoname_downlevel.obj
 0002:00003b40       ??_C@_15HPFPGODN@?$AAl?$AAv?$AA?$AA@ 00478b40     libucrt:lcidtoname_downlevel.obj
 0002:00003b48       ??_C@_15NFFGKGLG@?$AAl?$AAt?$AA?$AA@ 00478b48     libucrt:lcidtoname_downlevel.obj
 0002:00003b50       ??_C@_15BDAKCCHN@?$AAf?$AAa?$AA?$AA@ 00478b50     libucrt:lcidtoname_downlevel.obj
 0002:00003b58       ??_C@_15NFGIAIAJ@?$AAv?$AAi?$AA?$AA@ 00478b58     libucrt:lcidtoname_downlevel.obj
 0002:00003b60       ??_C@_15LMKNDMHN@?$AAh?$AAy?$AA?$AA@ 00478b60     libucrt:lcidtoname_downlevel.obj
 0002:00003b68       ??_C@_15IJBHMCFL@?$AAa?$AAz?$AA?$AA@ 00478b68     libucrt:lcidtoname_downlevel.obj
 0002:00003b70       ??_C@_15EKOFJABL@?$AAe?$AAu?$AA?$AA@ 00478b70     libucrt:lcidtoname_downlevel.obj
 0002:00003b78       ??_C@_15BGHADCNK@?$AAm?$AAk?$AA?$AA@ 00478b78     libucrt:lcidtoname_downlevel.obj
 0002:00003b80       ??_C@_15JDNICKHM@?$AAa?$AAf?$AA?$AA@ 00478b80     libucrt:lcidtoname_downlevel.obj
 0002:00003b88       ??_C@_15KPJEDBKD@?$AAk?$AAa?$AA?$AA@ 00478b88     libucrt:lcidtoname_downlevel.obj
 0002:00003b90       ??_C@_15PDNFFFEO@?$AAf?$AAo?$AA?$AA@ 00478b90     libucrt:lcidtoname_downlevel.obj
 0002:00003b98       ??_C@_15OMLEGLOC@?$AAh?$AAi?$AA?$AA@ 00478b98     libucrt:lcidtoname_downlevel.obj
 0002:00003ba0       ??_C@_15IDNNENKK@?$AAm?$AAs?$AA?$AA@ 00478ba0     libucrt:lcidtoname_downlevel.obj
 0002:00003ba8       ??_C@_15MACJNBMH@?$AAk?$AAk?$AA?$AA@ 00478ba8     libucrt:lcidtoname_downlevel.obj
 0002:00003bb0       ??_C@_15DKDJEOND@?$AAk?$AAy?$AA?$AA@ 00478bb0     libucrt:lcidtoname_downlevel.obj
 0002:00003bb8       ??_C@_15DFGDLJBG@?$AAs?$AAw?$AA?$AA@ 00478bb8     libucrt:lcidtoname_downlevel.obj
 0002:00003bc0       ??_C@_15BBFAICNG@?$AAu?$AAz?$AA?$AA@ 00478bc0     libucrt:lcidtoname_downlevel.obj
 0002:00003bc8       ??_C@_15DKNDCGEA@?$AAt?$AAt?$AA?$AA@ 00478bc8     libucrt:lcidtoname_downlevel.obj
 0002:00003bd0       ??_C@_15MGIFMDPL@?$AAp?$AAa?$AA?$AA@ 00478bd0     libucrt:lcidtoname_downlevel.obj
 0002:00003bd8       ??_C@_15HCNDBBA@?$AAg?$AAu?$AA?$AA@ 00478bd8     libucrt:lcidtoname_downlevel.obj
 0002:00003be0       ??_C@_15FNBEIBON@?$AAt?$AAa?$AA?$AA@ 00478be0     libucrt:lcidtoname_downlevel.obj
 0002:00003be8       ??_C@_15NCHGBGLK@?$AAt?$AAe?$AA?$AA@ 00478be8     libucrt:lcidtoname_downlevel.obj
 0002:00003bf0       ??_C@_15PHPHCBPF@?$AAk?$AAn?$AA?$AA@ 00478bf0     libucrt:lcidtoname_downlevel.obj
 0002:00003bf8       ??_C@_15DLGBCKMP@?$AAm?$AAr?$AA?$AA@ 00478bf8     libucrt:lcidtoname_downlevel.obj
 0002:00003c00       ??_C@_15EABBLBFF@?$AAs?$AAa?$AA?$AA@ 00478c00     libucrt:lcidtoname_downlevel.obj
 0002:00003c08       ??_C@_15CBKOMCOI@?$AAm?$AAn?$AA?$AA@ 00478c08     libucrt:lcidtoname_downlevel.obj
 0002:00003c10       ??_C@_15CKDMCJAF@?$AAg?$AAl?$AA?$AA@ 00478c10     libucrt:lcidtoname_downlevel.obj
 0002:00003c18       ??_C@_17CNJFBPG@?$AAk?$AAo?$AAk?$AA?$AA@ 00478c18     libucrt:lcidtoname_downlevel.obj
 0002:00003c20       ??_C@_17FFBJICPL@?$AAs?$AAy?$AAr?$AA?$AA@ 00478c20     libucrt:lcidtoname_downlevel.obj
 0002:00003c28       ??_C@_17KPNDCPAF@?$AAd?$AAi?$AAv?$AA?$AA@ 00478c28     libucrt:lcidtoname_downlevel.obj
 0002:00003c30       ??_C@_11LOCGONAA@?$AA?$AA@ 00478c30     libucrt:lcidtoname_downlevel.obj
 0002:00003c34       ??_C@_1M@OKAHONE@?$AAa?$AAr?$AA?9?$AAS?$AAA?$AA?$AA@ 00478c34     libucrt:lcidtoname_downlevel.obj
 0002:00003c40       ??_C@_1M@FFFIGIGK@?$AAb?$AAg?$AA?9?$AAB?$AAG?$AA?$AA@ 00478c40     libucrt:lcidtoname_downlevel.obj
 0002:00003c4c       ??_C@_1M@BJNKEDC@?$AAc?$AAa?$AA?9?$AAE?$AAS?$AA?$AA@ 00478c4c     libucrt:lcidtoname_downlevel.obj
 0002:00003c58       ??_C@_1M@IJJHFJHA@?$AAc?$AAs?$AA?9?$AAC?$AAZ?$AA?$AA@ 00478c58     libucrt:lcidtoname_downlevel.obj
 0002:00003c64       ??_C@_1M@CLPEOBGI@?$AAd?$AAa?$AA?9?$AAD?$AAK?$AA?$AA@ 00478c64     libucrt:lcidtoname_downlevel.obj
 0002:00003c70       ??_C@_1M@MCMADGCB@?$AAd?$AAe?$AA?9?$AAD?$AAE?$AA?$AA@ 00478c70     libucrt:lcidtoname_downlevel.obj
 0002:00003c7c       ??_C@_1M@OOCKEMAM@?$AAe?$AAl?$AA?9?$AAG?$AAR?$AA?$AA@ 00478c7c     libucrt:lcidtoname_downlevel.obj
 0002:00003c88       ??_C@_1M@DDNJFGID@?$AAf?$AAi?$AA?9?$AAF?$AAI?$AA?$AA@ 00478c88     libucrt:lcidtoname_downlevel.obj
 0002:00003c94       ??_C@_1M@GLIPPMAC@?$AAf?$AAr?$AA?9?$AAF?$AAR?$AA?$AA@ 00478c94     libucrt:lcidtoname_downlevel.obj
 0002:00003ca0       ??_C@_1M@GFMCHPE@?$AAh?$AAe?$AA?9?$AAI?$AAL?$AA?$AA@ 00478ca0     libucrt:lcidtoname_downlevel.obj
 0002:00003cac       ??_C@_1M@MHLPGNKM@?$AAh?$AAu?$AA?9?$AAH?$AAU?$AA?$AA@ 00478cac     libucrt:lcidtoname_downlevel.obj
 0002:00003cb8       ??_C@_1M@LPDDNNPN@?$AAi?$AAs?$AA?9?$AAI?$AAS?$AA?$AA@ 00478cb8     libucrt:lcidtoname_downlevel.obj
 0002:00003cc4       ??_C@_1M@MADIPODN@?$AAi?$AAt?$AA?9?$AAI?$AAT?$AA?$AA@ 00478cc4     libucrt:lcidtoname_downlevel.obj
 0002:00003cd0       ??_C@_1M@IHBJJGG@?$AAn?$AAl?$AA?9?$AAN?$AAL?$AA?$AA@ 00478cd0     libucrt:lcidtoname_downlevel.obj
 0002:00003cdc       ??_C@_1M@EANAGDL@?$AAn?$AAb?$AA?9?$AAN?$AAO?$AA?$AA@ 00478cdc     libucrt:lcidtoname_downlevel.obj
 0002:00003ce8       ??_C@_1M@NEIEMEGP@?$AAp?$AAl?$AA?9?$AAP?$AAL?$AA?$AA@ 00478ce8     libucrt:lcidtoname_downlevel.obj
 0002:00003cf4       ??_C@_1M@BOCFIGEP@?$AAp?$AAt?$AA?9?$AAB?$AAR?$AA?$AA@ 00478cf4     libucrt:lcidtoname_downlevel.obj
 0002:00003d00       ??_C@_1M@IMPFOPBG@?$AAr?$AAo?$AA?9?$AAR?$AAO?$AA?$AA@ 00478d00     libucrt:lcidtoname_downlevel.obj
 0002:00003d0c       ??_C@_1M@IDNNEJMM@?$AAr?$AAu?$AA?9?$AAR?$AAU?$AA?$AA@ 00478d0c     libucrt:lcidtoname_downlevel.obj
 0002:00003d18       ??_C@_1M@LILEEOGM@?$AAh?$AAr?$AA?9?$AAH?$AAR?$AA?$AA@ 00478d18     libucrt:lcidtoname_downlevel.obj
 0002:00003d24       ??_C@_1M@FKIFEHPB@?$AAs?$AAk?$AA?9?$AAS?$AAK?$AA?$AA@ 00478d24     libucrt:lcidtoname_downlevel.obj
 0002:00003d30       ??_C@_1M@LJMAMNPJ@?$AAs?$AAq?$AA?9?$AAA?$AAL?$AA?$AA@ 00478d30     libucrt:lcidtoname_downlevel.obj
 0002:00003d3c       ??_C@_1M@GIAKDKJK@?$AAs?$AAv?$AA?9?$AAS?$AAE?$AA?$AA@ 00478d3c     libucrt:lcidtoname_downlevel.obj
 0002:00003d48       ??_C@_1M@MKJKIKCL@?$AAt?$AAh?$AA?9?$AAT?$AAH?$AA?$AA@ 00478d48     libucrt:lcidtoname_downlevel.obj
 0002:00003d54       ??_C@_1M@MFLCCMPB@?$AAt?$AAr?$AA?9?$AAT?$AAR?$AA?$AA@ 00478d54     libucrt:lcidtoname_downlevel.obj
 0002:00003d60       ??_C@_1M@OIJHDKJN@?$AAu?$AAr?$AA?9?$AAP?$AAK?$AA?$AA@ 00478d60     libucrt:lcidtoname_downlevel.obj
 0002:00003d6c       ??_C@_1M@LHIPCIEK@?$AAi?$AAd?$AA?9?$AAI?$AAD?$AA?$AA@ 00478d6c     libucrt:lcidtoname_downlevel.obj
 0002:00003d78       ??_C@_1M@MFMOBGI@?$AAu?$AAk?$AA?9?$AAU?$AAA?$AA?$AA@ 00478d78     libucrt:lcidtoname_downlevel.obj
 0002:00003d84       ??_C@_1M@OBGLJIPL@?$AAb?$AAe?$AA?9?$AAB?$AAY?$AA?$AA@ 00478d84     libucrt:lcidtoname_downlevel.obj
 0002:00003d90       ??_C@_1M@BCFAJEAD@?$AAs?$AAl?$AA?9?$AAS?$AAI?$AA?$AA@ 00478d90     libucrt:lcidtoname_downlevel.obj
 0002:00003d9c       ??_C@_1M@FKFFEDDN@?$AAe?$AAt?$AA?9?$AAE?$AAE?$AA?$AA@ 00478d9c     libucrt:lcidtoname_downlevel.obj
 0002:00003da8       ??_C@_1M@KGKKAACI@?$AAl?$AAv?$AA?9?$AAL?$AAV?$AA?$AA@ 00478da8     libucrt:lcidtoname_downlevel.obj
 0002:00003db4       ??_C@_1M@IFGBIJO@?$AAl?$AAt?$AA?9?$AAL?$AAT?$AA?$AA@ 00478db4     libucrt:lcidtoname_downlevel.obj
 0002:00003dc0       ??_C@_1M@FGEAHEDM@?$AAf?$AAa?$AA?9?$AAI?$AAR?$AA?$AA@ 00478dc0     libucrt:lcidtoname_downlevel.obj
 0002:00003dcc       ??_C@_1M@KBMAIBFN@?$AAv?$AAi?$AA?9?$AAV?$AAN?$AA?$AA@ 00478dcc     libucrt:lcidtoname_downlevel.obj
 0002:00003dd8       ??_C@_1M@GPCBKDJK@?$AAh?$AAy?$AA?9?$AAA?$AAM?$AA?$AA@ 00478dd8     libucrt:lcidtoname_downlevel.obj
 0002:00003de4       ??_C@_1BG@BECMDDJB@?$AAa?$AAz?$AA?9?$AAA?$AAZ?$AA?9?$AAL?$AAa?$AAt?$AAn?$AA?$AA@ 00478de4     libucrt:lcidtoname_downlevel.obj
 0002:00003dfc       ??_C@_1M@MAOFCAEA@?$AAe?$AAu?$AA?9?$AAE?$AAS?$AA?$AA@ 00478dfc     libucrt:lcidtoname_downlevel.obj
 0002:00003e08       ??_C@_1M@IGHABKPI@?$AAm?$AAk?$AA?9?$AAM?$AAK?$AA?$AA@ 00478e08     libucrt:lcidtoname_downlevel.obj
 0002:00003e14       ??_C@_1M@IAIGNEJG@?$AAt?$AAn?$AA?9?$AAZ?$AAA?$AA?$AA@ 00478e14     libucrt:lcidtoname_downlevel.obj
 0002:00003e20       ??_C@_1M@IIJCOJFA@?$AAx?$AAh?$AA?9?$AAZ?$AAA?$AA?$AA@ 00478e20     libucrt:lcidtoname_downlevel.obj
 0002:00003e2c       ??_C@_1M@LGPJHNJH@?$AAz?$AAu?$AA?9?$AAZ?$AAA?$AA?$AA@ 00478e2c     libucrt:lcidtoname_downlevel.obj
 0002:00003e38       ??_C@_1M@HOKAOIO@?$AAa?$AAf?$AA?9?$AAZ?$AAA?$AA?$AA@ 00478e38     libucrt:lcidtoname_downlevel.obj
 0002:00003e44       ??_C@_1M@DPCLHLIE@?$AAk?$AAa?$AA?9?$AAG?$AAE?$AA?$AA@ 00478e44     libucrt:lcidtoname_downlevel.obj
 0002:00003e50       ??_C@_1M@BLKMHJBI@?$AAf?$AAo?$AA?9?$AAF?$AAO?$AA?$AA@ 00478e50     libucrt:lcidtoname_downlevel.obj
 0002:00003e5c       ??_C@_1M@LGGJAPPB@?$AAh?$AAi?$AA?9?$AAI?$AAN?$AA?$AA@ 00478e5c     libucrt:lcidtoname_downlevel.obj
 0002:00003e68       ??_C@_1M@FIKPIHFE@?$AAm?$AAt?$AA?9?$AAM?$AAT?$AA?$AA@ 00478e68     libucrt:lcidtoname_downlevel.obj
 0002:00003e74       ??_C@_1M@HEGGPBFA@?$AAs?$AAe?$AA?9?$AAN?$AAO?$AA?$AA@ 00478e74     libucrt:lcidtoname_downlevel.obj
 0002:00003e80       ??_C@_1M@EIBJEEPA@?$AAm?$AAs?$AA?9?$AAM?$AAY?$AA?$AA@ 00478e80     libucrt:lcidtoname_downlevel.obj
 0002:00003e8c       ??_C@_1M@FHLBGMPP@?$AAk?$AAk?$AA?9?$AAK?$AAZ?$AA?$AA@ 00478e8c     libucrt:lcidtoname_downlevel.obj
 0002:00003e98       ??_C@_1M@NGJJLCGI@?$AAk?$AAy?$AA?9?$AAK?$AAG?$AA?$AA@ 00478e98     libucrt:lcidtoname_downlevel.obj
 0002:00003ea4       ??_C@_1M@GIENNBFC@?$AAs?$AAw?$AA?9?$AAK?$AAE?$AA?$AA@ 00478ea4     libucrt:lcidtoname_downlevel.obj
 0002:00003eb0       ??_C@_1BG@NDGMJIMJ@?$AAu?$AAz?$AA?9?$AAU?$AAZ?$AA?9?$AAL?$AAa?$AAt?$AAn?$AA?$AA@ 00478eb0     libucrt:lcidtoname_downlevel.obj
 0002:00003ec8       ??_C@_1M@IDCCIHBC@?$AAt?$AAt?$AA?9?$AAR?$AAU?$AA?$AA@ 00478ec8     libucrt:lcidtoname_downlevel.obj
 0002:00003ed4       ??_C@_1M@LOICPMOJ@?$AAb?$AAn?$AA?9?$AAI?$AAN?$AA?$AA@ 00478ed4     libucrt:lcidtoname_downlevel.obj
 0002:00003ee0       ??_C@_1M@KPKKNEAH@?$AAp?$AAa?$AA?9?$AAI?$AAN?$AA?$AA@ 00478ee0     libucrt:lcidtoname_downlevel.obj
 0002:00003eec       ??_C@_1M@PJGPPBOG@?$AAg?$AAu?$AA?9?$AAI?$AAN?$AA?$AA@ 00478eec     libucrt:lcidtoname_downlevel.obj
 0002:00003ef8       ??_C@_1M@KMKMOPHI@?$AAt?$AAa?$AA?9?$AAI?$AAN?$AA?$AA@ 00478ef8     libucrt:lcidtoname_downlevel.obj
 0002:00003f04       ??_C@_1M@KFEHEPAC@?$AAt?$AAe?$AA?9?$AAI?$AAN?$AA?$AA@ 00478f04     libucrt:lcidtoname_downlevel.obj
 0002:00003f10       ??_C@_1M@CDCLMGHI@?$AAk?$AAn?$AA?9?$AAI?$AAN?$AA?$AA@ 00478f10     libucrt:lcidtoname_downlevel.obj
 0002:00003f1c       ??_C@_1M@MIODLDKF@?$AAm?$AAl?$AA?9?$AAI?$AAN?$AA?$AA@ 00478f1c     libucrt:lcidtoname_downlevel.obj
 0002:00003f28       ??_C@_1M@PBIEACPO@?$AAm?$AAr?$AA?9?$AAI?$AAN?$AA?$AA@ 00478f28     libucrt:lcidtoname_downlevel.obj
 0002:00003f34       ??_C@_1M@NIDEAGPH@?$AAs?$AAa?$AA?9?$AAI?$AAN?$AA?$AA@ 00478f34     libucrt:lcidtoname_downlevel.obj
 0002:00003f40       ??_C@_1M@FHIHCBIO@?$AAm?$AAn?$AA?9?$AAM?$AAN?$AA?$AA@ 00478f40     libucrt:lcidtoname_downlevel.obj
 0002:00003f4c       ??_C@_1M@JAIJPENP@?$AAc?$AAy?$AA?9?$AAG?$AAB?$AA?$AA@ 00478f4c     libucrt:lcidtoname_downlevel.obj
 0002:00003f58       ??_C@_1M@PHGFBEPN@?$AAg?$AAl?$AA?9?$AAE?$AAS?$AA?$AA@ 00478f58     libucrt:lcidtoname_downlevel.obj
 0002:00003f64       ??_C@_1O@KPIPDNCP@?$AAk?$AAo?$AAk?$AA?9?$AAI?$AAN?$AA?$AA@ 00478f64     libucrt:lcidtoname_downlevel.obj
 0002:00003f74       ??_C@_1O@KNHJLDJA@?$AAs?$AAy?$AAr?$AA?9?$AAS?$AAY?$AA?$AA@ 00478f74     libucrt:lcidtoname_downlevel.obj
 0002:00003f84       ??_C@_1O@MKEKBLAH@?$AAd?$AAi?$AAv?$AA?9?$AAM?$AAV?$AA?$AA@ 00478f84     libucrt:lcidtoname_downlevel.obj
 0002:00003f94       ??_C@_1O@OHDCKDDF@?$AAq?$AAu?$AAz?$AA?9?$AAB?$AAO?$AA?$AA@ 00478f94     libucrt:lcidtoname_downlevel.obj
 0002:00003fa4       ??_C@_1M@LEPJNLFD@?$AAn?$AAs?$AA?9?$AAZ?$AAA?$AA?$AA@ 00478fa4     libucrt:lcidtoname_downlevel.obj
 0002:00003fb0       ??_C@_1M@OMLEIIJB@?$AAm?$AAi?$AA?9?$AAN?$AAZ?$AA?$AA@ 00478fb0     libucrt:lcidtoname_downlevel.obj
 0002:00003fbc       ??_C@_1M@PMPEAILG@?$AAa?$AAr?$AA?9?$AAI?$AAQ?$AA?$AA@ 00478fbc     libucrt:lcidtoname_downlevel.obj
 0002:00003fc8       ??_C@_1M@CNKPNOEE@?$AAd?$AAe?$AA?9?$AAC?$AAH?$AA?$AA@ 00478fc8     libucrt:lcidtoname_downlevel.obj
 0002:00003fd4       ??_C@_1M@LKMGMLKO@?$AAe?$AAn?$AA?9?$AAG?$AAB?$AA?$AA@ 00478fd4     libucrt:lcidtoname_downlevel.obj
 0002:00003fe0       ??_C@_1M@PGKJFFGL@?$AAe?$AAs?$AA?9?$AAM?$AAX?$AA?$AA@ 00478fe0     libucrt:lcidtoname_downlevel.obj
 0002:00003fec       ??_C@_1M@DNNANBDC@?$AAf?$AAr?$AA?9?$AAB?$AAE?$AA?$AA@ 00478fec     libucrt:lcidtoname_downlevel.obj
 0002:00003ff8       ??_C@_1M@HLGMDFHM@?$AAi?$AAt?$AA?9?$AAC?$AAH?$AA?$AA@ 00478ff8     libucrt:lcidtoname_downlevel.obj
 0002:00004004       ??_C@_1M@CLLBGJH@?$AAn?$AAl?$AA?9?$AAB?$AAE?$AA?$AA@ 00479004     libucrt:lcidtoname_downlevel.obj
 0002:00004010       ??_C@_1M@BODBOGLF@?$AAn?$AAn?$AA?9?$AAN?$AAO?$AA?$AA@ 00479010     libucrt:lcidtoname_downlevel.obj
 0002:0000401c       ??_C@_1M@HFFAHKAD@?$AAp?$AAt?$AA?9?$AAP?$AAT?$AA?$AA@ 0047901c     libucrt:lcidtoname_downlevel.obj
 0002:00004028       ??_C@_1BG@LNOAKHIE@?$AAs?$AAr?$AA?9?$AAS?$AAP?$AA?9?$AAL?$AAa?$AAt?$AAn?$AA?$AA@ 00479028     libucrt:lcidtoname_downlevel.obj
 0002:00004040       ??_C@_1M@HBMHBGAK@?$AAs?$AAv?$AA?9?$AAF?$AAI?$AA?$AA@ 00479040     libucrt:lcidtoname_downlevel.obj
 0002:0000404c       ??_C@_1BG@DGCJGJBE@?$AAa?$AAz?$AA?9?$AAA?$AAZ?$AA?9?$AAC?$AAy?$AAr?$AAl?$AA?$AA@ 0047904c     libucrt:lcidtoname_downlevel.obj
 0002:00004064       ??_C@_1M@KEJDAAHB@?$AAs?$AAe?$AA?9?$AAS?$AAE?$AA?$AA@ 00479064     libucrt:lcidtoname_downlevel.obj
 0002:00004070       ??_C@_1M@HEIBJJAD@?$AAm?$AAs?$AA?9?$AAB?$AAN?$AA?$AA@ 00479070     libucrt:lcidtoname_downlevel.obj
 0002:0000407c       ??_C@_1BG@PBGJMCEM@?$AAu?$AAz?$AA?9?$AAU?$AAZ?$AA?9?$AAC?$AAy?$AAr?$AAl?$AA?$AA@ 0047907c     libucrt:lcidtoname_downlevel.obj
 0002:00004094       ??_C@_1O@LAOBCMDF@?$AAq?$AAu?$AAz?$AA?9?$AAE?$AAC?$AA?$AA@ 00479094     libucrt:lcidtoname_downlevel.obj
 0002:000040a4       ??_C@_1M@POEEMAIO@?$AAa?$AAr?$AA?9?$AAE?$AAG?$AA?$AA@ 004790a4     libucrt:lcidtoname_downlevel.obj
 0002:000040b0       ??_C@_1M@EFAKDEDL@?$AAz?$AAh?$AA?9?$AAH?$AAK?$AA?$AA@ 004790b0     libucrt:lcidtoname_downlevel.obj
 0002:000040bc       ??_C@_1M@HKKIJHGI@?$AAd?$AAe?$AA?9?$AAA?$AAT?$AA?$AA@ 004790bc     libucrt:lcidtoname_downlevel.obj
 0002:000040c8       ??_C@_1M@KBFBEHJF@?$AAe?$AAn?$AA?9?$AAA?$AAU?$AA?$AA@ 004790c8     libucrt:lcidtoname_downlevel.obj
 0002:000040d4       ??_C@_1M@MNPLFAAH@?$AAe?$AAs?$AA?9?$AAE?$AAS?$AA?$AA@ 004790d4     libucrt:lcidtoname_downlevel.obj
 0002:000040e0       ??_C@_1M@HJOOJFMA@?$AAf?$AAr?$AA?9?$AAC?$AAA?$AA?$AA@ 004790e0     libucrt:lcidtoname_downlevel.obj
 0002:000040ec       ??_C@_1BG@JPOFPNAB@?$AAs?$AAr?$AA?9?$AAS?$AAP?$AA?9?$AAC?$AAy?$AAr?$AAl?$AA?$AA@ 004790ec     libucrt:lcidtoname_downlevel.obj
 0002:00004104       ??_C@_1M@LNFOCMOB@?$AAs?$AAe?$AA?9?$AAF?$AAI?$AA?$AA@ 00479104     libucrt:lcidtoname_downlevel.obj
 0002:00004110       ??_C@_1O@MGJBOAMB@?$AAq?$AAu?$AAz?$AA?9?$AAP?$AAE?$AA?$AA@ 00479110     libucrt:lcidtoname_downlevel.obj
 0002:00004120       ??_C@_1M@GJINLBOK@?$AAa?$AAr?$AA?9?$AAL?$AAY?$AA?$AA@ 00479120     libucrt:lcidtoname_downlevel.obj
 0002:0000412c       ??_C@_1M@GGMNHJNL@?$AAz?$AAh?$AA?9?$AAS?$AAG?$AA?$AA@ 0047912c     libucrt:lcidtoname_downlevel.obj
 0002:00004138       ??_C@_1M@HOIKODND@?$AAd?$AAe?$AA?9?$AAL?$AAU?$AA?$AA@ 00479138     libucrt:lcidtoname_downlevel.obj
 0002:00004144       ??_C@_1M@DDOCCGFG@?$AAe?$AAn?$AA?9?$AAC?$AAA?$AA?$AA@ 00479144     libucrt:lcidtoname_downlevel.obj
 0002:00004150       ??_C@_1M@BNOEMJLF@?$AAe?$AAs?$AA?9?$AAG?$AAT?$AA?$AA@ 00479150     libucrt:lcidtoname_downlevel.obj
 0002:0000415c       ??_C@_1M@EOGNKEK@?$AAf?$AAr?$AA?9?$AAC?$AAH?$AA?$AA@ 0047915c     libucrt:lcidtoname_downlevel.obj
 0002:00004168       ??_C@_1M@FLIDJFHL@?$AAh?$AAr?$AA?9?$AAB?$AAA?$AA?$AA@ 00479168     libucrt:lcidtoname_downlevel.obj
 0002:00004174       ??_C@_1O@FMCELNAJ@?$AAs?$AAm?$AAj?$AA?9?$AAN?$AAO?$AA?$AA@ 00479174     libucrt:lcidtoname_downlevel.obj
 0002:00004184       ??_C@_1M@JHGLJMGJ@?$AAa?$AAr?$AA?9?$AAD?$AAZ?$AA?$AA@ 00479184     libucrt:lcidtoname_downlevel.obj
 0002:00004190       ??_C@_1M@JKKFDCNP@?$AAz?$AAh?$AA?9?$AAM?$AAO?$AA?$AA@ 00479190     libucrt:lcidtoname_downlevel.obj
 0002:0000419c       ??_C@_1M@GEEFALPE@?$AAd?$AAe?$AA?9?$AAL?$AAI?$AA?$AA@ 0047919c     libucrt:lcidtoname_downlevel.obj
 0002:000041a8       ??_C@_1M@IGEOFBG@?$AAe?$AAn?$AA?9?$AAN?$AAZ?$AA?$AA@ 004791a8     libucrt:lcidtoname_downlevel.obj
 0002:000041b4       ??_C@_1M@KDBONEHP@?$AAe?$AAs?$AA?9?$AAC?$AAR?$AA?$AA@ 004791b4     libucrt:lcidtoname_downlevel.obj
 0002:000041c0       ??_C@_1M@FHMDOHNN@?$AAf?$AAr?$AA?9?$AAL?$AAU?$AA?$AA@ 004791c0     libucrt:lcidtoname_downlevel.obj
 0002:000041cc       ??_C@_1BG@NFKKMAFG@?$AAb?$AAs?$AA?9?$AAB?$AAA?$AA?9?$AAL?$AAa?$AAt?$AAn?$AA?$AA@ 004791cc     libucrt:lcidtoname_downlevel.obj
 0002:000041e4       ??_C@_1O@IMNBEMCI@?$AAs?$AAm?$AAj?$AA?9?$AAS?$AAE?$AA?$AA@ 004791e4     libucrt:lcidtoname_downlevel.obj
 0002:000041f4       ??_C@_1M@DHHMBNDP@?$AAa?$AAr?$AA?9?$AAM?$AAA?$AA?$AA@ 004791f4     libucrt:lcidtoname_downlevel.obj
 0002:00004200       ??_C@_1M@BNBLJCGH@?$AAe?$AAn?$AA?9?$AAI?$AAE?$AA?$AA@ 00479200     libucrt:lcidtoname_downlevel.obj
 0002:0000420c       ??_C@_1M@GEPAFMDL@?$AAe?$AAs?$AA?9?$AAP?$AAA?$AA?$AA@ 0047920c     libucrt:lcidtoname_downlevel.obj
 0002:00004218       ??_C@_1M@OJONDMDL@?$AAf?$AAr?$AA?9?$AAM?$AAC?$AA?$AA@ 00479218     libucrt:lcidtoname_downlevel.obj
 0002:00004224       ??_C@_1BG@OBCNFJB@?$AAs?$AAr?$AA?9?$AAB?$AAA?$AA?9?$AAL?$AAa?$AAt?$AAn?$AA?$AA@ 00479224     libucrt:lcidtoname_downlevel.obj
 0002:0000423c       ??_C@_1O@KEMEEGPO@?$AAs?$AAm?$AAa?$AA?9?$AAN?$AAO?$AA?$AA@ 0047923c     libucrt:lcidtoname_downlevel.obj
 0002:0000424c       ??_C@_1M@ELMGFODK@?$AAa?$AAr?$AA?9?$AAT?$AAN?$AA?$AA@ 0047924c     libucrt:lcidtoname_downlevel.obj
 0002:00004258       ??_C@_1M@BHDLHFAF@?$AAe?$AAn?$AA?9?$AAZ?$AAA?$AA?$AA@ 00479258     libucrt:lcidtoname_downlevel.obj
 0002:00004264       ??_C@_1M@BMGIGLIF@?$AAe?$AAs?$AA?9?$AAD?$AAO?$AA?$AA@ 00479264     libucrt:lcidtoname_downlevel.obj
 0002:00004270       ??_C@_1BG@CMBHIPBE@?$AAs?$AAr?$AA?9?$AAB?$AAA?$AA?9?$AAC?$AAy?$AAr?$AAl?$AA?$AA@ 00479270     libucrt:lcidtoname_downlevel.obj
 0002:00004288       ??_C@_1O@HEDBLHNP@?$AAs?$AAm?$AAa?$AA?9?$AAS?$AAE?$AA?$AA@ 00479288     libucrt:lcidtoname_downlevel.obj
 0002:00004298       ??_C@_1M@DAGCADIM@?$AAa?$AAr?$AA?9?$AAO?$AAM?$AA?$AA@ 00479298     libucrt:lcidtoname_downlevel.obj
 0002:000042a4       ??_C@_1M@FODLMICG@?$AAe?$AAn?$AA?9?$AAJ?$AAM?$AA?$AA@ 004792a4     libucrt:lcidtoname_downlevel.obj
 0002:000042b0       ??_C@_1M@DNMLCIHB@?$AAe?$AAs?$AA?9?$AAV?$AAE?$AA?$AA@ 004792b0     libucrt:lcidtoname_downlevel.obj
 0002:000042bc       ??_C@_1O@EOKHMKJK@?$AAs?$AAm?$AAs?$AA?9?$AAF?$AAI?$AA?$AA@ 004792bc     libucrt:lcidtoname_downlevel.obj
 0002:000042cc       ??_C@_1M@CAFJMKOF@?$AAa?$AAr?$AA?9?$AAY?$AAE?$AA?$AA@ 004792cc     libucrt:lcidtoname_downlevel.obj
 0002:000042d8       ??_C@_1M@CBFHIJLI@?$AAe?$AAn?$AA?9?$AAC?$AAB?$AA?$AA@ 004792d8     libucrt:lcidtoname_downlevel.obj
 0002:000042e4       ??_C@_1M@BGNFLDN@?$AAe?$AAs?$AA?9?$AAC?$AAO?$AA?$AA@ 004792e4     libucrt:lcidtoname_downlevel.obj
 0002:000042f0       ??_C@_1O@JMPHMAMC@?$AAs?$AAm?$AAn?$AA?9?$AAF?$AAI?$AA?$AA@ 004792f0     libucrt:lcidtoname_downlevel.obj
 0002:00004300       ??_C@_1M@JLANABKE@?$AAa?$AAr?$AA?9?$AAS?$AAY?$AA?$AA@ 00479300     libucrt:lcidtoname_downlevel.obj
 0002:0000430c       ??_C@_1M@HPKGCFGN@?$AAe?$AAn?$AA?9?$AAB?$AAZ?$AA?$AA@ 0047930c     libucrt:lcidtoname_downlevel.obj
 0002:00004318       ??_C@_1M@OLJCMLGM@?$AAe?$AAs?$AA?9?$AAP?$AAE?$AA?$AA@ 00479318     libucrt:lcidtoname_downlevel.obj
 0002:00004324       ??_C@_1M@MKKGFKLE@?$AAa?$AAr?$AA?9?$AAJ?$AAO?$AA?$AA@ 00479324     libucrt:lcidtoname_downlevel.obj
 0002:00004330       ??_C@_1M@EKPGLDNI@?$AAe?$AAn?$AA?9?$AAT?$AAT?$AA?$AA@ 00479330     libucrt:lcidtoname_downlevel.obj
 0002:0000433c       ??_C@_1M@OONGHFHE@?$AAe?$AAs?$AA?9?$AAA?$AAR?$AA?$AA@ 0047933c     libucrt:lcidtoname_downlevel.obj
 0002:00004348       ??_C@_1M@OOJFGBHE@?$AAa?$AAr?$AA?9?$AAL?$AAB?$AA?$AA@ 00479348     libucrt:lcidtoname_downlevel.obj
 0002:00004354       ??_C@_1M@GCEJHNEG@?$AAe?$AAn?$AA?9?$AAZ?$AAW?$AA?$AA@ 00479354     libucrt:lcidtoname_downlevel.obj
 0002:00004360       ??_C@_1M@JNOCAHJI@?$AAe?$AAs?$AA?9?$AAE?$AAC?$AA?$AA@ 00479360     libucrt:lcidtoname_downlevel.obj
 0002:0000436c       ??_C@_1M@JEFHPGGB@?$AAa?$AAr?$AA?9?$AAK?$AAW?$AA?$AA@ 0047936c     libucrt:lcidtoname_downlevel.obj
 0002:00004378       ??_C@_1M@MLKIBJOJ@?$AAe?$AAn?$AA?9?$AAP?$AAH?$AA?$AA@ 00479378     libucrt:lcidtoname_downlevel.obj
 0002:00004384       ??_C@_1M@BDNIPEND@?$AAe?$AAs?$AA?9?$AAC?$AAL?$AA?$AA@ 00479384     libucrt:lcidtoname_downlevel.obj
 0002:00004390       ??_C@_1M@MPNMEKBD@?$AAa?$AAr?$AA?9?$AAA?$AAE?$AA?$AA@ 00479390     libucrt:lcidtoname_downlevel.obj
 0002:0000439c       ??_C@_1M@KBJALCPI@?$AAe?$AAs?$AA?9?$AAU?$AAY?$AA?$AA@ 0047939c     libucrt:lcidtoname_downlevel.obj
 0002:000043a8       ??_C@_1M@LLCCOAGA@?$AAa?$AAr?$AA?9?$AAB?$AAH?$AA?$AA@ 004793a8     libucrt:lcidtoname_downlevel.obj
 0002:000043b4       ??_C@_1M@PBFNCDEL@?$AAe?$AAs?$AA?9?$AAP?$AAY?$AA?$AA@ 004793b4     libucrt:lcidtoname_downlevel.obj
 0002:000043c0       ??_C@_1M@EDGINPNP@?$AAa?$AAr?$AA?9?$AAQ?$AAA?$AA?$AA@ 004793c0     libucrt:lcidtoname_downlevel.obj
 0002:000043cc       ??_C@_1M@MKDBIIJI@?$AAe?$AAs?$AA?9?$AAB?$AAO?$AA?$AA@ 004793cc     libucrt:lcidtoname_downlevel.obj
 0002:000043d8       ??_C@_1M@CPKKEBLD@?$AAe?$AAs?$AA?9?$AAS?$AAV?$AA?$AA@ 004793d8     libucrt:lcidtoname_downlevel.obj
 0002:000043e4       ??_C@_1M@NDBGMMJL@?$AAe?$AAs?$AA?9?$AAH?$AAN?$AA?$AA@ 004793e4     libucrt:lcidtoname_downlevel.obj
 0002:000043f0       ??_C@_1M@JIJIBHDP@?$AAe?$AAs?$AA?9?$AAN?$AAI?$AA?$AA@ 004793f0     libucrt:lcidtoname_downlevel.obj
 0002:000043fc       ??_C@_1M@CGFMKEEK@?$AAe?$AAs?$AA?9?$AAP?$AAR?$AA?$AA@ 004793fc     libucrt:lcidtoname_downlevel.obj
 0002:00004408       ??_C@_1O@ICJHKIIK@?$AAz?$AAh?$AA?9?$AAC?$AAH?$AAT?$AA?$AA@ 00479408     libucrt:lcidtoname_downlevel.obj
 0002:00004418       ??_C@_15CLNEJCE@?$AAs?$AAr?$AA?$AA@ 00479418     libucrt:lcidtoname_downlevel.obj
 0002:00004b40       ??_C@_1M@KAHEKEIG@?$AAa?$AAf?$AA?9?$AAz?$AAa?$AA?$AA@ 00479b40     libucrt:lcidtoname_downlevel.obj
 0002:00004b4c       ??_C@_1M@GIECOABL@?$AAa?$AAr?$AA?9?$AAa?$AAe?$AA?$AA@ 00479b4c     libucrt:lcidtoname_downlevel.obj
 0002:00004b58       ??_C@_1M@BMLMEKGI@?$AAa?$AAr?$AA?9?$AAb?$AAh?$AA?$AA@ 00479b58     libucrt:lcidtoname_downlevel.obj
 0002:00004b64       ??_C@_1M@DAPFDGGB@?$AAa?$AAr?$AA?9?$AAd?$AAz?$AA?$AA@ 00479b64     libucrt:lcidtoname_downlevel.obj
 0002:00004b70       ??_C@_1M@FJNKGKIG@?$AAa?$AAr?$AA?9?$AAe?$AAg?$AA?$AA@ 00479b70     libucrt:lcidtoname_downlevel.obj
 0002:00004b7c       ??_C@_1M@FLGKKCLO@?$AAa?$AAr?$AA?9?$AAi?$AAq?$AA?$AA@ 00479b7c     libucrt:lcidtoname_downlevel.obj
 0002:00004b88       ??_C@_1M@GNDIPALM@?$AAa?$AAr?$AA?9?$AAj?$AAo?$AA?$AA@ 00479b88     libucrt:lcidtoname_downlevel.obj
 0002:00004b94       ??_C@_1M@DDMJFMGJ@?$AAa?$AAr?$AA?9?$AAk?$AAw?$AA?$AA@ 00479b94     libucrt:lcidtoname_downlevel.obj
 0002:00004ba0       ??_C@_1M@EJALMLHM@?$AAa?$AAr?$AA?9?$AAl?$AAb?$AA?$AA@ 00479ba0     libucrt:lcidtoname_downlevel.obj
 0002:00004bac       ??_C@_1M@MOBDBLOC@?$AAa?$AAr?$AA?9?$AAl?$AAy?$AA?$AA@ 00479bac     libucrt:lcidtoname_downlevel.obj
 0002:00004bb8       ??_C@_1M@JAOCLHDH@?$AAa?$AAr?$AA?9?$AAm?$AAa?$AA?$AA@ 00479bb8     libucrt:lcidtoname_downlevel.obj
 0002:00004bc4       ??_C@_1M@JHPMKJIE@?$AAa?$AAr?$AA?9?$AAo?$AAm?$AA?$AA@ 00479bc4     libucrt:lcidtoname_downlevel.obj
 0002:00004bd0       ??_C@_1M@OEPGHFNH@?$AAa?$AAr?$AA?9?$AAq?$AAa?$AA?$AA@ 00479bd0     libucrt:lcidtoname_downlevel.obj
 0002:00004bdc       ??_C@_1M@KJDONENM@?$AAa?$AAr?$AA?9?$AAs?$AAa?$AA?$AA@ 00479bdc     libucrt:lcidtoname_downlevel.obj
 0002:00004be8       ??_C@_1M@DMJDKLKM@?$AAa?$AAr?$AA?9?$AAs?$AAy?$AA?$AA@ 00479be8     libucrt:lcidtoname_downlevel.obj
 0002:00004bf4       ??_C@_1M@OMFIPEDC@?$AAa?$AAr?$AA?9?$AAt?$AAn?$AA?$AA@ 00479bf4     libucrt:lcidtoname_downlevel.obj
 0002:00004c00       ??_C@_1M@IHMHGAON@?$AAa?$AAr?$AA?9?$AAy?$AAe?$AA?$AA@ 00479c00     libucrt:lcidtoname_downlevel.obj
 0002:00004c0c       ??_C@_1BG@KDCPGJGB@?$AAa?$AAz?$AA?9?$AAa?$AAz?$AA?9?$AAc?$AAy?$AAr?$AAl?$AA?$AA@ 00479c0c     libucrt:lcidtoname_downlevel.obj
 0002:00004c24       ??_C@_1BG@IBCKDDOE@?$AAa?$AAz?$AA?9?$AAa?$AAz?$AA?9?$AAl?$AAa?$AAt?$AAn?$AA?$AA@ 00479c24     libucrt:lcidtoname_downlevel.obj
 0002:00004c3c       ??_C@_1M@EGPFDCPD@?$AAb?$AAe?$AA?9?$AAb?$AAy?$AA?$AA@ 00479c3c     libucrt:lcidtoname_downlevel.obj
 0002:00004c48       ??_C@_1M@PCMGMCGC@?$AAb?$AAg?$AA?9?$AAb?$AAg?$AA?$AA@ 00479c48     libucrt:lcidtoname_downlevel.obj
 0002:00004c54       ??_C@_1M@BJBMFGOB@?$AAb?$AAn?$AA?9?$AAi?$AAn?$AA?$AA@ 00479c54     libucrt:lcidtoname_downlevel.obj
 0002:00004c60       ??_C@_1BG@EAKMMACD@?$AAb?$AAs?$AA?9?$AAb?$AAa?$AA?9?$AAl?$AAa?$AAt?$AAn?$AA?$AA@ 00479c60     libucrt:lcidtoname_downlevel.obj
 0002:00004c78       ??_C@_1M@KGADAODK@?$AAc?$AAa?$AA?9?$AAe?$AAs?$AA?$AA@ 00479c78     libucrt:lcidtoname_downlevel.obj
 0002:00004c84       ??_C@_1M@COAJPDHI@?$AAc?$AAs?$AA?9?$AAc?$AAz?$AA?$AA@ 00479c84     libucrt:lcidtoname_downlevel.obj
 0002:00004c90       ??_C@_1M@DHBHFONH@?$AAc?$AAy?$AA?9?$AAg?$AAb?$AA?$AA@ 00479c90     libucrt:lcidtoname_downlevel.obj
 0002:00004c9c       ??_C@_1M@IMGKELGA@?$AAd?$AAa?$AA?9?$AAd?$AAk?$AA?$AA@ 00479c9c     libucrt:lcidtoname_downlevel.obj
 0002:00004ca8       ??_C@_1M@NNDGDNGA@?$AAd?$AAe?$AA?9?$AAa?$AAt?$AA?$AA@ 00479ca8     libucrt:lcidtoname_downlevel.obj
 0002:00004cb4       ??_C@_1M@IKDBHEEM@?$AAd?$AAe?$AA?9?$AAc?$AAh?$AA?$AA@ 00479cb4     libucrt:lcidtoname_downlevel.obj
 0002:00004cc0       ??_C@_1M@GFFOJMCJ@?$AAd?$AAe?$AA?9?$AAd?$AAe?$AA?$AA@ 00479cc0     libucrt:lcidtoname_downlevel.obj
 0002:00004ccc       ??_C@_1M@MDNLKBPM@?$AAd?$AAe?$AA?9?$AAl?$AAi?$AA?$AA@ 00479ccc     libucrt:lcidtoname_downlevel.obj
 0002:00004cd8       ??_C@_1M@NJBEEJNL@?$AAd?$AAe?$AA?9?$AAl?$AAu?$AA?$AA@ 00479cd8     libucrt:lcidtoname_downlevel.obj
 0002:00004ce4       ??_C@_1O@GNNELBAP@?$AAd?$AAi?$AAv?$AA?9?$AAm?$AAv?$AA?$AA@ 00479ce4     libucrt:lcidtoname_downlevel.obj
 0002:00004cf4       ??_C@_1M@EJLEOGAE@?$AAe?$AAl?$AA?9?$AAg?$AAr?$AA?$AA@ 00479cf4     libucrt:lcidtoname_downlevel.obj
 0002:00004d00       ??_C@_1M@GMPONJN@?$AAe?$AAn?$AA?9?$AAa?$AAu?$AA?$AA@ 00479d00     libucrt:lcidtoname_downlevel.obj
 0002:00004d0c       ??_C@_1M@NIDIIPGF@?$AAe?$AAn?$AA?9?$AAb?$AAz?$AA?$AA@ 00479d0c     libucrt:lcidtoname_downlevel.obj
 0002:00004d18       ??_C@_1M@JEHMIMFO@?$AAe?$AAn?$AA?9?$AAc?$AAa?$AA?$AA@ 00479d18     libucrt:lcidtoname_downlevel.obj
 0002:00004d24       ??_C@_1M@IGMJCDLA@?$AAe?$AAn?$AA?9?$AAc?$AAb?$AA?$AA@ 00479d24     libucrt:lcidtoname_downlevel.obj
 0002:00004d30       ??_C@_1M@BNFIGBKG@?$AAe?$AAn?$AA?9?$AAg?$AAb?$AA?$AA@ 00479d30     libucrt:lcidtoname_downlevel.obj
 0002:00004d3c       ??_C@_1M@LKIFDIGP@?$AAe?$AAn?$AA?9?$AAi?$AAe?$AA?$AA@ 00479d3c     libucrt:lcidtoname_downlevel.obj
 0002:00004d48       ??_C@_1M@PJKFGCCO@?$AAe?$AAn?$AA?9?$AAj?$AAm?$AA?$AA@ 00479d48     libucrt:lcidtoname_downlevel.obj
 0002:00004d54       ??_C@_1M@KPPKEPBO@?$AAe?$AAn?$AA?9?$AAn?$AAz?$AA?$AA@ 00479d54     libucrt:lcidtoname_downlevel.obj
 0002:00004d60       ??_C@_1M@GMDGLDOB@?$AAe?$AAn?$AA?9?$AAp?$AAh?$AA?$AA@ 00479d60     libucrt:lcidtoname_downlevel.obj
 0002:00004d6c       ??_C@_1M@ONGIBJNA@?$AAe?$AAn?$AA?9?$AAt?$AAt?$AA?$AA@ 00479d6c     libucrt:lcidtoname_downlevel.obj
 0002:00004d78       ??_C@_1M@LLODPCMM@?$AAe?$AAn?$AA?9?$AAu?$AAs?$AA?$AA@ 00479d78     libucrt:lcidtoname_downlevel.obj
 0002:00004d84       ??_C@_1M@LAKFNPAN@?$AAe?$AAn?$AA?9?$AAz?$AAa?$AA?$AA@ 00479d84     libucrt:lcidtoname_downlevel.obj
 0002:00004d90       ??_C@_1M@MFNHNHEO@?$AAe?$AAn?$AA?9?$AAz?$AAw?$AA?$AA@ 00479d90     libucrt:lcidtoname_downlevel.obj
 0002:00004d9c       ??_C@_1M@EJEINPHM@?$AAe?$AAs?$AA?9?$AAa?$AAr?$AA?$AA@ 00479d9c     libucrt:lcidtoname_downlevel.obj
 0002:00004da8       ??_C@_1M@GNKPCCJA@?$AAe?$AAs?$AA?9?$AAb?$AAo?$AA?$AA@ 00479da8     libucrt:lcidtoname_downlevel.obj
 0002:00004db4       ??_C@_1M@LEEGFONL@?$AAe?$AAs?$AA?9?$AAc?$AAl?$AA?$AA@ 00479db4     libucrt:lcidtoname_downlevel.obj
 0002:00004dc0       ??_C@_1M@KGPDPBDF@?$AAe?$AAs?$AA?9?$AAc?$AAo?$AA?$AA@ 00479dc0     libucrt:lcidtoname_downlevel.obj
 0002:00004dcc       ??_C@_1M@EIAHOHH@?$AAe?$AAs?$AA?9?$AAc?$AAr?$AA?$AA@ 00479dcc     libucrt:lcidtoname_downlevel.obj
 0002:00004dd8       ??_C@_1M@LLPGMBIN@?$AAe?$AAs?$AA?9?$AAd?$AAo?$AA?$AA@ 00479dd8     libucrt:lcidtoname_downlevel.obj
 0002:00004de4       ??_C@_1M@DKHMKNJA@?$AAe?$AAs?$AA?9?$AAe?$AAc?$AA?$AA@ 00479de4     libucrt:lcidtoname_downlevel.obj
 0002:00004df0       ??_C@_1M@GKGFPKAP@?$AAe?$AAs?$AA?9?$AAe?$AAs?$AA?$AA@ 00479df0     libucrt:lcidtoname_downlevel.obj
 0002:00004dfc       ??_C@_1M@LKHKGDLN@?$AAe?$AAs?$AA?9?$AAg?$AAt?$AA?$AA@ 00479dfc     libucrt:lcidtoname_downlevel.obj
 0002:00004e08       ??_C@_1M@HEIIGGJD@?$AAe?$AAs?$AA?9?$AAh?$AAn?$AA?$AA@ 00479e08     libucrt:lcidtoname_downlevel.obj
 0002:00004e14       ??_C@_1M@FBDHPPGD@?$AAe?$AAs?$AA?9?$AAm?$AAx?$AA?$AA@ 00479e14     libucrt:lcidtoname_downlevel.obj
 0002:00004e20       ??_C@_1M@DPAGLNDH@?$AAe?$AAs?$AA?9?$AAn?$AAi?$AA?$AA@ 00479e20     libucrt:lcidtoname_downlevel.obj
 0002:00004e2c       ??_C@_1M@MDGOPGDD@?$AAe?$AAs?$AA?9?$AAp?$AAa?$AA?$AA@ 00479e2c     libucrt:lcidtoname_downlevel.obj
 0002:00004e38       ??_C@_1M@EMAMGBGE@?$AAe?$AAs?$AA?9?$AAp?$AAe?$AA?$AA@ 00479e38     libucrt:lcidtoname_downlevel.obj
 0002:00004e44       ??_C@_1M@IBMCAOEC@?$AAe?$AAs?$AA?9?$AAp?$AAr?$AA?$AA@ 00479e44     libucrt:lcidtoname_downlevel.obj
 0002:00004e50       ??_C@_1M@FGMDIJED@?$AAe?$AAs?$AA?9?$AAp?$AAy?$AA?$AA@ 00479e50     libucrt:lcidtoname_downlevel.obj
 0002:00004e5c       ??_C@_1M@IIDEOLLL@?$AAe?$AAs?$AA?9?$AAs?$AAv?$AA?$AA@ 00479e5c     libucrt:lcidtoname_downlevel.obj
 0002:00004e68       ??_C@_1M@GAOBIPA@?$AAe?$AAs?$AA?9?$AAu?$AAy?$AA?$AA@ 00479e68     libucrt:lcidtoname_downlevel.obj
 0002:00004e74       ??_C@_1M@JKFFICHJ@?$AAe?$AAs?$AA?9?$AAv?$AAe?$AA?$AA@ 00479e74     libucrt:lcidtoname_downlevel.obj
 0002:00004e80       ??_C@_1M@PNMLOJDF@?$AAe?$AAt?$AA?9?$AAe?$AAe?$AA?$AA@ 00479e80     libucrt:lcidtoname_downlevel.obj
 0002:00004e8c       ??_C@_1M@GHHLIKEI@?$AAe?$AAu?$AA?9?$AAe?$AAs?$AA?$AA@ 00479e8c     libucrt:lcidtoname_downlevel.obj
 0002:00004e98       ??_C@_1M@PBNONODE@?$AAf?$AAa?$AA?9?$AAi?$AAr?$AA?$AA@ 00479e98     libucrt:lcidtoname_downlevel.obj
 0002:00004ea4       ??_C@_1M@JEEHPMIL@?$AAf?$AAi?$AA?9?$AAf?$AAi?$AA?$AA@ 00479ea4     libucrt:lcidtoname_downlevel.obj
 0002:00004eb0       ??_C@_1M@LMDCNDBA@?$AAf?$AAo?$AA?9?$AAf?$AAo?$AA?$AA@ 00479eb0     libucrt:lcidtoname_downlevel.obj
 0002:00004ebc       ??_C@_1M@JKEOHLDK@?$AAf?$AAr?$AA?9?$AAb?$AAe?$AA?$AA@ 00479ebc     libucrt:lcidtoname_downlevel.obj
 0002:00004ec8       ??_C@_1M@NOHADPMI@?$AAf?$AAr?$AA?9?$AAc?$AAa?$AA?$AA@ 00479ec8     libucrt:lcidtoname_downlevel.obj
 0002:00004ed4       ??_C@_1M@KDHIHAEC@?$AAf?$AAr?$AA?9?$AAc?$AAh?$AA?$AA@ 00479ed4     libucrt:lcidtoname_downlevel.obj
 0002:00004ee0       ??_C@_1M@MMBBFGAK@?$AAf?$AAr?$AA?9?$AAf?$AAr?$AA?$AA@ 00479ee0     libucrt:lcidtoname_downlevel.obj
 0002:00004eec       ??_C@_1M@PAFNENNF@?$AAf?$AAr?$AA?9?$AAl?$AAu?$AA?$AA@ 00479eec     libucrt:lcidtoname_downlevel.obj
 0002:00004ef8       ??_C@_1M@EOHDJGDD@?$AAf?$AAr?$AA?9?$AAm?$AAc?$AA?$AA@ 00479ef8     libucrt:lcidtoname_downlevel.obj
 0002:00004f04       ??_C@_1M@FAPLLOPF@?$AAg?$AAl?$AA?9?$AAe?$AAs?$AA?$AA@ 00479f04     libucrt:lcidtoname_downlevel.obj
 0002:00004f10       ??_C@_1M@FOPBFLOO@?$AAg?$AAu?$AA?9?$AAi?$AAn?$AA?$AA@ 00479f10     libucrt:lcidtoname_downlevel.obj
 0002:00004f1c       ??_C@_1M@KBMCINPM@?$AAh?$AAe?$AA?9?$AAi?$AAl?$AA?$AA@ 00479f1c     libucrt:lcidtoname_downlevel.obj
 0002:00004f28       ??_C@_1M@BBPHKFPJ@?$AAh?$AAi?$AA?9?$AAi?$AAn?$AA?$AA@ 00479f28     libucrt:lcidtoname_downlevel.obj
 0002:00004f34       ??_C@_1M@PMBNDPHD@?$AAh?$AAr?$AA?9?$AAb?$AAa?$AA?$AA@ 00479f34     libucrt:lcidtoname_downlevel.obj
 0002:00004f40       ??_C@_1M@BPCKOEGE@?$AAh?$AAr?$AA?9?$AAh?$AAr?$AA?$AA@ 00479f40     libucrt:lcidtoname_downlevel.obj
 0002:00004f4c       ??_C@_1M@GACBMHKE@?$AAh?$AAu?$AA?9?$AAh?$AAu?$AA?$AA@ 00479f4c     libucrt:lcidtoname_downlevel.obj
 0002:00004f58       ??_C@_1M@MILPAJJC@?$AAh?$AAy?$AA?9?$AAa?$AAm?$AA?$AA@ 00479f58     libucrt:lcidtoname_downlevel.obj
 0002:00004f64       ??_C@_1M@BABBICEC@?$AAi?$AAd?$AA?9?$AAi?$AAd?$AA?$AA@ 00479f64     libucrt:lcidtoname_downlevel.obj
 0002:00004f70       ??_C@_1M@BIKNHHPF@?$AAi?$AAs?$AA?9?$AAi?$AAs?$AA?$AA@ 00479f70     libucrt:lcidtoname_downlevel.obj
 0002:00004f7c       ??_C@_1M@NMPCJPHE@?$AAi?$AAt?$AA?9?$AAc?$AAh?$AA?$AA@ 00479f7c     libucrt:lcidtoname_downlevel.obj
 0002:00004f88       ??_C@_1M@GHKGFEDF@?$AAi?$AAt?$AA?9?$AAi?$AAt?$AA?$AA@ 00479f88     libucrt:lcidtoname_downlevel.obj
 0002:00004f94       ??_C@_1M@NIEJCJJA@?$AAj?$AAa?$AA?9?$AAj?$AAp?$AA?$AA@ 00479f94     libucrt:lcidtoname_downlevel.obj
 0002:00004fa0       ??_C@_1M@JILFNBIM@?$AAk?$AAa?$AA?9?$AAg?$AAe?$AA?$AA@ 00479fa0     libucrt:lcidtoname_downlevel.obj
 0002:00004fac       ??_C@_1M@PACPMGPH@?$AAk?$AAk?$AA?9?$AAk?$AAz?$AA?$AA@ 00479fac     libucrt:lcidtoname_downlevel.obj
 0002:00004fb8       ??_C@_1M@IELFGMHA@?$AAk?$AAn?$AA?9?$AAi?$AAn?$AA?$AA@ 00479fb8     libucrt:lcidtoname_downlevel.obj
 0002:00004fc4       ??_C@_1O@IBBJHCH@?$AAk?$AAo?$AAk?$AA?9?$AAi?$AAn?$AA?$AA@ 00479fc4     libucrt:lcidtoname_downlevel.obj
 0002:00004fd4       ??_C@_1M@DMHAEOGC@?$AAk?$AAo?$AA?9?$AAk?$AAr?$AA?$AA@ 00479fd4     libucrt:lcidtoname_downlevel.obj
 0002:00004fe0       ??_C@_1M@HBAHBIGA@?$AAk?$AAy?$AA?9?$AAk?$AAg?$AA?$AA@ 00479fe0     libucrt:lcidtoname_downlevel.obj
 0002:00004fec       ??_C@_1M@KPMILCJG@?$AAl?$AAt?$AA?9?$AAl?$AAt?$AA?$AA@ 00479fec     libucrt:lcidtoname_downlevel.obj
 0002:00004ff8       ??_C@_1M@BDEKKCA@?$AAl?$AAv?$AA?9?$AAl?$AAv?$AA?$AA@ 00479ff8     libucrt:lcidtoname_downlevel.obj
 0002:00005004       ??_C@_1M@ELCKCCJJ@?$AAm?$AAi?$AA?9?$AAn?$AAz?$AA?$AA@ 0047a004     libucrt:lcidtoname_downlevel.obj
 0002:00005010       ??_C@_1M@CBOOLAPA@?$AAm?$AAk?$AA?9?$AAm?$AAk?$AA?$AA@ 0047a010     libucrt:lcidtoname_downlevel.obj
 0002:0000501c       ??_C@_1M@GPHNBJKN@?$AAm?$AAl?$AA?9?$AAi?$AAn?$AA?$AA@ 0047a01c     libucrt:lcidtoname_downlevel.obj
 0002:00005028       ??_C@_1M@PABJILIG@?$AAm?$AAn?$AA?9?$AAm?$AAn?$AA?$AA@ 0047a028     libucrt:lcidtoname_downlevel.obj
 0002:00005034       ??_C@_1M@FGBKKIPG@?$AAm?$AAr?$AA?9?$AAi?$AAn?$AA?$AA@ 0047a034     libucrt:lcidtoname_downlevel.obj
 0002:00005040       ??_C@_1M@NDBPDDAL@?$AAm?$AAs?$AA?9?$AAb?$AAn?$AA?$AA@ 0047a040     libucrt:lcidtoname_downlevel.obj
 0002:0000504c       ??_C@_1M@OPIHOOPI@?$AAm?$AAs?$AA?9?$AAm?$AAy?$AA?$AA@ 0047a04c     libucrt:lcidtoname_downlevel.obj
 0002:00005058       ??_C@_1M@PPDBCNFM@?$AAm?$AAt?$AA?9?$AAm?$AAt?$AA?$AA@ 0047a058     libucrt:lcidtoname_downlevel.obj
 0002:00005064       ??_C@_1M@KDJDKMDD@?$AAn?$AAb?$AA?9?$AAn?$AAo?$AA?$AA@ 0047a064     libucrt:lcidtoname_downlevel.obj
 0002:00005070       ??_C@_1M@KFCFLMJP@?$AAn?$AAl?$AA?9?$AAb?$AAe?$AA?$AA@ 0047a070     libucrt:lcidtoname_downlevel.obj
 0002:0000507c       ??_C@_1M@KPOPDDGO@?$AAn?$AAl?$AA?9?$AAn?$AAl?$AA?$AA@ 0047a07c     libucrt:lcidtoname_downlevel.obj
 0002:00005088       ??_C@_1M@LJKPEMLN@?$AAn?$AAn?$AA?9?$AAn?$AAo?$AA?$AA@ 0047a088     libucrt:lcidtoname_downlevel.obj
 0002:00005094       ??_C@_1M@BDGHHBFL@?$AAn?$AAs?$AA?9?$AAz?$AAa?$AA?$AA@ 0047a094     libucrt:lcidtoname_downlevel.obj
 0002:000050a0       ??_C@_1M@IDEHOAP@?$AAp?$AAa?$AA?9?$AAi?$AAn?$AA?$AA@ 0047a0a0     libucrt:lcidtoname_downlevel.obj
 0002:000050ac       ??_C@_1M@HDBKGOGH@?$AAp?$AAl?$AA?9?$AAp?$AAl?$AA?$AA@ 0047a0ac     libucrt:lcidtoname_downlevel.obj
 0002:000050b8       ??_C@_1M@LJLLCMEH@?$AAp?$AAt?$AA?9?$AAb?$AAr?$AA?$AA@ 0047a0b8     libucrt:lcidtoname_downlevel.obj
 0002:000050c4       ??_C@_1M@NCMONAAL@?$AAp?$AAt?$AA?9?$AAp?$AAt?$AA?$AA@ 0047a0c4     libucrt:lcidtoname_downlevel.obj
 0002:000050d0       ??_C@_1O@EAKMAJDN@?$AAq?$AAu?$AAz?$AA?9?$AAb?$AAo?$AA?$AA@ 0047a0d0     libucrt:lcidtoname_downlevel.obj
 0002:000050e0       ??_C@_1O@BHHPIGDN@?$AAq?$AAu?$AAz?$AA?9?$AAe?$AAc?$AA?$AA@ 0047a0e0     libucrt:lcidtoname_downlevel.obj
 0002:000050f0       ??_C@_1O@GBAPEKMJ@?$AAq?$AAu?$AAz?$AA?9?$AAp?$AAe?$AA?$AA@ 0047a0f0     libucrt:lcidtoname_downlevel.obj
 0002:00005100       ??_C@_1M@CLGLEFBO@?$AAr?$AAo?$AA?9?$AAr?$AAo?$AA?$AA@ 0047a100     libucrt:lcidtoname_downlevel.obj
 0002:0000510c       ??_C@_1M@CEEDODME@?$AAr?$AAu?$AA?9?$AAr?$AAu?$AA?$AA@ 0047a10c     libucrt:lcidtoname_downlevel.obj
 0002:00005118       ??_C@_1M@HPKKKMPP@?$AAs?$AAa?$AA?9?$AAi?$AAn?$AA?$AA@ 0047a118     libucrt:lcidtoname_downlevel.obj
 0002:00005124       ??_C@_1M@BKMAIGOJ@?$AAs?$AAe?$AA?9?$AAf?$AAi?$AA?$AA@ 0047a124     libucrt:lcidtoname_downlevel.obj
 0002:00005130       ??_C@_1M@NDPIFLFI@?$AAs?$AAe?$AA?9?$AAn?$AAo?$AA?$AA@ 0047a130     libucrt:lcidtoname_downlevel.obj
 0002:0000513c       ??_C@_1M@DANKKHJ@?$AAs?$AAe?$AA?9?$AAs?$AAe?$AA?$AA@ 0047a13c     libucrt:lcidtoname_downlevel.obj
 0002:00005148       ??_C@_1M@PNBLONPJ@?$AAs?$AAk?$AA?9?$AAs?$AAk?$AA?$AA@ 0047a148     libucrt:lcidtoname_downlevel.obj
 0002:00005154       ??_C@_1M@LFMODOAL@?$AAs?$AAl?$AA?9?$AAs?$AAi?$AA?$AA@ 0047a154     libucrt:lcidtoname_downlevel.obj
 0002:00005160       ??_C@_1O@DFKOMPG@?$AAs?$AAm?$AAa?$AA?9?$AAn?$AAo?$AA?$AA@ 0047a160     libucrt:lcidtoname_downlevel.obj
 0002:00005170       ??_C@_1O@NDKPBNNH@?$AAs?$AAm?$AAa?$AA?9?$AAs?$AAe?$AA?$AA@ 0047a170     libucrt:lcidtoname_downlevel.obj
 0002:00005180       ??_C@_1O@PLLKBHAB@?$AAs?$AAm?$AAj?$AA?9?$AAn?$AAo?$AA?$AA@ 0047a180     libucrt:lcidtoname_downlevel.obj
 0002:00005190       ??_C@_1O@CLEPOGCA@?$AAs?$AAm?$AAj?$AA?9?$AAs?$AAe?$AA?$AA@ 0047a190     libucrt:lcidtoname_downlevel.obj
 0002:000051a0       ??_C@_1O@DLGJGKMK@?$AAs?$AAm?$AAn?$AA?9?$AAf?$AAi?$AA?$AA@ 0047a1a0     libucrt:lcidtoname_downlevel.obj
 0002:000051b0       ??_C@_1O@OJDJGAJC@?$AAs?$AAm?$AAs?$AA?9?$AAf?$AAi?$AA?$AA@ 0047a1b0     libucrt:lcidtoname_downlevel.obj
 0002:000051c0       ??_C@_1M@BOFOGHPB@?$AAs?$AAq?$AA?9?$AAa?$AAl?$AA?$AA@ 0047a1c0     libucrt:lcidtoname_downlevel.obj
 0002:000051cc       ??_C@_1BG@LJBBIPGB@?$AAs?$AAr?$AA?9?$AAb?$AAa?$AA?9?$AAc?$AAy?$AAr?$AAl?$AA?$AA@ 0047a1cc     libucrt:lcidtoname_downlevel.obj
 0002:000051e4       ??_C@_1BG@JLBENFOE@?$AAs?$AAr?$AA?9?$AAb?$AAa?$AA?9?$AAl?$AAa?$AAt?$AAn?$AA?$AA@ 0047a1e4     libucrt:lcidtoname_downlevel.obj
 0002:000051fc       ??_C@_1BG@KODPNHE@?$AAs?$AAr?$AA?9?$AAs?$AAp?$AA?9?$AAc?$AAy?$AAr?$AAl?$AA?$AA@ 0047a1fc     libucrt:lcidtoname_downlevel.obj
 0002:00005214       ??_C@_1BG@CIOGKHPB@?$AAs?$AAr?$AA?9?$AAs?$AAp?$AA?9?$AAl?$AAa?$AAt?$AAn?$AA?$AA@ 0047a214     libucrt:lcidtoname_downlevel.obj
 0002:0000522c       ??_C@_1M@NGFJLMAC@?$AAs?$AAv?$AA?9?$AAf?$AAi?$AA?$AA@ 0047a22c     libucrt:lcidtoname_downlevel.obj
 0002:00005238       ??_C@_1M@MPJEJAJC@?$AAs?$AAv?$AA?9?$AAs?$AAe?$AA?$AA@ 0047a238     libucrt:lcidtoname_downlevel.obj
 0002:00005244       ??_C@_1M@MPNDHLFK@?$AAs?$AAw?$AA?9?$AAk?$AAe?$AA?$AA@ 0047a244     libucrt:lcidtoname_downlevel.obj
 0002:00005250       ??_C@_1O@KOHBJJI@?$AAs?$AAy?$AAr?$AA?9?$AAs?$AAy?$AA?$AA@ 0047a250     libucrt:lcidtoname_downlevel.obj
 0002:00005260       ??_C@_1M@LDCEFHA@?$AAt?$AAa?$AA?9?$AAi?$AAn?$AA?$AA@ 0047a260     libucrt:lcidtoname_downlevel.obj
 0002:0000526c       ??_C@_1M@CNJOFAK@?$AAt?$AAe?$AA?9?$AAi?$AAn?$AA?$AA@ 0047a26c     libucrt:lcidtoname_downlevel.obj
 0002:00005278       ??_C@_1M@GNAECACD@?$AAt?$AAh?$AA?9?$AAt?$AAh?$AA?$AA@ 0047a278     libucrt:lcidtoname_downlevel.obj
 0002:00005284       ??_C@_1M@CHBIHOJO@?$AAt?$AAn?$AA?9?$AAz?$AAa?$AA?$AA@ 0047a284     libucrt:lcidtoname_downlevel.obj
 0002:00005290       ??_C@_1M@GCCMIGPJ@?$AAt?$AAr?$AA?9?$AAt?$AAr?$AA?$AA@ 0047a290     libucrt:lcidtoname_downlevel.obj
 0002:0000529c       ??_C@_1M@CELMCNBK@?$AAt?$AAt?$AA?9?$AAr?$AAu?$AA?$AA@ 0047a29c     libucrt:lcidtoname_downlevel.obj
 0002:000052a8       ??_C@_1M@KLMCELGA@?$AAu?$AAk?$AA?9?$AAu?$AAa?$AA?$AA@ 0047a2a8     libucrt:lcidtoname_downlevel.obj
 0002:000052b4       ??_C@_1M@EPAJJAJF@?$AAu?$AAr?$AA?9?$AAp?$AAk?$AA?$AA@ 0047a2b4     libucrt:lcidtoname_downlevel.obj
 0002:000052c0       ??_C@_1BG@GEGPMCDJ@?$AAu?$AAz?$AA?9?$AAu?$AAz?$AA?9?$AAc?$AAy?$AAr?$AAl?$AA?$AA@ 0047a2c0     libucrt:lcidtoname_downlevel.obj
 0002:000052d8       ??_C@_1BG@EGGKJILM@?$AAu?$AAz?$AA?9?$AAu?$AAz?$AA?9?$AAl?$AAa?$AAt?$AAn?$AA?$AA@ 0047a2d8     libucrt:lcidtoname_downlevel.obj
 0002:000052f0       ??_C@_1M@GFOCLFF@?$AAv?$AAi?$AA?9?$AAv?$AAn?$AA?$AA@ 0047a2f0     libucrt:lcidtoname_downlevel.obj
 0002:000052fc       ??_C@_1M@CPAMEDFI@?$AAx?$AAh?$AA?9?$AAz?$AAa?$AA?$AA@ 0047a2fc     libucrt:lcidtoname_downlevel.obj
 0002:00005308       ??_C@_1O@EBKIFIGN@?$AAz?$AAh?$AA?9?$AAc?$AAh?$AAs?$AA?$AA@ 0047a308     libucrt:lcidtoname_downlevel.obj
 0002:00005318       ??_C@_1O@NMHPGANE@?$AAz?$AAh?$AA?9?$AAc?$AAh?$AAt?$AA?$AA@ 0047a318     libucrt:lcidtoname_downlevel.obj
 0002:00005328       ??_C@_1M@LPINJOMC@?$AAz?$AAh?$AA?9?$AAc?$AAn?$AA?$AA@ 0047a328     libucrt:lcidtoname_downlevel.obj
 0002:00005334       ??_C@_1M@OCJEJODD@?$AAz?$AAh?$AA?9?$AAh?$AAk?$AA?$AA@ 0047a334     libucrt:lcidtoname_downlevel.obj
 0002:00005340       ??_C@_1M@DNDLJINH@?$AAz?$AAh?$AA?9?$AAm?$AAo?$AA?$AA@ 0047a340     libucrt:lcidtoname_downlevel.obj
 0002:0000534c       ??_C@_1M@MBFDNDND@?$AAz?$AAh?$AA?9?$AAs?$AAg?$AA?$AA@ 0047a34c     libucrt:lcidtoname_downlevel.obj
 0002:00005358       ??_C@_1M@IMEPLEPE@?$AAz?$AAh?$AA?9?$AAt?$AAw?$AA?$AA@ 0047a358     libucrt:lcidtoname_downlevel.obj
 0002:00005364       ??_C@_1M@BBGHNHJP@?$AAz?$AAu?$AA?9?$AAz?$AAa?$AA?$AA@ 0047a364     libucrt:lcidtoname_downlevel.obj
 0002:00005370       __days                     0047a370     libucrt:days.obj
 0002:000053a4       __lpdays                   0047a3a4     libucrt:days.obj
 0002:000053f0       ??_C@_1BA@BALFACEM@?$AAC?$AAO?$AAN?$AAO?$AAU?$AAT?$AA$?$AA?$AA@ 0047a3f0     libucrt:initcon.obj
 0002:00005560       __infinity                 0047a560     libucrt:87tran.obj
 0002:0000556a       __minfinity                0047a56a     libucrt:87tran.obj
 0002:00005574       __logemax                  0047a574     libucrt:87tran.obj
 0002:0000559a       __OP_EXPjmptab             0047a59a     libucrt:87tran.obj
 0002:000055c0       __indefinite               0047a5c0     libucrt:87disp.obj
 0002:000055ca       __piby2                    0047a5ca     libucrt:87disp.obj
 0002:000055d4       __piby4                    0047a5d4     libucrt:87disp.obj
 0002:00005608       __DEFAULT_CW_in_mem        0047a608     libucrt:common.obj
 0002:0000560a       __pi_by_2_to_61            0047a60a     libucrt:common.obj
 0002:00005644       ??_C@_03MGHMBJCF@log?$AA@  0047a644     libucrt:libm_error.obj
 0002:00005648       ??_C@_05HGHHAHAP@log10?$AA@ 0047a648     libucrt:libm_error.obj
 0002:00005650       ??_C@_03KHJOGHMM@exp?$AA@  0047a650     libucrt:libm_error.obj
 0002:00005654       ??_C@_03JGHBODFD@pow?$AA@  0047a654     libucrt:libm_error.obj
 0002:00005658       ??_C@_04FIHNOPOL@asin?$AA@ 0047a658     libucrt:libm_error.obj
 0002:00005660       ??_C@_04PDIFKINK@acos?$AA@ 0047a660     libucrt:libm_error.obj
 0002:00005668       ??_C@_04EIAKFFMI@sqrt?$AA@ 0047a668     libucrt:libm_error.obj
 0002:00005670       ___acrt_log10_table_t      0047a670     libucrt:log10_tables.obj
 0002:00005a80       ___acrt_log10_table_cb     0047aa80     libucrt:log10_tables.obj
 0002:00005e90       __real@3fe0000000000000    0047ae90     libucrt:powhlp.obj
 0002:00005e98       ??_C@_04FJHINJAO@tanh?$AA@ 0047ae98     libucrt:fpexcept.obj
 0002:00005ea0       ??_C@_04MLLJIGOK@atan?$AA@ 0047aea0     libucrt:fpexcept.obj
 0002:00005ea8       ??_C@_05KNGEOGJB@atan2?$AA@ 0047aea8     libucrt:fpexcept.obj
 0002:00005eb0       ??_C@_03BLEJJJBH@sin?$AA@  0047aeb0     libucrt:fpexcept.obj
 0002:00005eb4       ??_C@_03LALBNOCG@cos?$AA@  0047aeb4     libucrt:fpexcept.obj
 0002:00005eb8       ??_C@_03IIINPABG@tan?$AA@  0047aeb8     libucrt:fpexcept.obj
 0002:00005ebc       ??_C@_04GFPJNGEK@ceil?$AA@ 0047aebc     libucrt:fpexcept.obj
 0002:00005ec4       ??_C@_05PBJFFIGL@floor?$AA@ 0047aec4     libucrt:fpexcept.obj
 0002:00005ecc       ??_C@_04ODHECPBC@fabs?$AA@ 0047aecc     libucrt:fpexcept.obj
 0002:00005ed4       ??_C@_04EHEDPDJG@modf?$AA@ 0047aed4     libucrt:fpexcept.obj
 0002:00005edc       ??_C@_05CEJMAHNP@ldexp?$AA@ 0047aedc     libucrt:fpexcept.obj
 0002:00005ee4       ??_C@_05KBKMEMPO@_cabs?$AA@ 0047aee4     libucrt:fpexcept.obj
 0002:00005eec       ??_C@_06MEIMCGCF@_hypot?$AA@ 0047aeec     libucrt:fpexcept.obj
 0002:00005ef4       ??_C@_04KEPJIHGP@fmod?$AA@ 0047aef4     libucrt:fpexcept.obj
 0002:00005efc       ??_C@_05GKKHEGJL@frexp?$AA@ 0047aefc     libucrt:fpexcept.obj
 0002:00005f04       ??_C@_03MJLDFKDL@_y0?$AA@  0047af04     libucrt:fpexcept.obj
 0002:00005f08       ??_C@_03NAKIGLHK@_y1?$AA@  0047af08     libucrt:fpexcept.obj
 0002:00005f0c       ??_C@_03ONILCKOB@_yn?$AA@  0047af0c     libucrt:fpexcept.obj
 0002:00005f10       ??_C@_05JGDBENOH@_logb?$AA@ 0047af10     libucrt:fpexcept.obj
 0002:00005f18       ??_C@_0L@KDOEJCKC@_nextafter?$AA@ 0047af18     libucrt:fpexcept.obj
 0002:00006010       ??_C@_04COOMCNPB@sinh?$AA@ 0047b010     libucrt:fpexcept.obj
 0002:00006018       ??_C@_04HPJJNFIM@cosh?$AA@ 0047b018     libucrt:fpexcept.obj
 0002:00006020       __d_inf                    0047b020     libucrt:util.obj
 0002:00006028       __d_max                    0047b028     libucrt:util.obj
 0002:00006030       __d_mzero                  0047b030     libucrt:util.obj
 0002:00006448       ?num_usercommand_msgs@@3HA 0047b448     sprocket.obj
 0002:0000644c       ?num_system_msgs@@3HA      0047b44c     sprocket.obj
 0002:00006450       ?memory_stat_names@@3PAPBDA 0047b450     memory.obj
 0002:000064b8       ?num_client_msgs@@3HA      0047b4b8     sprocket.obj
 0002:000064bc       ??_C@_02JDPG@rb?$AA@       0047b4bc     rscload.obj
 0002:000064c0       ??_C@_09IBJHOPOJ@account?4c?$AA@ 0047b4c0     account.obj
 0002:000064cc       ??_C@_01LOCGONAA@?$AA?$AA@ 0047b4cc     account.obj
 0002:000064d0       ??_C@_04NOJCDH@?$CF02x?$AA@ 0047b4d0     account.obj
 0002:000064d8       ??_C@_0DK@BFDKGCJP@SuspendAccountAbsolute?3?5invalid?5@ 0047b4d8     account.obj
 0002:00006514       ??_C@_0DA@DJFJPGHK@SuspendAccountAbsolute?3?5cannot?5s@ 0047b514     account.obj
 0002:00006544       ??_C@_0CG@IDJDNHGJ@Suspension?5of?5account?5?$CFi?5?$CI?$CFs?$CJ?5li@ 0047b544     account.obj
 0002:0000656c       ??_C@_0CE@BLCJHCKP@Suspended?5account?5?$CFi?5?$CI?$CFs?$CJ?5until?5@ 0047b56c     account.obj
 0002:00006590       ??_C@_0DP@LCJNKKHN@SuspendAccountAbsolute?3?5tried?5to@ 0047b590     account.obj
 0002:000065d0       ??_C@_0DO@LCNNBEB@DeleteAccountAndAssociatedUsersB@ 0047b5d0     account.obj
 0002:00006610       ??_C@_0EM@MHCJMJGG@DeleteAccountAndAssociatedUsersB@ 0047b610     account.obj
 0002:0000665c       ??_C@_0DG@JCBGMEE@Attempting?5delete?5of?5account?5?$CFi?5@ 0047b65c     account.obj
 0002:00006698       ??_C@_0FD@NMJPGOJC@DeleteAccountAndAssociatedUsersB@ 0047b698     account.obj
 0002:000066ec       ??_C@_0CO@EIIAHGLD@Delete?5of?5account?5?$CFi?5failed?5?9?5un@ 0047b6ec     account.obj
 0002:0000671c       ??_C@_0CB@HNEFIHGN@Delete?5of?5account?5?$CFi?5successful?6@ 0047b71c     account.obj
 0002:00006740       ??_C@_0BE@EOIKPKMA@Administrator?5mode?6?$AA@ 0047b740     admin.obj
 0002:00006754       ??_C@_0DM@PALDNOLB@APSBPollSession?5released?5mutex?5i@ 0047b754     admin.obj
 0002:00006790       ??_C@_0CN@PFFFBGJC@APSB?5bailed?5waiting?5for?5mutex?5on@ 0047b790     admin.obj
 0002:000067c0       ??_C@_05IKDIHGAK@?$DO?5?$CFs?6?$AA@ 0047b7c0     admin.obj
 0002:000067c8       ??_C@_04GBOBDPBG@QUIT?$AA@ 0047b7c8     admin.obj
 0002:000067d0       ??_C@_04GJDJEMBE@?$CFc?$CFc?$AA@ 0047b7d0     admin.obj
 0002:000067d8       ??_C@_0M@KGBPIINM@admincons?4c?$AA@ 0047b7d8     admincons.obj
 0002:000067e4       ??_C@_02BMJICGCB@rt?$AA@   0047b7e4     admincons.obj
 0002:000067e8       ??_C@_0DA@LONGOFBP@LoadAdminConstants?5can?8t?5open?5?$CFs@ 0047b7e8     admincons.obj
 0002:00006818       ??_C@_04DFGAAIOO@?$DN?5?7?6?$AA@ 0047b818     admincons.obj
 0002:00006820       ??_C@_0DD@BDPMDDBP@LoadAdminConstants?5error?5reading@ 0047b820     admincons.obj
 0002:00006854       ??_C@_02IKAHHCAI@?$CFi?$AA@ 0047b854     admincons.obj
 0002:00006858       ??_C@_0DF@MNCCIOIJ@LoadAdminConstants?5error?5parsing@ 0047b858     admincons.obj
 0002:0000688d       ??_C@_00CNPNBAHC@?$AA@     0047b88d     adminfn.obj
 0002:00006890       ??_C@_06FHFOAHML@system?$AA@ 0047b890     adminfn.obj
 0002:00006898       ??_C@_02EGCJHIOB@id?$AA@   0047b898     adminfn.obj
 0002:0000689c       ??_C@_0BF@NIEFHCK@Show?5one?5timer?5by?5id?$AA@ 0047b89c     adminfn.obj
 0002:000068b4       ??_C@_07ONPBMBOP@message?$AA@ 0047b8b4     adminfn.obj
 0002:000068bc       ??_C@_0CC@BIOKKIHM@Show?5timers?5matching?5message?5nam@ 0047b8bc     adminfn.obj
 0002:000068e0       ??_C@_06IEOJBDIK@object?$AA@ 0047b8e0     adminfn.obj
 0002:000068e8       ??_C@_0BP@MLICPKOD@Show?5timers?5matching?5object?5ID?$AA@ 0047b8e8     adminfn.obj
 0002:00006908       ??_C@_07PMDLEBNF@account?$AA@ 0047b908     adminfn.obj
 0002:00006910       ??_C@_0CH@PMNLEHEM@Show?5one?5account?5by?5account?5id?5o@ 0047b910     adminfn.obj
 0002:00006938       ??_C@_08PCFHDHCP@accounts?$AA@ 0047b938     adminfn.obj
 0002:00006944       ??_C@_0BC@JECEGHOI@Show?5all?5accounts?$AA@ 0047b944     adminfn.obj
 0002:00006958       ??_C@_06MDLIGPKC@active?$AA@ 0047b958     adminfn.obj
 0002:00006960       ??_C@_0CI@OFCNFKFL@Show?5accounts?5active?5in?5the?5last@ 0047b960     adminfn.obj
 0002:00006988       ??_C@_06HBPBIFPH@belong?$AA@ 0047b988     adminfn.obj
 0002:00006990       ??_C@_0BN@LPPLONFF@Show?5objects?5belonging?5to?5id?$AA@ 0047b990     adminfn.obj
 0002:000069b0       ??_C@_08KOMEGBBJ@blockers?$AA@ 0047b9b0     adminfn.obj
 0002:000069bc       ??_C@_0DG@LLKLBCAO@Show?5all?5blockers?5in?5a?5room?5?$CITAG@ 0047b9bc     adminfn.obj
 0002:000069f4       ??_C@_06HJNKNPJJ@called?$AA@ 0047b9f4     adminfn.obj
 0002:000069fc       ??_C@_0BP@JAHNNOG@Show?5top?5?$CIint?$CJ?5called?5messages?$AA@ 0047b9fc     adminfn.obj
 0002:00006a1c       ??_C@_05FACACNJP@calls?$AA@ 0047ba1c     adminfn.obj
 0002:00006a24       ??_C@_0BN@BMJKECNK@Show?5top?5?$CIint?$CJ?5C?5call?5counts?$AA@ 0047ba24     adminfn.obj
 0002:00006a44       ??_C@_05ENKANFLO@class?$AA@ 0047ba44     adminfn.obj
 0002:00006a4c       ??_C@_0BG@LACPELNO@Show?5info?5about?5class?$AA@ 0047ba4c     adminfn.obj
 0002:00006a64       ??_C@_05DDECJJKE@clock?$AA@ 0047ba64     adminfn.obj
 0002:00006a6c       ??_C@_0BJ@EBDGHCMI@Show?5current?5server?5time?$AA@ 0047ba6c     adminfn.obj
 0002:00006a88       ??_C@_06HEJKKHEK@config?$AA@ 0047ba88     adminfn.obj
 0002:00006a90       ??_C@_0BK@JMNMBJG@Show?5configuration?5values?$AA@ 0047ba90     adminfn.obj
 0002:00006aac       ??_C@_08KFDOCAEB@constant?$AA@ 0047baac     adminfn.obj
 0002:00006ab8       ??_C@_0BN@GKDCLDNN@Show?5value?5of?5admin?5constant?$AA@ 0047bab8     adminfn.obj
 0002:00006ad8       ??_C@_07OBLKMMON@dynamic?$AA@ 0047bad8     adminfn.obj
 0002:00006ae0       ??_C@_0BL@HCDGEKMP@Show?5all?5dynamic?5resources?$AA@ 0047bae0     adminfn.obj
 0002:00006afc       ??_C@_05HKHCDHCL@email?$AA@ 0047bafc     adminfn.obj
 0002:00006b04       ??_C@_0CN@OJMBKLLJ@Show?5all?5accounts?5with?5a?5given?5e@ 0047bb04     adminfn.obj
 0002:00006b34       ??_C@_09BJOJOOIO@instances?$AA@ 0047bb34     adminfn.obj
 0002:00006b40       ??_C@_0BM@LOIHLBPM@Show?5all?5instances?5of?5class?$AA@ 0047bb40     adminfn.obj
 0002:00006b5c       ??_C@_04DONFEANM@list?$AA@ 0047bb5c     adminfn.obj
 0002:00006b64       ??_C@_0BH@MBLACMHC@Traverse?5?$CG?5show?5a?5list?$AA@ 0047bb64     adminfn.obj
 0002:00006b7c       ??_C@_08DDCFHFHH@listnode?$AA@ 0047bb7c     adminfn.obj
 0002:00006b88       ??_C@_0BJ@FOHBFFKB@Show?5one?5list?5node?5by?5id?$AA@ 0047bb88     adminfn.obj
 0002:00006ba4       ??_C@_07GEPGMPF@matches?$AA@ 0047bba4     adminfn.obj
 0002:00006bac       ??_C@_0DB@NFMMCOC@Show?5all?5instances?5of?5class?5whic@ 0047bbac     adminfn.obj
 0002:00006be0       ??_C@_06HLKELJGF@memory?$AA@ 0047bbe0     adminfn.obj
 0002:00006be8       ??_C@_0BH@KKPCNGNP@Show?5system?5memory?5use?$AA@ 0047bbe8     adminfn.obj
 0002:00006c00       ??_C@_0CA@CMDOICOA@Show?5info?5about?5class?5?$CG?5message?$AA@ 0047bc00     adminfn.obj
 0002:00006c20       ??_C@_04MEMAJGDJ@name?$AA@ 0047bc20     adminfn.obj
 0002:00006c28       ??_C@_0BJ@GFOALFFO@Show?5object?5of?5user?5name?$AA@ 0047bc28     adminfn.obj
 0002:00006c44       ??_C@_07JKCHMALH@nameids?$AA@ 0047bc44     adminfn.obj
 0002:00006c4c       ??_C@_0CC@FCLOLLK@Show?5all?5name?5ids?5?$CImessage?1parms@ 0047bc4c     adminfn.obj
 0002:00006c70       ??_C@_0BG@NKNFFPIO@Show?5one?5object?5by?5id?$AA@ 0047bc70     adminfn.obj
 0002:00006c88       ??_C@_08GFNEJDPJ@packages?$AA@ 0047bc88     adminfn.obj
 0002:00006c94       ??_C@_0BJ@KMMLDOPE@Show?5all?5packages?5loaded?$AA@ 0047bc94     adminfn.obj
 0002:00006cb0       ??_C@_08FCFPNNHF@protocol?$AA@ 0047bcb0     adminfn.obj
 0002:00006cbc       ??_C@_0BN@LCGAOJNC@Show?5protocol?5message?5counts?$AA@ 0047bcbc     adminfn.obj
 0002:00006cdc       ??_C@_0L@NENLNBDA@references?$AA@ 0047bcdc     adminfn.obj
 0002:00006ce8       ??_C@_0DN@IAGIPEPO@Show?5what?5objects?5or?5lists?5refer@ 0047bce8     adminfn.obj
 0002:00006d28       ??_C@_08NJJFDENH@resource?$AA@ 0047bd28     adminfn.obj
 0002:00006d34       ??_C@_0CB@PMJGLHIO@Show?5a?5resource?5by?5resource?5name@ 0047bd34     adminfn.obj
 0002:00006d58       ??_C@_09HCDAJAGP@roomtable?$AA@ 0047bd58     adminfn.obj
 0002:00006d64       ??_C@_0BF@EMFPNFDK@Show?5the?5rooms?5table?$AA@ 0047bd64     adminfn.obj
 0002:00006d7c       ??_C@_06DJIHEMFI@status?$AA@ 0047bd7c     adminfn.obj
 0002:00006d84       ??_C@_0BD@LJIMCFKB@Show?5system?5status?$AA@ 0047bd84     adminfn.obj
 0002:00006d98       ??_C@_06ICGJLFIM@string?$AA@ 0047bd98     adminfn.obj
 0002:00006da0       ??_C@_0BN@PDICPBGK@Show?5one?5string?5by?5string?5id?$AA@ 0047bda0     adminfn.obj
 0002:00006dc0       ??_C@_09PAHKPJCJ@suspended?$AA@ 0047bdc0     adminfn.obj
 0002:00006dcc       ??_C@_0BM@BFIIMJEJ@Show?5all?5suspended?5accounts?$AA@ 0047bdcc     adminfn.obj
 0002:00006de8       ??_C@_09HGDFMCID@systimers?$AA@ 0047bde8     adminfn.obj
 0002:00006df4       ??_C@_0BD@OLHJMBBE@Show?5system?5timers?$AA@ 0047bdf4     adminfn.obj
 0002:00006e08       ??_C@_09PDFCFBBP@hashtable?$AA@ 0047be08     adminfn.obj
 0002:00006e14       ??_C@_0BC@HCFJKAHN@Show?5a?5hash?5table?$AA@ 0047be14     adminfn.obj
 0002:00006e28       ??_C@_05LCLENNFI@table?$AA@ 0047be28     adminfn.obj
 0002:00006e30       ??_C@_05NAPFDJNG@timer?$AA@ 0047be30     adminfn.obj
 0002:00006e38       ??_C@_0BB@KMMHKNAO@Timer?5subcommand?$AA@ 0047be38     adminfn.obj
 0002:00006e4c       ??_C@_06GLHCKION@timers?$AA@ 0047be4c     adminfn.obj
 0002:00006e54       ??_C@_0BA@GKNMOOCP@Show?5all?5timers?$AA@ 0047be54     adminfn.obj
 0002:00006e64       ??_C@_0M@OPGLGODJ@transmitted?$AA@ 0047be64     adminfn.obj
 0002:00006e70       ??_C@_0CL@DHHNJFEB@Show?5?$CD?5of?5bytes?5transmitted?5in?5l@ 0047be70     adminfn.obj
 0002:00006e9c       ??_C@_05HNCIIKBA@usage?$AA@ 0047be9c     adminfn.obj
 0002:00006ea4       ??_C@_0BD@HJMJGGOK@Show?5current?5usage?$AA@ 0047bea4     adminfn.obj
 0002:00006eb8       ??_C@_04CCHAHKJA@user?$AA@ 0047beb8     adminfn.obj
 0002:00006ec0       ??_C@_0CD@IHBMNGHM@Show?5one?5user?5by?5name?5or?5object?5@ 0047bec0     adminfn.obj
 0002:00006ee4       ??_C@_05PEDPMJAL@users?$AA@ 0047bee4     adminfn.obj
 0002:00006eec       ??_C@_0P@IBAIANEK@Show?5all?5users?$AA@ 0047beec     adminfn.obj
 0002:00006efc       ??_C@_07JKABFLJI@credits?$AA@ 0047befc     adminfn.obj
 0002:00006f08       ??_C@_0ED@CIGKBJGC@Set?5an?5account?8s?5number?5of?5credi@ 0047bf08     adminfn.obj
 0002:00006f4c       ??_C@_0DA@HJAIOFJJ@Set?5account?5name?5by?5account?5numb@ 0047bf4c     adminfn.obj
 0002:00006f80       ??_C@_0EG@OKOPJCMK@Set?5an?5object?5to?5be?5the?5game?5obj@ 0047bf80     adminfn.obj
 0002:00006fc8       ??_C@_08NLHBPEGP@password?$AA@ 0047bfc8     adminfn.obj
 0002:00006fd4       ??_C@_0CM@IMDCMNMB@Set?5password?5by?5account?5number?5a@ 0047bfd4     adminfn.obj
 0002:00007000       ??_C@_0CG@PCBCFEFC@Set?5email?5by?5account?5number?5and?5@ 0047c000     adminfn.obj
 0002:00007028       ??_C@_0DD@CFIPNCEN@Suspends?5account?5by?5name?5or?5id?5f@ 0047c028     adminfn.obj
 0002:0000705c       ??_C@_0DC@DEDMPHFH@Suspends?5account?5by?5user?5name?5fo@ 0047c05c     adminfn.obj
 0002:00007090       ??_C@_0CM@BCLHPBNJ@Unsuspends?5account?5by?5user?5name?5@ 0047c090     adminfn.obj
 0002:000070bc       ??_C@_0CN@LIHCNJOL@Unsuspends?5account?5by?5name?5or?5id@ 0047c0bc     adminfn.obj
 0002:000070ec       ??_C@_09EANBMCK@timerheap?$AA@ 0047c0ec     adminfn.obj
 0002:000070f8       ??_C@_0CG@JJPLBEOI@Checks?5the?5validity?5of?5the?5timer@ 0047c0f8     adminfn.obj
 0002:00007120       ??_C@_07GOBOHMJA@boolean?$AA@ 0047c120     adminfn.obj
 0002:00007128       ??_C@_0EK@MGEAIF@Set?5a?5modifiable?5boolean?5configu@ 0047c128     adminfn.obj
 0002:00007174       ??_C@_07LKHFMGFB@integer?$AA@ 0047c174     adminfn.obj
 0002:00007180       ??_C@_0FF@FLGCDKHM@Set?5a?5modifiable?5integer?5configu@ 0047c180     adminfn.obj
 0002:000071d8       ??_C@_0FD@EKCPMCAM@Set?5a?5modifiable?5string?5configur@ 0047c1d8     adminfn.obj
 0002:0000722c       ??_C@_0BD@GEAOFEO@Account?5subcommand?$AA@ 0047c22c     adminfn.obj
 0002:00007240       ??_C@_0DG@KDHFLAKD@Set?5classvar?5by?5name?5of?5class?0?5n@ 0047c240     adminfn.obj
 0002:00007278       ??_C@_0BC@HOJAFLAO@Config?5subcommand?$AA@ 0047c278     adminfn.obj
 0002:0000728c       ??_C@_0CB@IHBPLBAE@Set?5object?5by?5id?5single?5property@ 0047c28c     adminfn.obj
 0002:000072b0       ??_C@_0EH@PHKKKCLH@Create?5account?5by?5type?5?$CIuser?1adm@ 0047c2b0     adminfn.obj
 0002:000072f8       ??_C@_05JEBDMKHG@admin?$AA@ 0047c2f8     adminfn.obj
 0002:00007300       ??_C@_0CC@EPPGPLDL@Create?5admin?5object?5by?5account?5i@ 0047c300     adminfn.obj
 0002:00007324       ??_C@_09HGGIAPOB@automated?$AA@ 0047c324     adminfn.obj
 0002:00007330       ??_C@_0DE@GFPJKMLE@Create?5account?5and?5user?5by?5name?0@ 0047c330     adminfn.obj
 0002:00007364       ??_C@_02JPDDFAPL@dm?$AA@   0047c364     adminfn.obj
 0002:00007368       ??_C@_0BP@GONHGIHA@Create?5DM?5object?5by?5account?5id?$AA@ 0047c368     adminfn.obj
 0002:00007388       ??_C@_02HCBHEC@ec?$AA@     0047c388     adminfn.obj
 0002:0000738c       ??_C@_0CM@LOLKOAPB@Create?5escaped?5convict?5object?5by@ 0047c38c     adminfn.obj
 0002:000073b8       ??_C@_0BB@FIBNNHLJ@Create?5list?5node?$AA@ 0047c3b8     adminfn.obj
 0002:000073cc       ??_C@_0CG@IIBDNMHB@Create?5object?5by?5class?5name?5and?5@ 0047c3cc     adminfn.obj
 0002:000073f4       ??_C@_0BH@JKKGLPEP@Create?5resource?5string?$AA@ 0047c3f4     adminfn.obj
 0002:0000740c       ??_C@_0BN@LABKACJG@Create?5table?5of?5a?5given?5size?$AA@ 0047c40c     adminfn.obj
 0002:0000742c       ??_C@_0CI@MEKGHPBO@Create?5timer?5for?5obj?5id?0?5message@ 0047c42c     adminfn.obj
 0002:00007454       ??_C@_0CB@IAMOGPOI@Create?5user?5object?5by?5account?5id@ 0047c454     adminfn.obj
 0002:00007478       ??_C@_0BC@NLOACJBL@useroneachaccount?$AA@ 0047c478     adminfn.obj
 0002:0000748c       ??_C@_0CE@EHIJGDFK@Add?5one?5user?5object?5to?5each?5acco@ 0047c48c     adminfn.obj
 0002:000074b0       ??_C@_0BM@IHHNBPMO@Delete?5account?5?$CG?5user?5by?5ID?$AA@ 0047c4b0     adminfn.obj
 0002:000074cc       ??_C@_06OJAIHGIC@unused?$AA@ 0047c4cc     adminfn.obj
 0002:000074d4       ??_C@_0BH@PKIJIIFE@Delete?5unused?5accounts?$AA@ 0047c4d4     adminfn.obj
 0002:000074ec       ??_C@_0BD@PFABENKO@Delete?5timer?5by?5ID?$AA@ 0047c4ec     adminfn.obj
 0002:00007500       ??_C@_0BJ@BIGNLPJK@Delete?5user?5by?5object?5ID?$AA@ 0047c500     adminfn.obj
 0002:0000751c       ??_C@_0BM@ONFCMAPE@Send?5object?5by?5ID?5a?5message?$AA@ 0047c51c     adminfn.obj
 0002:00007538       ??_C@_0CI@NMBAGNBJ@Send?5a?5message?5to?5each?5object?5in@ 0047c538     adminfn.obj
 0002:00007560       ??_C@_0BH@CJOPJJKI@Send?5integer?5a?5message?$AA@ 0047c560     adminfn.obj
 0002:00007578       ??_C@_0CH@DCACGIN@Send?5logged?5in?5people?5a?5system?5m@ 0047c578     adminfn.obj
 0002:000075a0       ??_C@_0CE@EPELOOHC@Send?5all?5objects?5of?5class?5a?5mess@ 0047c5a0     adminfn.obj
 0002:000075c4       ??_C@_03MCADLMAF@off?$AA@  0047c5c4     adminfn.obj
 0002:000075c8       ??_C@_0CL@LPNAPGKH@Stop?5tracing?5message?5by?5class?5?$CG?5@ 0047c5c8     adminfn.obj
 0002:000075f4       ??_C@_02LIELOMNJ@on?$AA@   0047c5f4     adminfn.obj
 0002:000075f8       ??_C@_0CI@OLIBCNDA@Trace?5message?5by?5class?5?$CG?5message@ 0047c5f8     adminfn.obj
 0002:00007620       ??_C@_0CK@LCBNINNI@Add?5credits?5by?5account?5number?5an@ 0047c620     adminfn.obj
 0002:0000764c       ??_C@_0CB@BGJIBCPA@Kick?5one?5account?5out?5of?5the?5game@ 0047c64c     adminfn.obj
 0002:00007670       ??_C@_03NFKEKGGK@all?$AA@  0047c670     adminfn.obj
 0002:00007674       ??_C@_0BP@OFCIEKMB@Kick?5all?5users?5out?5of?5the?5game?$AA@ 0047c674     adminfn.obj
 0002:00007694       ??_C@_0BD@HIMJJNOC@Hangup?5one?5account?$AA@ 0047c694     adminfn.obj
 0002:000076a8       ??_C@_0BB@CPLGIHDE@Hangup?5all?5users?$AA@ 0047c6a8     adminfn.obj
 0002:000076bc       ??_C@_02GIIHKPLE@ip?$AA@   0047c6bc     adminfn.obj
 0002:000076c0       ??_C@_0CC@EJCIDLMK@Block?5an?5IP?5address?5?$CItemporarily@ 0047c6c0     adminfn.obj
 0002:000076e4       ??_C@_07KMJDECGK@session?$AA@ 0047c6e4     adminfn.obj
 0002:000076ec       ??_C@_0BD@CIGBJOFN@Hangup?5one?5session?$AA@ 0047c6ec     adminfn.obj
 0002:00007700       ??_C@_0BA@PIIAKIG@Hangup?5one?5user?$AA@ 0047c700     adminfn.obj
 0002:00007710       ??_C@_04MJNAPEEI@game?$AA@ 0047c710     adminfn.obj
 0002:00007718       ??_C@_0CM@NMFAIAMO@Reload?5game?5from?5any?5save?5time?5?$CI@ 0047c718     adminfn.obj
 0002:00007744       ??_C@_04GJFDDCGE@motd?$AA@ 0047c744     adminfn.obj
 0002:0000774c       ??_C@_0CE@HOEINBPI@Reload?5message?5of?5the?5day?5from?5f@ 0047c74c     adminfn.obj
 0002:00007770       ??_C@_0CF@FDJFFHDI@Rescan?5upload?5directory?5for?5pack@ 0047c770     adminfn.obj
 0002:00007798       ??_C@_0CD@KGLGCFHK@Save?5game?5and?5reload?5all?5kod?0?5mo@ 0047c798     adminfn.obj
 0002:000077bc       ??_C@_0DN@CKFIHBJE@Create?5specific?5account?5and?5user@ 0047c7bc     adminfn.obj
 0002:000077fc       ??_C@_07CKFCPMAK@highest?$AA@ 0047c7fc     adminfn.obj
 0002:00007804       ??_C@_0BM@GIIHMLOG@Reset?5highest?5timed?5message?$AA@ 0047c804     adminfn.obj
 0002:00007820       ??_C@_08CAIPDDMG@systimer?$AA@ 0047c820     adminfn.obj
 0002:0000782c       ??_C@_0BH@BFMMDNLC@Disable?5a?5system?5timer?$AA@ 0047c82c     adminfn.obj
 0002:00007844       ??_C@_0BG@EEJLKLMJ@Enable?5a?5system?5timer?$AA@ 0047c844     adminfn.obj
 0002:0000785c       ??_C@_06DFKGCLMP@nosave?$AA@ 0047c85c     adminfn.obj
 0002:00007864       ??_C@_0CE@KNKGKMIH@Shut?5down?5the?5server?5without?5sav@ 0047c864     adminfn.obj
 0002:00007888       ??_C@_04EMMDIJJL@save?$AA@ 0047c888     adminfn.obj
 0002:00007890       ??_C@_0CD@EBOCDCCE@Save?5game?5and?5shut?5down?5the?5serv@ 0047c890     adminfn.obj
 0002:000078b4       ??_C@_0O@DFOPLFKA@configuration?$AA@ 0047c8b4     adminfn.obj
 0002:000078c4       ??_C@_0BC@BPKCABCA@Save?5blakserv?4cfg?$AA@ 0047c8c4     adminfn.obj
 0002:000078d8       ??_C@_0CH@DJBJLCEM@Save?5game?5?$CIwill?5garbage?5collect?5@ 0047c8d8     adminfn.obj
 0002:00007900       ??_C@_03BDGOHNNK@add?$AA@  0047c900     adminfn.obj
 0002:00007904       ??_C@_0P@CLADAIEA@Add?5subcommand?$AA@ 0047c904     adminfn.obj
 0002:00007914       ??_C@_05KJHPNPAA@check?$AA@ 0047c914     adminfn.obj
 0002:0000791c       ??_C@_0BB@DBLFPCKK@Check?5subcommand?$AA@ 0047c91c     adminfn.obj
 0002:00007930       ??_C@_06HBNONAG@create?$AA@ 0047c930     adminfn.obj
 0002:00007938       ??_C@_0BC@LLBLMLK@Create?5subcommand?$AA@ 0047c938     adminfn.obj
 0002:0000794c       ??_C@_06FOBLBEIN@delete?$AA@ 0047c94c     adminfn.obj
 0002:00007954       ??_C@_0BC@IKFLDIFF@Delete?5subcommand?$AA@ 0047c954     adminfn.obj
 0002:00007968       ??_C@_07DBNODEFN@disable?$AA@ 0047c968     adminfn.obj
 0002:00007970       ??_C@_0BD@EKAAOJAK@Disable?5subcommand?$AA@ 0047c970     adminfn.obj
 0002:00007984       ??_C@_06OFNJOBDK@enable?$AA@ 0047c984     adminfn.obj
 0002:0000798c       ??_C@_0BC@BHCDPFLH@Enable?5subcommand?$AA@ 0047c98c     adminfn.obj
 0002:000079a0       ??_C@_07BOKCJEKD@garbage?$AA@ 0047c9a0     adminfn.obj
 0002:000079a8       ??_C@_0BA@CMNLNCBL@Garbage?5collect?$AA@ 0047c9a8     adminfn.obj
 0002:000079b8       ??_C@_06OEJECLCH@hangup?$AA@ 0047c9b8     adminfn.obj
 0002:000079c0       ??_C@_0BC@POKLAGNN@Hangup?5subcommand?$AA@ 0047c9c0     adminfn.obj
 0002:000079d4       ??_C@_04MKMCLCOO@lock?$AA@ 0047c9d4     adminfn.obj
 0002:000079dc       ??_C@_0O@IPIBPANC@Lock?5the?5game?$AA@ 0047c9dc     adminfn.obj
 0002:000079ec       ??_C@_07HFEIDCAD@kickoff?$AA@ 0047c9ec     adminfn.obj
 0002:000079f4       ??_C@_0BD@HJIOJIMM@Kickoff?5subcommand?$AA@ 0047c9f4     adminfn.obj
 0002:00007a08       ??_C@_04FFKLPPHM@mail?$AA@ 0047ca08     adminfn.obj
 0002:00007a10       ??_C@_0BI@CKHNKJLL@Read?5administrator?5mail?$AA@ 0047ca10     adminfn.obj
 0002:00007a28       ??_C@_04KJJCFCK@mark?$AA@  0047ca28     adminfn.obj
 0002:00007a30       ??_C@_0CJ@MFODCBIA@Mark?5all?5channel?5logs?5with?5a?5das@ 0047ca30     adminfn.obj
 0002:00007a5c       ??_C@_04BGIHDKAM@page?$AA@ 0047ca5c     adminfn.obj
 0002:00007a64       ??_C@_0BB@GEGBKLGG@Page?5the?5console?$AA@ 0047ca64     adminfn.obj
 0002:00007a78       ??_C@_04POLDLDMI@read?$AA@ 0047ca78     adminfn.obj
 0002:00007a80       ??_C@_0DD@FGDPHHEJ@Read?5admin?5commands?5from?5a?5file?0@ 0047ca80     adminfn.obj
 0002:00007ab4       ??_C@_08DKCGGDFK@recreate?$AA@ 0047cab4     adminfn.obj
 0002:00007ac0       ??_C@_0BE@HEMPDKHD@Recreate?5subcommand?$AA@ 0047cac0     adminfn.obj
 0002:00007ad4       ??_C@_06DGFOANMH@reload?$AA@ 0047cad4     adminfn.obj
 0002:00007adc       ??_C@_0BC@PCAMCOFK@Reload?5subcommand?$AA@ 0047cadc     adminfn.obj
 0002:00007af0       ??_C@_05CFMALAOA@reset?$AA@ 0047caf0     adminfn.obj
 0002:00007af8       ??_C@_0BB@KFCFJBCJ@Reset?5subcommand?$AA@ 0047caf8     adminfn.obj
 0002:00007b0c       ??_C@_0BA@CDHFCDLO@Save?5subcommand?$AA@ 0047cb0c     adminfn.obj
 0002:00007b1c       ??_C@_03BANJEMDJ@say?$AA@  0047cb1c     adminfn.obj
 0002:00007b20       ??_C@_0CB@HDEHAHOI@Say?5text?5to?5all?5admins?5logged?5in@ 0047cb20     adminfn.obj
 0002:00007b44       ??_C@_04MIIPNNEF@send?$AA@ 0047cb44     adminfn.obj
 0002:00007b4c       ??_C@_0BA@CBHELNAC@Send?5subcommand?$AA@ 0047cb4c     adminfn.obj
 0002:00007b5c       ??_C@_03KCHOJKKI@set?$AA@  0047cb5c     adminfn.obj
 0002:00007b60       ??_C@_0P@OOOPGBDC@Set?5subcommand?$AA@ 0047cb60     adminfn.obj
 0002:00007b70       ??_C@_04FKMICODN@show?$AA@ 0047cb70     adminfn.obj
 0002:00007b78       ??_C@_0BA@EJLIOEGM@Show?5subcommand?$AA@ 0047cb78     adminfn.obj
 0002:00007b88       ??_C@_07DNBGJJHB@suspend?$AA@ 0047cb88     adminfn.obj
 0002:00007b90       ??_C@_0BD@MOJAMBGE@Suspend?5subcommand?$AA@ 0047cb90     adminfn.obj
 0002:00007ba4       ??_C@_09DACGJFPO@terminate?$AA@ 0047cba4     adminfn.obj
 0002:00007bb0       ??_C@_0BF@DEMNGGHM@Terminate?5subcommand?$AA@ 0047cbb0     adminfn.obj
 0002:00007bc8       ??_C@_05IMBNNINJ@trace?$AA@ 0047cbc8     adminfn.obj
 0002:00007bd0       ??_C@_0BB@GEHIPKPN@Trace?5subcommand?$AA@ 0047cbd0     adminfn.obj
 0002:00007be4       ??_C@_06BNCCALCL@unlock?$AA@ 0047cbe4     adminfn.obj
 0002:00007bec       ??_C@_0BA@GCKIPCHM@Unlock?5the?5game?$AA@ 0047cbec     adminfn.obj
 0002:00007bfc       ??_C@_09DPHPDKIE@unsuspend?$AA@ 0047cbfc     adminfn.obj
 0002:00007c08       ??_C@_0BF@HHMCNING@Unsuspend?5subcommand?$AA@ 0047cc08     adminfn.obj
 0002:00007c20       ??_C@_03IMPCFFDG@who?$AA@  0047cc20     adminfn.obj
 0002:00007c24       ??_C@_0BN@JKKPHBMH@Show?5every?5account?5logged?5on?$AA@ 0047cc24     adminfn.obj
 0002:00007c48       ??_C@_0EA@ELAFHHMI@SendAdminBuffer?5sent?5only?5first?5@ 0047cc48     adminfn.obj
 0002:00007c88       ??_C@_0CE@NJBMPBL@SendAdminBuffer?5got?5invalid?5buff@ 0047cc88     adminfn.obj
 0002:00007cb0       ??_C@_0EE@ELMLPHAE@SendAdminBuffer?5called?0?5SESSION?5@ 0047ccb0     adminfn.obj
 0002:00007cf4       ??_C@_0CJ@BKKENPKO@TryAdminCommand?5got?5invalid?5SESS@ 0047ccf4     adminfn.obj
 0002:00007d20       ??_C@_0CM@JGOODJDC@TryAdminCommand?5entered?5with?5bli@ 0047cd20     adminfn.obj
 0002:00007d4c       ??_C@_0BI@ONOLCDEA@Session?3?5M?5Command?3?5?$CFs?6?$AA@ 0047cd4c     adminfn.obj
 0002:00007d64       ??_C@_0BJ@LHACPGNB@Session?3?5?$CFi?5Command?3?5?$CFs?6?$AA@ 0047cd64     adminfn.obj
 0002:00007d80       ??_C@_03ILLHFMNI@?5?7?6?$AA@ 0047cd80     adminfn.obj
 0002:00007d84       ??_C@_0CE@HOFIFAGG@AdminTable?5got?5invalid?5SESSION?5?$CF@ 0047cd84     adminfn.obj
 0002:00007da8       ??_C@_04DOKPJKJF@HELP?$AA@ 0047cda8     adminfn.obj
 0002:00007db0       ??_C@_01OGPIMHDM@?$DP?$AA@ 0047cdb0     adminfn.obj
 0002:00007db4       ??_C@_0CP@BCFGIOHK@Help?5is?5unavailable?5through?5main@ 0047cdb4     adminfn.obj
 0002:00007de4       ??_C@_0CA@EMPHAPNC@Ambiguous?5command?$DL?5try?5?8help?8?4?6?$AA@ 0047cde4     adminfn.obj
 0002:00007e04       ??_C@_0BO@LMNMMFNP@Unknown?5command?$DL?5try?5?8help?8?4?6?$AA@ 0047ce04     adminfn.obj
 0002:00007e24       ??_C@_0CJ@BADIEBKL@You?5do?5not?5have?5access?5to?5this?5c@ 0047ce24     adminfn.obj
 0002:00007e50       ??_C@_0BI@GBPCOGJK@Missing?5parameter?5?$CFlu?4?6?$AA@ 0047ce50     adminfn.obj
 0002:00007e68       ??_C@_02DPKJAMEF@?$CFd?$AA@ 0047ce68     adminfn.obj
 0002:00007e6c       ??_C@_0CK@IAPNIADJ@Parameter?5?$CFd?5should?5be?5an?5int?0?5n@ 0047ce6c     adminfn.obj
 0002:00007e98       ??_C@_0BJ@OOJOCIOL@Missing?5text?5parameter?4?6?$AA@ 0047ce98     adminfn.obj
 0002:00007eb4       ??_C@_0CH@OIFMLMPI@Too?5many?5parameters?0?5command?5ign@ 0047ceb4     adminfn.obj
 0002:00007edc       ??_C@_0CA@PGFOCJPG@?8?$CFs?8?5is?5not?5a?5valid?5parameter?4?6?$AA@ 0047cedc     adminfn.obj
 0002:00007efc       ??_C@_0CL@MKKILLIP@Blakod?5parameter?5?$CFlu?5needs?5tag?5a@ 0047cefc     adminfn.obj
 0002:00007f28       ??_C@_0CH@OKLKBFDL@Blakod?5parameter?5?$CFlu?5has?5invalid@ 0047cf28     adminfn.obj
 0002:00007f50       ??_C@_0CC@ENCDLMIO@Blakod?5parameter?5?$CFlu?5needs?5value@ 0047cf50     adminfn.obj
 0002:00007f74       ??_C@_0CD@MPOGILCN@Blakod?5parameter?5?$CFlu?5needs?5value@ 0047cf74     adminfn.obj
 0002:00007f98       ??_C@_04DFAHIJNB@SELF?$AA@ 0047cf98     adminfn.obj
 0002:00007fa0       ??_C@_0CI@PHKDGMHA@Blakod?5parameter?5?$CFlu?5has?5invalid@ 0047cfa0     adminfn.obj
 0002:00007fc8       ??_C@_0CP@OMAAKECP@Blakod?5parameter?5?$CFlu?5references?5@ 0047cfc8     adminfn.obj
 0002:00007ff8       ??_C@_06EBHEHDOF@?$CF?912s?5?$AA@ 0047cff8     adminfn.obj
 0002:00008000       ??_C@_01CLKCMJKC@?5?$AA@   0047d000     adminfn.obj
 0002:00008004       ??_C@_01CPLAODJH@S?$AA@    0047d004     adminfn.obj
 0002:00008008       ??_C@_01JPJNBJEM@I?$AA@    0047d008     adminfn.obj
 0002:0000800c       ??_C@_01DGKLNCNG@R?$AA@    0047d00c     adminfn.obj
 0002:00008010       ??_C@_02ICEIDNFJ@?5P?$AA@  0047d010     adminfn.obj
 0002:00008014       ??_C@_02KNHHEEKP@?5?5?$AA@ 0047d014     adminfn.obj
 0002:00008018       ??_C@_04MDKIEGGJ@?5?$CFs?6?$AA@ 0047d018     adminfn.obj
 0002:00008020       ??_C@_0EL@DAIPJALP@Terminating?5server?4?5All?5connecti@ 0047d020     adminfn.obj
 0002:0000806c       ??_C@_0BL@GIGAIHDG@AdminTerminateSave?5saving?6?$AA@ 0047d06c     adminfn.obj
 0002:00008088       ??_C@_0CH@KHHHPHEK@Garbage?5collecting?5and?5saving?5ga@ 0047d088     adminfn.obj
 0002:000080b0       ??_C@_06GAOLIIF@done?4?6?$AA@ 0047d0b0     adminfn.obj
 0002:000080b8       ??_C@_0EI@EKKHFHCM@Terminating?5server?4?5All?5connecti@ 0047d0b8     adminfn.obj
 0002:00008100       ??_C@_0CB@PPECHKIF@AdminGarbage?5garbage?5collecting?6@ 0047d100     adminfn.obj
 0002:00008124       ??_C@_0BH@LGHJJODE@Garbage?5collecting?4?4?4?5?$AA@ 0047d124     adminfn.obj
 0002:0000813c       ??_C@_0BC@BPACL@AdminSave?5saving?6?$AA@ 0047d13c     adminfn.obj
 0002:00008150       ??_C@_0BL@KHGNJHGO@done?4?5?5Save?5time?5is?5?$CI?$CFi?$CJ?4?6?$AA@ 0047d150     adminfn.obj
 0002:0000816c       ??_C@_02BKFDOEMK@wt?$AA@   0047d16c     adminfn.obj
 0002:00008170       ??_C@_0N@MNAMLMPF@blakserv?4cfg?$AA@ 0047d170     adminfn.obj
 0002:00008180       ??_C@_0DG@JAHIDEME@AdminSaveConfiguration?5can?8t?5ope@ 0047d180     adminfn.obj
 0002:000081b8       ??_C@_05DFHAGHEP@?$CD?5?$CFs?6?$AA@ 0047d1b8     adminfn.obj
 0002:000081c0       ??_C@_0DE@BDGJAPCI@?$CD?5Configuration?5file?5automatical@ 0047d1c0     adminfn.obj
 0002:000081f4       ??_C@_0CP@ECGJHEL@?$CD?5?9?9?9?9?9?9?9?9?9?9?9?9?9?9?9?9?9?9?9?9?9?9?9?9?9?9?9?9?9?9@ 0047d1f4     adminfn.obj
 0002:00008224       ??_C@_0BG@KDHCCNLN@Configuration?5saved?4?6?$AA@ 0047d224     adminfn.obj
 0002:0000823c       ??_C@_01EEMJAFIK@?6?$AA@   0047d23c     adminfn.obj
 0002:00008240       ??_C@_06KMNNMBLO@?$CF?920s?5?$AA@ 0047d240     adminfn.obj
 0002:00008248       ??_C@_05JJDEBGJM@?$DM?$CFs?$DO?6?$AA@ 0047d248     adminfn.obj
 0002:00008250       ??_C@_03OFAPEBGM@?$CFs?6?$AA@ 0047d250     adminfn.obj
 0002:00008254       ??_C@_03PELOGHMK@?$CFi?6?$AA@ 0047d254     adminfn.obj
 0002:00008258       ??_C@_03CCLAEDDF@Yes?$AA@  0047d258     adminfn.obj
 0002:0000825c       ??_C@_04KMHOJMOK@Yes?6?$AA@ 0047d25c     adminfn.obj
 0002:00008264       ??_C@_03BMBEGLHK@No?6?$AA@ 0047d264     adminfn.obj
 0002:00008268       ??_C@_0BE@JMGEFMIC@xxx?5?$CD?5Unknown?5type?6?$AA@ 0047d268     adminfn.obj
 0002:0000827c       ??_C@_0DP@KAINFKMO@Name?5?5?5?5?5?5?5?5?5?5?5?5?5?5?5?5Act?5Ver?5Sess@ 0047d27c     adminfn.obj
 0002:000082c0       ??_C@_0EO@MENHMHMI@?9?9?9?9?9?9?9?9?9?9?9?9?9?9?9?9?9?9?9?9?9?9?9?9?9?9?9?9?9?9?9?9@ 0047d2c0     adminfn.obj
 0002:00008310       ??_C@_09EDBPFFKK@?$CF?918?418s?5?$AA@ 0047d310     adminfn.obj
 0002:0000831c       ??_C@_04JNDHBDGN@?$CF4i?5?$AA@ 0047d31c     adminfn.obj
 0002:00008324       ??_C@_04PFOHOKJK@?5?5?5?5?$AA@ 0047d324     adminfn.obj
 0002:0000832c       ??_C@_03NOAKOCEN@?$CF4i?$AA@ 0047d32c     adminfn.obj
 0002:00008330       ??_C@_02JINPPBEP@No?$AA@   0047d330     adminfn.obj
 0002:00008334       ??_C@_05DANHPNAB@?5?$CF?93s?$AA@ 0047d334     adminfn.obj
 0002:0000833c       ??_C@_09EBPNJHLD@?$CF?922?422s?5?$AA@ 0047d33c     adminfn.obj
 0002:00008348       ??_C@_02DKCKIIND@?$CFs?$AA@ 0047d348     adminfn.obj
 0002:0000834c       ??_C@_03NLJIHOMM@?5?9?5?$AA@ 0047d34c     adminfn.obj
 0002:00008350       ??_C@_0BH@FAPPNPEH@Invalid?5resource?5id?5?$CFi?$AA@ 0047d350     adminfn.obj
 0002:00008368       ??_C@_0BD@NGFBBLAM@Non?9resource?5?$CFi?0?$CFi?$AA@ 0047d368     adminfn.obj
 0002:0000837c       ??_C@_05CMIMAPOH@?5?$CI?$CFi?$CJ?$AA@ 0047d37c     adminfn.obj
 0002:00008384       ??_C@_0BE@LMNPDLME@Locking?5game?5?$DM?$CFs?$DO?4?6?$AA@ 0047d384     adminfn.obj
 0002:00008398       ??_C@_0BO@JFOOCADA@AdminLock?5locking?5game?5?$CI?$CFs?$CJ?4?6?$AA@ 0047d398     adminfn.obj
 0002:000083b8       ??_C@_0BE@GBOPMPLC@Game?5isn?8t?5locked?4?6?$AA@ 0047d3b8     adminfn.obj
 0002:000083cc       ??_C@_0BB@KLANEHFJ@Unlocking?5game?4?6?$AA@ 0047d3cc     adminfn.obj
 0002:000083e0       ??_C@_0BN@KGAOCGBD@AdminUnlock?5unlocking?5game?4?6?$AA@ 0047d3e0     adminfn.obj
 0002:00008400       ??_C@_0M@KFKANCMJ@admnote?4txt?$AA@ 0047d400     adminfn.obj
 0002:0000840c       ??_C@_04HDOCAJNK@?$CFs?$CFs?$AA@ 0047d40c     adminfn.obj
 0002:00008414       ??_C@_0BK@KHOPDNLO@Couldn?8t?5open?5mail?5file?4?6?$AA@ 0047d414     adminfn.obj
 0002:00008430       ??_C@_0CL@MFBLJHLD@AdminPage?5admin?5SESSION?5?$CFi?5has?5n@ 0047d430     adminfn.obj
 0002:0000845c       ??_C@_0CA@PFFPPBMI@AdminPage?5?$CFs?5paged?5the?5console?6?$AA@ 0047d45c     adminfn.obj
 0002:0000847c       ??_C@_0CN@BJPMFMFH@System?5Status?5?9?9?9?9?9?9?9?9?9?9?9?9?9?9?9?9?9?9@ 0047d47c     adminfn.obj
 0002:000084ac       ??_C@_09DACMNOPG@?$CFs?5on?5?$CFs?6?$AA@ 0047d4ac     adminfn.obj
 0002:000084b8       ??_C@_0BE@FCEAHNGI@Current?5time?5is?5?$CFs?6?$AA@ 0047d4b8     adminfn.obj
 0002:000084cc       ??_C@_0CP@OGFIKEKL@System?5started?5at?5?$CFs?6?$CIup?5for?5?$CFs?5@ 0047d4cc     adminfn.obj
 0002:000084fc       ??_C@_05FEHMOJNL@?9?9?9?9?6?$AA@ 0047d4fc     adminfn.obj
 0002:00008508       ??_C@_0EA@IFENMJO@Interpreted?5?$CFi?4?$CF09i?5billion?5tota@ 0047d508     adminfn.obj
 0002:00008548       ??_C@_0DC@FFDEBKMA@Handled?5?$CFi?5top?5level?5messages?0?5t@ 0047d548     adminfn.obj
 0002:0000857c       ??_C@_0DH@CJGBBLON@Deepest?5message?5call?5stack?5is?5?$CFi@ 0047d57c     adminfn.obj
 0002:000085b4       ??_C@_0DP@HCDHLLFN@Most?5instructions?5on?5one?5top?5lev@ 0047d5b4     adminfn.obj
 0002:000085f4       ??_C@_0DL@HJCELALP@Number?5of?5top?5level?5messages?5ove@ 0047d5f4     adminfn.obj
 0002:00008630       ??_C@_0DK@OAFLIDGM@Longest?5time?5on?5one?5top?5level?5me@ 0047d630     adminfn.obj
 0002:0000866c       ??_C@_09GPGAJHPD@?$CIunknown?$CJ?$AA@ 0047d66c     adminfn.obj
 0002:00008678       ??_C@_0EG@GONKDDHO@Most?5recent?5slow?5top?5level?5messa@ 0047d678     adminfn.obj
 0002:000086c0       ??_C@_0EB@GFBONEDF@Most?5recent?5slow?5top?5level?5messa@ 0047d6c0     adminfn.obj
 0002:00008704       ??_C@_0BF@NCCLCLMI@Active?5accounts?3?5?$CFi?6?$AA@ 0047d704     adminfn.obj
 0002:0000871c       ??_C@_0BL@EDDOPIHO@Next?5account?5number?5is?5?$CFi?6?$AA@ 0047d71c     adminfn.obj
 0002:00008738       ??_C@_0CM@GMCJPCOI@Clients?5on?5port?5?$CFi?0?5maintenance?5@ 0047d738     adminfn.obj
 0002:00008764       ??_C@_0CN@GEHDBLMO@There?5are?5?$CFi?5sessions?5?$CI?$CFi?5guests@ 0047d764     adminfn.obj
 0002:00008794       ??_C@_0BE@EKONKEGL@Used?5?$CFi?5list?5nodes?6?$AA@ 0047d794     adminfn.obj
 0002:000087a8       ??_C@_0BA@IMCNMAGB@Used?5?$CFi?5tables?6?$AA@ 0047d7a8     adminfn.obj
 0002:000087b8       ??_C@_0BG@JGDLIDAP@Used?5?$CFi?5object?5nodes?6?$AA@ 0047d7b8     adminfn.obj
 0002:000087d0       ??_C@_0BG@KOCDKLII@Used?5?$CFi?5string?5nodes?6?$AA@ 0047d7d0     adminfn.obj
 0002:000087e8       ??_C@_0BL@JJHDJKMM@Watching?5?$CFi?5active?5timers?6?$AA@ 0047d7e8     adminfn.obj
 0002:00008804       ??_C@_0CC@HAMLNOGG@?$CFi?5message?5hash?5table?5collisions@ 0047d804     adminfn.obj
 0002:00008828       ??_C@_0BJ@PDLAIBGC@The?5game?5is?5LOCKED?5?$CI?$CFs?$CJ?6?$AA@ 0047d828     adminfn.obj
 0002:00008844       ??_C@_0CN@CHHFKCDG@?9?9?9?9?9?9?9?9?9?9?9?9?9?9?9?9?9?9?9?9?9?9?9?9?9?9?9?9?9?9?9?9@ 0047d844     adminfn.obj
 0002:00008874       ??_C@_0CN@NKCADLJD@System?5Memory?5?9?9?9?9?9?9?9?9?9?9?9?9?9?9?9?9?9?9@ 0047d874     adminfn.obj
 0002:000088a4       ??_C@_0M@PJPAAHNI@?$CF?920s?5?$CF8lu?6?$AA@ 0047d8a4     adminfn.obj
 0002:000088b0       ??_C@_08CPPLNILE@?9?9?5Total?$AA@ 0047d8b0     adminfn.obj
 0002:000088bc       ??_C@_0P@ENDHBDIE@?$CF?920s?5?$CF4lu?5MB?6?$AA@ 0047d8bc     adminfn.obj
 0002:000088cc       ??_C@_0N@IALGDAID@Avg?5Time?$CIus?$CJ?$AA@ 0047d8cc     adminfn.obj
 0002:000088dc       ??_C@_05IJGIMMHE@Count?$AA@ 0047d8dc     adminfn.obj
 0002:000088e4       ??_C@_07BEIHKDLJ@Message?$AA@ 0047d8e4     adminfn.obj
 0002:000088ec       ??_C@_05EKAMNAII@Class?$AA@ 0047d8ec     adminfn.obj
 0002:000088f4       ??_C@_04DMNEFAGJ@Rank?$AA@ 0047d8f4     adminfn.obj
 0002:000088fc       ??_C@_0BK@POHAJCDB@?$CF4s?5?$CF?920s?5?$CF?930s?5?$CF?911s?5?$CFs?6?$AA@ 0047d8fc     adminfn.obj
 0002:00008918       ??_C@_07NBCGADJA@Unknown?$AA@ 0047d918     adminfn.obj
 0002:00008920       ??_C@_0BN@HOMMIIIP@?$CF3i?4?5?$CF?920s?5?$CF?930s?5?$CF?911i?5?$CF?43f?6?$AA@ 0047d920     adminfn.obj
 0002:00008940       ??_C@_0BD@FKPLKBFP@Invalid?5roomdata?4?6?$AA@ 0047d940     adminfn.obj
 0002:00008954       ??_C@_0CF@OANJKDGE@Obj?5ID?5?$CFi?5at?5row?5?$CFi?0?5?$CFi?0?5col?5?$CFi?0@ 0047d954     adminfn.obj
 0002:0000897c       ??_C@_0DA@PNELJEEI@Invalid?5object?5id?5?$CFi?5?$CIor?5it?5has?5@ 0047d97c     adminfn.obj
 0002:000089ac       ??_C@_0CC@PLNLEEFJ@?$CFd?5owns?5the?5following?5objects?5?9?5@ 0047d9ac     adminfn.obj
 0002:000089d0       ??_C@_07HGGDJLOD@poOwner?$AA@ 0047d9d0     adminfn.obj
 0002:000089d8       ??_C@_0BO@CGFMFAEP@OBJECT?5?$CFi?5has?5invalid?5class?$CB?6?$AA@ 0047d9d8     adminfn.obj
 0002:000089f8       ??_C@_0BK@BFIKPFDL@?3?$DM?5OBJECT?5?$CFi?5is?5CLASS?5?$CFs?6?$AA@ 0047d9f8     adminfn.obj
 0002:00008a14       ??_C@_04PJDNGLKJ@self?$AA@ 0047da14     adminfn.obj
 0002:00008a1c       ??_C@_08BMOIAOEP@?3?5?$CD?$CF?919i?$AA@ 0047da1c     adminfn.obj
 0002:00008a28       ??_C@_07FFAGNGAA@?3?5?$CF?920s?$AA@ 0047da28     adminfn.obj
 0002:00008a30       ??_C@_0M@OAGLMAFG@?$CFs?5?$DN?5?$CFs?5?$CFs?6?$AA@ 0047da30     adminfn.obj
 0002:00008a3c       ??_C@_03JFDHBIDG@?3?$DO?6?$AA@ 0047da3c     adminfn.obj
 0002:00008a40       ??_C@_0DD@BBLBHPEN@Invalid?5list?5node?5id?5?$CFi?5?$CIor?5it?5h@ 0047da40     adminfn.obj
 0002:00008a74       ??_C@_0BC@EEIKJCKA@?3?$DM?5first?5?$DN?5?$CFs?5?$CFs?6?$AA@ 0047da74     adminfn.obj
 0002:00008a88       ??_C@_0BB@CENFDCHD@?3?5?5rest?5?$DN?5?$CFs?5?$CFs?6?$AA@ 0047da88     adminfn.obj
 0002:00008a9c       ??_C@_03JGLDMMFI@?3?$DM?6?$AA@ 0047da9c     adminfn.obj
 0002:00008aa0       ??_C@_04OIHICOCA@?3?5?$FL?6?$AA@ 0047daa0     adminfn.obj
 0002:00008aa8       ??_C@_08LBNJOEJE@?3?5?$CFs?5?$CFs?6?$AA@ 0047daa8     adminfn.obj
 0002:00008ab4       ??_C@_04LKECIEJL@?3?5?4?6?$AA@ 0047dab4     adminfn.obj
 0002:00008abc       ??_C@_0P@CMLMPNIN@?3?5?$FN?5length?5?$CFi?6?$AA@ 0047dabc     adminfn.obj
 0002:00008acc       ??_C@_0BE@LDGPIJEI@Invalid?5list?5node?$CB?6?$AA@ 0047dacc     adminfn.obj
 0002:00008ae0       ??_C@_04FABLJDN@Name?$AA@  0047dae0     adminfn.obj
 0002:00008ae8       ??_C@_06ELFECKBG@Object?$AA@ 0047dae8     adminfn.obj
 0002:00008af0       ??_C@_04HEBPOIHN@Acct?$AA@ 0047daf0     adminfn.obj
 0002:00008af8       ??_C@_0BA@CPCBHNBK@?$CF?95s?$CF?98s?$CF?98s?$CFs?6?$AA@ 0047daf8     adminfn.obj
 0002:00008b08       ??_C@_0O@LAOGGEHK@?$CF4i?5?$CF7i?5?$CF?97s?5?$AA@ 0047db08     adminfn.obj
 0002:00008b18       ??_C@_0BI@ODOPCCMA@Invalid?5resource?5id?5?$CFi?4?$AA@ 0047db18     adminfn.obj
 0002:00008b30       ??_C@_0BE@CGHBEBM@Non?9resource?5?$CFi?0?$CFi?4?$AA@ 0047db30     adminfn.obj
 0002:00008b44       ??_C@_0BG@BODCPKHB@Cannot?5find?5user?5?$CFs?4?6?$AA@ 0047db44     adminfn.obj
 0002:00008b5c       ??_C@_0CL@NDBMMCB@?3?$DM?5sessions?5?$CFi?5?$DN?5guests?5?$CFi?5?$CL?5non@ 0047db5c     adminfn.obj
 0002:00008b88       ??_C@_0CJ@IEOKMDLG@?$CFi?5accounts?5active?5in?5the?5last?5?$CF@ 0047db88     adminfn.obj
 0002:00008bb4       ??_C@_0BJ@JCMEOLPM@Missing?5account?5string?4?6?$AA@ 0047dbb4     adminfn.obj
 0002:00008bd0       ??_C@_0BJ@HAEMAKNO@Cannot?5find?5account?5?$CFs?4?6?$AA@ 0047dbd0     adminfn.obj
 0002:00008bec       ??_C@_0L@CGFLKFBC@Last?5login?$AA@ 0047dbec     adminfn.obj
 0002:00008bf8       ??_C@_07GDHHDJMO@Credits?$AA@ 0047dbf8     adminfn.obj
 0002:00008c00       ??_C@_09LPCHPKPJ@Suspended?$AA@ 0047dc00     adminfn.obj
 0002:00008c0c       ??_C@_05HNNODCBN@Email?$AA@ 0047dc0c     adminfn.obj
 0002:00008c14       ??_C@_0BO@HPDNCFFN@?$CF?96s?$CF?923s?$CF?923s?$CF?910s?$CF?98s?$CF?930s?6?$AA@ 0047dc14     adminfn.obj
 0002:00008c34       ??_C@_04BDBPOEGA@?5ADG?$AA@ 0047dc34     adminfn.obj
 0002:00008c3c       ??_C@_06DBHBFJDD@?$CF7?41fh?$AA@ 0047dc3c     adminfn.obj
 0002:00008c44       ??_C@_0CE@OJPLJIFM@?$CF4i?$CFc?5?$CF?923s?$CF?923s?$CF8s?5?$CF4i?4?$CF02i?5?$CF?93@ 0047dc44     adminfn.obj
 0002:00008c68       ??_C@_0CA@MJFBFPHG@There?5is?5no?5resource?5named?5?$CFs?4?6?$AA@ 0047dc68     adminfn.obj
 0002:00008c88       ??_C@_0CC@ODHLCCEI@There?5is?5no?5resource?5with?5id?5?$CFs?4@ 0047dc88     adminfn.obj
 0002:00008cac       ??_C@_0N@LONICFGM@Name?5?$DN?5Value?$AA@ 0047dcac     adminfn.obj
 0002:00008cbc       ??_C@_02OLOABKKD@ID?$AA@   0047dcbc     adminfn.obj
 0002:00008cc0       ??_C@_08KJOEPBAC@?$CF?97s?5?$CFs?6?$AA@ 0047dcc0     adminfn.obj
 0002:00008ccc       ??_C@_0CE@NFJPNKPK@AdminPrintResource?5got?5passed?5NU@ 0047dccc     adminfn.obj
 0002:00008cf0       ??_C@_09MDBFIEBO@?$CIdynamic?$CJ?$AA@ 0047dcf0     adminfn.obj
 0002:00008cfc       ??_C@_0O@PADBPNBL@?$CF?97i?5?$CFs?5?$DN?5?$CFs?6?$AA@ 0047dcfc     adminfn.obj
 0002:00008d0c       ??_C@_0DC@BPMEDHIF@Timer?5heap?5check?5completed?5in?5?$CF?4@ 0047dd0c     adminfn.obj
 0002:00008d40       ??_C@_0BG@HDPLKIDG@Timer?5heap?5is?5valid?4?6?$AA@ 0047dd40     adminfn.obj
 0002:00008d58       ??_C@_0BK@EJJPAJGH@Timer?5heap?5is?5NOT?5valid?4?6?$AA@ 0047dd58     adminfn.obj
 0002:00008d74       ??_C@_0N@FKIFAAGB@Remaining?5ms?$AA@ 0047dd74     adminfn.obj
 0002:00008d84       ??_C@_05NHFJDMOA@Timer?$AA@ 0047dd84     adminfn.obj
 0002:00008d8c       ??_C@_0BE@JFANJACL@?$CF?97s?$CF?914s?$CF?98s?$CF?920s?6?$AA@ 0047dd8c     adminfn.obj
 0002:00008da0       ??_C@_0BC@CAJPFLAF@?$CFi?5timers?5found?4?6?$AA@ 0047dda0     adminfn.obj
 0002:00008db4       ??_C@_0BH@ILAEBCOP@Cannot?5find?5timer?5?$CFi?4?6?$AA@ 0047ddb4     adminfn.obj
 0002:00008dcc       ??_C@_0CJ@BHDHMJBB@Invalid?5message?5name?0?5message?5no@ 0047ddcc     adminfn.obj
 0002:00008df8       ??_C@_0BO@BCOIOGPB@Timer?5has?5invalid?5object?5?$CFi?$DP?6?$AA@ 0047ddf8     adminfn.obj
 0002:00008e18       ??_C@_0BF@FBNHFPEN@?$CF5i?5?5?$CF?914u?$CF?98i?$CF?920s?6?$AA@ 0047de18     adminfn.obj
 0002:00008e30       ??_C@_0CF@EOBELBCI@Current?5server?5clock?5reads?5?$CFi?5?$CI?$CF@ 0047de30     adminfn.obj
 0002:00008e58       ??_C@_0BI@LFELJPJD@Cannot?5find?5string?5?$CFi?4?6?$AA@ 0047de58     adminfn.obj
 0002:00008e70       ??_C@_0L@LOMLOAGA@String?5?$CFi?6?$AA@ 0047de70     adminfn.obj
 0002:00008e7c       ??_C@_0CO@FFLHNKEF@?6?9?9?9?9?9?9?9?9?9?9?9?9?9?9?9?9?9?9?9?9?9?9?9?9?9?9?9?9?9?9?9@ 0047de7c     adminfn.obj
 0002:00008eac       ??_C@_09PIDFCGEN@Next?5time?$AA@ 0047deac     adminfn.obj
 0002:00008eb8       ??_C@_06JJPMFGIO@On?5the?$AA@ 0047deb8     adminfn.obj
 0002:00008ec0       ??_C@_06JOFJHOEH@Period?$AA@ 0047dec0     adminfn.obj
 0002:00008ec8       ??_C@_0BC@DKKHGABB@System?5Timer?5type?$AA@ 0047dec8     adminfn.obj
 0002:00008edc       ??_C@_01IPJKGB@?$CD?$AA@   0047dedc     adminfn.obj
 0002:00008ee0       ??_C@_0BM@HMBLEJLO@?$CFs?5?$CF?918s?5?$CF?915s?5?$CF?915s?5?$CF?922s?6?$AA@ 0047dee0     adminfn.obj
 0002:00008efc       ??_C@_09EBFODNOM@Save?5game?$AA@ 0047defc     adminfn.obj
 0002:00008f08       ??_C@_0BA@MCPCPFIF@New?5Blakod?5hour?$AA@ 0047df08     adminfn.obj
 0002:00008f18       ??_C@_0BB@LKBLMCC@Update?5interface?$AA@ 0047df18     adminfn.obj
 0002:00008f2c       ??_C@_0P@BGBNDHIH@Reset?5TX?5count?$AA@ 0047df2c     adminfn.obj
 0002:00008f3c       ??_C@_0BC@FGHACBL@Reset?5buffer?5pool?$AA@ 0047df3c     adminfn.obj
 0002:00008f50       ??_C@_0BA@LDGNLKOO@?$CFi?5?$CF?918s?5?$CF?915s?5?$AA@ 0047df50     adminfn.obj
 0002:00008f60       ??_C@_06NMKDELFM@?$CF?915s?5?$AA@ 0047df60     adminfn.obj
 0002:00008f68       ??_C@_05FJNCAKIN@?$CF?922s?$AA@ 0047df68     adminfn.obj
 0002:00008f70       ??_C@_08JGILNPHN@Disabled?$AA@ 0047df70     adminfn.obj
 0002:00008f7c       ??_C@_08PHKOHANG@Function?$AA@ 0047df7c     adminfn.obj
 0002:00008f88       ??_C@_0BE@PHMDJDIE@?$CF4s?5?$CF?923s?5?$CF?912s?5?$CFs?6?$AA@ 0047df88     adminfn.obj
 0002:00008f9c       ??_C@_0N@DLJIDING@CreateObject?$AA@ 0047df9c     adminfn.obj
 0002:00008fac       ??_C@_08CHBIFBKM@GetClass?$AA@ 0047dfac     adminfn.obj
 0002:00008fb8       ??_C@_04JEOPCEB@Send?$AA@  0047dfb8     adminfn.obj
 0002:00008fc0       ??_C@_04HPGPEKIH@Post?$AA@ 0047dfc0     adminfn.obj
 0002:00008fc8       ??_C@_08EEAHCFPD@SendList?$AA@ 0047dfc8     adminfn.obj
 0002:00008fd4       ??_C@_0O@LEEOFIH@SendListBreak?$AA@ 0047dfd4     adminfn.obj
 0002:00008fe4       ??_C@_0BA@LCNIHJAH@SendListByClass?$AA@ 0047dfe4     adminfn.obj
 0002:00008ff4       ??_C@_0BF@PDBIJHDG@SendListByClassBreak?$AA@ 0047dff4     adminfn.obj
 0002:0000900c       ??_C@_06MONKJBIM@GodLog?$AA@ 0047e00c     adminfn.obj
 0002:00009014       ??_C@_05GCIPIGEI@Debug?$AA@ 0047e014     adminfn.obj
 0002:0000901c       ??_C@_08KICFJOJB@SaveGame?$AA@ 0047e01c     adminfn.obj
 0002:00009028       ??_C@_08KHPDHAOG@LoadGame?$AA@ 0047e028     adminfn.obj
 0002:00009034       ??_C@_09OPKEHIBA@AddPacket?$AA@ 0047e034     adminfn.obj
 0002:00009040       ??_C@_0L@FFGNDDJL@SendPacket?$AA@ 0047e040     adminfn.obj
 0002:0000904c       ??_C@_0P@JLIKIGBN@SendCopyPacket?$AA@ 0047e04c     adminfn.obj
 0002:0000905c       ??_C@_0M@NMDNGJLP@ClearPacket?$AA@ 0047e05c     adminfn.obj
 0002:00009068       ??_C@_0BA@HEBKOLGP@GetInactiveTime?$AA@ 0047e068     adminfn.obj
 0002:00009078       ??_C@_0M@EPKDLFBH@StringEqual?$AA@ 0047e078     adminfn.obj
 0002:00009084       ??_C@_0O@MAAFOGND@StringContain?$AA@ 0047e084     adminfn.obj
 0002:00009094       ??_C@_0M@FDHMPDNB@SetResource?$AA@ 0047e094     adminfn.obj
 0002:000090a0       ??_C@_0M@KFNFICJP@ParseString?$AA@ 0047e0a0     adminfn.obj
 0002:000090ac       ??_C@_09FPPPFNNC@SetString?$AA@ 0047e0ac     adminfn.obj
 0002:000090b8       ??_C@_0N@DNBIJONA@CreateString?$AA@ 0047e0b8     adminfn.obj
 0002:000090c8       ??_C@_08GGFPGEOP@IsString?$AA@ 0047e0c8     adminfn.obj
 0002:000090d4       ??_C@_0BB@INCPDHCB@StringSubstitute?$AA@ 0047e0d4     adminfn.obj
 0002:000090e8       ??_C@_0BB@DDGHJDPN@AppendTempString?$AA@ 0047e0e8     adminfn.obj
 0002:000090fc       ??_C@_0BA@NBMBNNDB@ClearTempString?$AA@ 0047e0fc     adminfn.obj
 0002:0000910c       ??_C@_0O@OPDCDCKP@GetTempString?$AA@ 0047e10c     adminfn.obj
 0002:0000911c       ??_C@_0N@DAJMJAE@StringLength?$AA@ 0047e11c     adminfn.obj
 0002:0000912c       ??_C@_0BB@HHFNMLEC@StringConsistsOf?$AA@ 0047e12c     adminfn.obj
 0002:00009140       ??_C@_0M@HBLPHDOF@CreateTimer?$AA@ 0047e140     adminfn.obj
 0002:0000914c       ??_C@_0M@CDBDDBOE@DeleteTimer?$AA@ 0047e14c     adminfn.obj
 0002:00009158       ??_C@_0BB@EOFLGPNH@GetTimeRemaining?$AA@ 0047e158     adminfn.obj
 0002:0000916c       ??_C@_07OIOLFBFK@IsTimer?$AA@ 0047e16c     adminfn.obj
 0002:00009174       ??_C@_0O@IGAIOJHM@MoveSectorBSP?$AA@ 0047e174     adminfn.obj
 0002:00009184       ??_C@_0BB@NNJAMIAD@ChangeTextureBSP?$AA@ 0047e184     adminfn.obj
 0002:00009198       ??_C@_0P@LMLJDCHB@CreateRoomData?$AA@ 0047e198     adminfn.obj
 0002:000091a8       ??_C@_08GJPCBIJD@FreeRoom?$AA@ 0047e1a8     adminfn.obj
 0002:000091b4       ??_C@_08IEPKOELL@RoomData?$AA@ 0047e1b4     adminfn.obj
 0002:000091c0       ??_C@_0BB@NEDDAKIO@CanMoveInRoomBSP?$AA@ 0047e1c0     adminfn.obj
 0002:000091d4       ??_C@_0BA@IPGAIOFB@LineOfSightView?$AA@ 0047e1d4     adminfn.obj
 0002:000091e4       ??_C@_0P@JPMHCIHL@LineOfSightBSP?$AA@ 0047e1e4     adminfn.obj
 0002:000091f4       ??_C@_0BD@PPCPLDMO@GetLocationInfoBSP?$AA@ 0047e1f4     adminfn.obj
 0002:00009208       ??_C@_0BC@POKFNGII@GetRandomPointBSP?$AA@ 0047e208     adminfn.obj
 0002:0000921c       ??_C@_0BC@MHFOOADO@GetStepTowardsBSP?$AA@ 0047e21c     adminfn.obj
 0002:00009230       ??_C@_0O@KAFLMHAH@BlockerAddBSP?$AA@ 0047e230     adminfn.obj
 0002:00009240       ??_C@_0P@KGMLAMKC@BlockerMoveBSP?$AA@ 0047e240     adminfn.obj
 0002:00009250       ??_C@_0BB@MMHGEMHH@BlockerRemoveBSP?$AA@ 0047e250     adminfn.obj
 0002:00009264       ??_C@_0BA@ECONHKIN@BlockerClearBSP?$AA@ 0047e264     adminfn.obj
 0002:00009274       ??_C@_0P@NAPHNNJM@StringToNumber?$AA@ 0047e274     adminfn.obj
 0002:00009284       ??_C@_0P@KEHFNMCB@AppendListElem?$AA@ 0047e284     adminfn.obj
 0002:00009294       ??_C@_04DJAABDB@Cons?$AA@  0047e294     adminfn.obj
 0002:0000929c       ??_C@_05NPMMKAPN@First?$AA@ 0047e29c     adminfn.obj
 0002:000092a4       ??_C@_04GKBCPJID@Rest?$AA@ 0047e2a4     adminfn.obj
 0002:000092ac       ??_C@_06MHCOIGNA@Length?$AA@ 0047e2ac     adminfn.obj
 0002:000092b4       ??_C@_04DKKAEHDH@Last?$AA@ 0047e2b4     adminfn.obj
 0002:000092bc       ??_C@_0M@BEOCNGML@IsListMatch?$AA@ 0047e2bc     adminfn.obj
 0002:000092c8       ??_C@_04PPBEGPNI@List?$AA@ 0047e2c8     adminfn.obj
 0002:000092d0       ??_C@_06PIHPAIHO@IsList?$AA@ 0047e2d0     adminfn.obj
 0002:000092d8       ??_C@_08EDPEDCKE@SetFirst?$AA@ 0047e2d8     adminfn.obj
 0002:000092e4       ??_C@_06KBNCAFGA@SetNth?$AA@ 0047e2e4     adminfn.obj
 0002:000092ec       ??_C@_0N@LGJHALJI@SwapListElem?$AA@ 0047e2ec     adminfn.obj
 0002:000092fc       ??_C@_0P@PIFNMCGA@InsertListElem?$AA@ 0047e2fc     adminfn.obj
 0002:0000930c       ??_C@_0M@JIIKCGNK@DelListElem?$AA@ 0047e30c     adminfn.obj
 0002:00009318       ??_C@_0BA@PHKFLPNN@DelLastListElem?$AA@ 0047e318     adminfn.obj
 0002:00009328       ??_C@_0N@EHCLPFOH@FindListElem?$AA@ 0047e328     adminfn.obj
 0002:00009338       ??_C@_0BD@BJIKFFKO@GetListElemByClass?$AA@ 0047e338     adminfn.obj
 0002:0000934c       ??_C@_0M@HHBDELPG@GetListNode?$AA@ 0047e34c     adminfn.obj
 0002:00009358       ??_C@_0BH@DABHKFPJ@GetAllListNodesByClass?$AA@ 0047e358     adminfn.obj
 0002:00009370       ??_C@_08HFNNEKJA@ListCopy?$AA@ 0047e370     adminfn.obj
 0002:0000937c       ??_C@_0BC@CABFKBGP@GetTimeZoneOffset?$AA@ 0047e37c     adminfn.obj
 0002:00009390       ??_C@_07CDIANBOE@GetTime?$AA@ 0047e390     adminfn.obj
 0002:00009398       ??_C@_0N@JOMACIEF@GetTickCount?$AA@ 0047e398     adminfn.obj
 0002:000093a8       ??_C@_05IPGANIA@Bound?$AA@ 0047e3a8     adminfn.obj
 0002:000093b0       ??_C@_04IJMLHKMM@Sqrt?$AA@ 0047e3b0     adminfn.obj
 0002:000093b8       ??_C@_0M@BDPOJHGL@CreateTable?$AA@ 0047e3b8     adminfn.obj
 0002:000093c4       ??_C@_0O@PJLDNCMF@AddTableEntry?$AA@ 0047e3c4     adminfn.obj
 0002:000093d4       ??_C@_0O@NAPPKNAK@GetTableEntry?$AA@ 0047e3d4     adminfn.obj
 0002:000093e4       ??_C@_0BB@HABALJGE@DeleteTableEntry?$AA@ 0047e3e4     adminfn.obj
 0002:000093f8       ??_C@_0M@EBFCNFGK@DeleteTable?$AA@ 0047e3f8     adminfn.obj
 0002:00009404       ??_C@_07IKKKLFNE@IsTable?$AA@ 0047e404     adminfn.obj
 0002:0000940c       ??_C@_08GANPMCOJ@IsObject?$AA@ 0047e40c     adminfn.obj
 0002:00009418       ??_C@_0M@IDBOEPNC@RecycleUser?$AA@ 0047e418     adminfn.obj
 0002:00009424       ??_C@_06BEOPDEGP@Random?$AA@ 0047e424     adminfn.obj
 0002:0000942c       ??_C@_0L@JOHLPJMP@RecordStat?$AA@ 0047e42c     adminfn.obj
 0002:00009438       ??_C@_0N@FPGHGEKH@GetSessionIP?$AA@ 0047e438     adminfn.obj
 0002:00009448       ??_C@_0M@NFMKGMPO@SetClassVar?$AA@ 0047e448     adminfn.obj
 0002:00009454       ??_C@_0N@FOBBHEJ@Unknown?5?$CI?$CFi?$CJ?$AA@ 0047e454     adminfn.obj
 0002:00009464       ??_C@_0BI@FIGPPMII@?$CF3i?4?5?$CF?923s?5?$CF?912i?5?$CF4?43f?6?$AA@ 0047e464     adminfn.obj
 0002:0000947c       ??_C@_0BH@CPNDHPBE@Cannot?5find?5class?5?$CFs?4?6?$AA@ 0047e47c     adminfn.obj
 0002:00009494       ??_C@_0CF@NGMPIBNM@Cannot?5find?5message?5?$CFs?5in?5CLASS?5@ 0047e494     adminfn.obj
 0002:000094c0       ??_C@_0EA@MFEDBMEG@?9?9?9?9?9?9?9?9?9?9?9?9?9?9?9?9?9?9?9?9?9?9?9?9?9?9?9?9?9?9?9?9@ 0047e4c0     adminfn.obj
 0002:00009500       ??_C@_0P@IKPCNMEH@CLASS?5?$CFi?5?3?5?$CFs?6?$AA@ 0047e500     adminfn.obj
 0002:00009510       ??_C@_0BA@FFNCAIKH@MESSAGE?5?$CFi?5?3?5?$CFs?$AA@ 0047e510     adminfn.obj
 0002:00009520       ??_C@_0BH@CELIAIHD@?5?$CIhandled?5by?5CLASS?5?$CFs?$CJ?$AA@ 0047e520     adminfn.obj
 0002:00009538       ??_C@_0BK@PFLJDOIP@Called?5count?5?$CItotal?$CJ?3?5?$CFi?6?$AA@ 0047e538     adminfn.obj
 0002:00009554       ??_C@_0BN@FKBBFMLE@Average?5running?5time?3?5?$CF8?43f?6?$AA@ 0047e554     adminfn.obj
 0002:00009574       ??_C@_0BM@GHKLKHBB@Called?5count?5?$CIuntimed?$CJ?3?5?$CFi?6?$AA@ 0047e574     adminfn.obj
 0002:00009590       ??_C@_0P@BDCJLPNI@?5?5Parameters?3?6?$AA@ 0047e590     adminfn.obj
 0002:000095a0       ??_C@_0P@IHKJFCNC@?5?5?$CF?920s?5?$CFs?5?$CFs?6?$AA@ 0047e5a0     adminfn.obj
 0002:000095b0       ??_C@_09DOOILONG@?5?5?$CInone?$CJ?6?$AA@ 0047e5b0     adminfn.obj
 0002:000095bc       ??_C@_0BA@MHCKFJPK@No?5description?6?$AA@ 0047e5bc     adminfn.obj
 0002:000095cc       ??_C@_0BF@CHJCJNKO@?3?$DM?5CLASS?5?$CFs?5?$CI?$CFi?$CJ?5?$CFs?6?$AA@ 0047e5cc     adminfn.obj
 0002:000095e4       ??_C@_0BL@CBJAKMDJ@?3?$DM?5CLASS?5?$CFs?5?$CI?$CFi?$CJ?5?$CFs?5is?5?$CFs?6?$AA@ 0047e5e4     adminfn.obj
 0002:00009600       ??_C@_0N@NGEKFENH@?3?5VAR?5?$CD?$CF?919i?$AA@ 0047e600     adminfn.obj
 0002:00009610       ??_C@_0M@ENJOMEPB@?3?5VAR?5?$CF?920s?$AA@ 0047e610     adminfn.obj
 0002:0000961c       ??_C@_09KJNIFHJC@?3?5MSG?5?$CFs?6?$AA@ 0047e61c     adminfn.obj
 0002:00009628       ??_C@_0BH@FCCICKHK@Cannot?5find?5CLASS?5?$CFs?4?6?$AA@ 0047e628     adminfn.obj
 0002:00009640       ??_C@_0CA@OMHJBEHC@?3?$DM?5instances?5of?5CLASS?5?$CFs?5?$CI?$CFi?$CJ?6?3?$AA@ 0047e640     adminfn.obj
 0002:00009660       ??_C@_0L@ENILNIIB@?5OBJECT?5?$CFi?$AA@ 0047e660     adminfn.obj
 0002:0000966c       ??_C@_0M@MMCLJJGF@?6?3?5?$CFi?5total?$AA@ 0047e66c     adminfn.obj
 0002:00009678       ??_C@_04DIOBCIJG@?6?3?$DO?6?$AA@ 0047e678     adminfn.obj
 0002:00009680       ??_C@_0DJ@GFHKJPGO@Property?5?$CFs?5doesn?8t?5exist?5?$CIat?5le@ 0047e680     adminfn.obj
 0002:000096c0       ??_C@_0EC@OGKCAJNP@Relationship?5not?5recognized?4?5?5Us@ 0047e6c0     adminfn.obj
 0002:00009704       ??_C@_0BE@MOIMCEKF@?8?$CFs?8?5is?5not?5a?5tag?4?6?$AA@ 0047e704     adminfn.obj
 0002:00009718       ??_C@_0BJ@DMEDJOHF@?8?$CFs?8?5is?5not?5valid?5data?4?6?$AA@ 0047e718     adminfn.obj
 0002:00009734       ??_C@_0DE@KIJKDOBN@?3?$DM?5matching?5instances?5of?5CLASS?5?$CF@ 0047e734     adminfn.obj
 0002:00009768       ??_C@_0CG@CMNEBEAG@?3?5OBJECT?5?$CFi?5CLASS?5?$CFs?5?$CI?$CFi?$CJ?5?$CFs?5?$DN?5?$CF@ 0047e768     adminfn.obj
 0002:00009790       ??_C@_0M@IJAFLAAP@?3?5?$CFi?5total?6?$AA@ 0047e790     adminfn.obj
 0002:0000979c       ??_C@_0BJ@MPFLEGML@?3?5Objects?5list?3?5LIST?5?$CFi?6?$AA@ 0047e79c     adminfn.obj
 0002:000097b8       ??_C@_0CA@IJONGGCO@Time?5to?5run?3?5?$CF?43f?5microseconds?6?$AA@ 0047e7b8     adminfn.obj
 0002:000097d8       ??_C@_0BD@IFBKHACD@Date?1Time?1Sequence?$AA@ 0047e7d8     adminfn.obj
 0002:000097ec       ??_C@_04KOACHJEN@Type?$AA@ 0047e7ec     adminfn.obj
 0002:000097f4       ??_C@_08JCOIAMOP@Filename?$AA@ 0047e7f4     adminfn.obj
 0002:00009800       ??_C@_0BB@IDFEKAIP@?$CF?935s?5?$CF?94s?5?$CF?99s?6?$AA@ 0047e800     adminfn.obj
 0002:00009814       ??_C@_0BB@HPJOKLMK@?$CF?935s?5?$CF?94i?5?$CF?99i?6?$AA@ 0047e814     adminfn.obj
 0002:00009828       ??_C@_08GPNCPPAM@?$CFs?5?$DN?5?$CFi?6?$AA@ 0047e828     adminfn.obj
 0002:00009834       ??_C@_0BK@CLIDJGHH@There?5is?5no?5value?5for?5?$CFs?6?$AA@ 0047e834     adminfn.obj
 0002:00009850       ??_C@_0EG@HFEOHJCI@In?5most?5recent?5transmission?5peri@ 0047e850     adminfn.obj
 0002:00009898       ??_C@_0BH@PKFMCEKB@Cannot?5find?5table?5?$CFi?4?6?$AA@ 0047e898     adminfn.obj
 0002:000098b0       ??_C@_0BE@NPDPMBMD@Table?5?$CFi?5is?5empty?4?6?$AA@ 0047e8b0     adminfn.obj
 0002:000098c4       ??_C@_0BE@HABHHAMG@Table?5?$CFi?5?$CIsize?5?$CFi?$CJ?6?$AA@ 0047e8c4     adminfn.obj
 0002:000098d8       ??_C@_0EI@OPNCMHLI@?9?9?9?9?9?9?9?9?9?9?9?9?9?9?9?9?9?9?9?9?9?9?9?9?9?9?9?9?9?9?9?9@ 0047e8d8     adminfn.obj
 0002:00009920       ??_C@_0M@HJMHGLCM@hash?5?$CF5i?5?3?5?$AA@ 0047e920     adminfn.obj
 0002:0000992c       ??_C@_0M@POHHLGPB@?$CIkey?5?$CFs?5?$CFs?5?$AA@ 0047e92c     adminfn.obj
 0002:00009938       ??_C@_0M@COCEGHFI@val?5?$CFs?5?$CFs?$CJ?5?$AA@ 0047e938     adminfn.obj
 0002:00009944       ??_C@_0BL@DNKCBPKI@Number?5of?5name?5IDs?5is?5?$CFi?4?6?$AA@ 0047e944     adminfn.obj
 0002:00009960       ??_C@_0BD@PFAKPONI@ID?3?5?$CF?95i?5Name?3?5?$CFs?6?$AA@ 0047e960     adminfn.obj
 0002:00009974       ??_C@_0CA@KAINNFCO@Cannot?5find?5user?5with?5name?5?$CFs?4?6?$AA@ 0047e974     adminfn.obj
 0002:00009994       ??_C@_0O@FEAGPFOP@?3?$DM?5object?5?$CFi?6?$AA@ 0047e994     adminfn.obj
 0002:000099a4       ??_C@_0CA@BKPLOMNG@Cannot?5show?5references?5to?5NIL?4?6?$AA@ 0047e9a4     adminfn.obj
 0002:000099c4       ??_C@_0BI@GFADLPGI@?3?$DM?5references?5to?5?$CFs?5?$CFs?6?$AA@ 0047e9c4     adminfn.obj
 0002:000099dc       ??_C@_0CB@NFMKJHGB@?3?5OBJECT?5?$CFi?5CLASS?5?$CFs?5?$CFs?5?$DN?5?$CFs?5?$CFs?6@ 0047e9dc     adminfn.obj
 0002:00009a00       ??_C@_0FB@EAGCLJHB@AdminShowReferencesEachList?5foun@ 0047ea00     adminfn.obj
 0002:00009a54       ??_C@_0CP@ILBJPDLH@AdminShowReferencesEachList?5can?8@ 0047ea54     adminfn.obj
 0002:00009a84       ??_C@_0DB@CFBFBJGO@?3?5OBJECT?5?$CFi?5CLASS?5?$CFs?5?$CFs?5?$DN?5LIST?5c@ 0047ea84     adminfn.obj
 0002:00009ab8       ??_C@_0FD@GMCKLDJE@AdminShowReferencesEachTable?5fou@ 0047eab8     adminfn.obj
 0002:00009b0c       ??_C@_0DB@GBHKNMFD@AdminShowReferencesEachTable?5can@ 0047eb0c     adminfn.obj
 0002:00009b40       ??_C@_0DC@JDBOFMMJ@?3?5OBJECT?5?$CFi?5CLASS?5?$CFs?5?$CFs?5?$DN?5TABLE?5@ 0047eb40     adminfn.obj
 0002:00009b74       ??_C@_0BC@KBKFHCDA@Regular?5commands?6?$AA@ 0047eb74     adminfn.obj
 0002:00009b88       ??_C@_0CL@CCCOLMBJ@?$CF3i?5?$CF10u?5?$HM?5?$CF3i?5?$CF10u?5?$HM?5?$CF3i?5?$CF10u?5?$HM@ 0047eb88     adminfn.obj
 0002:00009bb4       ??_C@_0BC@LDJNMKEN@?6System?5commands?6?$AA@ 0047ebb4     adminfn.obj
 0002:00009bc8       ??_C@_0BA@HEOFBJBN@?6User?5commands?6?$AA@ 0047ebc8     adminfn.obj
 0002:00009bd8       ??_C@_0BN@BMBBCDDE@Cannot?5find?5class?5named?5?$CFs?4?6?$AA@ 0047ebd8     adminfn.obj
 0002:00009bf8       ??_C@_0CM@GOAJBMPH@Cannot?5find?5classvar?5named?5?$CFs?5in@ 0047ebf8     adminfn.obj
 0002:00009c24       ??_C@_0CI@EJJLIJJ@Missing?5parameter?52?3?5new?5account@ 0047ec24     adminfn.obj
 0002:00009c4c       ??_C@_0DB@CNDGKCJF@Account?5names?5cannot?5contain?5the@ 0047ec4c     adminfn.obj
 0002:00009c80       ??_C@_0BJ@EPOILNCF@Cannot?5find?5account?5?$CFi?4?6?$AA@ 0047ec80     adminfn.obj
 0002:00009c9c       ??_C@_0DP@LGHDLOLO@AdminSetAccountName?5changing?5nam@ 0047ec9c     adminfn.obj
 0002:00009cdc       ??_C@_0DA@BIHGFBGO@Changing?5name?5of?5account?5?$CFi?5from@ 0047ecdc     adminfn.obj
 0002:00009d0c       ??_C@_0DB@GAFPMKNO@AdminSetAccountPassword?5setting?5@ 0047ed0c     adminfn.obj
 0002:00009d40       ??_C@_0CD@HDAENJHP@Set?5password?5for?5account?5?$CFi?5?$CI?$CFs?$CJ@ 0047ed40     adminfn.obj
 0002:00009d64       ??_C@_0CJ@FFJJHPAA@Missing?5parameter?52?3?5new?5account@ 0047ed64     adminfn.obj
 0002:00009d90       ??_C@_0BI@KENGDAEG@Invalid?5email?5address?4?6?$AA@ 0047ed90     adminfn.obj
 0002:00009da8       ??_C@_0EA@DMNFJJHJ@AdminSetAccountEmail?5changing?5na@ 0047eda8     adminfn.obj
 0002:00009de8       ??_C@_0DO@CBGFADMP@AdminSetAccountCredits?5setting?5a@ 0047ede8     adminfn.obj
 0002:00009e28       ??_C@_0BL@GAPOENHO@Object?5?$CFi?5does?5not?5exist?4?6?$AA@ 0047ee28     adminfn.obj
 0002:00009e48       ??_C@_0FE@CBJKOFCF@warning?3?5Object?5?$CFi?5is?5not?5a?5know@ 0047ee48     adminfn.obj
 0002:00009e9c       ??_C@_0DC@NFAHIJFH@Removing?5user?5object?5?$CFi?5from?5the@ 0047ee9c     adminfn.obj
 0002:00009ed0       ??_C@_0CK@NAGPDFEC@Error?5assocating?5new?5account?5and@ 0047eed0     adminfn.obj
 0002:00009efc       ??_C@_0DB@MBLBOIHK@Associated?5account?5?$CFi?5with?5objec@ 0047eefc     adminfn.obj
 0002:00009f30       ??_C@_0CM@NDDDAKNG@Unable?5to?5find?5configure?5group?5?$CF@ 0047ef30     adminfn.obj
 0002:00009f5c       ??_C@_0DH@LNJLHJ@Bizarre?9?9got?5config?5id?5?$CFi?0?5but?5n@ 0047ef5c     adminfn.obj
 0002:00009f94       ??_C@_0DD@DKMGHEN@This?5configure?5option?5is?5not?5set@ 0047ef94     adminfn.obj
 0002:00009fc8       ??_C@_0CK@HNKJAGGO@This?5configure?5option?5is?5not?5an?5@ 0047efc8     adminfn.obj
 0002:00009ff4       ??_C@_0DF@NMDHPDBD@Configure?5option?5group?5?$CFs?5name?5?$CF@ 0047eff4     adminfn.obj
 0002:0000a02c       ??_C@_0CH@LEKIEBGJ@This?5configure?5option?5is?5not?5boo@ 0047f02c     adminfn.obj
 0002:0000a054       ??_C@_03IPHJCBHH@YES?$AA@  0047f054     adminfn.obj
 0002:0000a058       ??_C@_02NFLNFON@NO?$AA@    0047f058     adminfn.obj
 0002:0000a05c       ??_C@_0DF@PNODEOAI@Boolean?5configuration?5options?5mu@ 0047f05c     adminfn.obj
 0002:0000a094       ??_C@_0DH@PALJBKME@Configure?5option?5group?5?$CFs?5name?5?$CF@ 0047f094     adminfn.obj
 0002:0000a0cc       ??_C@_0CI@EKLOOBEG@This?5configure?5option?5is?5not?5a?5s@ 0047f0cc     adminfn.obj
 0002:0000a0f4       ??_C@_0DF@ODJDEEOI@Configure?5option?5group?5?$CFs?5name?5?$CF@ 0047f0f4     adminfn.obj
 0002:0000a12c       ??_C@_0CL@HOKBHGLM@Missing?5parameter?52?3?5user?5name?5o@ 0047f12c     adminfn.obj
 0002:0000a158       ??_C@_0CC@OCCGODL@Cannot?5find?5account?5for?5user?5?$CFs?4@ 0047f158     adminfn.obj
 0002:0000a17c       ??_C@_0CH@KOEACNKJ@Suspension?5of?5account?5?$CFi?5?$CI?$CFs?$CJ?5fa@ 0047f17c     adminfn.obj
 0002:0000a1a4       ??_C@_0CB@NHNNGOPJ@Account?5?$CFi?5?$CI?$CFs?$CJ?5is?5unsuspended?4?6@ 0047f1a4     adminfn.obj
 0002:0000a1c8       ??_C@_0CI@BEGEAJIM@Account?5?$CFi?5?$CI?$CFs?$CJ?5is?5suspended?5unt@ 0047f1c8     adminfn.obj
 0002:0000a1f0       ??_C@_0CO@OFKAOAA@Missing?5parameter?52?3?5account?5nam@ 0047f1f0     adminfn.obj
 0002:0000a220       ??_C@_0CL@ELEMMAOP@Missing?5parameter?51?3?5user?5name?5o@ 0047f220     adminfn.obj
 0002:0000a24c       ??_C@_0CJ@ELHGOFLJ@Unsuspension?5of?5account?5?$CFi?5?$CI?$CFs?$CJ?5@ 0047f24c     adminfn.obj
 0002:0000a278       ??_C@_0CO@MIEAJCH@Missing?5parameter?51?3?5account?5nam@ 0047f278     adminfn.obj
 0002:0000a2a8       ??_C@_04LMMJFDCN@AUTO?$AA@ 0047f2a8     adminfn.obj
 0002:0000a2b0       ??_C@_09EGJJDCBG@AUTOMATED?$AA@ 0047f2b0     adminfn.obj
 0002:0000a2bc       ??_C@_0CO@LJEPMONI@Account?5name?5must?5be?5at?5least?5on@ 0047f2bc     adminfn.obj
 0002:0000a2ec       ??_C@_0CA@NOIOGCDH@Account?5name?5?$CFs?5already?5exists?6?$AA@ 0047f2ec     adminfn.obj
 0002:0000a30c       ??_C@_0CP@BNGOPKOM@Cannot?5find?5just?5created?5user?5fo@ 0047f30c     adminfn.obj
 0002:0000a33c       ??_C@_0BF@GMDPNJJE@Created?5ACCOUNT?5?$CFi?4?6?$AA@ 0047f33c     adminfn.obj
 0002:0000a354       ??_C@_0BF@LKILBMPH@Created?5account?5?$CFi?4?6?$AA@ 0047f354     adminfn.obj
 0002:0000a36c       ??_C@_0DA@DJEDCOLI@Cannot?5recreate?5account?5?$CFi?$DL?5may?5@ 0047f36c     adminfn.obj
 0002:0000a39c       ??_C@_0BO@BFHELNAJ@Highest?5timed?5message?5reset?4?6?$AA@ 0047f39c     adminfn.obj
 0002:0000a3bc       ??_C@_0CB@KOOOGNJE@Added?5one?5user?5to?5each?5account?4?6@ 0047f3bc     adminfn.obj
 0002:0000a3e0       ??_C@_0BE@IJABBFLL@Created?5object?5?$CFi?4?6?$AA@ 0047f3e0     adminfn.obj
 0002:0000a3f4       ??_C@_0BE@BPAPFDFK@First?5tag?5invalid?4?6?$AA@ 0047f3f4     adminfn.obj
 0002:0000a408       ??_C@_0BF@LLPPHHBI@First?5data?5invalid?4?6?$AA@ 0047f408     adminfn.obj
 0002:0000a420       ??_C@_0BD@CLLFLMDF@Rest?5tag?5invalid?4?6?$AA@ 0047f420     adminfn.obj
 0002:0000a434       ??_C@_0BE@GGMGLBDO@Rest?5data?5invalid?4?6?$AA@ 0047f434     adminfn.obj
 0002:0000a448       ??_C@_0BH@NIMAHDJN@Created?5list?5node?5?$CFi?4?6?$AA@ 0047f448     adminfn.obj
 0002:0000a460       ??_C@_0CJ@MCCCNDLJ@Couldn?8t?5create?5table?5?$CFi?5with?5si@ 0047f460     adminfn.obj
 0002:0000a48c       ??_C@_0DF@OFFKFMGN@Created?5table?5?$CFi?0?5expected?5size?5@ 0047f48c     adminfn.obj
 0002:0000a4c4       ??_C@_0BO@LNDHLEMH@Cannot?5find?5message?5name?5?$CFs?4?6?$AA@ 0047f4c4     adminfn.obj
 0002:0000a4e4       ??_C@_0BD@OIBEKILL@Created?5timer?5?$CFi?4?6?$AA@ 0047f4e4     adminfn.obj
 0002:0000a4f8       ??_C@_0BK@BMDJEAFF@Error?5creating?5resource?4?6?$AA@ 0047f4f8     adminfn.obj
 0002:0000a514       ??_C@_0DN@IGCGEHPG@WARNING?3?5do?5not?5change?5player?5na@ 0047f514     adminfn.obj
 0002:0000a558       ??_C@_0EI@NPONHMHN@Use?5send?5o?50?5AdminChangeUserName@ 0047f558     adminfn.obj
 0002:0000a5a0       ??_C@_0FC@GCDEGCOD@Failure?5to?5do?5so?5will?5result?5in?5@ 0047f5a0     adminfn.obj
 0002:0000a5f4       ??_C@_0BK@FBOAOIJ@Timer?5?$CFi?5does?5not?5exist?4?6?$AA@ 0047f5f4     adminfn.obj
 0002:0000a610       ??_C@_0BO@PCIJHGHL@This?5timer?5has?5been?5deleted?4?6?$AA@ 0047f610     adminfn.obj
 0002:0000a630       ??_C@_0BM@NEMCDCCC@Account?5?$CFi?5does?5not?5exist?4?6?$AA@ 0047f630     adminfn.obj
 0002:0000a64c       ??_C@_0CE@CMJCFMJM@You?5can?8t?5delete?5your?5own?5accoun@ 0047f64c     adminfn.obj
 0002:0000a670       ??_C@_0BN@BKFJNKIO@Account?5?$CFi?5will?5be?5deleted?4?6?$AA@ 0047f670     adminfn.obj
 0002:0000a690       ??_C@_0CF@LKJFJJFD@Cannot?5find?5user?5with?5object?5id?5@ 0047f690     adminfn.obj
 0002:0000a6b8       ??_C@_0FA@DALBOMDB@Someone?5is?5logged?5in?5as?5that?5use@ 0047f6b8     adminfn.obj
 0002:0000a708       ??_C@_0BH@HLENFHJB@Deleting?5the?5?$CFi?5user?4?6?$AA@ 0047f708     adminfn.obj
 0002:0000a720       ??_C@_0CF@BBPBCAPN@Can?8t?5reference?5object?5with?5int?5@ 0047f720     adminfn.obj
 0002:0000a748       ??_C@_0CH@KJPNBAAG@AdminSendList?5couldn?8t?5find?5list@ 0047f748     adminfn.obj
 0002:0000a770       ??_C@_0BL@LBGCFKLN@Cannot?5find?5message?5?8?$CFs?8?4?6?$AA@ 0047f770     adminfn.obj
 0002:0000a78c       ??_C@_0CP@LKPNABJG@AdminSendList?5completed?5in?5?$CF?43f?5@ 0047f78c     adminfn.obj
 0002:0000a7bc       ??_C@_0CH@LCGCECMB@OBJECT?5?$CFi?5can?8t?5handle?5MESSAGE?5?$CF@ 0047f7bc     adminfn.obj
 0002:0000a7e4       ??_C@_0CM@NCOBDPBM@Message?5?$CFs?5completed?5in?5?$CF?43f?5mic@ 0047f7e4     adminfn.obj
 0002:0000a810       ??_C@_0CK@OMFMGIBE@?3?$DM?5return?5from?5OBJECT?5?$CFi?5MESSAGE@ 0047f810     adminfn.obj
 0002:0000a83c       ??_C@_07NFANNNEC@UNKNOWN?$AA@ 0047f83c     adminfn.obj
 0002:0000a844       ??_C@_08FHIBKDGK@?3?5?5?5?$DN?$DN?5?$CC?$AA@ 0047f844     adminfn.obj
 0002:0000a850       ??_C@_03KHICJKCI@?4?4?4?$AA@ 0047f850     adminfn.obj
 0002:0000a854       ??_C@_02MBJIFMOJ@?$CC?6?$AA@ 0047f854     adminfn.obj
 0002:0000a858       ??_C@_09DPMBDOD@?$DMinvalid?$DO?$AA@ 0047f858     adminfn.obj
 0002:0000a864       ??_C@_0BG@MHGCJFC@?3?5?5?5is?5CLASS?5?$CFs?5?$CI?$CFi?$CJ?6?$AA@ 0047f864     adminfn.obj
 0002:0000a87c       ??_C@_0BH@FPMFKAHI@Sent?5to?5gamers?3?5?8?$CFs?8?4?6?$AA@ 0047f87c     adminfn.obj
 0002:0000a894       ??_C@_0BJ@PJLLJBBB@Cannot?5find?5class?5?8?$CFs?8?4?6?$AA@ 0047f894     adminfn.obj
 0002:0000a8b0       ??_C@_0CK@GIMJHLON@CLASS?5?$CFi?5?$CFs?5cannot?5handle?5MESSAG@ 0047f8b0     adminfn.obj
 0002:0000a8dc       ??_C@_0CJ@LGBOIBEH@?3?$DM?5?$CFi?5instance?$CIs?$CJ?5sent?5MESSAGE?5?$CF@ 0047f8dc     adminfn.obj
 0002:0000a908       ??_C@_0BJ@GPNBOJCH@Cannot?5find?5MESSAGE?5?$CFs?4?6?$AA@ 0047f908     adminfn.obj
 0002:0000a924       ??_C@_0DA@BIEIIFOD@Cannot?5find?5MESSAGE?5?$CFs?5?$CI?$CFi?$CJ?5for?5@ 0047f924     adminfn.obj
 0002:0000a954       ??_C@_0BJ@JJFMHIEG@Cannot?5find?5ACCOUNT?5?$CFi?4?6?$AA@ 0047f954     adminfn.obj
 0002:0000a970       ??_C@_0DG@EKFDPIBE@AdminAddAccount?5adding?5?$CFi?5credit@ 0047f970     adminfn.obj
 0002:0000a9a8       ??_C@_0DC@OIDAJBKD@AdminKickoffAll?5kicking?5everyone@ 0047f9a8     adminfn.obj
 0002:0000a9dc       ??_C@_0CD@DOLNEDPL@ACCOUNT?5?$CFi?5?$CI?$CFs?$CJ?5is?5not?5logged?5on@ 0047f9dc     adminfn.obj
 0002:0000aa00       ??_C@_0CF@KGFBHIFB@ACCOUNT?5?$CFi?5?$CI?$CFs?$CJ?5is?5not?5in?5the?5ga@ 0047fa00     adminfn.obj
 0002:0000aa28       ??_C@_0DN@OLABEBMD@AdminKickoffAccount?5kicking?5ACCO@ 0047fa28     adminfn.obj
 0002:0000aa68       ??_C@_0CE@JDEFGBCD@AdminHangupAll?5hanging?5up?5everyo@ 0047fa68     adminfn.obj
 0002:0000aa8c       ??_C@_0CD@LBPNLGFL@ACCOUNT?5?$CFi?5?$CI?$CFs?$CJ?5is?5not?5logged?5in@ 0047fa8c     adminfn.obj
 0002:0000aab0       ??_C@_0BJ@NMJDACPA@Cannot?5hangup?5yourself?4?6?$AA@ 0047fab0     adminfn.obj
 0002:0000aacc       ??_C@_0DD@JFIJHIJI@ACCOUNT?5?$CFi?5?$CI?$CFs?$CJ?5SESSION?5?$CFi?5has?5b@ 0047facc     adminfn.obj
 0002:0000ab00       ??_C@_0EG@BLPEPENM@This?5command?5will?5only?5affect?5sp@ 0047fb00     adminfn.obj
 0002:0000ab48       ??_C@_0P@PJLLBMJN@IP?5?$CFs?5blocked?6?$AA@ 0047fb48     adminfn.obj
 0002:0000ab58       ??_C@_0BK@NOIMHOKI@IP?5?$CFs?5has?5been?5unblocked?6?$AA@ 0047fb58     adminfn.obj
 0002:0000ab74       ??_C@_0CJ@JJKHENIC@Couldn?$GAt?5build?5IP?5address?5bad?5fo@ 0047fb74     adminfn.obj
 0002:0000aba0       ??_C@_0BJ@HEKOBJOB@Cannot?5find?5SESSION?5?$CFi?4?6?$AA@ 0047fba0     adminfn.obj
 0002:0000abbc       ??_C@_0BM@ECPCDHON@Cannot?5hangup?5on?5yourself?4?6?$AA@ 0047fbbc     adminfn.obj
 0002:0000abd8       ??_C@_0BM@NLEGEMHN@Cannot?5hangup?5the?5console?4?6?$AA@ 0047fbd8     adminfn.obj
 0002:0000abf4       ??_C@_0CD@JCBJLGFK@SESSION?5?$CFi?5has?5been?5disconnected@ 0047fbf4     adminfn.obj
 0002:0000ac18       ??_C@_0CE@ECMNCMNA@AdminReloadSystem?5reloading?5syst@ 0047fc18     adminfn.obj
 0002:0000ac3c       ??_C@_0CH@JOLFIKID@Unloading?5game?0?5kodbase?0?5and?5?4bo@ 0047fc3c     adminfn.obj
 0002:0000ac64       ??_C@_0CF@ILKDFFAL@Loading?5game?0?5kodbase?0?5and?5?4bof?5@ 0047fc64     adminfn.obj
 0002:0000ac8c       ??_C@_0DA@MHPEALBM@AdminReload?5couldn?8t?5load?5game?4?5@ 0047fc8c     adminfn.obj
 0002:0000acbc       ??_C@_0BB@HIOEMGJK@AdminReloadGame?6?$AA@ 0047fcbc     adminfn.obj
 0002:0000acd0       ??_C@_09PDLLILKG@person?5is?$AA@ 0047fcd0     adminfn.obj
 0002:0000acdc       ??_C@_0L@GLJFCIPH@people?5are?$AA@ 0047fcdc     adminfn.obj
 0002:0000ace8       ??_C@_0CJ@PGLLCELM@Cannot?5reload?5game?5because?5?$CFi?5?$CFs@ 0047fce8     adminfn.obj
 0002:0000ad14       ??_C@_0BD@PFNEOLGF@Unloading?5game?4?4?4?5?$AA@ 0047fd14     adminfn.obj
 0002:0000ad28       ??_C@_0BP@FFDCAFHP@Game?5save?5time?5forced?5to?5?$CI?$CFi?$CJ?6?$AA@ 0047fd28     adminfn.obj
 0002:0000ad48       ??_C@_0CD@OBLHHFHI@Forcing?5game?5save?5time?5to?5?$CI?$CFi?$CJ?4?4@ 0047fd48     adminfn.obj
 0002:0000ad6c       ??_C@_0BB@FGLGGBAM@Loading?5game?4?4?4?5?$AA@ 0047fd6c     adminfn.obj
 0002:0000ad80       ??_C@_0CO@GBCNNJBG@AdminReload?5couldn?8t?5reload?5all?0@ 0047fd80     adminfn.obj
 0002:0000adb0       ??_C@_0DG@CMBNNFFG@Cannot?5delete?5unused?5accounts?5be@ 0047fdb0     adminfn.obj
 0002:0000ade8       ??_C@_0CD@NEOGGIAP@Number?5of?5accounts?5before?5is?3?5?$CFi@ 0047fde8     adminfn.obj
 0002:0000ae0c       ??_C@_0DH@PCNDLCBP@Number?5of?5accounts?5after?5is?3?5?$CFi?0@ 0047fe0c     adminfn.obj
 0002:0000ae44       ??_C@_0CO@FJFBMHIG@AdminReloadMotd?5reloading?5messag@ 0047fe44     adminfn.obj
 0002:0000ae74       ??_C@_0BD@PLIDIBFE@Reloading?5motd?4?4?4?5?$AA@ 0047fe74     adminfn.obj
 0002:0000ae88       ??_C@_0BH@JACBNOML@Reloading?5packages?4?4?4?5?$AA@ 0047fe88     adminfn.obj
 0002:0000aea0       ??_C@_0BL@PJFPICAB@Invalid?5systimer?5type?5?$CFi?4?6?$AA@ 0047fea0     adminfn.obj
 0002:0000aebc       ??_C@_0BE@NOKKOFOC@Systimer?5disabled?4?6?$AA@ 0047febc     adminfn.obj
 0002:0000aed0       ??_C@_0BD@HGDIGJBL@Systimer?5enabled?4?6?$AA@ 0047fed0     adminfn.obj
 0002:0000aee4       ??_C@_06FLFMPJFM@Said?4?6?$AA@ 0047fee4     adminfn.obj
 0002:0000aeec       ??_C@_0DA@EJBKKEO@AdminSayEachAdminSession?5no?5send@ 0047feec     adminfn.obj
 0002:0000af1c       ??_C@_0O@PMKNNGMO@Administrator?$AA@ 0047ff1c     adminfn.obj
 0002:0000af2c       ??_C@_0P@CNGPNFGC@?$CFs?5says?0?5?$CC?$CFs?$CC?6?$AA@ 0047ff2c     adminfn.obj
 0002:0000af3c       ??_C@_0CP@DBEJKIDN@Recursive?5read?5or?5script?5command@ 0047ff3c     adminfn.obj
 0002:0000af6c       ??_C@_0BD@NJLLFBEO@Error?5opening?5?$CFs?4?6?$AA@ 0047ff6c     adminfn.obj
 0002:0000af80       ??_C@_06FOMKNGNI@?$DO?$DO?5?$CFs?6?$AA@ 0047ff80     adminfn.obj
 0002:0000af88       ??_C@_0FH@CHIDGBIL@?9?9?9?9?9?9?9?9?9?9?9?9?9?9?9?9?9?9?9?9?9?9?9?9?9?9?9?9?9?9?9?9@ 0047ff88     adminfn.obj
 0002:0000afe0       ??_C@_0DJ@DJPJLFPK@AcceptSocketConnections?5socket?$CI?$CJ@ 0047ffe0     async.obj
 0002:0000b01c       ??_C@_0DO@PDMBCHLK@AcceptSocketConnections?5error?5se@ 0048001c     async.obj
 0002:0000b05c       ??_C@_0DM@LLNIJGLF@AcceptSocketConnections?5error?5se@ 0048005c     async.obj
 0002:0000b098       ??_C@_0DP@LPHOOMCH@AcceptSocketConnections?5error?5se@ 00480098     async.obj
 0002:0000b0d8       ??_C@_0DO@DEKCCOAA@AcceptSocketConnections?5error?5se@ 004800d8     async.obj
 0002:0000b118       ??_C@_0DH@PCLBALEB@AcceptSocketConnections?5bind?5fai@ 00480118     async.obj
 0002:0000b150       ??_C@_0DJ@EKMFFCDL@AcceptSocketConnections?5listen?5f@ 00480150     async.obj
 0002:0000b18c       ??_C@_0DC@DBMLLONI@AsyncSocketWrite?5couldn?8t?5get?5se@ 0048018c     async.obj
 0002:0000b1c0       ??_C@_07EKDNEED@async?4c?$AA@ 004801c0     async.obj
 0002:0000b1c8       ??_C@_0CM@PFPNFHBK@File?5?$CFs?5line?5?$CFi?5release?5of?5non?9o@ 004801c8     async.obj
 0002:0000b1f4       ??_C@_0BP@DFJKPAJA@async?5write?5wrote?5?$CFi?1?$CFi?5bytes?6?$AA@ 004801f4     async.obj
 0002:0000b214       ??_C@_0DD@IJAAFIBH@AsyncSocketRead?5couldn?8t?5get?5ses@ 00480214     async.obj
 0002:0000b248       ??_C@_0ED@PDICJBH@AsyncSocketRead?5got?5?$CFi?5bytes?5fro@ 00480248     async.obj
 0002:0000b28c       ??_C@_0CL@CBAJFOID@ExitAsyncConnections?5can?8t?5close@ 0048028c     async_windows.obj
 0002:0000b2b8       ??_C@_0CF@CMDEJPPO@AsyncSocketAccept?5got?5non?9accept@ 004802b8     async_windows.obj
 0002:0000b2e0       ??_C@_0CA@GDGJOLOC@AsyncSocketAccept?5got?5error?5?$CFi?6?$AA@ 004802e0     async_windows.obj
 0002:0000b300       ??_C@_0DB@DPFMPLLE@AcceptSocketConnections?5accept?5f@ 00480300     async_windows.obj
 0002:0000b334       ??_C@_0DF@LFPDKBDP@AcceptSocketConnections?5getpeern@ 00480334     async_windows.obj
 0002:0000b36c       ??_C@_0CJ@PILINKFP@Blocked?5maintenance?5connection?5f@ 0048036c     async_windows.obj
 0002:0000b398       ??_C@_0BN@ENFLFHBF@Blocked?5connection?5from?5?$CFs?4?6?$AA@ 00480398     async_windows.obj
 0002:0000b3b8       ??_C@_0DI@MLNGBLJB@AcceptSocketConnections?5got?5inva@ 004803b8     async_windows.obj
 0002:0000b3f0       ??_C@_0CI@PFEFOHOF@AsyncSocketSelect?5got?5unknown?5ev@ 004803f0     async_windows.obj
 0002:0000b418       ??_C@_0DF@NDEABEPO@CheckMaintenanceMask?5has?5invalid@ 00480418     async_windows.obj
 0002:0000b450       ??_C@_0CK@LFFBCHKK@InitAsyncConnections?5can?8t?5open?5@ 00480450     async_windows.obj
 0002:0000b47c       ??_C@_01ICJEACDI@?$DL?$AA@ 0048047c     async_windows.obj
 0002:0000b480       ??_C@_09PEHBIBEF@blakres?4c?$AA@ 00480480     blakres.obj
 0002:0000b48c       ??_C@_0CL@JNKPLAFD@SetResourceName?5can?8t?5find?5resou@ 0048048c     blakres.obj
 0002:0000b4b8       ??_C@_0DH@GNPNDKL@AddDynamicResource?5created?5resou@ 004804b8     blakres.obj
 0002:0000b4f0       ??_C@_0DC@ILGHGBOM@ChangeDynamicResource?5got?5passed@ 004804f0     blakres.obj
 0002:0000b528       ??_C@_0EM@OKPMGODE@GetResourceStrByLanguageID?5recei@ 00480528     blakres.obj
 0002:0000b574       ??_C@_0CA@JOGEHJFJ@Cannot?5open?5banned?5log?5file?5?$CFs?6?$AA@ 00480574     block.obj
 0002:0000b594       ??_C@_0BN@BDLGAEMI@loading?5banned?5IP?5addresses?6?$AA@ 00480594     block.obj
 0002:0000b5b4       ??_C@_0BG@NNMCOJEH@Banned?5IP?5address?5?$CFs?6?$AA@ 004805b4     block.obj
 0002:0000b5cc       ??_C@_0CF@PDLKMIKM@Warning?5invalid?5entry?5in?5?$CFs?5is?5?$FL@ 004805cc     block.obj
 0002:0000b5f4       ??_C@_0DC@CLKJCIKO@ResetBufferPool?5got?5overwrite?5of@ 004805f4     bufpool.obj
 0002:0000b628       ??_C@_0CM@PBDJNABK@GetBuffer?5got?5overwrite?5of?5a?5buf@ 00480628     bufpool.obj
 0002:0000b654       ??_C@_0CP@MCPFJCKI@DeleteBuffer?5got?5overwrite?5of?5a?5@ 00480654     bufpool.obj
 0002:0000b684       ??_C@_0CL@EFCKBOBE@AddToBufferList?5overwrote?5a?5buff@ 00480684     bufpool.obj
 0002:0000b6b0       ??_C@_0CM@OBDLLAPM@CopyBufferList?5copying?5a?5bad?5buf@ 004806b0     bufpool.obj
 0002:0000b6dc       ??_C@_06NLMENLON@Daenks?$AA@ 004806dc     builtin.obj
 0002:0000b6e4       ??_C@_0N@FNOFMNBJ@somethingnew?$AA@ 004806e4     builtin.obj
 0002:0000b6f4       ??_C@_04OHJIHAFH@None?$AA@ 004806f4     builtin.obj
 0002:0000b700       ??_C@_0EH@DIJFCOML@CreateBuiltInAccounts?5had?5Associ@ 00480700     builtin.obj
 0002:0000b748       ??_C@_0CJ@JMNKKDIO@?$FL?$CFs?$FN?5RetrieveValue?5can?8t?5find?5OB@ 00480748     ccode.obj
 0002:0000b774       ??_C@_0DD@KCPKPLGJ@?$FL?$CFs?$FN?5RetrieveValue?5class?5var?5can@ 00480774     ccode.obj
 0002:0000b7a8       ??_C@_0DG@EFMFPMDE@?$FL?$CFs?$FN?5RetrieveValue?5can?8t?5find?5CL@ 004807a8     ccode.obj
 0002:0000b7e0       ??_C@_0FD@KGOKFNIJ@?$FL?$CFs?$FN?5RetrieveValue?5can?8t?5retriev@ 004807e0     ccode.obj
 0002:0000b834       ??_C@_0CL@JHHCPMKO@?$FL?$CFs?$FN?5RetrieveValue?5can?8t?5identif@ 00480834     ccode.obj
 0002:0000b860       ??_C@_0CI@PFGMAJPL@C_Invalid?5called?9?9bad?5C?5function@ 00480860     ccode.obj
 0002:0000b888       ??_C@_0BI@JCFJECE@C_SaveGame?5saving?5game?6?$AA@ 00480888     ccode.obj
 0002:0000b8a0       ??_C@_0CH@MOPOOHGP@C_SaveGame?5got?5invalid?5save?5game@ 004808a0     ccode.obj
 0002:0000b8c8       ??_C@_0CL@ENKHDFJH@C_SaveGame?5can?8t?5set?5invalid?5str@ 004808c8     ccode.obj
 0002:0000b8f4       ??_C@_0CP@DANEPJII@C_LoadGame?5can?8t?5process?5invalid@ 004808f4     ccode.obj
 0002:0000b924       ??_C@_0CL@OMOHCDIE@C_LoadGame?5can?8t?5get?5invalid?5str@ 00480924     ccode.obj
 0002:0000b950       ??_C@_0CH@JFAHEBGH@C_LoadGame?5got?5invalid?5save?5game@ 00480950     ccode.obj
 0002:0000b978       ??_C@_0CK@HNKIKLGH@C_AddPacket?5has?5?$CD?5of?5bytes?0?5need@ 00480978     ccode.obj
 0002:0000b9a4       ??_C@_0DI@FPLEBGM@C_SendPacket?5object?5?$CFi?5can?8t?5sen@ 004809a4     ccode.obj
 0002:0000b9dc       ??_C@_0DK@FLLANJFL@C_GodLog?5can?8t?5find?5class?5?$CFi?0?5ca@ 004809dc     ccode.obj
 0002:0000ba18       ??_C@_05KJDPJACP@?$FL?$CFs?$FN?5?$AA@ 00480a18     ccode.obj
 0002:0000ba20       ??_C@_0BG@NAKHIOIG@?$DMunknown?5RESOURCE?5?$CFi?$DO?$AA@ 00480a20     ccode.obj
 0002:0000ba38       ??_C@_0BD@BJJICHNK@?$DMunknown?5CLASS?5?$CFi?$DO?$AA@ 00480a38     ccode.obj
 0002:0000ba4c       ??_C@_01HNPIGOCE@?$CG?$AA@ 00480a4c     ccode.obj
 0002:0000ba50       ??_C@_0BP@CNDMMOKM@C_GodLog?5can?8t?5find?5string?5?$CFi?6?$AA@ 00480a50     ccode.obj
 0002:0000ba70       ??_C@_0BE@IMOKKNNN@?$DMOBJECT?5?$CFi?5invalid?$DO?$AA@ 00480a70     ccode.obj
 0002:0000ba84       ??_C@_0BK@KEIKADGP@?$DMOBJECT?5?$CFi?5unknown?5class?$DO?$AA@ 00480a84     ccode.obj
 0002:0000baa0       ??_C@_0BI@LOMECAKJ@?$DMOBJECT?5?$CFi?5broken?5user?$DO?$AA@ 00480aa0     ccode.obj
 0002:0000bab8       ??_C@_09EDBKIOMM@OBJECT?5?$CFi?$AA@ 00480ab8     ccode.obj
 0002:0000bac4       ??_C@_05DNIIFBMG@?$CFs?5?$CFs?$AA@ 00480ac4     ccode.obj
 0002:0000bacc       ??_C@_0DJ@PBOENFMP@C_Debug?5can?8t?5find?5class?5?$CFi?0?5can@ 00480acc     ccode.obj
 0002:0000bb08       ??_C@_0BO@JPBGDOIK@C_Debug?5can?8t?5find?5string?5?$CFi?6?$AA@ 00480b08     ccode.obj
 0002:0000bb28       ??_C@_0BF@FGKAHGHO@ACCOUNT?5?$CFi?5OBJECT?5?$CFi?$AA@ 00480b28     ccode.obj
 0002:0000bb40       ??_C@_01IHBHIGKO@?0?$AA@   00480b40     ccode.obj
 0002:0000bb44       ??_C@_0CP@KGKGAFLJ@C_GetInactiveTime?5can?8t?5use?5non?9@ 00480b44     ccode.obj
 0002:0000bb74       ??_C@_0CJ@HCBEJFKG@C_GetInactiveTime?5can?8t?5find?5ses@ 00480b74     ccode.obj
 0002:0000bba0       ??_C@_0DE@JIGOFGPC@C_GetInactiveTime?5can?8t?5use?5sess@ 00480ba0     ccode.obj
 0002:0000bbd4       ??_C@_0L@MCKOKHJB@Stack?3?6?$CFs?6?$AA@ 00480bd4     ccode.obj
 0002:0000bbe0       ??_C@_0DK@BGKFNIPB@C_SendMessage?5OBJECT?5?$CFi?5can?8t?5us@ 00480be0     ccode.obj
 0002:0000bc1c       ??_C@_0DG@PBJMJFAG@C_SendMessage?5OBJECT?5?$CFi?5can?8t?5se@ 00480c1c     ccode.obj
 0002:0000bc58       ??_C@_0FB@KFECLNJM@C_SendMessage?5OBJECT?5?$CFi?5CLASS?5?$CFs@ 00480c58     ccode.obj
 0002:0000bcac       ??_C@_0DK@CPHKNAMD@C_PostMessage?5OBJECT?5?$CFi?5can?8t?5us@ 00480cac     ccode.obj
 0002:0000bce8       ??_C@_0DH@KJEOEBFB@C_PostMessage?5OBJECT?5?$CFi?5can?8t?5se@ 00480ce8     ccode.obj
 0002:0000bd20       ??_C@_0FK@DLNIPNEA@C_PostMessage?5OBJECT?5?$CFi?5CLASS?5?$CFs@ 00480d20     ccode.obj
 0002:0000bd80       ??_C@_0FB@DBCFJJOL@C_PostMessage?5OBJECT?5?$CFi?5CLASS?5?$CFs@ 00480d80     ccode.obj
 0002:0000bdd4       ??_C@_0DP@HGEAHMLI@C_SendListMessage?5OBJECT?5?$CFi?5can?8@ 00480dd4     ccode.obj
 0002:0000be14       ??_C@_0DO@JHPOAEOP@C_SendListMessage?5OBJECT?5?$CFi?5can?8@ 00480e14     ccode.obj
 0002:0000be54       ??_C@_0DK@BGGDHNHI@C_SendListMessage?5OBJECT?5?$CFi?5can?8@ 00480e54     ccode.obj
 0002:0000be90       ??_C@_0DL@BLMHHNPJ@C_SendListMessage?5OBJECT?5?$CFi?5can?8@ 00480e90     ccode.obj
 0002:0000bed0       ??_C@_0EE@GFHAKPHJ@C_SendListMessageBreak?5OBJECT?5?$CFi@ 00480ed0     ccode.obj
 0002:0000bf18       ??_C@_0ED@MLLFJDPH@C_SendListMessageBreak?5OBJECT?5?$CFi@ 00480f18     ccode.obj
 0002:0000bf5c       ??_C@_0DP@ENHBAFPC@C_SendListMessageBreak?5OBJECT?5?$CFi@ 00480f5c     ccode.obj
 0002:0000bfa0       ??_C@_0EA@BGPBAFLP@C_SendListMessageBreak?5OBJECT?5?$CFi@ 00480fa0     ccode.obj
 0002:0000bfe0       ??_C@_0EG@FHHINPOI@C_SendListMessageByClass?5OBJECT?5@ 00480fe0     ccode.obj
 0002:0000c028       ??_C@_0DP@MFLANMLH@C_SendListMessageByClass?5OBJECT?5@ 00481028     ccode.obj
 0002:0000c068       ??_C@_0EF@BLKJOBNL@C_SendListMessageByClass?5OBJECT?5@ 00481068     ccode.obj
 0002:0000c0b0       ??_C@_0EB@GJJLNCGL@C_SendListMessageByClass?5OBJECT?5@ 004810b0     ccode.obj
 0002:0000c0f8       ??_C@_0EC@JPAGMEII@C_SendListMessageByClass?5OBJECT?5@ 004810f8     ccode.obj
 0002:0000c140       ??_C@_0EL@KEFKHHJC@C_SendListMessageByClassBreak?5OB@ 00481140     ccode.obj
 0002:0000c190       ??_C@_0EE@OLOPOGJB@C_SendListMessageByClassBreak?5OB@ 00481190     ccode.obj
 0002:0000c1d8       ??_C@_0EK@IAHANDMJ@C_SendListMessageByClassBreak?5OB@ 004811d8     ccode.obj
 0002:0000c228       ??_C@_0EG@GMEJKGKC@C_SendListMessageByClassBreak?5OB@ 00481228     ccode.obj
 0002:0000c270       ??_C@_0EH@HNLLGMOI@C_SendListMessageByClassBreak?5OB@ 00481270     ccode.obj
 0002:0000c2b8       ??_C@_0CN@EIKKGMGI@C_CreateObject?5can?8t?5create?5non?9@ 004812b8     ccode.obj
 0002:0000c2e8       ??_C@_0CN@HHCIBLOH@C_GetClass?5can?8t?5deal?5with?5non?9o@ 004812e8     ccode.obj
 0002:0000c318       ??_C@_0CB@MDJDEFPB@C_GetClass?5can?8t?5find?5object?5?$CFi?6@ 00481318     ccode.obj
 0002:0000c33c       ??_C@_0CD@HHILNIN@?$CFs?5can?8t?5use?5invalid?5string?5?$CFi?0?$CF@ 0048133c     ccode.obj
 0002:0000c360       ??_C@_0CM@IFJGPAFC@?$CFs?5can?8t?5use?5invalid?5resource?5?$CFi@ 00481360     ccode.obj
 0002:0000c38c       ??_C@_0CN@BABIKOCN@?$CFs?5can?8t?5find?5class?5?$CFi?0?5can?8t?5ge@ 0048138c     ccode.obj
 0002:0000c3bc       ??_C@_0BM@MDFOGEC@?$CFs?5can?8t?5use?5nil?5as?5string?6?$AA@ 004813bc     ccode.obj
 0002:0000c3d8       ??_C@_0CK@DONFDEOK@?$CFs?5can?8t?5use?5with?5non?9string?5thi@ 004813d8     ccode.obj
 0002:0000c404       ??_C@_0DH@NKBPFIMJ@C_StringEqual?5can?8t?5use?5invalid?5@ 00481404     ccode.obj
 0002:0000c43c       ??_C@_0O@PGOPDKNB@C_StringEqual?$AA@ 0048143c     ccode.obj
 0002:0000c44c       ??_C@_0CJ@CPAHJLBL@C_StringEqual?5got?5NULL?5string?5re@ 0048144c     ccode.obj
 0002:0000c478       ??_C@_0CJ@ECKMINI@C_StringEqual?5got?5NULL?5string?5re@ 00481478     ccode.obj
 0002:0000c4a4       ??_C@_0DK@GMDBFHGC@C_StringSub?5can?8t?5modify?5first?5a@ 004814a4     ccode.obj
 0002:0000c4e0       ??_C@_0DA@MKBHACG@C_StringSub?5can?8t?5sub?5for?5invali@ 004814e0     ccode.obj
 0002:0000c510       ??_C@_0CP@OMLJPFN@C_StringSub?5can?8t?5sub?5for?5invali@ 00481510     ccode.obj
 0002:0000c540       ??_C@_0DG@JGNMKBCI@C_StringSub?5can?8t?5find?5class?5?$CFi?0@ 00481540     ccode.obj
 0002:0000c578       ??_C@_0BP@NGGMOGPC@C_StringSub?5can?8t?5sub?5for?5nil?6?$AA@ 00481578     ccode.obj
 0002:0000c598       ??_C@_0DC@COKIKIF@C_StringSub?5can?8t?5sub?5for?5non?9st@ 00481598     ccode.obj
 0002:0000c5cc       ??_C@_0CN@BEIAECH@C_StringSub?5can?8t?5sub?5for?5null?5s@ 004815cc     ccode.obj
 0002:0000c5fc       ??_C@_0M@OCADIDJO@C_StringSub?$AA@ 004815fc     ccode.obj
 0002:0000c608       ??_C@_0CI@JIBCELGN@C_StringSub?5can?8t?5sub?0?5string?5to@ 00481608     ccode.obj
 0002:0000c630       ??_C@_07JLAMOJAL@ccode?4c?$AA@ 00481630     ccode.obj
 0002:0000c638       ??_C@_0DJ@BKONKKCC@C_StringContain?5can?8t?5use?5invali@ 00481638     ccode.obj
 0002:0000c674       ??_C@_0BA@CAKCLBOG@C_StringContain?$AA@ 00481674     ccode.obj
 0002:0000c684       ??_C@_0CL@IHNHNICI@C_StringContain?5got?5NULL?5string?5@ 00481684     ccode.obj
 0002:0000c6b0       ??_C@_0CL@KMPKILOL@C_StringContain?5got?5NULL?5string?5@ 004816b0     ccode.obj
 0002:0000c6dc       ??_C@_0CM@MNOAKIBJ@C_SetResource?5can?8t?5set?5non?9reso@ 004816dc     ccode.obj
 0002:0000c708       ??_C@_0DE@OFFENKGE@C_SetResource?5can?8t?5set?5non?9dyna@ 00481708     ccode.obj
 0002:0000c73c       ??_C@_0CO@KEKLAIHH@C_SetResource?5can?8t?5set?5from?5bad@ 0048173c     ccode.obj
 0002:0000c76c       ??_C@_0CM@JFAKJADF@C_SetResource?5can?8t?5set?5from?5bad@ 0048176c     ccode.obj
 0002:0000c798       ??_C@_0DE@KNMNBEOI@C_SetResource?5can?8t?5set?5from?5non@ 00481798     ccode.obj
 0002:0000c7cc       ??_C@_0DG@EMCOEDDE@C_SetResource?5got?5dyna?5rsc?5numbe@ 004817cc     ccode.obj
 0002:0000c804       ??_C@_0CI@FNAKEEFN@C_ParseString?5can?8t?5find?5current@ 00481804     ccode.obj
 0002:0000c82c       ??_C@_0CD@HDEBMIIE@C_ParseString?5can?8t?5find?5class?5?$CF@ 0048182c     ccode.obj
 0002:0000c850       ??_C@_0DB@FGBPNAAF@C_ParseString?5can?8t?5parse?5non?9te@ 00481850     ccode.obj
 0002:0000c884       ??_C@_0DG@CEDBDBH@C_ParseString?5can?8t?5use?5separato@ 00481884     ccode.obj
 0002:0000c8bc       ??_C@_0DA@JLDCMMJF@C_ParseString?5can?8t?5callback?5non@ 004818bc     ccode.obj
 0002:0000c8ec       ??_C@_0CI@FGBDDHL@C_SetString?5can?8t?5set?5non?9string@ 004818ec     ccode.obj
 0002:0000c914       ??_C@_0CM@GJNPLBMG@C_SetString?5can?8t?5set?5invalid?5st@ 00481914     ccode.obj
 0002:0000c940       ??_C@_0CF@EPOKLBAM@C_SetString?5can?8t?5find?5string?5?$CFi@ 00481940     ccode.obj
 0002:0000c968       ??_C@_0DA@ILKJLCIB@C_SetString?5can?8t?5set?5from?5inval@ 00481968     ccode.obj
 0002:0000c998       ??_C@_0CP@EIHEEFMC@C_SetString?5can?8t?5set?5from?5inval@ 00481998     ccode.obj
 0002:0000c9c8       ??_C@_0CN@JFEEINKE@C_SetString?5can?8t?5set?5from?5inval@ 004819c8     ccode.obj
 0002:0000c9f8       ??_C@_0DC@JDPPAODD@C_SetString?5can?8t?5set?5from?5inval@ 004819f8     ccode.obj
 0002:0000ca2c       ??_C@_0DE@LFPHCHGH@C_SetString?5can?8t?5set?5from?5inval@ 00481a2c     ccode.obj
 0002:0000ca60       ??_C@_0DD@FOPBMMP@C_SetString?5can?8t?5set?5from?5non?9s@ 00481a60     ccode.obj
 0002:0000ca94       ??_C@_0CM@MEKCMOEG@C_AppendTempString?5can?8t?5find?5st@ 00481a94     ccode.obj
 0002:0000cac0       ??_C@_0EA@FGGFAHIF@C_AppendTempString?5attempting?5to@ 00481ac0     ccode.obj
 0002:0000cb00       ??_C@_0DH@NDBHBFGM@C_AppendTempString?5can?8t?5set?5fro@ 00481b00     ccode.obj
 0002:0000cb38       ??_C@_0DN@FHHBPEGJ@C_AppendTempString?5can?8t?5find?5cl@ 00481b38     ccode.obj
 0002:0000cb78       ??_C@_0DD@JPOJLMOL@C_AppendTempString?3?5GetClassDebu@ 00481b78     ccode.obj
 0002:0000cbac       ??_C@_0CH@NKANCHGH@C_AppendTempString?5can?8t?5set?5fro@ 00481bac     ccode.obj
 0002:0000cbd4       ??_C@_0DK@GJEKOLMB@C_AppendTempString?5can?8t?5set?5fro@ 00481bd4     ccode.obj
 0002:0000cc10       ??_C@_0P@HBLHOCAO@C_StringLength?$AA@ 00481c10     ccode.obj
 0002:0000cc20       ??_C@_0BD@OILFBBAB@C_StringConsistsOf?$AA@ 00481c20     ccode.obj
 0002:0000cc34       ??_C@_0CE@DDNKADFD@C_CreateTimer?5can?8t?5find?5object?5@ 00481c34     ccode.obj
 0002:0000cc58       ??_C@_0DJ@ENNAPMDM@C_CreateTimer?5can?8t?5create?5a?5tim@ 00481c58     ccode.obj
 0002:0000cc94       ??_C@_0DK@ICBMEDP@C_CreateTimer?5can?8t?5create?5timer@ 00481c94     ccode.obj
 0002:0000ccd0       ??_C@_0EF@GFJNGGEO@C_CreateTimer?5can?8t?5create?5timer@ 00481cd0     ccode.obj
 0002:0000cd18       ??_C@_0EB@KBCCIPJD@C_CreateTimer?5can?8t?5create?5timer@ 00481d18     ccode.obj
 0002:0000cd5c       ??_C@_0CM@OBGIOLEM@C_DeleteTimer?5can?8t?5delete?5non?9t@ 00481d5c     ccode.obj
 0002:0000cd88       ??_C@_0CO@IBMAHNKL@C_GetTimeRemaining?5can?8t?5use?5non@ 00481d88     ccode.obj
 0002:0000cdb8       ??_C@_0CL@MOLILCJC@C_GetTimeRemaining?5can?8t?5find?5ti@ 00481db8     ccode.obj
 0002:0000cde4       ??_C@_0CN@JANKBKCH@C_IsTimer?5called?5with?5NIL?5timer?5@ 00481de4     ccode.obj
 0002:0000ce14       ??_C@_0CP@MJNILCDC@C_CreateRoomData?5can?8t?5use?5non?9r@ 00481e14     ccode.obj
 0002:0000ce44       ??_C@_0CM@FKJOHFJN@C_FreeRoom?5can?8t?5operate?5on?5non?9@ 00481e44     ccode.obj
 0002:0000ce70       ??_C@_0CC@PPDLDKFB@C_FreeRoom?5can?8t?5find?5room?5id?5?$CFi@ 00481e70     ccode.obj
 0002:0000ce94       ??_C@_0CM@HAMBEHPJ@C_RoomSize?5can?8t?5operate?5on?5non?9@ 00481e94     ccode.obj
 0002:0000cec0       ??_C@_0CC@CHIGILHA@C_RoomSize?5can?8t?5find?5room?5id?5?$CFi@ 00481ec0     ccode.obj
 0002:0000cee4       ??_C@_0CP@OMPNKPLJ@C_GetLocationInfoBSP?5can?8t?5use?5n@ 00481ee4     ccode.obj
 0002:0000cf14       ??_C@_0DJ@OFMCJPDC@C_GetLocationInfoBSP?5queryflags?5@ 00481f14     ccode.obj
 0002:0000cf50       ??_C@_0DJ@FIELABBO@C_GetLocationInfoBSP?5row?5source?5@ 00481f50     ccode.obj
 0002:0000cf8c       ??_C@_0DJ@JLCJNCNP@C_GetLocationInfoBSP?5col?5source?5@ 00481f8c     ccode.obj
 0002:0000cfc8       ??_C@_0DN@OHMGJPN@C_GetLocationInfoBSP?5finerow?5sou@ 00481fc8     ccode.obj
 0002:0000d008       ??_C@_0DN@MNBOLKDM@C_GetLocationInfoBSP?5finecol?5sou@ 00482008     ccode.obj
 0002:0000d048       ??_C@_0DK@EMJOINOM@C_GetLocationInfoBSP?5returnflags@ 00482048     ccode.obj
 0002:0000d084       ??_C@_0DK@OFAKMBPM@C_GetLocationInfoBSP?5floorheight@ 00482084     ccode.obj
 0002:0000d0c0       ??_C@_0DM@BKPPPEII@C_GetLocationInfoBSP?5floorheight@ 004820c0     ccode.obj
 0002:0000d0fc       ??_C@_0DM@FIFEHJNM@C_GetLocationInfoBSP?5ceilingheig@ 004820fc     ccode.obj
 0002:0000d138       ??_C@_0DH@GODFDNBC@C_GetLocationInfoBSP?5serverid?5ca@ 00482138     ccode.obj
 0002:0000d170       ??_C@_0CJ@OKGNEODO@C_GetLocationInfoBSP?5can?8t?5find?5@ 00482170     ccode.obj
 0002:0000d19c       ??_C@_0CN@OCJKJDHI@C_CanMoveInRoomBSP?5can?8t?5use?5non@ 0048219c     ccode.obj
 0002:0000d1cc       ??_C@_0DH@INCCIFLI@C_CanMoveInRoomBSP?5row?5source?5ca@ 004821cc     ccode.obj
 0002:0000d204       ??_C@_0DH@EOEAFGHJ@C_CanMoveInRoomBSP?5col?5source?5ca@ 00482204     ccode.obj
 0002:0000d23c       ??_C@_0DL@MCMGGKMN@C_CanMoveInRoomBSP?5finerow?5sourc@ 0048223c     ccode.obj
 0002:0000d278       ??_C@_0DL@BKELJAM@C_CanMoveInRoomBSP?5finecol?5sourc@ 00482278     ccode.obj
 0002:0000d2b4       ??_C@_0DF@HMPOBCEE@C_CanMoveInRoomBSP?5row?5dest?5can?8@ 004822b4     ccode.obj
 0002:0000d2ec       ??_C@_0DF@EKJIAIND@C_CanMoveInRoomBSP?5col?5dest?5can?8@ 004822ec     ccode.obj
 0002:0000d324       ??_C@_0DJ@PPJHJGE@C_CanMoveInRoomBSP?5finerow?5dest?5@ 00482324     ccode.obj
 0002:0000d360       ??_C@_0DJ@DJJPGDPD@C_CanMoveInRoomBSP?5finecol?5dest?5@ 00482360     ccode.obj
 0002:0000d39c       ??_C@_0DF@FIIJNDBE@C_CanMoveInRoomBSP?5objectid?5can?8@ 0048239c     ccode.obj
 0002:0000d3d8       ??_C@_0EC@BPDENMCK@C_CanMoveInRoomBSP?5move?5outside?5@ 004823d8     ccode.obj
 0002:0000d41c       ??_C@_0CH@LNJHKKCL@C_CanMoveInRoomBSP?5can?8t?5find?5ro@ 0048241c     ccode.obj
 0002:0000d444       ??_C@_0CM@CODFEJEC@C_LineOfSightView?5can?8t?5use?5non?5@ 00482444     ccode.obj
 0002:0000d470       ??_C@_0DG@LAKFMDB@C_LineOfSightView?5row?5source?5can@ 00482470     ccode.obj
 0002:0000d4a8       ??_C@_0DG@MIGIIPPA@C_LineOfSightView?5col?5source?5can@ 004824a8     ccode.obj
 0002:0000d4e0       ??_C@_0DK@IJEJBFHM@C_LineOfSightView?5finerow?5source@ 004824e0     ccode.obj
 0002:0000d51c       ??_C@_0DK@EKCLMGLN@C_LineOfSightView?5finecol?5source@ 0048251c     ccode.obj
 0002:0000d558       ??_C@_0DE@KDOPKHBL@C_LineOfSightView?5row?5dest?5can?8t@ 00482558     ccode.obj
 0002:0000d58c       ??_C@_0DE@JFIJLNIM@C_LineOfSightView?5col?5dest?5can?8t@ 0048258c     ccode.obj
 0002:0000d5c0       ??_C@_0DI@BKLHLGDO@C_LineOfSightView?5finerow?5dest?5c@ 004825c0     ccode.obj
 0002:0000d5f8       ??_C@_0DI@CMNBKMKJ@C_LineOfSightView?5finecol?5dest?5c@ 004825f8     ccode.obj
 0002:0000d630       ??_C@_0CL@KONPFEPP@C_LineOfSightBSP?5can?8t?5use?5non?5r@ 00482630     ccode.obj
 0002:0000d65c       ??_C@_0DF@LHILCKMF@C_LineOfSightBSP?5row?5source?5can?8@ 0048265c     ccode.obj
 0002:0000d694       ??_C@_0DF@HEOJPJAE@C_LineOfSightBSP?5col?5source?5can?8@ 00482694     ccode.obj
 0002:0000d6cc       ??_C@_0DJ@DAHONGMD@C_LineOfSightBSP?5finerow?5source?5@ 004826cc     ccode.obj
 0002:0000d708       ??_C@_0DJ@PDBMAFAC@C_LineOfSightBSP?5finecol?5source?5@ 00482708     ccode.obj
 0002:0000d744       ??_C@_0DD@OOCMBBBF@C_LineOfSightBSP?5row?5dest?5can?8t?5@ 00482744     ccode.obj
 0002:0000d778       ??_C@_0DD@NIEKALIC@C_LineOfSightBSP?5col?5dest?5can?8t?5@ 00482778     ccode.obj
 0002:0000d7ac       ??_C@_0DH@NDABPKAP@C_LineOfSightBSP?5finerow?5dest?5ca@ 004827ac     ccode.obj
 0002:0000d7e4       ??_C@_0DH@OFGHOAJI@C_LineOfSightBSP?5finecol?5dest?5ca@ 004827e4     ccode.obj
 0002:0000d81c       ??_C@_0CF@CILGMLMM@C_LineOfSightBSP?5can?8t?5find?5room@ 0048281c     ccode.obj
 0002:0000d844       ??_C@_0CN@NOCFMBFH@C_ChangeTextureBSP?5can?8t?5use?5non@ 00482844     ccode.obj
 0002:0000d874       ??_C@_0DF@GGKEIFN@C_ChangeTextureBSP?5serverid?5can?8@ 00482874     ccode.obj
 0002:0000d8ac       ??_C@_0DH@CAENBICA@C_ChangeTextureBSP?5new_texnum?5ca@ 004828ac     ccode.obj
 0002:0000d8e4       ??_C@_0DC@CFDHGOBH@C_ChangeTextureBSP?5flags?5can?8t?5u@ 004828e4     ccode.obj
 0002:0000d918       ??_C@_0CH@LLIHNJCN@C_ChangeTextureBSP?5can?8t?5find?5ro@ 00482918     ccode.obj
 0002:0000d940       ??_C@_0CK@IBAMAGMB@C_MoveSectorBSP?5can?8t?5use?5non?5ro@ 00482940     ccode.obj
 0002:0000d96c       ??_C@_0DC@HMNPFIMK@C_MoveSectorBSP?5serverid?5can?8t?5u@ 0048296c     ccode.obj
 0002:0000d9a0       ??_C@_0DD@JCGODPLD@C_MoveSectorBSP?5animation?5can?8t?5@ 004829a0     ccode.obj
 0002:0000d9d4       ??_C@_0DA@DCFKBMH@C_MoveSectorBSP?5height?5can?8t?5use@ 004829d4     ccode.obj
 0002:0000da04       ??_C@_0CP@CAOPELHC@C_MoveSectorBSP?5speed?5can?8t?5use?5@ 00482a04     ccode.obj
 0002:0000da34       ??_C@_0CE@JJKHFPFC@C_MoveSectorBSP?5can?8t?5find?5room?5@ 00482a34     ccode.obj
 0002:0000da58       ??_C@_0CK@NOFHKJOA@C_BlockerAddBSP?5can?8t?5use?5non?5ro@ 00482a58     ccode.obj
 0002:0000da84       ??_C@_0CJ@JEJIGNDP@C_BlockerAddBSP?5can?8t?5use?5non?5ob@ 00482a84     ccode.obj
 0002:0000dab0       ??_C@_0CN@KAKIFBIG@C_BlockerAddBSP?5row?5can?8t?5use?5no@ 00482ab0     ccode.obj
 0002:0000dae0       ??_C@_0CN@GKAFFFLL@C_BlockerAddBSP?5col?5can?8t?5use?5no@ 00482ae0     ccode.obj
 0002:0000db10       ??_C@_0DB@FMHFIMPI@C_BlockerAddBSP?5finerow?5can?8t?5us@ 00482b10     ccode.obj
 0002:0000db44       ??_C@_0DB@JGNIIIMF@C_BlockerAddBSP?5finecol?5can?8t?5us@ 00482b44     ccode.obj
 0002:0000db78       ??_C@_0CE@CBNBILHI@C_BlockerAddBSP?5can?8t?5find?5room?5@ 00482b78     ccode.obj
 0002:0000db9c       ??_C@_0CL@EIGDKOGI@C_BlockerMoveBSP?5can?8t?5use?5non?5r@ 00482b9c     ccode.obj
 0002:0000dbc8       ??_C@_0CK@KJDHGLHF@C_BlockerMoveBSP?5can?8t?5use?5non?5o@ 00482bc8     ccode.obj
 0002:0000dbf4       ??_C@_0CO@CBHLHJFK@C_BlockerMoveBSP?5row?5can?8t?5use?5n@ 00482bf4     ccode.obj
 0002:0000dc24       ??_C@_0CO@OLNGHNGH@C_BlockerMoveBSP?5col?5can?8t?5use?5n@ 00482c24     ccode.obj
 0002:0000dc54       ??_C@_0DC@DGADLIOL@C_BlockerMoveBSP?5finerow?5can?8t?5u@ 00482c54     ccode.obj
 0002:0000dc88       ??_C@_0DC@PMKOLMNG@C_BlockerMoveBSP?5finecol?5can?8t?5u@ 00482c88     ccode.obj
 0002:0000dcbc       ??_C@_0CF@OFJEEAIB@C_BlockerMoveBSP?5can?8t?5find?5room@ 00482cbc     ccode.obj
 0002:0000dce4       ??_C@_0CN@PMPEGPEG@C_BlockerRemoveBSP?5can?8t?5use?5non@ 00482ce4     ccode.obj
 0002:0000dd14       ??_C@_0CM@DFEIHCIJ@C_BlockerRemoveBSP?5can?8t?5use?5non@ 00482d14     ccode.obj
 0002:0000dd40       ??_C@_0DF@OEDBFOLB@C_BlockerRemoveBSP?5can?8t?5find?5ro@ 00482d40     ccode.obj
 0002:0000dd78       ??_C@_0CM@IKBJJOOC@C_BlockerClearBSP?5can?8t?5use?5non?5@ 00482d78     ccode.obj
 0002:0000dda4       ??_C@_0CG@IIBHGBKC@C_BlockerClearBSP?5can?8t?5find?5roo@ 00482da4     ccode.obj
 0002:0000ddcc       ??_C@_0CO@OAJDKMLN@C_GetRandomPointBSP?5can?8t?5use?5no@ 00482dcc     ccode.obj
 0002:0000ddfc       ??_C@_0DJ@DAEHAIGM@C_GetRandomPointBSP?5maxattempts?5@ 00482dfc     ccode.obj
 0002:0000de38       ??_C@_0DI@GKOMEFFM@C_GetRandomPointBSP?5row?5source?5c@ 00482e38     ccode.obj
 0002:0000de70       ??_C@_0DI@KJIOJGJN@C_GetRandomPointBSP?5col?5source?5c@ 00482e70     ccode.obj
 0002:0000dea8       ??_C@_0DM@GBGDKHPJ@C_GetRandomPointBSP?5finerow?5sour@ 00482ea8     ccode.obj
 0002:0000dee4       ??_C@_0DM@KCABHEDI@C_GetRandomPointBSP?5finecol?5sour@ 00482ee4     ccode.obj
 0002:0000df20       ??_C@_0CI@HBACLODI@C_GetRandomPointBSP?5can?8t?5find?5r@ 00482f20     ccode.obj
 0002:0000df48       ??_C@_0CO@NDHLGPPO@C_GetStepTowardsBSP?5can?8t?5use?5no@ 00482f48     ccode.obj
 0002:0000df78       ??_C@_0DI@FHJFEHGJ@C_GetStepTowardsBSP?5row?5source?5c@ 00482f78     ccode.obj
 0002:0000dfb0       ??_C@_0DI@JEPHJEKI@C_GetStepTowardsBSP?5col?5source?5c@ 00482fb0     ccode.obj
 0002:0000dfe8       ??_C@_0DM@DIHPFKK@C_GetStepTowardsBSP?5finerow?5sour@ 00482fe8     ccode.obj
 0002:0000e024       ??_C@_0DM@MAOFCGGL@C_GetStepTowardsBSP?5finecol?5sour@ 00483024     ccode.obj
 0002:0000e060       ??_C@_0DG@LCNJHKF@C_GetStepTowardsBSP?5row?5dest?5can@ 00483060     ccode.obj
 0002:0000e098       ??_C@_0DG@DNELINDC@C_GetStepTowardsBSP?5col?5dest?5can@ 00483098     ccode.obj
 0002:0000e0d0       ??_C@_0DK@OCLAPEBB@C_GetStepTowardsBSP?5finerow?5dest@ 004830d0     ccode.obj
 0002:0000e10c       ??_C@_0DK@NENGOOIG@C_GetStepTowardsBSP?5finecol?5dest@ 0048310c     ccode.obj
 0002:0000e148       ??_C@_0DJ@NFGKAAAO@C_GetStepTowardsBSP?5state_flags?5@ 00483148     ccode.obj
 0002:0000e184       ??_C@_0DG@CPFKFGPF@C_GetStepTowardsBSP?5objectid?5can@ 00483184     ccode.obj
 0002:0000e1bc       ??_C@_0CI@OGAPABP@C_GetStepTowardsBSP?5can?8t?5find?5r@ 004831bc     ccode.obj
 0002:0000e1e4       ??_C@_0DI@NFHIJFCL@C_AppendListElem?5object?5?$CFi?5can?8t@ 004831e4     ccode.obj
 0002:0000e21c       ??_C@_0CO@KDNNFEBG@C_Cons?5object?5?$CFi?5can?8t?5add?5to?5no@ 0048321c     ccode.obj
 0002:0000e24c       ??_C@_0DI@LOJAHNIG@C_First?5object?5?$CFi?5can?8t?5take?5Fir@ 0048324c     ccode.obj
 0002:0000e284       ??_C@_0DN@EIICDENN@C_First?5object?5?$CFi?5can?8t?5take?5Fir@ 00483284     ccode.obj
 0002:0000e2c4       ??_C@_0DG@EMMFHFFK@C_Rest?5object?5?$CFi?5can?8t?5take?5Rest@ 004832c4     ccode.obj
 0002:0000e2fc       ??_C@_0DL@INMOOBAO@C_Rest?5object?5?$CFi?5can?8t?5take?5Rest@ 004832fc     ccode.obj
 0002:0000e338       ??_C@_0DK@CCFMBMLI@C_Length?5object?5?$CFi?5can?8t?5take?5Le@ 00483338     ccode.obj
 0002:0000e374       ??_C@_0DN@NLDKMIA@C_Last?5object?5?$CFi?5can?8t?5get?5last?5@ 00483374     ccode.obj
 0002:0000e3b4       ??_C@_0DE@IOJMGPHK@C_Nth?5object?5?$CFi?5can?8t?5take?5Nth?5o@ 004833b4     ccode.obj
 0002:0000e3e8       ??_C@_0DJ@OJAKNJAC@C_Nth?5object?5?$CFi?5can?8t?5take?5Nth?5o@ 004833e8     ccode.obj
 0002:0000e424       ??_C@_0CN@CPBIMMKD@C_Nth?5can?8t?5take?5Nth?5with?5n?5?$DN?5no@ 00483424     ccode.obj
 0002:0000e454       ??_C@_0DI@KADBICNI@C_IsListMatch?5object?5?$CFi?5can?8t?5ch@ 00483454     ccode.obj
 0002:0000e48c       ??_C@_0DI@GDHDOBOL@C_IsListMatch?5object?5?$CFi?5can?8t?5ch@ 0048348c     ccode.obj
 0002:0000e4c4       ??_C@_0DH@NOMIANJA@C_SetFirst?5object?5?$CFi?5can?8t?5set?5e@ 004834c4     ccode.obj
 0002:0000e4fc       ??_C@_0DK@OKPGIHBI@C_SetNth?5object?5?$CFi?5can?8t?5take?5Nt@ 004834fc     ccode.obj
 0002:0000e538       ??_C@_0DN@NBEHIIHE@C_InsertListElem?5object?5?$CFi?5can?8t@ 00483538     ccode.obj
 0002:0000e578       ??_C@_0FE@BIFNBFNL@C_InsertListElem?5object?5?$CFi?5can?8t@ 00483578     ccode.obj
 0002:0000e5cc       ??_C@_0DL@LNAGOLDL@C_SwapListElem?5object?5?$CFi?5can?8t?5s@ 004835cc     ccode.obj
 0002:0000e608       ??_C@_0EA@CKKDOAMK@C_SwapListElem?5object?5?$CFi?5can?8t?5t@ 00483608     ccode.obj
 0002:0000e648       ??_C@_0EJ@INKONKP@C_SwapListElem?5object?5?$CFi?5given?5i@ 00483648     ccode.obj
 0002:0000e694       ??_C@_0DP@MPHBGNAH@C_DelListElem?5object?5?$CFi?5can?8t?5de@ 00483694     ccode.obj
 0002:0000e6d8       ??_C@_0ED@KJDHOJGB@C_DelLastListElem?5object?5?$CFi?5can?8@ 004836d8     ccode.obj
 0002:0000e71c       ??_C@_0DM@CKIKHGL@C_FindListElem?5object?5?$CFi?5can?8t?5f@ 0048371c     ccode.obj
 0002:0000e758       ??_C@_0EG@BFGLFGPD@C_GetAllListNodesByClass?5object?5@ 00483758     ccode.obj
 0002:0000e7a0       ??_C@_0EF@PFKCEJO@C_GetAllListNodesByClass?5object?5@ 004837a0     ccode.obj
 0002:0000e7e8       ??_C@_0DO@JNPLBACK@C_GetAllListNodesByClass?5object?5@ 004837e8     ccode.obj
 0002:0000e828       ??_C@_0DL@BLFIOEHN@C_GetListNode?5object?5?$CFi?5can?8t?5fi@ 00483828     ccode.obj
 0002:0000e864       ??_C@_0DK@OHGAJIJG@C_GetListNode?5object?5?$CFi?5can?8t?5us@ 00483864     ccode.obj
 0002:0000e8a0       ??_C@_0DE@ENIJJDEJ@C_GetListNode?5object?5?$CFi?5can?8t?5fi@ 004838a0     ccode.obj
 0002:0000e8d8       ??_C@_0EB@CPKHJEMF@C_GetListElemByClass?5object?5?$CFi?5c@ 004838d8     ccode.obj
 0002:0000e91c       ??_C@_0DK@ICDABOEE@C_GetListElemByClass?5object?5?$CFi?5c@ 0048391c     ccode.obj
 0002:0000e958       ??_C@_0DA@DPHHHJOP@C_ListCopy?5object?5?$CFi?5can?8t?5copy?5@ 00483958     ccode.obj
 0002:0000e988       ??_C@_0DB@PHHPDPKE@C_Random?5got?5an?5invalid?5boundary@ 00483988     ccode.obj
 0002:0000e9bc       ??_C@_0CM@OIHBFEMK@C_Random?5got?5low?5?$DO?5high?5boundary@ 004839bc     ccode.obj
 0002:0000e9e8       ??_C@_0BH@HKHBKEML@C_Abs?5can?8t?5use?5?$CFi?0?$CFi?6?$AA@ 004839e8     ccode.obj
 0002:0000ea00       ??_C@_0BI@EHHDNPJB@C_Sqrt?5can?8t?5use?5?$CFi?0?$CFi?6?$AA@ 00483a00     ccode.obj
 0002:0000ea18       ??_C@_0CM@OPGMBCJI@C_Sqrt?5result?5undefined?5for?5nega@ 00483a18     ccode.obj
 0002:0000ea44       ??_C@_0BJ@CLPIKBJI@C_Bound?5can?8t?5use?5?$CFi?0?$CFi?6?$AA@ 00483a44     ccode.obj
 0002:0000ea60       ??_C@_0CD@OOMPKDHC@C_Bound?5can?8t?5use?5min?5bound?5?$CFi?0?$CF@ 00483a60     ccode.obj
 0002:0000ea84       ??_C@_0CD@PLEEHHIA@C_Bound?5can?8t?5use?5max?5bound?5?$CFi?0?$CF@ 00483a84     ccode.obj
 0002:0000eaa8       ??_C@_0DA@MMMHCBNK@C_CreateTable?5can?8t?5use?5non?9int?5@ 00483aa8     ccode.obj
 0002:0000ead8       ??_C@_0CK@ONEHEBFJ@C_AddTableEntry?5can?8t?5use?5table?5@ 00483ad8     ccode.obj
 0002:0000eb04       ??_C@_0CI@HFBOLFGB@C_AddTableEntry?5can?8t?5use?5key?5id@ 00483b04     ccode.obj
 0002:0000eb2c       ??_C@_0CK@EDAFNIIN@C_GetTableEntry?5can?8t?5use?5table?5@ 00483b2c     ccode.obj
 0002:0000eb58       ??_C@_0CN@KIAMGKJ@C_DeleteTableEntry?5can?8t?5use?5tab@ 00483b58     ccode.obj
 0002:0000eb88       ??_C@_0CI@MMMHBJPG@C_DeleteTable?5can?8t?5use?5table?5id@ 00483b88     ccode.obj
 0002:0000ebb0       ??_C@_0DI@CLCINIP@C_DeleteTable?5is?5deprecated?0?5tab@ 00483bb0     ccode.obj
 0002:0000ebe8       ??_C@_0CO@BJLALNIO@C_RecycleUser?5can?8t?5recycle?5non?9@ 00483be8     ccode.obj
 0002:0000ec18       ??_C@_0CE@BOENILJO@C_RecycleUser?5can?8t?5find?5object?5@ 00483c18     ccode.obj
 0002:0000ec3c       ??_C@_0DC@OGPJIIEN@C_RecycleUser?5can?8t?5find?5user?5wh@ 00483c3c     ccode.obj
 0002:0000ec70       ??_C@_0CN@LJOMBJKO@C_StringToNumber?5can?8t?5use?5non?9s@ 00483c70     ccode.obj
 0002:0000eca0       ??_C@_0DB@BHFCCPK@C_StringToNumber?5can?8t?5use?5inval@ 00483ca0     ccode.obj
 0002:0000ecd4       ??_C@_0DI@IGDHJPDF@STAT_TYPE?5expected?5in?5C_RecordSt@ 00483cd4     ccode.obj
 0002:0000ed0c       ??_C@_0DO@KJMGLGND@Wrong?5Number?5of?5Paramenters?5in?5C@ 00483d0c     ccode.obj
 0002:0000ed4c       ??_C@_0DK@NCPDNPGN@Wrong?5Type?5of?5Parameter?5in?5C_Rec@ 00483d4c     ccode.obj
 0002:0000ed88       ??_C@_0EA@IEIKBKFC@Wrong?5Number?5of?5Paramenters?5in?5C@ 00483d88     ccode.obj
 0002:0000edc8       ??_C@_0DO@CFGOFLKM@Wrong?5Number?5of?5Paramenters?5in?5C@ 00483dc8     ccode.obj
 0002:0000ee08       ??_C@_0DK@FOFLDCBC@Wrong?5Type?5of?5Parameter?5in?5C_Rec@ 00483e08     ccode.obj
 0002:0000ee44       ??_C@_0DC@OJNCPNNH@NULL?5string?5in?5C_RecordStat?$CI?$CJ?5fo@ 00483e44     ccode.obj
 0002:0000ee78       ??_C@_0DP@HPNMEFLE@Wrong?5Number?5of?5Paramenters?5in?5C@ 00483e78     ccode.obj
 0002:0000eeb8       ??_C@_0DL@FDHOOOFG@Wrong?5Type?5of?5Parameter?5in?5C_Rec@ 00483eb8     ccode.obj
 0002:0000eef4       ??_C@_0DD@LIMHFBKG@NULL?5string?5in?5C_RecordStat?$CI?$CJ?5fo@ 00483ef4     ccode.obj
 0002:0000ef28       ??_C@_0DK@EFLFBCAO@Wrong?5Number?5of?5Paramenters?5in?5C@ 00483f28     ccode.obj
 0002:0000ef64       ??_C@_0CK@KOIIOLLB@C_RecordStat?5can?8t?5use?5non?9sessi@ 00483f64     ccode.obj
 0002:0000ef90       ??_C@_0DG@GBAOHKEJ@Wrong?5Type?5of?5Parameter?5in?5C_Rec@ 00483f90     ccode.obj
 0002:0000efc8       ??_C@_0CC@DKANGHJJ@C_RecordStat?5guild?5string?5is?5nul@ 00483fc8     ccode.obj
 0002:0000efec       ??_C@_0CO@MFEBBFGE@NULL?5string?5in?5C_RecordStat?$CI?$CJ?5fo@ 00483fec     ccode.obj
 0002:0000f020       ??_C@_0EB@OLANDFEF@Wrong?5Number?5of?5Paramenters?5in?5C@ 00484020     ccode.obj
 0002:0000f064       ??_C@_0DN@DHPABBNB@C_RecordStat?5STAT_PLAYERSUICIDE?5@ 00484064     ccode.obj
 0002:0000f0a4       ??_C@_0DN@MGEBPCOJ@Wrong?5Type?5of?5Parameter?5in?5C_Rec@ 004840a4     ccode.obj
 0002:0000f0e4       ??_C@_0DF@IJCDFGPA@NULL?5string?5in?5C_RecordStat?$CI?$CJ?5fo@ 004840e4     ccode.obj
 0002:0000f11c       ??_C@_0DJ@FKEKPEBA@Wrong?5Number?5of?5Paramenters?5in?5C@ 0048411c     ccode.obj
 0002:0000f158       ??_C@_0DF@FFIBBFOD@Wrong?5Type?5of?5Parameter?5in?5C_Rec@ 00484158     ccode.obj
 0002:0000f190       ??_C@_0CO@LDFCEKEL@C_RecordStat?5STAT_GUILD?0?5guild?5s@ 00484190     ccode.obj
 0002:0000f1c0       ??_C@_0CN@MLCKFFIF@NULL?5string?5in?5C_RecordStat?$CI?$CJ?5fo@ 004841c0     ccode.obj
 0002:0000f1f0       ??_C@_0EA@EGPKPALB@Wrong?5Number?5of?5Paramenters?5in?5C@ 004841f0     ccode.obj
 0002:0000f230       ??_C@_0DM@INCNBEO@Wrong?5Type?5of?5Parameter?5in?5C_Rec@ 00484230     ccode.obj
 0002:0000f26c       ??_C@_0DD@BLFCIIEP@C_RecordStat?5STAT_GUILDDISBAND?0?5@ 0048426c     ccode.obj
 0002:0000f2a0       ??_C@_0CO@GKOKGDKH@ERROR?3?5Unknown?5stat_type?5?$CI?$CFd?$CJ?5in@ 004842a0     ccode.obj
 0002:0000f2d0       ??_C@_0CM@CEELFOH@C_GetSessionIP?5can?8t?5use?5non?5ses@ 004842d0     ccode.obj
 0002:0000f2fc       ??_C@_0CN@MPLMMEBH@C_GetSessionIP?5can?8t?5find?5sessio@ 004842fc     ccode.obj
 0002:0000f32c       ??_C@_0DB@KCIENKKL@C_SetClassVar?5can?8t?5find?5the?5cla@ 0048432c     ccode.obj
 0002:0000f360       ??_C@_0CO@DIEDEFJN@C_SetClassVar?5can?8t?5look?5for?5non@ 00484360     ccode.obj
 0002:0000f390       ??_C@_0CF@GOMNCAFM@C_SetClassVar?5cannot?5find?5class?5@ 00484390     ccode.obj
 0002:0000f3b8       ??_C@_0DE@OCPKHEAA@C_SetClassVar?5passed?5bad?5class?5v@ 004843b8     ccode.obj
 0002:0000f3ec       ??_C@_0DI@MKECHJNC@C_SetClassVar?5can?8t?5find?5class?5?$CF@ 004843ec     ccode.obj
 0002:0000f424       ??_C@_0CP@FIFIHNGA@C_SetClassVar?3?5GetClassDebugStr?5@ 00484424     ccode.obj
 0002:0000f454       ??_C@_0DK@BPIFONAA@C_SetClassVar?5cannot?5find?5classv@ 00484454     ccode.obj
 0002:0000f490       ??_C@_0DG@JPCBNMIM@?$DM?$DMWriteChannelBuffer?5got?5string?5@ 00484490     chanbuf.obj
 0002:0000f4c8       ??_C@_09GAPPLDHE@debug?4txt?$AA@ 004844c8     channel.obj
 0002:0000f4d4       ??_C@_09KLJCJGHB@error?4txt?$AA@ 004844d4     channel.obj
 0002:0000f4e0       ??_C@_07POILLFDI@log?4txt?$AA@ 004844e0     channel.obj
 0002:0000f4e8       ??_C@_07CFHFNLMA@god?4txt?$AA@ 004844e8     channel.obj
 0002:0000f4f0       ??_C@_09MPPMNJKN@admin?4txt?$AA@ 004844f0     channel.obj
 0002:0000f4fc       ??_C@_0CL@NGLGFKJH@OpenDefaultChannels?5couldn?8t?5ope@ 004844fc     channel.obj
 0002:0000f528       ??_C@_03JMGKJPBM@?$CFs?$HM?$AA@ 00484528     channel.obj
 0002:0000f52c       ??_C@_02PCIJFNDE@?$AN?6?$AA@ 0048452c     channel.obj
 0002:0000f530       ??_C@_05MPHDEKGO@?$CFs?5?$HM?5?$AA@ 00484530     channel.obj
 0002:0000f538       ??_C@_0L@CPHMKCIO@?$CFs?5?$HM?5?$FL?$CFs?$FN?5?$AA@ 00484538     channel.obj
 0002:0000f544       ??_C@_07BGGPNFB@ACCOUNT?$AA@ 00484544     channel.obj
 0002:0000f54c       ??_C@_0DA@KOKDOOHB@?$CFs?5?$HM?5Line?5excluded?5due?5to?5person@ 0048454c     channel.obj
 0002:0000f57c       ??_C@_02BOGAIONP@ab?$AA@   0048457c     channel.obj
 0002:0000f580       ??_C@_07PAPMLLED@class?4c?$AA@ 00484580     class.obj
 0002:0000f588       ??_C@_0CF@GBOAALNL@SetClassName?5can?8t?5find?5class?5id@ 00484588     class.obj
 0002:0000f5b0       ??_C@_0FG@MFJAJPPE@SetClassesSuperPtr?5found?5class?5?$CF@ 004845b0     class.obj
 0002:0000f608       ??_C@_0FN@IILFNEFN@Fatal?3?5Class?5hash?5bin?5?$CF3i?5has?5le@ 00484608     class.obj
 0002:0000f668       ??_C@_0EK@PKGIOFGG@SetOneClassVariables?5can?8t?5set?5i@ 00484668     class.obj
 0002:0000f6b4       ??_C@_0CN@JACFNDAA@GetClassDebugStr?5got?5invalid?5dst@ 004846b4     class.obj
 0002:0000f6e4       ??_C@_0N@BENOELAL@Invalid?5DStr?$AA@ 004846e4     class.obj
 0002:0000f6f4       ??_C@_0DK@JKCLDBAN@AddBlakodToPacket?5looking?5for?5in@ 004846f4     commcli.obj
 0002:0000f730       ??_C@_0CO@MOAIOMFO@AddBlakodToPacket?5looking?5for?5va@ 00484730     commcli.obj
 0002:0000f760       ??_C@_0CL@KBIDNHIJ@AddBlakodToPacket?5can?8t?5find?5str@ 00484760     commcli.obj
 0002:0000f78c       ??_C@_0DJ@HAFELEDB@AddBlakodToPacket?5can?8t?5send?5?$CFi?0@ 0048478c     commcli.obj
 0002:0000f7c8       ??_C@_0DP@ILJLODIG@AddBlakodToPacket?5can?8t?5find?5res@ 004847c8     commcli.obj
 0002:0000f808       ??_C@_0CH@OACMDGCJ@AddBlakodToPacket?5can?8t?5send?5?$CFi?5@ 00484808     commcli.obj
 0002:0000f830       ??_C@_0FG@DNPBEGDM@SecurePacketBufferList?5lost?5redb@ 00484830     commcli.obj
 0002:0000f888       ??_C@_06EGBBEFIM@?$FLPath?$FN?$AA@ 00484888     config.obj
 0002:0000f890       ??_C@_03JPIKPAGJ@Bof?$AA@  00484890     config.obj
 0002:0000f894       ??_C@_01LFCBOECM@?4?$AA@   00484894     config.obj
 0002:0000f898       ??_C@_06NBLCOOBC@Memmap?$AA@ 00484898     config.obj
 0002:0000f8a0       ??_C@_03KHNIAJKH@Rsc?$AA@  004848a0     config.obj
 0002:0000f8a4       ??_C@_05DDEBICCP@Rooms?$AA@ 004848a4     config.obj
 0002:0000f8ac       ??_C@_04KIJCBNGA@Motd?$AA@ 004848ac     config.obj
 0002:0000f8b4       ??_C@_07DMJBFPJJ@Channel?$AA@ 004848b4     config.obj
 0002:0000f8bc       ??_C@_08CCOAANDF@LoadSave?$AA@ 004848bc     config.obj
 0002:0000f8c8       ??_C@_05JHFENOA@Forms?$AA@ 004848c8     config.obj
 0002:0000f8d0       ??_C@_07COOEHCMN@Kodbase?$AA@ 004848d0     config.obj
 0002:0000f8d8       ??_C@_0M@PFOHOAP@PackageFile?$AA@ 004848d8     config.obj
 0002:0000f8e4       ??_C@_08HPDBCDNP@?$FLSocket?$FN?$AA@ 004848e4     config.obj
 0002:0000f8f0       ??_C@_04HOKNCALA@Port?$AA@ 004848f0     config.obj
 0002:0000f8f8       ??_C@_04PBBLCCPO@5959?$AA@ 004848f8     config.obj
 0002:0000f900       ??_C@_0BA@PLKEELBK@MaintenancePort?$AA@ 00484900     config.obj
 0002:0000f910       ??_C@_04CEOKAHNK@9998?$AA@ 00484910     config.obj
 0002:0000f918       ??_C@_0BA@EPJDALLD@MaintenanceMask?$AA@ 00484918     config.obj
 0002:0000f928       ??_C@_0BB@GGFABEOI@?3?3ffff?3127?40?40?41?$AA@ 00484928     config.obj
 0002:0000f93c       ??_C@_09LGJEPNLC@DNSLookup?$AA@ 0048493c     config.obj
 0002:0000f948       ??_C@_05CAILAJKB@Nagle?$AA@ 00484948     config.obj
 0002:0000f950       ??_C@_09DOPDDPEB@BlockTime?$AA@ 00484950     config.obj
 0002:0000f95c       ??_C@_03MHAIKEMP@300?$AA@  0048495c     config.obj
 0002:0000f960       ??_C@_09MCINJIMB@?$FLChannel?$FN?$AA@ 00484960     config.obj
 0002:0000f96c       ??_C@_09JPFMLBHF@DebugDisk?$AA@ 0048496c     config.obj
 0002:0000f978       ??_C@_09FEDBJEHA@ErrorDisk?$AA@ 00484978     config.obj
 0002:0000f984       ??_C@_07LHADNGLP@LogDisk?$AA@ 00484984     config.obj
 0002:0000f98c       ??_C@_05GMIMEKGJ@Flush?$AA@ 0048498c     config.obj
 0002:0000f994       ??_C@_07GMPNLIEH@GodDisk?$AA@ 00484994     config.obj
 0002:0000f99c       ??_C@_09DAFPNLKM@AdminDisk?$AA@ 0048499c     config.obj
 0002:0000f9a8       ??_C@_07DMGHAMFJ@?$FLGuest?$FN?$AA@ 004849a8     config.obj
 0002:0000f9b0       ??_C@_07FENCDID@Account?$AA@ 004849b0     config.obj
 0002:0000f9b8       ??_C@_05LAHEIEIF@GUEST?$AA@ 004849b8     config.obj
 0002:0000f9c0       ??_C@_02PKFBJPLJ@10?$AA@   004849c0     config.obj
 0002:0000f9c4       ??_C@_03BJDGPCOK@Max?$AA@  004849c4     config.obj
 0002:0000f9c8       ??_C@_02PJNFELNH@30?$AA@   004849c8     config.obj
 0002:0000f9cc       ??_C@_09DHECAGPF@ServerMin?$AA@ 004849cc     config.obj
 0002:0000f9d8       ??_C@_03GNABGMEE@100?$AA@  004849d8     config.obj
 0002:0000f9dc       ??_C@_09CFMJOCJK@ServerMax?$AA@ 004849dc     config.obj
 0002:0000f9e8       ??_C@_03LMMDNHAN@109?$AA@  004849e8     config.obj
 0002:0000f9ec       ??_C@_07FAKAHECC@TooMany?$AA@ 004849ec     config.obj
 0002:0000f9f8       ??_C@_0EB@MGLGGKID@Too?5many?5guests?5are?5logged?5on?5ri@ 004849f8     config.obj
 0002:0000fa3c       ??_C@_09DPNGLNMH@?$FLAccount?$FN?$AA@ 00484a3c     config.obj
 0002:0000fa48       ??_C@_08ODAAGMOM@NumSlots?$AA@ 00484a48     config.obj
 0002:0000fa54       ??_C@_01EKENIIDA@3?$AA@    00484a54     config.obj
 0002:0000fa58       ??_C@_07MIPILLGD@?$FLLogin?$FN?$AA@ 00484a58     config.obj
 0002:0000fa60       ??_C@_0M@KCLIBIDM@MaxAttempts?$AA@ 00484a60     config.obj
 0002:0000fa6c       ??_C@_0BC@EEBFADFL@MinClassicVersion?$AA@ 00484a6c     config.obj
 0002:0000fa80       ??_C@_01GBGANLPD@0?$AA@    00484a80     config.obj
 0002:0000fa84       ??_C@_0P@FLJDLEPB@MinOgreVersion?$AA@ 00484a84     config.obj
 0002:0000fa94       ??_C@_0O@ILPMFCLP@OldVersionStr?$AA@ 00484a94     config.obj
 0002:0000faa8       ??_C@_0IE@JKFINLPN@The?5game?5software?5has?5been?5upgra@ 00484aa8     config.obj
 0002:0000fb2c       ??_C@_0P@EADCOPBL@InvalidVersion?$AA@ 00484b2c     config.obj
 0002:0000fb3c       ??_C@_0BC@JGALIJMG@InvalidVersionStr?$AA@ 00484b3c     config.obj
 0002:0000fb50       ??_C@_0FE@BFANEEDC@Your?5version?5of?5the?5game?5softwar@ 00484b50     config.obj
 0002:0000fba4       ??_C@_0L@BALBHCDL@SuspendStr?$AA@ 00484ba4     config.obj
 0002:0000fbb0       ??_C@_0HB@LECBGOHC@Your?5account?5has?5been?5disabled?5t@ 00484bb0     config.obj
 0002:0000fc24       ??_C@_0BA@MNKPDGFN@MaxPerIPAddress?$AA@ 00484c24     config.obj
 0002:0000fc34       ??_C@_0BH@BFFONLPC@TooManyPerIPAddressStr?$AA@ 00484c34     config.obj
 0002:0000fc4c       ??_C@_0CK@IGCPKBDB@Too?5many?5logins?5from?5the?5same?5IP@ 00484c4c     config.obj
 0002:0000fc78       ??_C@_0L@JEDKBLAL@?$FLInactive?$FN?$AA@ 00484c78     config.obj
 0002:0000fc84       ??_C@_07GFPHFKHI@Synched?$AA@ 00484c84     config.obj
 0002:0000fc8c       ??_C@_08DECIGEMC@Transfer?$AA@ 00484c8c     config.obj
 0002:0000fc98       ??_C@_01FDFGLJHB@2?$AA@    00484c98     config.obj
 0002:0000fc9c       ??_C@_0L@PPIGLINE@SelectChar?$AA@ 00484c9c     config.obj
 0002:0000fca8       ??_C@_02PPBOIJDM@60?$AA@   00484ca8     config.obj
 0002:0000fcac       ??_C@_04IBBNLEM@Game?$AA@  00484cac     config.obj
 0002:0000fcb4       ??_C@_08HPOOIHCA@Override?$AA@ 00484cb4     config.obj
 0002:0000fcc0       ??_C@_0BC@NJOGLIMD@?$FLMessageOfTheDay?$FN?$AA@ 00484cc0     config.obj
 0002:0000fcd4       ??_C@_07MCAEODGB@Default?$AA@ 00484cd4     config.obj
 0002:0000fcdc       ??_C@_09MPOFADO@?$DMDefault?$DO?$AA@ 00484cdc     config.obj
 0002:0000fce8       ??_C@_08BLFMCEIO@?$FLCredit?$FN?$AA@ 00484ce8     config.obj
 0002:0000fcf4       ??_C@_0M@CAKDMLG@DrainAmount?$AA@ 00484cf4     config.obj
 0002:0000fd00       ??_C@_02PGHGPEOM@?91?$AA@  00484d00     config.obj
 0002:0000fd04       ??_C@_09LGNIAKCK@DrainTime?$AA@ 00484d04     config.obj
 0002:0000fd10       ??_C@_01HIHLOKLC@1?$AA@    00484d10     config.obj
 0002:0000fd14       ??_C@_05LOMGLBGB@Warn1?$AA@ 00484d14     config.obj
 0002:0000fd1c       ??_C@_01BMBHCPLG@5?$AA@    00484d1c     config.obj
 0002:0000fd20       ??_C@_05JFOLOCKC@Warn2?$AA@ 00484d20     config.obj
 0002:0000fd28       ??_C@_07JCFMOLEA@Initial?$AA@ 00484d28     config.obj
 0002:0000fd30       ??_C@_05JDLPMPEA@Admin?$AA@ 00484d30     config.obj
 0002:0000fd38       ??_C@_02IFGANFKF@25?$AA@   00484d38     config.obj
 0002:0000fd3c       ??_C@_09GEFILLNJ@?$FLSession?$FN?$AA@ 00484d3c     config.obj
 0002:0000fd48       ??_C@_09CNAKHCOE@MaxActive?$AA@ 00484d48     config.obj
 0002:0000fd54       ??_C@_0L@DPNAIEMG@MaxConnect?$AA@ 00484d54     config.obj
 0002:0000fd60       ??_C@_04OPEFEHND@Busy?$AA@ 00484d60     config.obj
 0002:0000fd68       ??_C@_0EB@ECMEMOGG@Too?5many?5people?5are?5logged?5on?5ri@ 00484d68     config.obj
 0002:0000fdac       ??_C@_06ECLNOIHC@?$FLLock?$FN?$AA@ 00484dac     config.obj
 0002:0000fdb4       ??_C@_0DA@BHLAEKHH@The?5game?5is?5temporarily?5closed?5f@ 00484db4     config.obj
 0002:0000fde4       ??_C@_0L@ILLEHBHA@?$FLResource?$FN?$AA@ 00484de4     config.obj
 0002:0000fdf0       ??_C@_07MKHOEHEH@RscSpec?$AA@ 00484df0     config.obj
 0002:0000fdf8       ??_C@_05FGLBFOFC@?$CK?4rsb?$AA@ 00484df8     config.obj
 0002:0000fe00       ??_C@_08BENDAOKD@Language?$AA@ 00484e00     config.obj
 0002:0000fe0c       ??_C@_08LIOMGEEN@?$FLMemory?$FN?$AA@ 00484e0c     config.obj
 0002:0000fe18       ??_C@_0O@IAJBIEIA@SizeClassHash?$AA@ 00484e18     config.obj
 0002:0000fe28       ??_C@_05KLCDJBEC@99971?$AA@ 00484e28     config.obj
 0002:0000fe30       ??_C@_0BC@GGGIAEJD@SizeClassNameHash?$AA@ 00484e30     config.obj
 0002:0000fe44       ??_C@_0BB@JKCNPCGL@SizeResourceHash?$AA@ 00484e44     config.obj
 0002:0000fe58       ??_C@_0BF@ICHIMOIG@SizeResourceNameHash?$AA@ 00484e58     config.obj
 0002:0000fe70       ??_C@_0BH@CHAKJEAH@SizePropertiesNameHash?$AA@ 00484e70     config.obj
 0002:0000fe88       ??_C@_03IEMMBMLA@499?$AA@  00484e88     config.obj
 0002:0000fe8c       ??_C@_06BOLELDHF@?$FLAuto?$FN?$AA@ 00484e8c     config.obj
 0002:0000fe94       ??_C@_08EKNBFLCM@SaveTime?$AA@ 00484e94     config.obj
 0002:0000fea0       ??_C@_0L@KMHJNADO@SavePeriod?$AA@ 00484ea0     config.obj
 0002:0000feac       ??_C@_03GDBCDNPM@180?$AA@  00484eac     config.obj
 0002:0000feb0       ??_C@_07NDIJJJHO@KodTime?$AA@ 00484eb0     config.obj
 0002:0000feb8       ??_C@_09FBJONFCM@KodPeriod?$AA@ 00484eb8     config.obj
 0002:0000fec4       ??_C@_0BA@MCFGKOLP@InterfaceUpdate?$AA@ 00484ec4     config.obj
 0002:0000fed4       ??_C@_0BA@LNNBHBOK@TransmittedTime?$AA@ 00484ed4     config.obj
 0002:0000fee4       ??_C@_0BC@OKGCJOCA@TransmittedPeriod?$AA@ 00484ee4     config.obj
 0002:0000fef8       ??_C@_0O@NMGBLKIG@ResetPoolTime?$AA@ 00484ef8     config.obj
 0002:0000ff08       ??_C@_0BA@CPJMMAAD@ResetPoolPeriod?$AA@ 00484f08     config.obj
 0002:0000ff18       ??_C@_08IKDMBHNL@?$FLUpdate?$FN?$AA@ 00484f18     config.obj
 0002:0000ff24       ??_C@_0O@NFFKONBK@ClientMachine?$AA@ 00484f24     config.obj
 0002:0000ff34       ??_C@_0P@BKALEHNE@ClientFilename?$AA@ 00484f34     config.obj
 0002:0000ff44       ??_C@_0P@ENJNIKKN@PackageMachine?$AA@ 00484f44     config.obj
 0002:0000ff54       ??_C@_0M@ICNBLIEH@PackagePath?$AA@ 00484f54     config.obj
 0002:0000ff60       ??_C@_0P@FIMDIBHL@DownloadReason?$AA@ 00484f60     config.obj
 0002:0000ff70       ??_C@_0DH@IGDHJPOE@An?5update?5of?5Meridian?5files?5is?5a@ 00484f70     config.obj
 0002:0000ffa8       ??_C@_0L@LJEBHMHM@DemoButton?$AA@ 00484fa8     config.obj
 0002:0000ffb4       ??_C@_0BB@CCFKBJKO@ClassicPatchHost?$AA@ 00484fb4     config.obj
 0002:0000ffc8       ??_C@_0BB@HBCNPJAG@ClassicPatchPath?$AA@ 00484fc8     config.obj
 0002:0000ffdc       ??_C@_0BG@NFBENDDH@ClassicPatchCachePath?$AA@ 00484fdc     config.obj
 0002:0000fff4       ??_C@_0BA@EDIAGJIG@ClassicPatchTxt?$AA@ 00484ff4     config.obj
 0002:00010004       ??_C@_0P@EHFEFACL@ClassicClubExe?$AA@ 00485004     config.obj
 0002:00010014       ??_C@_0O@DBNGPFIE@OgrePatchHost?$AA@ 00485014     config.obj
 0002:00010024       ??_C@_0O@GCKBBFCM@OgrePatchPath?$AA@ 00485024     config.obj
 0002:00010034       ??_C@_0BD@ELAMLJGE@OgrePatchCachePath?$AA@ 00485034     config.obj
 0002:00010048       ??_C@_0N@KDPEBFJO@OgrePatchTxt?$AA@ 00485048     config.obj
 0002:00010058       ??_C@_0M@OGMBFGCB@OgreClubExe?$AA@ 00485058     config.obj
 0002:00010064       ??_C@_09MOPBKNMB@?$FLConsole?$FN?$AA@ 00485064     config.obj
 0002:00010070       ??_C@_07OJKFJLLK@Caption?$AA@ 00485070     config.obj
 0002:00010078       ??_C@_0BA@NJMLHNBF@BlakSton?5Server?$AA@ 00485078     config.obj
 0002:00010088       ??_C@_0BB@NAIALAN@LocalMachineName?$AA@ 00485088     config.obj
 0002:0001009c       ??_C@_07CIFAGBMG@unknown?$AA@ 0048509c     config.obj
 0002:000100a4       ??_C@_08OBJAAIMC@?$FLRights?$FN?$AA@ 004850a4     config.obj
 0002:000100b0       ??_C@_06KINDDEPA@GoRoom?$AA@ 004850b0     config.obj
 0002:000100b8       ??_C@_0M@JBJMDLKF@GoRoomByNum?$AA@ 004850b8     config.obj
 0002:000100c4       ??_C@_08BHFNLCEK@GoPlayer?$AA@ 004850c4     config.obj
 0002:000100d0       ??_C@_09ODGOFFBD@GetPlayer?$AA@ 004850d0     config.obj
 0002:000100dc       ??_C@_0M@FAIJAIPE@?$FLConstants?$FN?$AA@ 004850dc     config.obj
 0002:000100e8       ??_C@_07DOAOMMKG@Enabled?$AA@ 004850e8     config.obj
 0002:000100f0       ??_C@_0O@JMAKAIPL@?4?$AIlakston?4khd?$AA@ 004850f0     config.obj
 0002:00010100       ??_C@_0M@FKFOAPHO@?$FLAdvertise?$FN?$AA@ 00485100     config.obj
 0002:0001010c       ??_C@_05PKKPOEND@File1?$AA@ 0048510c     config.obj
 0002:00010114       ??_C@_07CPGLPJEC@ad1?4avi?$AA@ 00485114     config.obj
 0002:0001011c       ??_C@_04IPIIBFLI@Url1?$AA@ 0048511c     config.obj
 0002:00010124       ??_C@_0BL@LCNJEFLN@https?3?1?1www?4Meridian59?4de?1?$AA@ 00485124     config.obj
 0002:00010140       ??_C@_05NBICLHBA@File2?$AA@ 00485140     config.obj
 0002:00010148       ??_C@_07KJPPILOM@ad2?4avi?$AA@ 00485148     config.obj
 0002:00010150       ??_C@_04KEKFEGHL@Url2?$AA@ 00485150     config.obj
 0002:00010158       ??_C@_0CF@CHDLFGNH@https?3?1?1www?4meridiannext?4com?1php@ 00485158     config.obj
 0002:00010180       ??_C@_07IHHCIKLK@?$FLDebug?$FN?$AA@ 00485180     config.obj
 0002:00010188       ??_C@_0O@HGDLELMD@CanMoveInRoom?$AA@ 00485188     config.obj
 0002:00010198       ??_C@_0BF@HDCADOLJ@CanMoveInRoomHighRes?$AA@ 00485198     config.obj
 0002:000101b0       ??_C@_04DLIMMELK@Heap?$AA@ 004851b0     config.obj
 0002:000101b8       ??_C@_0BB@NMAOJODD@TransmittedBytes?$AA@ 004851b8     config.obj
 0002:000101cc       ??_C@_04CJFHLMKK@Hash?$AA@ 004851cc     config.obj
 0002:000101d4       ??_C@_09NHJLCGJJ@TimeCalls?$AA@ 004851d4     config.obj
 0002:000101e0       ??_C@_0L@JKEELPM@?$FLSecurity?$FN?$AA@ 004851e0     config.obj
 0002:000101ec       ??_C@_09OIHHPDPF@LogSpoofs?$AA@ 004851ec     config.obj
 0002:000101f8       ??_C@_0N@KKHPAKGE@HangupSpoofs?$AA@ 004851f8     config.obj
 0002:00010208       ??_C@_0L@DPIHMDH@RedbookRsc?$AA@ 00485208     config.obj
 0002:00010214       ??_C@_0BD@LPKJHLFM@system_success_rsc?$AA@ 00485214     config.obj
 0002:00010228       ??_C@_09NEGBHBIH@?$FLService?$FN?$AA@ 00485228     config.obj
 0002:00010234       ??_C@_07DOELDAMC@Machine?$AA@ 00485234     config.obj
 0002:0001023c       ??_C@_0BJ@NBNALOHG@ftp?4neardeathstudios?4com?$AA@ 0048523c     config.obj
 0002:00010258       ??_C@_09EOAFACM@Directory?$AA@ 00485258     config.obj
 0002:00010264       ??_C@_0BF@ENNGJFI@?1private?1m59?1service?$AA@ 00485264     config.obj
 0002:0001027c       ??_C@_08GBJFCIEI@Username?$AA@ 0048527c     config.obj
 0002:00010288       ??_C@_06BCPOFAOI@m59ftp?$AA@ 00485288     config.obj
 0002:00010290       ??_C@_08FJIAHGMM@Password?$AA@ 00485290     config.obj
 0002:0001029c       ??_C@_08DBLEEAME@b58Iz3xp?$AA@ 0048529c     config.obj
 0002:000102a8       ??_C@_07OBPHANNH@?$FLMySQL?$FN?$AA@ 004852a8     config.obj
 0002:000102b0       ??_C@_04NBFCGMPH@root?$AA@ 004852b0     config.obj
 0002:000102b8       ??_C@_04CPPPJGME@Host?$AA@ 004852b8     config.obj
 0002:000102c0       ??_C@_09IPAEKDAI@localhost?$AA@ 004852c0     config.obj
 0002:000102cc       ??_C@_08HDBDMMBI@Database?$AA@ 004852cc     config.obj
 0002:000102d8       ??_C@_08OACKDCNH@meridian?$AA@ 004852d8     config.obj
 0002:000102e4       ??_C@_08MAJLOKOI@?$FLBlakod?$FN?$AA@ 004852e4     config.obj
 0002:000102f0       ??_C@_0M@LAAPJOOM@MatchesList?$AA@ 004852f0     config.obj
 0002:000102fc       ??_C@_05CLDMBJBA@10000?$AA@ 004852fc     config.obj
 0002:00010304       ??_C@_0CE@GPAJDJHE@config?5option?5listed?5more?5than?5o@ 00485304     config.obj
 0002:00010328       ??_C@_0BI@OKPKCJLB@invalid?5path?9?9not?5found?$AA@ 00485328     config.obj
 0002:00010340       ??_C@_01KICIPPFI@?2?$AA@   00485340     config.obj
 0002:00010344       ??_C@_08DOCHLGNA@config?4c?$AA@ 00485344     config.obj
 0002:00010350       ??_C@_0M@HMGIONE@invalid?5int?$AA@ 00485350     config.obj
 0002:0001035c       ??_C@_0N@JHOOOOAN@invalid?5bool?$AA@ 0048535c     config.obj
 0002:0001036c       ??_C@_03JBGLIHDD@?$AN?6?$BK?$AA@ 0048536c     config.obj
 0002:00010370       ??_C@_0CA@KOJHKODF@AddConfig?5can?8t?5handle?5type?5?$CFi?6?$AA@ 00485370     config.obj
 0002:00010390       ??_C@_0CN@ENECBAA@GetConfigByID?5got?5invalid?5reques@ 00485390     config.obj
 0002:000103c0       ??_C@_0BM@OIMAHFNF@ConfigStr?5can?8t?5find?5id?5?$CFi?6?$AA@ 004853c0     config.obj
 0002:000103dc       ??_C@_0CC@OBKKGEJP@ConfigStr?5found?5id?5?$CFi?5is?5not?5str@ 004853dc     config.obj
 0002:00010400       ??_C@_0CC@KJLNKDAC@ConfigStr?5found?5id?5?$CFi?5is?5dynamic@ 00485400     config.obj
 0002:00010424       ??_C@_0BM@NINFFHCG@ConfigInt?5can?8t?5find?5id?5?$CFi?6?$AA@ 00485424     config.obj
 0002:00010440       ??_C@_0CC@JLHIHFBL@ConfigInt?5found?5id?5?$CFi?5is?5not?5int@ 00485440     config.obj
 0002:00010464       ??_C@_0BN@IHCCEJPH@ConfigBool?5can?8t?5find?5id?5?$CFi?6?$AA@ 00485464     config.obj
 0002:00010484       ??_C@_0CE@LBOGBPMP@ConfigBool?5found?5id?5?$CFi?5is?5not?5bo@ 00485484     config.obj
 0002:000104a8       ??_C@_0CA@NHGABNFA@LockConfigStr?5can?8t?5find?5id?5?$CFi?6?$AA@ 004854a8     config.obj
 0002:000104c8       ??_C@_0CG@GEMJGGNA@LockConfigStr?5found?5id?5?$CFi?5is?5not@ 004854c8     config.obj
 0002:000104f0       ??_C@_0BP@IGOPCMPD@SetConfigInt?5can?8t?5find?5id?5?$CFi?6?$AA@ 004854f0     config.obj
 0002:00010510       ??_C@_0CF@KODNDCCG@SetConfigInt?5found?5id?5?$CFi?5is?5not?5@ 00485510     config.obj
 0002:00010538       ??_C@_0CJ@EIGOHCLH@SetConfigInt?5found?5id?5?$CFi?5is?5not?5@ 00485538     config.obj
 0002:00010564       ??_C@_0CA@HBMFFFNH@SetConfigBool?5can?8t?5find?5id?5?$CFi?6?$AA@ 00485564     config.obj
 0002:00010584       ??_C@_0CH@DDLGLGAH@SetConfigBool?5found?5id?5?$CFi?5is?5not@ 00485584     config.obj
 0002:000105ac       ??_C@_0CK@JLLHNOFK@SetConfigBool?5found?5id?5?$CFi?5is?5not@ 004855ac     config.obj
 0002:000105d8       ??_C@_0BP@LGPKAOAA@SetConfigStr?5can?8t?5find?5id?5?$CFi?6?$AA@ 004855d8     config.obj
 0002:000105f8       ??_C@_0CF@NEOPCDKC@SetConfigStr?5found?5id?5?$CFi?5is?5not?5@ 004855f8     config.obj
 0002:00010620       ??_C@_0CJ@IDCKHFBF@SetConfigStr?5found?5id?5?$CFi?5is?5not?5@ 00485620     config.obj
 0002:0001064c       ??_C@_0DH@DELAJGGF@LoadConfig?5can?8t?5open?5?$CFs?0?5using?5@ 0048564c     config.obj
 0002:00010684       ??_C@_0DG@NHLMFIDE@LoadConfigLine?5found?5invalid?5gro@ 00485684     config.obj
 0002:000106bc       ??_C@_0DJ@MOCDHJCJ@LoadConfigLine?5found?5extra?5stuff@ 004856bc     config.obj
 0002:000106f8       ??_C@_0CP@DFDFGCMH@LoadConfig?5found?5nonexistent?5gro@ 004856f8     config.obj
 0002:00010728       ??_C@_0DH@OBGKGOAI@LoadConfig?5found?5data?5before?5a?5g@ 00485728     config.obj
 0002:00010760       ??_C@_0CJ@GICNAGIC@LoadConfig?5error?5?$CFs?5?$CI?$CFi?$CJ?3?5no?5dat@ 00485760     config.obj
 0002:0001078c       ??_C@_0CG@CJLIANEA@LoadConfig?5error?5?$CFs?5?$CI?$CFi?$CJ?3?5?$GA?$CFs?8?5i@ 0048578c     config.obj
 0002:000107b4       ??_C@_0CG@FDIJEEBP@LoadConfig?5can?8t?5match?5value?5?$CFs?5@ 004857b4     config.obj
 0002:000107e0       ??_C@_0BGF@NKOCHACF@?7CREATE?5TABLE?5?$GAplayer_money_tota@ 004857e0     database.obj
 0002:00010948       ??_C@_0BDD@GBNNACCO@?7CREATE?5TABLE?5?$GAmoney_created?$GA?7?7?7@ 00485948     database.obj
 0002:00010a80       ??_C@_0BLG@NKODIICB@?7CREATE?5TABLE?5?$GAplayer_logins?$GA?7?7?7@ 00485a80     database.obj
 0002:00010c38       ??_C@_0CGI@OFAIMEGB@?7CREATE?5TABLE?5?$GAplayer_damaged?$GA?7?7@ 00485c38     database.obj
 0002:00010ea0       ??_C@_0CDB@NOCEIKOH@?7CREATE?5TABLE?5?$GAplayer_death?$GA?7?7?7?7@ 00485ea0     database.obj
 0002:000110d8       ??_C@_0EPE@JJDJIMMB@?7CREATE?5TABLE?5?$GAplayer?$GA?5?5?5?5?5?7?7?7?7?7@ 004860d8     database.obj
 0002:000115d0       ??_C@_0DCE@KBPOAMOE@?5?5?5CREATE?5TABLE?5?$GAguild?$GA?5?5?5?5?5?5?5?5?5@ 004865d0     database.obj
 0002:000118f4       ??_C@_0CK@BHMFKMOP@DROP?5PROCEDURE?5IF?5EXISTS?5WriteTo@ 004868f4     database.obj
 0002:00011920       ??_C@_0CM@EPNHDBNK@DROP?5PROCEDURE?5IF?5EXISTS?5WriteMo@ 00486920     database.obj
 0002:0001194c       ??_C@_0CL@NFAGCLAE@DROP?5PROCEDURE?5IF?5EXISTS?5WritePl@ 0048694c     database.obj
 0002:00011978       ??_C@_0DC@GIMGANOC@DROP?5PROCEDURE?5IF?5EXISTS?5WritePl@ 00486978     database.obj
 0002:000119ac       ??_C@_0CL@GOMMEAFF@DROP?5PROCEDURE?5IF?5EXISTS?5WritePl@ 004869ac     database.obj
 0002:000119d8       ??_C@_0CG@KHHEBKJK@DROP?5PROCEDURE?5IF?5EXISTS?5WritePl@ 004869d8     database.obj
 0002:00011a00       ??_C@_0CN@PEJGDECN@DROP?5PROCEDURE?5IF?5EXISTS?5WritePl@ 00486a00     database.obj
 0002:00011a30       ??_C@_0CF@FDFJJBME@DROP?5PROCEDURE?5IF?5EXISTS?5WriteGu@ 00486a30     database.obj
 0002:00011a58       ??_C@_0CM@HGBGPCPC@DROP?5PROCEDURE?5IF?5EXISTS?5WriteGu@ 00486a58     database.obj
 0002:00011a88       ??_C@_0PB@JOOAPDJC@?7CREATE?5PROCEDURE?5WriteTotalMone@ 00486a88     database.obj
 0002:00011b80       ??_C@_0OD@DFKCEJDL@?7CREATE?5PROCEDURE?5WriteMoneyCrea@ 00486b80     database.obj
 0002:00011c68       ??_C@_0BHE@FFKGDJOP@?7CREATE?5PROCEDURE?5WritePlayerLog@ 00486c68     database.obj
 0002:00011de0       ??_C@_0CHG@OBAMFNPM@?7CREATE?5PROCEDURE?5WritePlayerAss@ 00486de0     database.obj
 0002:00012058       ??_C@_0CBG@ICHPLNAF@?7CREATE?5PROCEDURE?5WritePlayerDea@ 00487058     database.obj
 0002:00012270       ??_C@_0IKA@FGLLHDA@?7CREATE?5PROCEDURE?5WritePlayer?$CI?7?5@ 00487270     database.obj
 0002:00012b10       ??_C@_0BJB@KLLIIGMK@?7CREATE?5PROCEDURE?5WritePlayerSui@ 00487b10     database.obj
 0002:00012ca8       ??_C@_0CKF@MPHFAFJC@?7CREATE?5PROCEDURE?5WriteGuild?$CI?5?5?5@ 00487ca8     database.obj
 0002:00012f50       ??_C@_0BGN@JGHNOKOP@?7CREATE?5PROCEDURE?5WriteGuildDisb@ 00487f50     database.obj
 0002:000130c0       ??_C@_0BJ@DGHNLBOD@CALL?5WriteTotalMoney?$CI?$DP?$CJ?$DL?$AA@ 004880c0     database.obj
 0002:000130dc       ??_C@_0BL@GENIFFKG@CALL?5WriteMoneyCreated?$CI?$DP?$CJ?$DL?$AA@ 004880dc     database.obj
 0002:000130f8       ??_C@_0BO@LDPFAFEE@CALL?5WritePlayerLogin?$CI?$DP?0?$DP?0?$DP?$CJ?$DL?$AA@ 004880f8     database.obj
 0002:00013118       ??_C@_0CN@KBABPBMH@CALL?5WritePlayerAssessDamage?$CI?$DP?0?$DP@ 00488118     database.obj
 0002:00013148       ??_C@_0CC@HBKCJBBP@CALL?5WritePlayerDeath?$CI?$DP?0?$DP?0?$DP?0?$DP?0?$DP?$CJ@ 00488148     database.obj
 0002:0001316c       ??_C@_0CN@OOGNKBJG@CALL?5WritePlayer?$CI?$DP?0?$DP?0?$DP?0?$DP?0?$DP?0?$DP?0?$DP?0?$DP@ 0048816c     database.obj
 0002:0001319c       ??_C@_0BO@OMMGOGMP@CALL?5WritePlayerSuicide?$CI?$DP?0?$DP?$CJ?$DL?$AA@ 0048819c     database.obj
 0002:000131bc       ??_C@_0BI@HBLODMEE@CALL?5WriteGuild?$CI?$DP?0?$DP?0?$DP?$CJ?$DL?$AA@ 004881bc     database.obj
 0002:000131d4       ??_C@_0BL@FODCDEGM@CALL?5WriteGuildDisband?$CI?$DP?$CJ?$DL?$AA@ 004881d4     database.obj
 0002:000131f0       ??_C@_0CP@ILDDKBBO@Heap?5debugging?5not?5supported?5wit@ 004881f0     debug.obj
 0002:00013220       ??_C@_07LJAOLAEP@debug?4c?$AA@ 00488220     debug.obj
 0002:00013228       ??_C@_0CH@PHMLADJM@AddDLlist?5got?5bad?5time?5?$CFi?5for?5fi@ 00488228     dllist.obj
 0002:00013250       ??_C@_0N@FHKKOJPM@packages?4txt?$AA@ 00488250     dllist.obj
 0002:00013260       ??_C@_0DG@JENOODKF@AddBuiltinDLlist?5can?8t?5open?5?$CFs?5t@ 00488260     dllist.obj
 0002:00013298       ??_C@_0CH@OICNFCDP@AddBuiltInDLlist?5?$CI?$CFi?$CJ?5can?8t?5read@ 00488298     dllist.obj
 0002:000132c0       ??_C@_0CH@CKLOEKPP@AddBuiltInDLlist?5?$CI?$CFi?$CJ?5can?8t?5read@ 004882c0     dllist.obj
 0002:000132e8       ??_C@_0CJ@JEIHDJEM@BlakMoveFile?5error?5moving?5?$CFs?5to?5@ 004882e8     files.obj
 0002:00013314       ??_C@_0CF@CINDDJLD@BlakMoveFile?5error?5deleting?5?$CFs?5?$CI@ 00488314     files.obj
 0002:0001333c       ??_C@_0BD@OLBABOEK@vector?$DMT?$DO?5too?5long?$AA@ 0048833c     files.obj
 0002:00013350       ??_C@_0BA@JFNIOLAK@string?5too?5long?$AA@ 00488350     files.obj
 0002:00013360       ??_C@_0BI@CFPLBAOH@invalid?5string?5position?$AA@ 00488360     files.obj
 0002:00013378       ??_C@_0FD@OFBKPEKL@GameProcessSessionTimer?5logging?5@ 00488378     game.obj
 0002:000133cc       ??_C@_0DC@FPGJNLOM@GameProcessSessionBuffer?5got?5mes@ 004883cc     game.obj
 0002:00013400       ??_C@_0DM@GNGHLOEA@GameProcessSessionBuffer?5found?5i@ 00488400     game.obj
 0002:0001343c       ??_C@_0DB@BGCKAGHH@GPSB?5released?5mutex?5it?5didn?8t?5ow@ 0048843c     game.obj
 0002:00013470       ??_C@_0CN@IKMDOLLI@GPSB?5bailed?5waiting?5for?5mutex?5on@ 00488470     game.obj
 0002:000134a0       ??_C@_0CC@GFEJMKAL@GameSyncInputChar?5can?8t?5get?5here@ 004884a0     game.obj
 0002:000134c4       ??_C@_01LKDEMHDF@s?$AA@    004884c4     game.obj
 0002:000134c8       ??_C@_0DF@NANINOCE@GameProtocolParse?5found?5account?5@ 004884c8     game.obj
 0002:00013500       ??_C@_0DF@OBDAMELJ@GameProtocolParse?5found?5account?5@ 00488500     game.obj
 0002:00013538       ??_C@_0DK@JKPGJLGF@GameProtocolParse?5found?5account?5@ 00488538     game.obj
 0002:00013578       ??_C@_0ED@EHJAPKEN@GameProtocolParse?5got?5acct?5?$CFi?5tr@ 00488578     game.obj
 0002:000135bc       ??_C@_0DN@EJKHFFNO@GameProtocolParse?5can?8t?5find?5use@ 004885bc     game.obj
 0002:000135fc       ??_C@_0DP@OEMAJGKM@GameProtocolParse?5got?5admin?5comm@ 004885fc     game.obj
 0002:00013640       ??_C@_0EC@EOFMOHHM@GameProtocolParse?5got?5DM?5command@ 00488640     game.obj
 0002:00013684       ??_C@_0DO@EHNACIDC@GameSendEachUserChoice?5object?5?$CFi@ 00488684     game.obj
 0002:000136c8       ??_C@_0EE@EPEEJJAL@GameSendEachUserChoice?5can?8t?5fin@ 004886c8     game.obj
 0002:0001370c       ??_C@_0CI@MFPOICGJ@DM?5Command?5GOROOM?5?$CIby?5number?$CJ?5di@ 0048870c     game.obj
 0002:00013734       ??_C@_0DP@KHNKEPBE@DM?5Command?5GOROOM?5?$CIby?5number?$CJ?5di@ 00488734     game.obj
 0002:00013774       ??_C@_0BM@FABMFOCN@DM?5Command?5GOROOM?5disabled?4?$AA@ 00488774     game.obj
 0002:00013790       ??_C@_0DD@HOBJKFBP@DM?5Command?5GOROOM?5disabled?5for?5D@ 00488790     game.obj
 0002:000137c4       ??_C@_0CF@EGKLFKDA@send?5object?5?$CFi?5teleportto?5rid?5in@ 004887c4     game.obj
 0002:000137ec       ??_C@_07DEJGOPDC@?$HOB?$DO?5?$CFs?6?$AA@ 004887ec     game.obj
 0002:000137f4       ??_C@_0CO@PNKCOFLF@send?5object?5?$CFi?5admingotoobject?5w@ 004887f4     game.obj
 0002:00013824       ??_C@_0CO@JFEELMOD@send?5object?5?$CFs?5admingotoobject?5w@ 00488824     game.obj
 0002:00013854       ??_C@_0CO@OGPDKJLF@GameDMCommand?5got?5invalid?5DM?5com@ 00488854     game.obj
 0002:00013884       ??_C@_0BN@JOJIEOPO@BLAKSTON?3?5Greenwich?5Q?5Zjiria?$AA@ 00488884     game.obj
 0002:000138a4       ??_C@_0DG@MNJNPLM@?$CK?$CK?$CK?5GARBAGE?5COLLECTION?3?5ALL?5REFE@ 004888a4     garbage.obj
 0002:000138dc       ??_C@_0CP@MBCIAKCN@MarkTableListNode?5death?5by?5garba@ 004888dc     garbage.obj
 0002:0001390c       ??_C@_0CK@DJMBBIBG@MarkListNode?5death?5by?5garbage?5co@ 0048890c     garbage.obj
 0002:00013938       ??_C@_0DI@KOELLJLC@RenumberListNodeReferences?5death@ 00488938     garbage.obj
 0002:00013970       ??_C@_0DG@EJJAPCFB@RenumberListNodeReferences?5unren@ 00488970     garbage.obj
 0002:000139a8       ??_C@_0DF@CBOCFDN@RenumberTableReferences?5death?5by@ 004889a8     garbage.obj
 0002:000139e0       ??_C@_0CP@HGKHGGLK@RenumberTableReferences?5unrenumb@ 004889e0     garbage.obj
 0002:00013a10       ??_C@_0CI@FGFDCBEE@MarkObject?5death?5by?5garbage?5coll@ 00488a10     garbage.obj
 0002:00013a38       ??_C@_0DA@IKOABMFP@MarkListNodeObject?5death?5by?5garb@ 00488a38     garbage.obj
 0002:00013a68       ??_C@_0CN@FELJBGBO@MarkTableObject?5death?5by?5garbage@ 00488a68     garbage.obj
 0002:00013a98       ??_C@_0DI@KCHJCNEI@RenumberObjectReferences?5got?5obj@ 00488a98     garbage.obj
 0002:00013ad0       ??_C@_0EE@LEHIFNMJ@RenumberListNodesReferences?5got?5@ 00488ad0     garbage.obj
 0002:00013b18       ??_C@_0ED@GPIPLBNL@RenumberTableObjectReferences?5go@ 00488b18     garbage.obj
 0002:00013b5c       ??_C@_0DK@FKNBFOFA@RenumberUserObjectReferences?5dea@ 00488b5c     garbage.obj
 0002:00013b98       ??_C@_0DN@PNBKABBM@RenumberSessionObjectReferences?5@ 00488b98     garbage.obj
 0002:00013bd8       ??_C@_0EH@IDHEEHJD@RenumberTimerObjectReferences?5de@ 00488bd8     garbage.obj
 0002:00013c20       ??_C@_0DC@BKEOOMFG@ResetObjectReference?5death?5by?5ga@ 00488c20     garbage.obj
 0002:00013c58       ??_C@_0EA@LGMGKEHN@ResetTimerReference?5found?5a?5refe@ 00488c58     garbage.obj
 0002:00013c98       ??_C@_0CI@IPCHFPGJ@MarkString?5death?5by?5garbage?5coll@ 00488c98     garbage.obj
 0002:00013cc0       ??_C@_0DC@PNDMLDNP@ResetStringReference?5death?5by?5ga@ 00488cc0     garbage.obj
 0002:00013cf4       ??_C@_0DG@GEIKBCOB@RenumberStringReferences?5unrenum@ 00488cf4     garbage.obj
 0002:00013d2c       ??_C@_08DPEPLACP@blakserv?$AA@ 00488d2c     interface_windows.obj
 0002:00013d38       ??_C@_0N@KPDNKMDE@riched20?4dll?$AA@ 00488d38     interface_windows.obj
 0002:00013d48       ??_C@_0BP@KBNBMLFP@Are?5you?5sure?5you?5want?5to?5exit?$DP?$AA@ 00488d48     interface_windows.obj
 0002:00013d68       ??_C@_04LBABLPF@Exit?$AA@  00488d68     interface_windows.obj
 0002:00013d70       ??_C@_09IAJPBCOI@Save?5Game?$AA@ 00488d70     interface_windows.obj
 0002:00013d7c       ??_C@_0O@CJCFGAFE@Reload?5System?$AA@ 00488d7c     interface_windows.obj
 0002:00013d8c       ??_C@_0BD@LDFMGMNG@Message?5of?5the?5Day?$AA@ 00488d8c     interface_windows.obj
 0002:00013da0       ??_C@_05BDOHFCKE@About?$AA@ 00488da0     interface_windows.obj
 0002:00013da8       ??_C@_03NLEFPEMI@?$CF3i?$AA@ 00488da8     interface_windows.obj
 0002:00013dac       ??_C@_0DM@OCBFEPCL@InterfaceWindowProc?5sessions_log@ 00488dac     interface_windows.obj
 0002:00013de8       ??_C@_06OAFOBKHE@signal?$AA@ 00488de8     interface_windows.obj
 0002:00013df0       ??_C@_03BOBKODAB@?5?5?$DP?$AA@ 00488df0     interface_windows.obj
 0002:00013df4       ??_C@_0CF@HILGIOKE@StartAsyncSocketAccept?5got?5error@ 00488df4     interface_windows.obj
 0002:00013e1c       ??_C@_0CF@FEOBFENH@StartAsyncSocketSelect?5got?5error@ 00488e1c     interface_windows.obj
 0002:00013e44       ??_C@_0CJ@EIGFGEEH@Interface?5can?8t?5make?5session?5for@ 00488e44     interface_windows.obj
 0002:00013e70       ??_C@_0BE@LFKCEOGO@interface_windows?4c?$AA@ 00488e70     interface_windows.obj
 0002:00013e84       ??_C@_0BG@BFFCBMEL@No?5errors?5on?5startup?6?$AA@ 00488e84     interface_windows.obj
 0002:00013e9c       ??_C@_07DBGNBOAC@?$CGStatus?$AA@ 00488e9c     interface_windows.obj
 0002:00013ea4       ??_C@_09MKDNJPMF@?$CGChannels?$AA@ 00488ea4     interface_windows.obj
 0002:00013eb0       ??_C@_0BA@MJANDBJM@?$CGAdministration?$AA@ 00488eb0     interface_windows.obj
 0002:00013ec0       ??_C@_08KOFIJIMC@Terminal?$AA@ 00488ec0     interface_windows.obj
 0002:00013ecc       ??_C@_0BA@EHLJJKFN@ToolbarWindow32?$AA@ 00488ecc     interface_windows.obj
 0002:00013edc       ??_C@_03JJICPPMO@?5?50?$AA@ 00488edc     interface_windows.obj
 0002:00013ee0       ??_C@_05NJOHFLJC@Since?$AA@ 00488ee0     interface_windows.obj
 0002:00013ee8       ??_C@_05JNKNAC@State?$AA@  00488ee8     interface_windows.obj
 0002:00013ef0       ??_C@_04LMIAFEOL@From?$AA@ 00488ef0     interface_windows.obj
 0002:00013ef8       ??_C@_08MOCEJGGL@?$CFi?5bytes?$AA@ 00488ef8     interface_windows.obj
 0002:00013f04       ??_C@_06EPJHPMLA@?$CF?9200s?$AA@ 00488f04     interface_windows.obj
 0002:00013f0c       ??_C@_08GMCHKNGH@0?1second?$AA@ 00488f0c     interface_windows.obj
 0002:00013f18       ??_C@_09BOCBOOAG@?$CFi?1second?$AA@ 00488f18     interface_windows.obj
 0002:00013f24       ??_C@_0BE@ENPOPFOG@The?5game?5is?5locked?4?$AA@ 00488f24     interface_windows.obj
 0002:00013f38       ??_C@_0BG@NJDBAEB@InterfaceSave?5saving?6?$AA@ 00488f38     interface_windows.obj
 0002:00013f50       ??_C@_0BJ@JFJLOIEJ@GC?5completed?5in?5?$CFld?5ms?4?6?$AA@ 00488f50     interface_windows.obj
 0002:00013f6c       ??_C@_0BP@GNMAIADP@Save?5all?5completed?5in?5?$CFld?5ms?4?6?$AA@ 00488f6c     interface_windows.obj
 0002:00013f8c       ??_C@_0CD@BHDBLCAF@Total?5interface?5save?5time?5?$CFld?5ms@ 00488f8c     interface_windows.obj
 0002:00013fb0       ??_C@_0CI@LPJODJOM@InterfaceReloadSystem?5reloading?5@ 00488fb0     interface_windows.obj
 0002:00013fd8       ??_C@_0DK@CBIEJMOJ@InterfaceReloadSystem?5couldn?8t?5l@ 00488fd8     interface_windows.obj
 0002:00014014       ??_C@_0BG@IMLIKMOF@File?5?$CFs?5line?5?$CFi?$AN?6?$AN?6?$CFs?$AA@ 00489014     interface_windows.obj
 0002:0001402c       ??_C@_0M@HFFOIJBL@Fatal?5Error?$AA@ 0048902c     interface_windows.obj
 0002:00014038       ??_C@_0BA@JKDADOG@intstringhash?4c?$AA@ 00489038     intstringhash.obj
 0002:00014048       ??_C@_0M@KGLKEJIO@kodbase?4txt?$AA@ 00489048     kodbase.obj
 0002:00014054       ??_C@_0BO@HKODHDAC@LoadKodBase?5can?8t?5open?5?$CFs?$CB?$CB?$CB?6?$AA@ 00489054     kodbase.obj
 0002:00014074       ??_C@_02OJDBNLEE@?5?7?$AA@ 00489074     kodbase.obj
 0002:00014078       ??_C@_0CL@JIDMJNG@LoadKodBase?5line?5?$CFi?5Bad?5type?5cha@ 00489078     kodbase.obj
 0002:000140a4       ??_C@_0CI@MPBHGHKJ@LoadKodBase?5line?5?$CFi?5Bad?5class?5en@ 004890a4     kodbase.obj
 0002:000140cc       ??_C@_0CK@CJDNDHIO@LoadKodBase?5line?5?$CFi?5Bad?5message?5@ 004890cc     kodbase.obj
 0002:000140f8       ??_C@_0CM@HJFGFGBH@LoadKodBase?5line?5?$CFi?5Bad?5paramete@ 004890f8     kodbase.obj
 0002:00014124       ??_C@_0CL@LDIIHEEL@LoadKodBase?5line?5?$CFi?5Bad?5resource@ 00489124     kodbase.obj
 0002:00014150       ??_C@_0CL@GGDBBDPO@LoadKodBase?5line?5?$CFi?5Bad?5property@ 00489150     kodbase.obj
 0002:0001417c       ??_C@_0CL@COMJNJMJ@LoadKodBase?5line?5?$CFi?5Bad?5classvar@ 0048917c     kodbase.obj
 0002:000141a8       ??_C@_0CP@GEONPFOG@LoadKodBase?5line?5?$CFi?5Unknown?5type@ 004891a8     kodbase.obj
 0002:000141d8       ??_C@_0CJ@IHKJMIKO@LoadKodbaseClass?5can?8t?5find?5clas@ 004891d8     kodbase.obj
 0002:00014204       ??_C@_0DC@BJINDJJJ@LoadKodbaseProperty?5has?5no?5curre@ 00489204     kodbase.obj
 0002:00014238       ??_C@_0DH@OIKGPJGB@LoadKodbaseClassVariable?5has?5no?5@ 00489238     kodbase.obj
 0002:00014270       ??_C@_09PDABMHKJ@kodbase?4c?$AA@ 00489270     kodbase.obj
 0002:0001427c       ??_C@_0CL@HPEIPHLO@AllocateListNode?5resized?5to?5?$CFi?5l@ 0048927c     list.obj
 0002:000142a8       ??_C@_0CB@OFNPIEAP@LoadList?5didn?8t?5make?5list?5id?5?$CFi?6@ 004892a8     list.obj
 0002:000142cc       ??_C@_0DF@BHJGMIAA@GetListNodeByID?5can?8t?5retrieve?5i@ 004892cc     list.obj
 0002:00014304       ??_C@_0DM@LCLPGDHK@AppendListElem?5couldn?8t?5create?5l@ 00489304     list.obj
 0002:00014340       ??_C@_0DK@BAAPKBCO@AppendListElem?5couldn?8t?5find?5lis@ 00489340     list.obj
 0002:0001437c       ??_C@_0DI@OFMLPAJN@Warning?0?5AppendListElem?5adding?5t@ 0048937c     list.obj
 0002:000143b4       ??_C@_0DA@CBMJCHGN@AppendListElem?5got?5invalid?5list?5@ 004893b4     list.obj
 0002:000143e4       ??_C@_0CE@GKJKNBNC@Cons?5couldn?8t?5create?5new?5list?5no@ 004893e4     list.obj
 0002:00014408       ??_C@_0DC@KKCBNHHJ@Nth?5found?5invalid?5list?5node?5some@ 00489408     list.obj
 0002:0001443c       ??_C@_0CF@DCCGOEBG@Nth?5can?8t?5go?5past?5end?5of?5list?5?$CFi@ 0048943c     list.obj
 0002:00014464       ??_C@_0DI@HDDFDCEM@IsListMatch?5had?5invalid?5list?5nod@ 00489464     list.obj
 0002:0001449c       ??_C@_0DI@EEIDAJBM@IsListMatch?5had?5invalid?5list?5nod@ 0048949c     list.obj
 0002:000144d4       ??_C@_0DJ@NOFBECGC@IsListMatch?5had?5invalid?5list?5nod@ 004894d4     list.obj
 0002:00014510       ??_C@_0DJ@OJOHHJDC@IsListMatch?5had?5invalid?5list?5nod@ 00489510     list.obj
 0002:0001454c       ??_C@_0BP@JLJJGADM@Last?5given?5invalid?5list?5ID?5?$CFi?6?$AA@ 0048954c     list.obj
 0002:0001456c       ??_C@_0DD@IIBCJEID@Last?5found?5invalid?5list?5node?5som@ 0048956c     list.obj
 0002:000145a0       ??_C@_0DF@NMMFGDAE@SetNth?5found?5invalid?5list?5node?5s@ 004895a0     list.obj
 0002:000145d8       ??_C@_0CI@HLKNOILK@SetNth?5can?8t?5go?5past?5end?5o?8?5list@ 004895d8     list.obj
 0002:00014600       ??_C@_0DL@EKJJDNMJ@SwapListElem?5found?5invalid?5list?5@ 00489600     list.obj
 0002:0001463c       ??_C@_0CO@IGAELIOK@SwapListElem?5can?8t?5go?5past?5end?5o@ 0048963c     list.obj
 0002:0001466c       ??_C@_0CN@OCAHCHDC@GetAllListNodesByClass?5got?5inval@ 0048966c     list.obj
 0002:0001469c       ??_C@_0DE@MHNIEIKP@GetAllListNodesByClass?5got?5inval@ 0048969c     list.obj
 0002:000146d0       ??_C@_0CN@GMNGCOOE@GetAllListNodesByClass?5can?8t?5fin@ 004896d0     list.obj
 0002:00014700       ??_C@_0DJ@FKCMPNFN@GetAllListNodesByClass?5can?8t?5fin@ 00489700     list.obj
 0002:0001473c       ??_C@_0CG@GFGOKKCO@GetListElemByClass?5got?5invalid?5l@ 0048973c     list.obj
 0002:00014764       ??_C@_0CJ@LFGJJICJ@GetListElemByClass?5can?8t?5find?5ob@ 00489764     list.obj
 0002:00014790       ??_C@_0DF@OEEALHLF@GetListElemByClass?5can?8t?5find?5cl@ 00489790     list.obj
 0002:000147c8       ??_C@_0BP@NAKDIDHM@GetListNode?5got?5invalid?5list?4?6?$AA@ 004897c8     list.obj
 0002:000147e8       ??_C@_0CF@LBFFAFKJ@GetListNode?5called?5on?5invalid?5li@ 004897e8     list.obj
 0002:00014810       ??_C@_0BP@KKIDHLHA@GetListNode?5has?5invalid?5list?4?6?$AA@ 00489810     list.obj
 0002:00014830       ??_C@_0BP@GJKMIPME@ListCopy?5got?5invalid?5list?5?$CFi?4?6?$AA@ 00489830     list.obj
 0002:00014850       ??_C@_0CJ@PAFHHHOC@ListCopy?5couldn?8t?5allocate?5new?5n@ 00489850     list.obj
 0002:0001487c       ??_C@_0DG@FBNLGEMM@ListCopy?5got?5invalid?5list?5node?5s@ 0048987c     list.obj
 0002:000148b8       ??_C@_0EC@KAAFANPA@InsertListElem?5given?5invalid?5lis@ 004898b8     list.obj
 0002:000148fc       ??_C@_0CP@GHEJNAFC@InsertListElem?5couldn?8t?5allocate@ 004898fc     list.obj
 0002:0001492c       ??_C@_0DN@BNMKOAIE@InsertListElem?5found?5invalid?5lis@ 0048992c     list.obj
 0002:0001496c       ??_C@_0DB@PHNNJMCM@DelListElem?5can?8t?5find?5elem?5?$CFi?0?$CF@ 0048996c     list.obj
 0002:000149a0       ??_C@_0CK@GNOOJBHM@DelLastListElem?5given?5invalid?5li@ 004899a0     list.obj
 0002:000149cc       ??_C@_0DC@DIODOMIP@DelLastListElem?5got?5invalid?5list@ 004899cc     list.obj
 0002:00014a00       ??_C@_0CJ@KADBFGGC@SendListMessage?5can?8t?5find?5list?5@ 00489a00     list.obj
 0002:00014a2c       ??_C@_0DN@EBBMFEIJ@SendListMessage?5got?5invalid?5list@ 00489a2c     list.obj
 0002:00014a6c       ??_C@_0CO@NPCODBMJ@SendFirstListMessage?5can?8t?5find?5@ 00489a6c     list.obj
 0002:00014a9c       ??_C@_0DH@LMCKGJJK@SendFirstListMessage?5called?5on?5i@ 00489a9c     list.obj
 0002:00014ad4       ??_C@_0DF@MDJEMNAM@SendFirstListMessage?5can?8t?5find?5@ 00489ad4     list.obj
 0002:00014b0c       ??_C@_0DN@PIKCKOLA@SendFirstListMessage?5got?5invalid@ 00489b0c     list.obj
 0002:00014b4c       ??_C@_0CM@IMKJEMJO@SendNthListMessage?5can?8t?5find?5li@ 00489b4c     list.obj
 0002:00014b78       ??_C@_0DF@FKOHGPEB@SendNthListMessage?5called?5on?5inv@ 00489b78     list.obj
 0002:00014bb0       ??_C@_0DP@MMPDKEDL@SendNthListMessage?5got?5invalid?5l@ 00489bb0     list.obj
 0002:00014bf0       ??_C@_0DG@FEGDOFFP@SendNthListMessage?5called?5on?5inv@ 00489bf0     list.obj
 0002:00014c28       ??_C@_0DA@DPOLMLOA@SendListMessageByClass?5can?8t?5fin@ 00489c28     list.obj
 0002:00014c58       ??_C@_0DJ@CMMGPEKA@SendListMessageByClass?5can?8t?5fin@ 00489c58     list.obj
 0002:00014c94       ??_C@_0DJ@IDNNCLHG@SendListMessageByClass?5got?5inval@ 00489c94     list.obj
 0002:00014cd0       ??_C@_0DF@LOFKMDAP@SendFirstListMessageByClass?5can?8@ 00489cd0     list.obj
 0002:00014d08       ??_C@_0DP@INPOGOME@SendFirstListMessageByClass?5call@ 00489d08     list.obj
 0002:00014d48       ??_C@_0DO@EJECCCEG@SendFirstListMessageByClass?5can?8@ 00489d48     list.obj
 0002:00014d88       ??_C@_0DO@OGFJPNJA@SendFirstListMessageByClass?5got?5@ 00489d88     list.obj
 0002:00014dc8       ??_C@_0DI@MBEBALGI@SendFirstListMessageByClass?5can?8@ 00489dc8     list.obj
 0002:00014e00       ??_C@_0DD@DFOKMGOH@SendNthListMessageByClass?5can?8t?5@ 00489e00     list.obj
 0002:00014e34       ??_C@_0DJ@NDHLFPBI@SendNthListMessageByClass?5called@ 00489e34     list.obj
 0002:00014e70       ??_C@_0DM@NEEOKEGK@SendNthListMessageByClass?5can?8t?5@ 00489e70     list.obj
 0002:00014eac       ??_C@_0DM@HLFFHLLM@SendNthListMessageByClass?5got?5in@ 00489eac     list.obj
 0002:00014ee8       ??_C@_0DD@BJIFLFPK@SendNthListMessageByClass?5called@ 00489ee8     list.obj
 0002:00014f1c       ??_C@_0DJ@FDMKJMKM@MoveListNode?5can?8t?5find?5source?5?$CF@ 00489f1c     list.obj
 0002:00014f58       ??_C@_0DH@GLPKLBBL@MoveListNode?5can?8t?5find?5dest?5?$CFi?0@ 00489f58     list.obj
 0002:00014f90       ??_C@_0DC@CFPIGBDE@LoadAccounts?5can?8t?5open?5?$CFs?5to?5lo@ 00489f90     loadacco.obj
 0002:00014fc4       ??_C@_04IHEANEPO@?3?5?7?6?$AA@ 00489fc4     loadacco.obj
 0002:00014fcc       ??_C@_02NDKNKOCB@?3?6?$AA@ 00489fcc     loadacco.obj
 0002:00014fd0       ??_C@_0BA@PDLPEOIO@NEXT_ACCOUNT_ID?$AA@ 00489fd0     loadacco.obj
 0002:00014fe0       ??_C@_0DF@JEBEIMIG@LoadAccounts?5can?8t?5handle?5accoun@ 00489fe0     loadacco.obj
 0002:00015018       ??_C@_0CM@MPHLMPLE@LoadLineAccount?5?$CI?$CFi?$CJ?5found?5inval@ 0048a018     loadacco.obj
 0002:00015044       ??_C@_0L@DCNDOLKB@banned?4txt?$AA@ 0048a044     loadall.obj
 0002:00015050       ??_C@_0CB@JELPIPOB@LoadAll?5initializing?5a?5new?5game?6@ 0048a050     loadall.obj
 0002:00015074       ??_C@_09KACEGDEC@accounts?4?$AA@ 0048a074     loadall.obj
 0002:00015080       ??_C@_06DIJPEION@?$CFs?$CFs?$CFs?$AA@ 0048a080     loadall.obj
 0002:00015088       ??_C@_0DJ@MAGHNLCJ@LoadAll?5error?5loading?5accounts?0?5@ 0048a088     loadall.obj
 0002:000150c4       ??_C@_0CB@BGHALJMN@LoadAll?5loaded?5game?5saved?5at?5?$CFs?6@ 0048a0c4     loadall.obj
 0002:000150e8       ??_C@_09KOKHCDDB@striings?4?$AA@ 0048a0e8     loadall.obj
 0002:000150f4       ??_C@_09PMGCACMI@dynarscs?4?$AA@ 0048a0f4     loadall.obj
 0002:00015100       ??_C@_09EDCBHPAB@gameuser?4?$AA@ 0048a100     loadall.obj
 0002:0001510c       ??_C@_0CI@JOHLEDNM@LoadFromKod?5got?5invalid?5save?5gam@ 0048a10c     loadall.obj
 0002:00015134       ??_C@_0BK@MPPHMGO@LoadFromKod?5loading?5game?6?$AA@ 0048a134     loadall.obj
 0002:00015150       ??_C@_0CO@OFGJHJI@LoadFromKod?5couldn?8t?5reload?5all?0@ 0048a150     loadall.obj
 0002:00015180       ??_C@_0N@MGKEOMNG@lastsave?4txt?$AA@ 0048a180     loadall.obj
 0002:00015190       ??_C@_02MCBMIIIH@?5?6?$AA@ 0048a190     loadall.obj
 0002:00015194       ??_C@_08PIGBADPL@LASTSAVE?$AA@ 0048a194     loadall.obj
 0002:000151a0       ??_C@_0CM@OFEPKJFM@LoadControl?5file?5invalid?5data?5li@ 0048a1a0     loadall.obj
 0002:000151cc       ??_C@_0BD@LDONOM@LoadGame?5starting?6?$AA@ 0048a1cc     loadgame.obj
 0002:000151e0       ??_C@_0L@GNADGHGA@loadgame?4c?$AA@ 0048a1e0     loadgame.obj
 0002:000151ec       ??_C@_0DJ@CIENKJBC@LoadGame?5can?8t?5open?5?$CFs?5to?5load?5t@ 0048a1ec     loadgame.obj
 0002:00015228       ??_C@_0CG@DHKDAGEL@LoadGame?5exiting?5LoadGame?5?$CFu?5sec@ 0048a228     loadgame.obj
 0002:00015250       ??_C@_0CE@ELAECHPM@File?5?$CFs?5Line?5?$CFi?5couldn?8t?5read?5ty@ 0048a250     loadgame.obj
 0002:00015274       ??_C@_0DP@IFPIKLAG@LoadGameFile?5found?5invalid?5comma@ 0048a274     loadgame.obj
 0002:000152b4       ??_C@_0CK@LEDIFDMH@File?5?$CFs?5Line?5?$CFi?5not?5enough?5bytes@ 0048a2b4     loadgame.obj
 0002:000152e0       ??_C@_0DP@CCJLPDID@LoadGameObject?5found?5object?5?$CFi?5c@ 0048a2e0     loadgame.obj
 0002:00015320       ??_C@_0CF@KJOPPLMD@LoadGameObject?5can?8t?5load?5object@ 0048a320     loadgame.obj
 0002:00015348       ??_C@_0EC@GCECKJNL@LoadGameObject?5found?5object?5?$CFi?5c@ 0048a348     loadgame.obj
 0002:0001538c       ??_C@_0CF@MBHJFPCA@LoadGameList?5can?8t?5set?5list?5node@ 0048a38c     loadgame.obj
 0002:000153b4       ??_C@_0CD@BKGDCMCP@LoadGameTables?5can?8t?5set?5table?5?$CF@ 0048a3b4     loadgame.obj
 0002:000153d8       ??_C@_0DH@OFEMEFJA@LoadGameTables?5got?5incorrect?5tab@ 0048a3d8     loadgame.obj
 0002:00015410       ??_C@_0DH@GMOCKBLG@LoadGameTables?5got?5invalid?5table@ 0048a410     loadgame.obj
 0002:00015448       ??_C@_0CM@BBOEMKHH@File?5?$CFs?5Line?5?$CFi?5string?5too?5long?5@ 0048a448     loadgame.obj
 0002:00015474       ??_C@_0CC@CLJEIFD@LoadGameTimer?5can?8t?5set?5timer?5?$CFi@ 0048a474     loadgame.obj
 0002:00015498       ??_C@_1BG@LEFHGNKM@?$AAl?$AAo?$AAa?$AAd?$AAg?$AAa?$AAm?$AAe?$AA?4?$AAc?$AA?$AA@ 0048a498     loadgame.obj
 0002:000154b0       ??_C@_1BK@CNFGFJEL@?$AAl?$AAg?$AAp?$AA?9?$AA?$DO?$AAn?$AAa?$AAm?$AAe?$AAl?$AAe?$AAn?$AA?$AA@ 0048a4b0     loadgame.obj
 0002:000154d0       ??_C@_0EF@KLMBDNGC@LoadGameTranslateVal?5found?5saved@ 0048a4d0     loadgame.obj
 0002:00015518       ??_C@_0CN@DHNIOFLE@LoadGameTranslateVal?5unable?5to?5g@ 0048a518     loadgame.obj
 0002:00015548       ??_C@_0DH@LNGMCONA@LoadGameTranslateVal?5unable?5to?5l@ 0048a548     loadgame.obj
 0002:00015580       ??_C@_0DA@MDBCCPJD@LoadGameTranslateVal?5unable?5to?5g@ 0048a580     loadgame.obj
 0002:000155b0       ??_C@_0DK@NLDCDCKO@LoadGameTranslateVal?5unable?5to?5l@ 0048a5b0     loadgame.obj
 0002:000155ec       ??_C@_05HHPIJGNN@?$CK?4bof?$AA@ 0048a5ec     loadkod.obj
 0002:000155f4       ??_C@_0BL@GCGJDENK@LoadAllBofs?5can?8t?5load?5?$CFs?6?$AA@ 0048a5f4     loadkod.obj
 0002:00015610       ??_C@_0CK@DDFHPMLP@LoadBof?5loaded?5?$CFi?5of?5?$CFi?5found?5?4b@ 0048a610     loadkod.obj
 0002:0001563c       ??_C@_0BL@CPPJMGPN@LoadBofName?5can?8t?5open?5?$CFs?6?$AA@ 0048a63c     loadkod.obj
 0002:00015658       ??_C@_0CF@JCPCLEBC@LoadBofName?5?$CFs?5is?5not?5in?5BOF?5for@ 0048a658     loadkod.obj
 0002:00015680       ??_C@_0DA@HEOLODGL@LoadBofName?5?$CFs?5can?8t?5understand?5@ 0048a680     loadkod.obj
 0002:000156b0       ??_C@_09IGNKNJAO@loadkod?4c?$AA@ 0048a6b0     loadkod.obj
 0002:000156bc       ??_C@_0BK@ILKCLLEM@LoadRsc?5error?5loading?5?$CFs?6?$AA@ 0048a6bc     loadrsc.obj
 0002:000156d8       ??_C@_0CI@MCCGLHDI@LoadRsc?5loaded?5?$CFi?5of?5?$CFi?5found?5?$CFs@ 0048a6d8     loadrsc.obj
 0002:00015700       ??_C@_09JKMEMIGH@loadrsc?4c?$AA@ 0048a700     loadrsc.obj
 0002:0001570c       ??_C@_0CB@MAAFEDM@LoadDynamicRsc?5error?5loading?5?$CFs?6@ 0048a70c     loadrsc.obj
 0002:00015730       ??_C@_0DG@HBFLPIFP@LoadDynamicRscName?5can?8t?5underst@ 0048a730     loadrsc.obj
 0002:00015768       ??_C@_0DJ@KJJIAGFL@LoadDynamicRscName?5got?5invalid?5l@ 0048a768     loadrsc.obj
 0002:000157a8       ??_C@_0EC@FIMEGEPJ@LoadBlakodStrings?5can?8t?5open?5?$CFs?5@ 0048a7a8     loadstr.obj
 0002:000157ec       ??_C@_0BA@FMLMJELM@No?5error?5string?$AA@ 0048a7ec     main.obj
 0002:000157fc       ??_C@_0BG@NFGGLNCK@Starting?5MySQL?5writer?$AA@ 0048a7fc     main_windows.obj
 0002:00015814       ??_C@_0N@FGIHCLIM@Starting?5?$CFs?6?$AA@ 0048a814     main_windows.obj
 0002:00015824       ??_C@_0BP@NAHMGOLI@ExitServer?5terminating?5server?6?$AA@ 0048a824     main_windows.obj
 0002:00015844       ??_C@_04LJCKANJM@Bye?6?$AA@ 0048a844     maintenance.obj
 0002:0001584c       ??_C@_08NGDELMOA@memory?4c?$AA@ 0048a84c     memory.obj
 0002:00015858       ??_C@_06ENNEIMBA@String?$AA@ 0048a858     memory.obj
 0002:00015860       ??_C@_08FLGELGHE@Resource?$AA@ 0048a860     memory.obj
 0002:0001586c       ??_C@_07FFOFCADM@Session?$AA@ 0048a86c     memory.obj
 0002:00015874       ??_C@_04ODLBFFJE@User?$AA@ 0048a874     memory.obj
 0002:0001587c       ??_C@_06KKOJPGPE@Dllist?$AA@ 0048a87c     memory.obj
 0002:00015884       ??_C@_07HHDKBGMA@LoadBof?$AA@ 0048a884     memory.obj
 0002:0001588c       ??_C@_08KCHOLBGF@Systimer?$AA@ 0048a88c     memory.obj
 0002:00015898       ??_C@_06JOMCBIJL@Nameid?$AA@ 0048a898     memory.obj
 0002:000158a0       ??_C@_0BC@OBEGECOL@Object?5properties?$AA@ 0048a8a0     memory.obj
 0002:000158b4       ??_C@_0O@PIILMNHI@Configuration?$AA@ 0048a8b4     memory.obj
 0002:000158c4       ??_C@_0BA@LHLHBONO@Admin?5constants?$AA@ 0048a8c4     memory.obj
 0002:000158d4       ??_C@_07NIHFOFBK@Buffers?$AA@ 0048a8d4     memory.obj
 0002:000158dc       ??_C@_0N@NGIGLPAI@Game?5loading?$AA@ 0048a8dc     memory.obj
 0002:000158ec       ??_C@_06KOKNHOLC@Tables?$AA@ 0048a8ec     memory.obj
 0002:000158f4       ??_C@_0O@CBNNDEC@Socket?5blocks?$AA@ 0048a8f4     memory.obj
 0002:00015904       ??_C@_0M@NMHBKHIP@Game?5saving?$AA@ 0048a904     memory.obj
 0002:00015910       ??_C@_0DJ@CEALJLJJ@InitMemory?5FATAL?5there?5aren?8t?5na@ 0048a910     memory.obj
 0002:0001594c       ??_C@_0DK@CGDKGKNG@AllocateMemoryDebug?5zero?5byte?5me@ 0048a94c     memory.obj
 0002:00015988       ??_C@_0DF@NHNHHNEM@AllocateMemory?5allocating?5memory@ 0048a988     memory.obj
 0002:000159c0       ??_C@_0DD@DMCEFPK@AllocateMemory?5couldn?8t?5allocate@ 0048a9c0     memory.obj
 0002:000159f4       ??_C@_0BK@MJIEFJMM@Memory?5allocation?5failure?$AA@ 0048a9f4     memory.obj
 0002:00015a10       ??_C@_0EA@HFNPIIIP@AllocateMemoryCallocDebug?5zero?5b@ 0048aa10     memory.obj
 0002:00015a50       ??_C@_0EA@EFNMCNPE@AllocateMemoryCallocDebug?5alloca@ 0048aa50     memory.obj
 0002:00015a90       ??_C@_0DO@LLLFFBD@AllocateMemoryCallocDebug?5couldn@ 0048aa90     memory.obj
 0002:00015ad0       ??_C@_0CO@GADOCOFP@FreeMemory?5freeing?5memory?5of?5unk@ 0048aad0     memory.obj
 0002:00015b00       ??_C@_0DB@HIENEPOF@ResizeMemory?5resizing?5memory?5of?5@ 0048ab00     memory.obj
 0002:00015b34       ??_C@_0DO@LPBBMPK@ResizeMemory?5couldn?8t?5reallocate@ 0048ab34     memory.obj
 0002:00015b74       ??_C@_0BM@NOCEGFGO@Memory?5reallocation?5failure?$AA@ 0048ab74     memory.obj
 0002:00015b90       ??_C@_0CJ@FKBOFNIM@SetClassNumMessages?5can?8t?5find?5c@ 0048ab90     message.obj
 0002:00015bbc       ??_C@_0CA@HHDAEONB@AddMessage?5can?8t?5find?5class?5?$CFi?6?$AA@ 0048abbc     message.obj
 0002:00015bdc       ??_C@_0CE@FIHGPBJE@GetMessageByID?5can?8t?5find?5class?5@ 0048abdc     message.obj
 0002:00015c00       ??_C@_0CF@DOBCJAHN@GetMessageByName?5can?8t?5find?5name@ 0048ac00     message.obj
 0002:00015c28       ??_C@_08LNEOKFHF@motd?4txt?$AA@ 0048ac28     motd.obj
 0002:00015c34       ??_C@_0BI@LINPJOCM@LoadMotd?5can?8t?5move?5?$CFs?6?$AA@ 0048ac34     motd.obj
 0002:00015c4c       ??_C@_06LFEFMFPO@motd?4c?$AA@ 0048ac4c     motd.obj
 0002:00015c54       ??_C@_0CG@IDODHIEB@SetMotd?5error?5saving?5motd?5file?5t@ 0048ac54     motd.obj
 0002:00015c7c       ??_C@_0CH@OBGKOAPN@SetMotd?5error?5writing?5motd?5file?5@ 0048ac7c     motd.obj
 0002:00015ca4       ??_C@_08HPCLIEGI@nameid?4c?$AA@ 0048aca4     nameid.obj
 0002:00015cb0       ??_C@_0DB@OBPGHMJE@No?5memory?5allocated?5for?5name?5IDs@ 0048acb0     nameid.obj
 0002:00015ce4       ??_C@_0DJ@KNKIALIF@CreateNameID?5got?5different?5strin@ 0048ace4     nameid.obj
 0002:00015d20       ??_C@_0EA@HBAACMOJ@CreateNameID?5got?5table?5collision@ 0048ad20     nameid.obj
 0002:00015d60       ??_C@_08DJNBOGHI@object?4c?$AA@ 0048ad60     object.obj
 0002:00015d6c       ??_C@_0CE@JEOLBMBA@ResetObject?5can?8t?5find?5class?5id?5@ 0048ad6c     object.obj
 0002:00015d90       ??_C@_0CH@LKIBFPBM@AllocateObject?5can?8t?5find?5class?5@ 0048ad90     object.obj
 0002:00015db8       ??_C@_0CG@FLMMFICJ@AllocateObject?5resized?5to?5?$CFi?5obj@ 0048adb8     object.obj
 0002:00015de0       ??_C@_0DA@KDPNAALN@GetObjectByID?5can?8t?5retrieve?5inv@ 0048ade0     object.obj
 0002:00015e10       ??_C@_0ED@HCNONFGA@GetObjectByID?5can?8t?5retrieve?5del@ 0048ae10     object.obj
 0002:00015e58       ??_C@_0EK@DJHKALLC@GetObjectByID?5can?8t?5retrieve?5del@ 0048ae58     object.obj
 0002:00015ea4       ??_C@_0DA@NJKKFAOF@GetObjectByID?5can?8t?5retrieve?5inv@ 0048aea4     object.obj
 0002:00015ed4       ??_C@_0CF@KFJGBLEA@CreateObject?5can?8t?5find?5class?5id@ 0048aed4     object.obj
 0002:00015efc       ??_C@_0CF@LHDNPDOJ@LoadObject?5can?8t?5find?5class?5name@ 0048aefc     object.obj
 0002:00015f24       ??_C@_0CF@FHLOKOMA@LoadObject?5didn?8t?5make?5object?5id@ 0048af24     object.obj
 0002:00015f4c       ??_C@_0CO@NAHPKGNO@SetObjectPropertyByName?5can?8t?5fi@ 0048af4c     object.obj
 0002:00015f7c       ??_C@_0CN@LKDEJJCH@SetObjectPropertyByName?5can?8t?5fi@ 0048af7c     object.obj
 0002:00015fb0       ??_C@_0EB@EEGLLIF@SetObjectPropertyByName?5can?8t?5fi@ 0048afb0     object.obj
 0002:00015ff8       ??_C@_0EN@KAMODOHK@SetObjectPropertyByName?5property@ 0048aff8     object.obj
 0002:00016048       ??_C@_0DK@LEHPDPMJ@SetObjectPropertyByName?5property@ 0048b048     object.obj
 0002:00016088       ??_C@_0EO@LLLLMDIL@SetObjectProperties?5can?8t?5set?5in@ 0048b088     object.obj
 0002:000160d8       ??_C@_0DC@DOBEHPKI@DeleteBlakodObject?5can?8t?5get?5an?5@ 0048b0d8     object.obj
 0002:0001610c       ??_C@_0CI@KOLKPLHF@DeleteBlakodObject?5can?8t?5find?5cl@ 0048b10c     object.obj
 0002:00016134       ??_C@_0DH@DHKIMO@MoveObject?5can?8t?5find?5source?5?$CFi?0@ 0048b134     object.obj
 0002:00016170       ??_C@_0GE@HCBECMHH@ParseClientSendBlakod?5?$CFi?5got?5inv@ 0048b170     parsecli.obj
 0002:000161d8       ??_C@_0GO@HOELLDI@ParseClientSendBlakod?5?$CFi?5got?5inv@ 0048b1d8     parsecli.obj
 0002:00016248       ??_C@_0GL@NPKKECCA@ParseClientSendBlakod?5got?5invali@ 0048b248     parsecli.obj
 0002:000162b4       ??_C@_0CP@BGJJHGIM@ParseClientSendBlakod?5got?5zero?5l@ 0048b2b4     parsecli.obj
 0002:000162e4       ??_C@_0CO@FFKHJBCH@ParseClientSendBlakod?5got?5invali@ 0048b2e4     parsecli.obj
 0002:00016314       ??_C@_0DD@NBHHBLKI@ParseCientSendBlakod?5got?5invalid@ 0048b314     parsecli.obj
 0002:00016348       ??_C@_0DI@KMGIEJKI@ParseCientSendBlakod?5got?5invalid@ 0048b348     parsecli.obj
 0002:00016380       ??_C@_0DI@POHPECOJ@ParseClientSendBlakod?5got?5invali@ 0048b380     parsecli.obj
 0002:000163b8       ??_C@_0DH@CHJBFBIF@ParseClientSendBlakod?5found?5more@ 0048b3b8     parsecli.obj
 0002:000163f0       ??_C@_09IPHMNHPA@roofile?4c?$AA@ 0048b3f0     roofile.obj
 0002:000163fc       ??_C@_0CF@PAOGBEFF@LoadRoomData?5can?8t?5find?5resource@ 0048b3fc     roomdata.obj
 0002:00016424       ??_C@_0CC@BPCBFPII@LoadRoomData?5couldn?8t?5open?5?$CFs?$CB?$CB?$CB@ 0048b424     roomdata.obj
 0002:00016448       ??_C@_0CG@NAOPFNDF@UnloadRoomData?5called?5with?5NULL?5@ 0048b448     roomdata.obj
 0002:00016470       ??_C@_0CI@HLKKFBCM@UnloadRoomData?5couldn?8t?5get?5room@ 0048b470     roomdata.obj
 0002:00016498       ??_C@_0EB@NNEOOJOA@UnloadRoomData?5got?5NULL?5data?5for@ 0048b498     roomdata.obj
 0002:000164dc       ??_C@_0CF@LJDHPGIJ@Room?5?$CFi?5not?5freed?5in?5UnloadRoomD@ 0048b4dc     roomdata.obj
 0002:00016504       ??_C@_0BI@PCNLJEDF@No?5rooms?5table?5loaded?4?6?$AA@ 0048b504     roomdata.obj
 0002:0001651c       ??_C@_0CP@GGOCGCP@Room?5at?5position?5?$CFi?0?5roomdata?5?$CFi@ 0048b51c     roomdata.obj
 0002:0001654c       ??_C@_0CO@HJEKDJHP@SaveAccounts?5can?8t?5open?5?$CFs?5to?5sa@ 0048b54c     saveacco.obj
 0002:0001657c       ??_C@_0BE@NLKPBIDO@NEXT_ACCOUNT_ID?5?$CFi?6?$AA@ 0048b57c     saveacco.obj
 0002:00016590       ??_C@_0P@MGALNAOI@ACCOUNT?5?$CFi?3?$CFs?3?$AA@ 0048b590     saveacco.obj
 0002:000165a0       ??_C@_0BB@ODIIJEGM@?3?$CFi?3?$CFi?3?$CFi?3?$CFi?3?$CFs?6?$AA@ 0048b5a0     saveacco.obj
 0002:000165b4       ??_C@_0CA@LECGGJH@Saving?5game?5?$CItime?5stamp?5?$CFs?$CJ?4?4?4?6?$AA@ 0048b5b4     saveall.obj
 0002:000165d4       ??_C@_0CH@DLKAMOOP@Save?5game?5successful?5?$CItime?5stamp@ 0048b5d4     saveall.obj
 0002:00016600       ??_C@_0EI@DIDIDAKE@SaveContrtolFile?5can?8t?5open?5?$CFs?5t@ 0048b600     saveall.obj
 0002:00016648       ??_C@_02MAFKDGNO@?$CD?6?$AA@ 0048b648     saveall.obj
 0002:0001664c       ??_C@_0CJ@EALDBFCH@?$CD?5Control?5file?5for?5last?5successf@ 0048b64c     saveall.obj
 0002:00016678       ??_C@_0BC@PMFAIEBO@?$CD?5Files?5written?3?6?$AA@ 0048b678     saveall.obj
 0002:0001668c       ??_C@_09JFOOECMO@?$CD?5?$CFs?$CFs?$CFi?6?$AA@ 0048b68c     saveall.obj
 0002:00016698       ??_C@_0CC@FFKEOJBL@?$CD?5Last?5successful?5save?5was?5at?5?$CFs@ 0048b698     saveall.obj
 0002:000166bc       ??_C@_0N@HHGFGHBK@LASTSAVE?5?$CFi?6?$AA@ 0048b6bc     saveall.obj
 0002:000166cc       ??_C@_02GMLFBBN@wb?$AA@    0048b6cc     savegame.obj
 0002:000166d0       ??_C@_0CO@JCFBKIHO@SaveGame?5can?8t?5open?5?$CFs?5to?5save?5e@ 0048b6d0     savegame.obj
 0002:00016700       ??_C@_0L@EKMPEIPI@savegame?4c?$AA@ 0048b700     savegame.obj
 0002:00016710       ??_C@_0EN@GCKDMINN@SaveGameCopyStringBuffer?5line?5?$CFi@ 0048b710     savegame.obj
 0002:00016760       ??_C@_0CI@MDIONPMM@File?5?$CFs?5Line?5?$CFi?5error?5writing?5to@ 0048b760     savegame.obj
 0002:00016788       ??_C@_0CO@HLJPIAOO@SaveEachClass?5is?5not?5saving?5inva@ 0048b788     savegame.obj
 0002:000167b8       ??_C@_0DM@FKPAGAFE@SaveEachClass?5cannot?5find?5proper@ 0048b7b8     savegame.obj
 0002:000167f4       ??_C@_0DE@EOLENBON@SaveEachResource?5is?5not?5saving?5i@ 0048b7f4     savegame.obj
 0002:00016828       ??_C@_0CD@JDDIODEF@SaveEachObject?5can?8t?5get?5class?5?$CF@ 0048b828     savegame.obj
 0002:0001684c       ??_C@_0CD@PACJIOGP@SaveEachTimer?5can?8t?5get?5object?5?$CF@ 0048b84c     savegame.obj
 0002:00016870       ??_C@_0CO@MOJBPJHI@SaveEachTimer?5is?5not?5saving?5inva@ 0048b870     savegame.obj
 0002:000168a0       ??_C@_09FEKKPKBG@saversc?4c?$AA@ 0048b8a0     saversc.obj
 0002:000168ac       ??_C@_0CL@DHONKHFF@SaveDynamicRsc?5can?8t?5open?5?$CFs?5to?5@ 0048b8ac     saversc.obj
 0002:000168d8       ??_C@_0CH@IBOEMJGM@SaveDynamicRsc?5error?5writing?5to?5@ 0048b8d8     saversc.obj
 0002:00016900       ??_C@_0EM@KLFEEFJD@SaveRscCopyStringBuffer?5line?5?$CFi?5@ 0048b900     saversc.obj
 0002:0001694c       ??_C@_0CM@PPBLIIKD@SaveStrings?5can?8t?5open?5?$CFs?5to?5sav@ 0048b94c     savestr.obj
 0002:00016978       ??_C@_09MFHDMFFJ@savestr?4c?$AA@ 0048b978     savestr.obj
 0002:00016988       ??_C@_0EM@KBDDKJEA@SaveStrCopyStringBuffer?5line?5?$CFi?5@ 0048b988     savestr.obj
 0002:000169d4       ??_C@_0DG@BDJOKEC@?$FL?$CFs?$FN?5RetrieveClassVar?5class?5var?5@ 0048b9d4     sendmsg.obj
 0002:00016a0c       ??_C@_0DJ@CAGJOFIM@?$FL?$CFs?$FN?5RetrieveClassVar?5can?8t?5find@ 0048ba0c     sendmsg.obj
 0002:00016a48       ??_C@_0FG@KFKDOMDL@?$FL?$CFs?$FN?5RetrieveClassVar?5can?8t?5retr@ 0048ba48     sendmsg.obj
 0002:00016aa0       ??_C@_0M@CJNNIAFH@?$CF?915s?$CF?920s?6?$AA@ 0048baa0     sendmsg.obj
 0002:00016aac       ??_C@_0M@EGLGEMHP@?$CF?915s?$CF?920s?5?$AA@ 0048baac     sendmsg.obj
 0002:00016ab8       ??_C@_0N@CLKMIBPB@?$CFs?5?$DN?5?$CFs?5?$CFs?0?5?$AA@ 0048bab8     sendmsg.obj
 0002:00016ac8       ??_C@_0EJ@OEBPOMJN@PostBlakodMessage?5can?8t?5post?5MES@ 0048bac8     sendmsg.obj
 0002:00016b18       ??_C@_0EK@OAFFOPGN@SendTopLevelBlakodMessage?5called@ 0048bb18     sendmsg.obj
 0002:00016b68       ??_C@_0EF@FEJLLOPJ@SendTopLevelBlakodMessage?5too?5ma@ 0048bb68     sendmsg.obj
 0002:00016bb0       ??_C@_0EH@HEIEJNCI@?5?5OBJECT?5?$CFi?5CLASS?5?$CFs?5MESSAGE?5?$CFs?5@ 0048bbb0     sendmsg.obj
 0002:00016bf8       ??_C@_0EN@LLHDNOLB@SendTopLevelBlakodMessage?5return@ 0048bbf8     sendmsg.obj
 0002:00016c48       ??_C@_0CI@EPKNELHM@SendBlakodMessage?5can?8t?5find?5OBJ@ 0048bc48     sendmsg.obj
 0002:00016c70       ??_C@_0DB@NLHGGFGN@SendBlakodMessage?5OBJECT?5?$CFi?5can?8@ 0048bc70     sendmsg.obj
 0002:00016ca8       ??_C@_0FE@GJGEBDFK@SendBlakodMessage?5CLASS?5?$CFs?5?$CI?$CFi?$CJ?5@ 0048bca8     sendmsg.obj
 0002:00016d00       ??_C@_0ED@DMHCNCMH@SendBlakodMessage?5sending?5to?5CLA@ 0048bd00     sendmsg.obj
 0002:00016d48       ??_C@_0EE@EDPFEKLC@SendBlakodMessage?5can?8t?5propagat@ 0048bd48     sendmsg.obj
 0002:00016d90       ??_C@_0FL@GKPGDCND@SendBlakodMessage?5can?8t?5find?5cla@ 0048bd90     sendmsg.obj
 0002:00016dec       ??_C@_0M@MLGGMLIA@?$CIpropagate?$CJ?$AA@ 0048bdec     sendmsg.obj
 0002:00016df8       ??_C@_0HG@NHDGMENH@InterpretAtMessage?5found?5too?5man@ 0048bdf8     sendmsg.obj
 0002:00016e70       ??_C@_0EG@MMIJGNIA@InterpretAtMessage?5interpreted?5t@ 0048be70     sendmsg.obj
 0002:00016eb8       ??_C@_0BL@KGNLMBM@Infinite?5loop?5at?5depth?5?$CFi?6?$AA@ 0048beb8     sendmsg.obj
 0002:00016ed8       ??_C@_0EB@DMGIFEIM@?5?5OBJECT?5?$CFi?5CLASS?5?$CFs?5MESSAGE?5?$CFs?5@ 0048bed8     sendmsg.obj
 0002:00016f1c       ??_C@_0BE@PNBPJPKO@?5?5Local?5variables?3?6?$AA@ 0048bf1c     sendmsg.obj
 0002:00016f30       ??_C@_0BA@KJAKDMHB@?5?5?$CF3i?5?3?5?$CFs?5?$CF5i?6?$AA@ 0048bf30     sendmsg.obj
 0002:00016f40       ??_C@_0DF@LOCOGJP@?$FL?$CFs?$FN?5StoreValue?5can?8t?5write?5to?5i@ 0048bf40     sendmsg.obj
 0002:00016f78       ??_C@_0CG@EJMLFCCI@?$FL?$CFs?$FN?5StoreValue?5can?8t?5find?5objec@ 0048bf78     sendmsg.obj
 0002:00016fa0       ??_C@_0DN@ILONDLMG@?$FL?$CFs?$FN?5StoreValue?5can?8t?5write?5to?5i@ 0048bfa0     sendmsg.obj
 0002:00016fe0       ??_C@_0CI@LMJMAMKF@?$FL?$CFs?$FN?5StoreValue?5can?8t?5identify?5t@ 0048bfe0     sendmsg.obj
 0002:00017008       ??_C@_0DF@KIIFJHLO@?$FL?$CFs?$FN?5StoreLocal?5can?8t?5write?5to?5i@ 0048c008     sendmsg.obj
 0002:00017040       ??_C@_06LGMEBDBC@Server?$AA@ 0048c040     sendmsg.obj
 0002:00017048       ??_C@_0BB@HOJBHGHP@Invalid?5class?5?$CFi?$AA@ 0048c048     sendmsg.obj
 0002:0001705c       ??_C@_07JEHKNHKJ@?$CFs?5?$CI?$CFi?$CJ?$AA@ 0048c05c     sendmsg.obj
 0002:00017064       ??_C@_0BH@JGJNLJCN@?$CL?$CL?$CL?$CL?$CL?$CL?$CL?$CL?$CL?$CL?$CL?$CL?$CL?$CL?$CL?$CL?$CL?$CL?$CL?$CL?$CL?$CL?$AA@ 0048c064     sendmsg.obj
 0002:0001707c       ??_C@_0L@FJIHLPCD@?$CF?4?$CKs?$CFs?3?3?$CFs?$AA@ 0048c07c     sendmsg.obj
 0002:00017088       ??_C@_01ODHLEDKK@?$CI?$AA@ 0048c088     sendmsg.obj
 0002:0001708c       ??_C@_09OIKHLFMN@?$CD?$CFs?$DN?$CFs?5?$CFs?$AA@ 0048c08c     sendmsg.obj
 0002:00017098       ??_C@_01PKGAHCOL@?$CJ?$AA@ 0048c098     sendmsg.obj
 0002:0001709c       ??_C@_08JFKAJOMN@?5?$CFs?5?$CI?$CFi?$CJ?$AA@ 0048c09c     sendmsg.obj
 0002:000170a8       ??_C@_0N@FJOHNNE@?6?4?4?4and?5more?$AA@ 0048c0a8     sendmsg.obj
 0002:000170b8       ??_C@_0CN@KHEAIGEI@InterpretUnaryNot_L?5can?8t?5NOT?5no@ 0048c0b8     sendmsg.obj
 0002:000170e8       ??_C@_0CN@FKPHJANC@InterpretUnaryNot_P?5can?8t?5NOT?5no@ 0048c0e8     sendmsg.obj
 0002:00017118       ??_C@_0DA@IGEJILAG@InterpretUnaryNeg_L?5can?8t?5negate@ 0048c118     sendmsg.obj
 0002:00017148       ??_C@_0DA@DPFACFCF@InterpretUnaryNeg_P?5can?8t?5negate@ 0048c148     sendmsg.obj
 0002:00017178       ??_C@_0DI@DLJBMBGK@InterpretUnaryBitNot_L?5can?8t?5bit@ 0048c178     sendmsg.obj
 0002:000171b0       ??_C@_0DI@DGLEHHIG@InterpretUnaryBitNot_P?5can?8t?5bit@ 0048c1b0     sendmsg.obj
 0002:000171e8       ??_C@_0DK@PKKAIFCL@InterpretUnaryPostInc?5can?8t?5post@ 0048c1e8     sendmsg.obj
 0002:00017224       ??_C@_0DK@MNHIECOI@InterpretUnaryPostDec?5can?8t?5post@ 0048c224     sendmsg.obj
 0002:00017260       ??_C@_0DJ@LGFADLMF@InterpretUnaryPostDec?5can?8t?5pre?9@ 0048c260     sendmsg.obj
 0002:0001729c       ??_C@_0DI@DOBPIKEL@InterpretUnaryPreDec?5can?8t?5pre?9d@ 0048c29c     sendmsg.obj
 0002:000172d4       ??_C@_0DH@COPIMGFL@InterpretBinaryAdd_L?5can?8t?5add?52@ 0048c2d4     sendmsg.obj
 0002:0001730c       ??_C@_0DH@IHEJENLO@InterpretBinaryAdd_P?5can?8t?5add?52@ 0048c30c     sendmsg.obj
 0002:00017344       ??_C@_0DH@KOBKAFFE@InterpretBinarySub_L?5can?8t?5sub?52@ 0048c344     sendmsg.obj
 0002:0001737c       ??_C@_0DH@HKLIOLB@InterpretBinarySub_P?5can?8t?5sub?52@ 0048c37c     sendmsg.obj
 0002:000173b4       ??_C@_0DH@CAPNNLGG@InterpretBinaryMul_L?5can?8t?5mul?52@ 0048c3b4     sendmsg.obj
 0002:000173ec       ??_C@_0DH@IJEMFAID@InterpretBinaryMul_P?5can?8t?5mul?52@ 0048c3ec     sendmsg.obj
 0002:00017424       ??_C@_0DH@OHNNNCBM@InterpretBinaryDiv_L?5can?8t?5div?52@ 0048c424     sendmsg.obj
 0002:0001745c       ??_C@_0CF@NBCPMPGN@InterpretBinaryDiv_L?5can?8t?5div?5b@ 0048c45c     sendmsg.obj
 0002:00017484       ??_C@_0DH@EOGMFJPJ@InterpretBinaryDiv_P?5can?8t?5div?52@ 0048c484     sendmsg.obj
 0002:000174bc       ??_C@_0CF@ODHFOKHP@InterpretBinaryDiv_P?5can?8t?5div?5b@ 0048c4bc     sendmsg.obj
 0002:000174e4       ??_C@_0DH@DECEKINO@InterpretBinaryMod_L?5can?8t?5mod?52@ 0048c4e4     sendmsg.obj
 0002:0001751c       ??_C@_0CF@KDHBFFMC@InterpretBinaryMod_L?5can?8t?5div?5b@ 0048c51c     sendmsg.obj
 0002:00017544       ??_C@_0DH@JNJFCDDL@InterpretBinaryMod_P?5can?8t?5mod?52@ 0048c544     sendmsg.obj
 0002:0001757c       ??_C@_0CF@JBCLHANA@InterpretBinaryMod_P?5can?8t?5div?5b@ 0048c57c     sendmsg.obj
 0002:000175a4       ??_C@_0DH@LACICDDB@InterpretBinaryAnd_L?5can?8t?5AND?52@ 0048c5a4     sendmsg.obj
 0002:000175dc       ??_C@_0DH@BJJJKINE@InterpretBinaryAnd_P?5can?8t?5AND?52@ 0048c5dc     sendmsg.obj
 0002:00017614       ??_C@_0DF@BAFEPOND@InterpretBinaryOr_L?5can?8t?5OR?52?5v@ 0048c614     sendmsg.obj
 0002:0001764c       ??_C@_0DF@BNHBEIDP@InterpretBinaryOr_P?5can?8t?5OR?52?5v@ 0048c64c     sendmsg.obj
 0002:00017684       ??_C@_0DG@JGJCIJNC@InterpretBinaryLess_L?5can?8t?5?$DM?52?5@ 0048c684     sendmsg.obj
 0002:000176bc       ??_C@_0DG@NOEOFLFI@InterpretBinaryLess_P?5can?8t?5?$DM?52?5@ 0048c6bc     sendmsg.obj
 0002:000176f4       ??_C@_0DJ@KPDHHCOL@InterpretBinaryGreater_L?5can?8t?5?$DO@ 0048c6f4     sendmsg.obj
 0002:00017730       ??_C@_0DJ@OHOLKAGB@InterpretBinaryGreater_P?5can?8t?5?$DO@ 0048c730     sendmsg.obj
 0002:0001776c       ??_C@_0DG@BHIMONCF@InterpretBinaryLEq_L?5can?8t?5?$DM?$DN?52?5@ 0048c76c     sendmsg.obj
 0002:000177a4       ??_C@_0DG@BKKJFLMJ@InterpretBinaryLEq_P?5can?8t?5?$DM?$DN?52?5@ 0048c7a4     sendmsg.obj
 0002:000177dc       ??_C@_0DG@NEJANH@InterpretBinaryGEq_L?5can?8t?5?$DO?$DN?52?5@ 0048c7dc     sendmsg.obj
 0002:00017814       ??_C@_0DG@NPBCGDL@InterpretBinaryGEq_P?5can?8t?5?$DO?$DN?52?5@ 0048c814     sendmsg.obj
 0002:0001784c       ??_C@_0DI@KADEMPBK@InterpretBinaryBitAnd_L?5can?8t?5?$CG?5@ 0048c84c     sendmsg.obj
 0002:00017884       ??_C@_0DI@OIOIBNJA@InterpretBinaryBitAnd_P?5can?8t?5?$CG?5@ 0048c884     sendmsg.obj
 0002:000178bc       ??_C@_0DH@NNKMCHEC@InterpretBinaryBitOr_L?5can?8t?5?$HM?52@ 0048c8bc     sendmsg.obj
 0002:000178f4       ??_C@_0DH@JFHAPFMI@InterpretBinaryBitOr_P?5can?8t?5?$HM?52@ 0048c8f4     sendmsg.obj
 0002:0001792c       ??_C@_0DF@HJDFHICG@InterpretIsClass_L?5can?8t?5deal?5wi@ 0048c92c     sendmsg.obj
 0002:00017964       ??_C@_0DD@CDLOGBCH@InterpretIsClass_L?5can?8t?5look?5fo@ 0048c964     sendmsg.obj
 0002:00017998       ??_C@_0CJ@LFGMDFFL@InterpretIsClass_L?5can?8t?5find?5ob@ 0048c998     sendmsg.obj
 0002:000179c4       ??_C@_0DF@PAPBJENF@InterpretIsClass_L?5can?8t?5find?5cl@ 0048c9c4     sendmsg.obj
 0002:000179fc       ??_C@_0DF@NAIEPDMD@InterpretIsClass_P?5can?8t?5deal?5wi@ 0048c9fc     sendmsg.obj
 0002:00017a34       ??_C@_0DD@GLGCLDKN@InterpretIsClass_P?5can?8t?5look?5fo@ 0048ca34     sendmsg.obj
 0002:00017a68       ??_C@_0CJ@HBAMOIIH@InterpretIsClass_P?5can?8t?5find?5ob@ 0048ca68     sendmsg.obj
 0002:00017a94       ??_C@_0DF@FJEABPDA@InterpretIsClass_P?5can?8t?5find?5cl@ 0048ca94     sendmsg.obj
 0002:00017acc       ??_C@_0DK@JMFDMPAD@InterpretIsClassConst_L?5can?8t?5de@ 0048cacc     sendmsg.obj
 0002:00017b08       ??_C@_0CO@LPEEALCE@InterpretIsClassConst_L?5can?8t?5fi@ 0048cb08     sendmsg.obj
 0002:00017b38       ??_C@_0DK@BFJHCDPA@InterpretIsClassConst_L?5can?8t?5fi@ 0048cb38     sendmsg.obj
 0002:00017b74       ??_C@_0DK@DFOCEEOG@InterpretIsClassConst_P?5can?8t?5de@ 0048cb74     sendmsg.obj
 0002:00017bb0       ??_C@_0CO@HLCENGPI@InterpretIsClassConst_P?5can?8t?5fi@ 0048cbb0     sendmsg.obj
 0002:00017be0       ??_C@_0DK@LMCGKIBF@InterpretIsClassConst_P?5can?8t?5fi@ 0048cbe0     sendmsg.obj
 0002:00017c1c       ??_C@_09HLMDFMIM@session?4c?$AA@ 0048cc1c     session.obj
 0002:00017c28       ??_C@_0M@OMDFBFKO@Maintenance?$AA@ 0048cc28     session.obj
 0002:00017c34       ??_C@_0O@PKJKIEDN@Game?5?9?5beacon?$AA@ 0048cc34     session.obj
 0002:00017c44       ??_C@_0M@JHAKPBEH@Game?5?9?5sync?$AA@ 0048cc44     session.obj
 0002:00017c50       ??_C@_0M@EALCMFFD@Game?5?9?5pick?$AA@ 0048cc50     session.obj
 0002:00017c5c       ??_C@_07HJHGMEOC@TrySync?$AA@ 0048cc5c     session.obj
 0002:00017c64       ??_C@_0N@FMLJEODB@Synchronized?$AA@ 0048cc64     session.obj
 0002:00017c74       ??_C@_0BK@GGMNJBDE@Synchronized?5?9?5validating?$AA@ 0048cc74     session.obj
 0002:00017c90       ??_C@_0BA@IFCDGJKK@Transferring?5?$CFi?$AA@ 0048cc90     session.obj
 0002:00017ca0       ??_C@_0CJ@NNNGFFN@Overflowed?5buf?5in?5GetStateName?5s@ 0048cca0     session.obj
 0002:00017ccc       ??_C@_06CKDMONLB@Resync?$AA@ 0048cccc     session.obj
 0002:00017cd4       ??_C@_0DE@HELCJDMG@CreateSession?5closing?5connection@ 0048ccd4     session.obj
 0002:00017d08       ??_C@_0CE@MEFEKGDN@CloseSession?5can?8t?5find?5session?5@ 0048cd08     session.obj
 0002:00017d2c       ??_C@_0DB@KMCDNLND@CloseSession?5can?8t?5close?5unconne@ 0048cd2c     session.obj
 0002:00017d60       ??_C@_0DG@GLKBNGDH@CloseSession?5closing?5session?5wit@ 0048cd60     session.obj
 0002:00017d98       ??_C@_0BP@FFLHOPAL@CloseSession?14?5logging?5off?5?$CFi?6?$AA@ 0048cd98     session.obj
 0002:00017db8       ??_C@_0CO@NGFFFHGG@CloseSession?5couldn?8t?5get?5sessio@ 0048cdb8     session.obj
 0002:00017de8       ??_C@_0DB@DLGEGMBG@CloseSession?5couldn?8t?5get?5sessio@ 0048cde8     session.obj
 0002:00017e1c       ??_C@_0DN@LLGCCLAP@CloseSession?5error?5?$CI?$CFs?$CJ?5closing?5@ 0048ce1c     session.obj
 0002:00017e60       ??_C@_0EA@BMOFLJCC@CloseSession?5error?5?$CI?$CFs?$CJ?5closing?5@ 0048ce60     session.obj
 0002:00017ea0       ??_C@_0DE@FAFFFHJL@PollSession?5bailed?5waiting?5for?5m@ 0048cea0     session.obj
 0002:00017ed4       ??_C@_0DI@CJPEBHIF@PollSession?5released?5mutex?5it?5di@ 0048ced4     session.obj
 0002:00017f0c       ??_C@_1BE@LHJDMNAE@?$AAs?$AAe?$AAs?$AAs?$AAi?$AAo?$AAn?$AA?4?$AAc?$AA?$AA@ 0048cf0c     session.obj
 0002:00017f20       ??_C@_1BE@NNGOKIGJ@?$AAs?$AAe?$AAq?$AAn?$AAo?$AA?$DO?$AA2?$AA5?$AA5?$AA?$AA@ 0048cf20     session.obj
 0002:00017f34       ??_C@_0CL@BPKEDHHH@SendBytes?5couldn?8t?5get?5session?5?$CF@ 0048cf34     session.obj
 0002:00017f60       ??_C@_0DA@OIAEIPLH@SendBufferList?5couldn?8t?5get?5sess@ 0048cf60     session.obj
 0002:00017f90       ??_C@_08FADOEBKD@string?4c?$AA@ 0048cf90     string.obj
 0002:00017f9c       ??_C@_0CP@PGGJFGEG@AllocateStringNode?5resized?5to?5?$CFi@ 0048cf9c     string.obj
 0002:00017fcc       ??_C@_0DA@GOPBBMEE@GetStringByID?5can?8t?5retrieve?5inv@ 0048cfcc     string.obj
 0002:00017ffc       ??_C@_0CF@IGNEMPCP@LoadString?5didn?8t?5make?5string?5id@ 0048cffc     string.obj
 0002:00018024       ??_C@_0BK@DGKKECIH@FreeString?5can?8t?5find?5?$CFi?6?$AA@ 0048d024     string.obj
 0002:00018040       ??_C@_0DH@OOFABLPG@MoveString?5can?8t?5find?5source?5?$CFi?0@ 0048d040     string.obj
 0002:00018078       ??_C@_0DF@BMPNOLGK@MoveString?5can?8t?5find?5dest?5?$CFi?0?5t@ 0048d078     string.obj
 0002:000180b0       ??_C@_0BA@IFHKLFJL@stringinthash?4c?$AA@ 0048d0b0     stringinthash.obj
 0002:000180c0       ??_C@_0DF@GKLMOJKO@SynchedProcessSessionBuffer?5got?5@ 0048d0c0     synched.obj
 0002:000180f8       ??_C@_0DH@JEIOOJBG@SynchedProtocolParse?5AP_GETCLIEN@ 0048d0f8     synched.obj
 0002:00018130       ??_C@_0CP@HEPHNJND@SynchedProtocolParse?5account?5?$CFu?5@ 0048d130     synched.obj
 0002:00018160       ??_C@_0DG@IGLDJPHG@SynchedProtocolParse?5AP_REGISTER@ 0048d160     synched.obj
 0002:00018198       ??_C@_0DH@JMIDOAPD@SynchedProtocolParse?5AP_ADMINNOT@ 0048d198     synched.obj
 0002:000181d0       ??_C@_0EJ@FCJMODHI@SynchedProtocolParse?5got?5invalid@ 0048d1d0     synched.obj
 0002:0001821c       ??_C@_0DL@CIDDPPNM@ACCOUNT?5?$CFi?5?$CI?$CFs?$CJ?5in?5use?$DL?5new?5conn@ 0048d21c     synched.obj
 0002:00018258       ??_C@_0BP@EBCNJNIM@LogUserData?14?5got?5?$CFi?5from?5?$CFs?0?5?$AA@ 0048d258     synched.obj
 0002:00018278       ??_C@_0L@GBLDALMJ@Windows?598?$AA@ 0048d278     synched.obj
 0002:00018284       ??_C@_0L@NEBNHFIE@Windows?595?$AA@ 0048d284     synched.obj
 0002:00018290       ??_C@_0L@PJEFFBLH@Windows?5NT?$AA@ 0048d290     synched.obj
 0002:0001829c       ??_C@_0L@LEAMPJKK@?0?5?$CFi?0?5?$CFi?0?5?$AA@ 0048d29c     synched.obj
 0002:000182a8       ??_C@_03JPEBFCPB@386?$AA@  0048d2a8     synched.obj
 0002:000182ac       ??_C@_03CJGGKEI@486?$AA@   0048d2ac     synched.obj
 0002:000182b0       ??_C@_07OMJOJPOP@Pentium?$AA@ 0048d2b0     synched.obj
 0002:000182b8       ??_C@_02KEGNLNML@?0?5?$AA@ 0048d2b8     synched.obj
 0002:000182bc       ??_C@_05JHEBEDMP@?$CFi?5MB?$AA@ 0048d2bc     synched.obj
 0002:000182c4       ??_C@_0BC@IEEDLPNE@?$CFix?$CFix?$CFi?5?$CI0x?$CF08X?$CJ?$AA@ 0048d2c4     synched.obj
 0002:000182d8       ??_C@_0N@OOCNMJLA@?0?5Partner?5?$CFd?$AA@ 0048d2d8     synched.obj
 0002:000182e8       ??_C@_0BD@GOKMKJHB@?5client?5version?5?$CFi?$AA@ 0048d2e8     synched.obj
 0002:00018300       ??_C@_0EI@NJBOLDIH@CreateSysTimer?5got?5timer?5type?5?$CFd@ 0048d300     systimer.obj
 0002:00018348       ??_C@_0BL@FKKJFJNK@ProcessOneSysTimer?5saving?6?$AA@ 0048d348     systimer.obj
 0002:00018364       ??_C@_0CH@FHLLBNLE@ProcessOneSysTimer?5garbage?5colle@ 0048d364     systimer.obj
 0002:0001838c       ??_C@_0DG@MJBAJOBG@In?5last?5?$CFi?5seconds?0?5server?5has?5t@ 0048d38c     systimer.obj
 0002:000183c4       ??_C@_07PGADJIAP@table?4c?$AA@ 0048d3c4     table.obj
 0002:000183cc       ??_C@_0DN@BHFAEAJL@CreateTable?5got?5out?5of?5bounds?5ta@ 0048d3cc     table.obj
 0002:0001840c       ??_C@_0CE@NCKNBHFF@AllocateTable?5resized?5to?5?$CFi?5tabl@ 0048d40c     table.obj
 0002:00018430       ??_C@_0CB@ICAMBIEL@InsertTable?5can?8t?5find?5table?5?$CFi?6@ 0048d430     table.obj
 0002:00018454       ??_C@_0CO@KGNPDDN@GetTableByID?5can?8t?5retrieve?5inva@ 0048d454     table.obj
 0002:00018484       ??_C@_0CE@HDNOCHOL@Insert?5tbl?5?$CFi?0?5index?5?$CFi?0?5key?5?$CFi?0@ 0048d484     table.obj
 0002:000184a8       ??_C@_0DD@PFLNJONO@InsertTable?5can?8t?5insert?5into?5ze@ 0048d4a8     table.obj
 0002:000184dc       ??_C@_0CG@JJFBKCOL@DeleteTableEntry?5can?8t?5find?5tabl@ 0048d4dc     table.obj
 0002:00018504       ??_C@_0CD@MGLDAMBN@GetTableEntry?5can?8t?5find?5table?5?$CF@ 0048d504     table.obj
 0002:00018528       ??_C@_0CL@MHKFFIDL@EqualTableEntry?5can?8t?5find?5resou@ 0048d528     table.obj
 0002:00018554       ??_C@_0DD@IHNCIHA@DeleteTableEntry?5can?8t?5delete?5?$CFi@ 0048d554     table.obj
 0002:00018588       ??_C@_0CO@KDCGJHLH@EqualTableEntry?5can?8t?5match?5?$CFi?0?$CF@ 0048d588     table.obj
 0002:000185b8       ??_C@_0CJ@OMAFLHF@EqualTableEntry?5can?8t?5find?5strin@ 0048d5b8     table.obj
 0002:000185e4       ??_C@_0CD@KKEEGINO@GetTableHash?5can?8t?5find?5string?5?$CF@ 0048d5e4     table.obj
 0002:00018608       ??_C@_0CF@KKEHGHDA@GetTableHash?5can?8t?5find?5resource@ 0048d608     table.obj
 0002:00018630       ??_C@_0DG@GDCCLLFJ@MoveTable?5can?8t?5find?5source?5?$CFi?0?5@ 0048d630     table.obj
 0002:00018668       ??_C@_0DE@NLPNFMOB@MoveTable?5can?8t?5find?5dest?5?$CFi?0?5to@ 0048d668     table.obj
 0002:0001869c       ??_C@_01EPMOAMKG@$?$AA@    0048d69c     term.obj
 0002:000186a0       ??_C@_06IAMCMNFI@OBJECT?$AA@ 0048d6a0     term.obj
 0002:000186a8       ??_C@_03JMHEAPMO@INT?$AA@  0048d6a8     term.obj
 0002:000186ac       ??_C@_08KGDJAKPA@RESOURCE?$AA@ 0048d6ac     term.obj
 0002:000186b8       ??_C@_04PCOPKCKE@LIST?$AA@ 0048d6b8     term.obj
 0002:000186c0       ??_C@_07FBMOPOOO@SESSION?$AA@ 0048d6c0     term.obj
 0002:000186c8       ??_C@_05BLGDNOJI@TIMER?$AA@ 0048d6c8     term.obj
 0002:000186d0       ??_C@_0M@GNIJIKJN@TEMP_STRING?$AA@ 0048d6d0     term.obj
 0002:000186dc       ??_C@_09IEAKEKAJ@ROOM_DATA?$AA@ 0048d6dc     term.obj
 0002:000186e8       ??_C@_05IGDGDCPA@CLASS?$AA@ 0048d6e8     term.obj
 0002:000186f0       ??_C@_06IGECGLFO@STRING?$AA@ 0048d6f0     term.obj
 0002:000186f8       ??_C@_08KEHBBFGI@DEBUGSTR?$AA@ 0048d6f8     term.obj
 0002:00018704       ??_C@_07BAKMHNGL@MESSAGE?$AA@ 0048d704     term.obj
 0002:0001870c       ??_C@_08ICLDDLKE@OVERRIDE?$AA@ 0048d70c     term.obj
 0002:00018718       ??_C@_09MDKDGMOI@HASHTABLE?$AA@ 0048d718     term.obj
 0002:00018724       ??_C@_05HKAKDGKI@EMPTY?$AA@ 0048d724     term.obj
 0002:0001872c       ??_C@_0DH@FBPEICKG@GetTagData?5error?0?5message?5tag?5sa@ 0048d72c     term.obj
 0002:00018764       ??_C@_0CK@JLDIEPIP@GetTagData?5error?0?5can?8t?5find?5cla@ 0048d764     term.obj
 0002:00018790       ??_C@_0DH@OJCKBKHN@Recognized?5TAG_TEMP_STRING?5type?0@ 0048d790     term.obj
 0002:000187c8       ??_C@_0DK@LHOLJJJP@GetTimeZoneOffset?5got?5invalid?5ti@ 0048d7c8     time.obj
 0002:00018804       ??_C@_0N@PNNMNICF@Invalid?5Time?$AA@ 0048d804     time.obj
 0002:00018814       ??_C@_05DHPMCAIC@Never?$AA@ 0048d814     time.obj
 0002:0001881c       ??_C@_0BD@BGCBNHEJ@?$CFb?5?$CF?$CDd?5?$CFY?5?$CFH?3?$CFM?3?$CFS?$AA@ 0048d81c     time.obj
 0002:00018830       ??_C@_0BE@EKOFHJDP@?$CFb?5?5?$CF?$CDd?5?$CFY?5?$CFH?3?$CFM?3?$CFS?$AA@ 0048d830     time.obj
 0002:00018844       ??_C@_0O@MFLAGABD@?$CFb?5?5?$CF?$CDd?5?$CFH?3?$CFM?$AA@ 0048d844     time.obj
 0002:00018860       ??_C@_0BF@DDBGLCNF@Time?5string?5too?5long?$AA@ 0048d860     time.obj
 0002:00018878       ??_C@_0N@EOBOPHHP@?$CFb?5?$CF?$CDd?5?$CFH?3?$CFM?$AA@ 0048d878     time.obj
 0002:00018888       ??_C@_09KAPLJBKE@?$CFi?5day?$CFs?5?$AA@ 0048d888     time.obj
 0002:00018894       ??_C@_0N@FHOLHHKC@?$CFi?5minute?$CFs?5?$AA@ 0048d894     time.obj
 0002:000188a4       ??_C@_0L@DOGCMFOH@?$CFi?5hour?$CFs?5?$AA@ 0048d8a4     time.obj
 0002:000188b0       ??_C@_05PCMAEICI@0?5sec?$AA@ 0048d8b0     time.obj
 0002:000188b8       ??_C@_0M@NKHHIDGL@?$CFi?5second?$CFs?$AA@ 0048d8b8     time.obj
 0002:000188c4       ??_C@_0CD@JBCHJLLI@GetMicroCount?5can?8t?5get?5frequenc@ 0048d8c4     time.obj
 0002:000188e8       ??_C@_0CD@KALKLKPB@GetMilliCount?5can?8t?5get?5frequenc@ 0048d8e8     time.obj
 0002:0001890c       ??_C@_0CB@JJGJEAHI@TimerHeapCheck?5error?5on?5level?5?$CFi@ 0048d90c     timer.obj
 0002:00018930       ??_C@_0DI@EOJCDPPF@PauseTimers?5called?5when?5they?5wer@ 0048d930     timer.obj
 0002:00018968       ??_C@_0CN@IEEKOILD@ReallocTimerNodes?5resized?5to?5?$CFi?5@ 0048d968     timer.obj
 0002:00018998       ??_C@_0CA@CEENGDBO@LoadTimer?5can?8t?5find?5object?5?$CFi?6?$AA@ 0048d998     timer.obj
 0002:000189b8       ??_C@_0DA@IBJKOGHE@UnpauseTimers?5called?5when?5they?5w@ 0048d9b8     timer.obj
 0002:000189e8       ??_C@_0CB@GJIFBJCB@DeleteTimer?5can?8t?5find?5timer?5?$CFi?6@ 0048d9e8     timer.obj
 0002:00018a0c       ??_C@_0CG@MPPAEPCP@LoadTimer?5can?8t?5find?5message?5nam@ 0048da0c     timer.obj
 0002:00018a34       ??_C@_0CI@LLIDFOJD@ServiceTimers?5shutting?5down?5the?5@ 0048da34     timer.obj
 0002:00018a5c       ??_C@_0BF@FFJGLLAP@Status?3?5?$CFi?5accounts?6?$AA@ 0048da5c     timer.obj
 0002:00018a74       ??_C@_0CG@DMNOJDPC@ServiceTimers?5got?5unknown?5messag@ 0048da74     timer.obj
 0002:00018a9c       ??_C@_0BA@BGJEJBOM@aoeuaoeuaoeutha?$AA@ 0048da9c     trysync.obj
 0002:00018aac       ??_C@_0O@CKPOMNKF@User?$CFi?$CFi?$CFI64i?$AA@ 0048daac     user.obj
 0002:00018abc       ??_C@_0CM@NJDMMCEC@BlakSton?5Server?5v2?41?5?$CIMar?510?5201@ 0048dabc     version.obj
 0002:00018ae8       __real@00000000            0048dae8     roofile.obj
 0002:00018aec       __real@38d1b717            0048daec     roofile.obj
 0002:00018af0       __real@39800000            0048daf0     roofile.obj
 0002:00018af4       __real@3a800000            0048daf4     roofile.obj
 0002:00018af8       __real@3b000000            0048daf8     roofile.obj
 0002:00018afc       __real@3b800000            0048dafc     roofile.obj
 0002:00018b00       __real@3d800000            0048db00     roofile.obj
 0002:00018b04       __real@3dcccccd            0048db04     roofile.obj
 0002:00018b08       __real@3f1a36e2e0000000    0048db08     roofile.obj
 0002:00018b10       __real@3f800000            0048db10     roofile.obj
 0002:00018b18       __real@3f847ae147ae147b    0048db18     interface_windows.obj
 0002:00018b20       __real@3fc90fdb            0048db20     roofile.obj
 0002:00018b28       __real@3fd921fb60000000    0048db28     roofile.obj
 0002:00018b30       __real@40490fdb            0048db30     roofile.obj
 0002:00018b34       __real@40800000            0048db34     roofile.obj
 0002:00018b38       __real@408f400000000000    0048db38     interface_windows.obj
 0002:00018b40       __real@40ac200000000000    0048db40     adminfn.obj
 0002:00018b48       __real@40c1940000000000    0048db48     adminfn.obj
 0002:00018b50       __real@40c90fdb            0048db50     roofile.obj
 0002:00018b58       __real@412e848000000000    0048db58     time.obj
 0002:00018b60       __real@41800000            0048db60     roofile.obj
 0002:00018b64       __real@42800000            0048db64     roofile.obj
 0002:00018b68       __real@434ccccd            0048db68     roofile.obj
 0002:00018b6c       __real@43780000            0048db6c     roofile.obj
 0002:00018b70       __real@43800000            0048db70     roofile.obj
 0002:00018b74       __real@43c00000            0048db74     roofile.obj
 0002:00018b78       __real@43cccccd            0048db78     roofile.obj
 0002:00018b7c       __real@44160000            0048db7c     roofile.obj
 0002:00018b80       __real@4419999a            0048db80     roofile.obj
 0002:00018b84       __real@44400000            0048db84     roofile.obj
 0002:00018b88       __real@44800000            0048db88     roofile.obj
 0002:00018b8c       __real@46fffe00            0048db8c     roofile.obj
 0002:00018b90       __real@47704000            0048db90     roofile.obj
 0002:00018b94       __real@49100000            0048db94     roofile.obj
 0002:00018b98       __real@4d000000            0048db98     ccode.obj
 0002:00018b9c       __real@b8d1b717            0048db9c     roofile.obj
 0002:00018ba0       __real@bd800000            0048dba0     ccode.obj
 0002:00018ba8       __real@bf1a36e2e0000000    0048dba8     roofile.obj
 0002:00018bb0       __real@bfc90fdb            0048dbb0     roofile.obj
 0002:00018bb8       __real@bfd921fb60000000    0048dbb8     roofile.obj
 0002:00018bc0       __real@c0490fdb            0048dbc0     roofile.obj
 0002:00018bc4       __real@c096cbe4            0048dbc4     roofile.obj
 0002:00018bc8       __real@c3780000            0048dbc8     roofile.obj
 0002:00018bcc       __real@cd000000            0048dbcc     ccode.obj
 0002:00018bd0       __xmm@00000000000000000000000000000008 0048dbd0     interface_windows.obj
 0002:00018be0       __xmm@7fffffffffffffff7fffffffffffffff 0048dbe0     roofile.obj
 0002:00018bf0       __xmm@80000000800000008000000080000000 0048dbf0     roofile.obj
 0002:00018c00       __xmm@ffffffffffffffff0000000000000000 0048dc00     sendmsg.obj
 0002:00018df0       __OP_ATAN2jmptab           0048ddf0     libucrt:87triga.obj
 0002:00018e80       ___acrt_cos_sin_ctable     0048de80     libucrt:cos_sin_ctable.obj
 0002:00019848       __load_config_used         0048e848     LIBCMT:loadcfg.obj
 0002:000198a4       ??_R4exception@std@@6B@    0048e8a4     LIBCMT:throw_bad_alloc.obj
 0002:000198b8       ??_R3exception@std@@8      0048e8b8     LIBCMT:throw_bad_alloc.obj
 0002:000198c8       ??_R2exception@std@@8      0048e8c8     LIBCMT:throw_bad_alloc.obj
 0002:000198d0       ??_R1A@?0A@EA@exception@std@@8 0048e8d0     LIBCMT:throw_bad_alloc.obj
 0002:000198ec       ??_R4bad_alloc@std@@6B@    0048e8ec     LIBCMT:throw_bad_alloc.obj
 0002:00019900       ??_R3bad_alloc@std@@8      0048e900     LIBCMT:throw_bad_alloc.obj
 0002:00019910       ??_R2bad_alloc@std@@8      0048e910     LIBCMT:throw_bad_alloc.obj
 0002:0001991c       ??_R1A@?0A@EA@bad_alloc@std@@8 0048e91c     LIBCMT:throw_bad_alloc.obj
 0002:00019938       ??_R4bad_array_new_length@std@@6B@ 0048e938     LIBCMT:throw_bad_alloc.obj
 0002:0001994c       ??_R3bad_array_new_length@std@@8 0048e94c     LIBCMT:throw_bad_alloc.obj
 0002:0001995c       ??_R2bad_array_new_length@std@@8 0048e95c     LIBCMT:throw_bad_alloc.obj
 0002:0001996c       ??_R1A@?0A@EA@bad_array_new_length@std@@8 0048e96c     LIBCMT:throw_bad_alloc.obj
 0002:00019988       ??_R4type_info@@6B@        0048e988     LIBCMT:std_type_info_static.obj
 0002:0001999c       ??_R3type_info@@8          0048e99c     LIBCMT:std_type_info_static.obj
 0002:000199ac       ??_R2type_info@@8          0048e9ac     LIBCMT:std_type_info_static.obj
 0002:000199b4       ??_R1A@?0A@EA@type_info@@8 0048e9b4     LIBCMT:std_type_info_static.obj
 0002:000199d0       ??_R4logic_error@std@@6B@  0048e9d0     libcpmt:xthrow.obj
 0002:000199e4       ??_R3logic_error@std@@8    0048e9e4     libcpmt:xthrow.obj
 0002:000199f4       ??_R2logic_error@std@@8    0048e9f4     libcpmt:xthrow.obj
 0002:00019a00       ??_R1A@?0A@EA@logic_error@std@@8 0048ea00     libcpmt:xthrow.obj
 0002:00019a1c       ??_R4length_error@std@@6B@ 0048ea1c     libcpmt:xthrow.obj
 0002:00019a30       ??_R3length_error@std@@8   0048ea30     libcpmt:xthrow.obj
 0002:00019a40       ??_R2length_error@std@@8   0048ea40     libcpmt:xthrow.obj
 0002:00019a50       ??_R1A@?0A@EA@length_error@std@@8 0048ea50     libcpmt:xthrow.obj
 0002:00019a6c       ??_R4out_of_range@std@@6B@ 0048ea6c     libcpmt:xthrow.obj
 0002:00019a80       ??_R3out_of_range@std@@8   0048ea80     libcpmt:xthrow.obj
 0002:00019a90       ??_R2out_of_range@std@@8   0048ea90     libcpmt:xthrow.obj
 0002:00019aa0       ??_R1A@?0A@EA@out_of_range@std@@8 0048eaa0     libcpmt:xthrow.obj
 0002:00019abc       ??_R4bad_exception@std@@6B@ 0048eabc     libvcruntime:frame.obj
 0002:00019ad0       ??_R3bad_exception@std@@8  0048ead0     libvcruntime:frame.obj
 0002:00019ae0       ??_R2bad_exception@std@@8  0048eae0     libvcruntime:frame.obj
 0002:00019aec       ??_R1A@?0A@EA@bad_exception@std@@8 0048eaec     libvcruntime:frame.obj
 0002:00019b10       ___safe_se_handler_table   0048eb10     <linker-defined>
 0002:00019e90       ___rtc_iaa                 0048ee90     LIBCMT:_initsect_.obj
 0002:00019e94       ___rtc_izz                 0048ee94     LIBCMT:_initsect_.obj
 0002:00019e98       ___rtc_taa                 0048ee98     LIBCMT:_initsect_.obj
 0002:00019e9c       ___rtc_tzz                 0048ee9c     LIBCMT:_initsect_.obj
 0002:00019fd4       __TI2?AVbad_alloc@std@@    0048efd4     LIBCMT:throw_bad_alloc.obj
 0002:00019fe4       __CTA2?AVbad_alloc@std@@   0048efe4     LIBCMT:throw_bad_alloc.obj
 0002:00019ff0       __CT??_R0?AVbad_alloc@std@@@8??0bad_alloc@std@@QAE@ABV01@@Z12 0048eff0     LIBCMT:throw_bad_alloc.obj
 0002:0001a00c       __CT??_R0?AVexception@std@@@8??0exception@std@@QAE@ABV01@@Z12 0048f00c     LIBCMT:throw_bad_alloc.obj
 0002:0001a028       __TI3?AVbad_array_new_length@std@@ 0048f028     LIBCMT:throw_bad_alloc.obj
 0002:0001a038       __CTA3?AVbad_array_new_length@std@@ 0048f038     LIBCMT:throw_bad_alloc.obj
 0002:0001a048       __CT??_R0?AVbad_array_new_length@std@@@8??0bad_array_new_length@std@@QAE@ABV01@@Z12 0048f048     LIBCMT:throw_bad_alloc.obj
 0002:0001a084       __CT??_R0?AVlogic_error@std@@@8??0logic_error@std@@QAE@ABV01@@Z12 0048f084     libcpmt:xthrow.obj
 0002:0001a0a0       __TI3?AVlength_error@std@@ 0048f0a0     libcpmt:xthrow.obj
 0002:0001a0b0       __CTA3?AVlength_error@std@@ 0048f0b0     libcpmt:xthrow.obj
 0002:0001a0c0       __CT??_R0?AVlength_error@std@@@8??0length_error@std@@QAE@ABV01@@Z12 0048f0c0     libcpmt:xthrow.obj
 0002:0001a0dc       __TI3?AVout_of_range@std@@ 0048f0dc     libcpmt:xthrow.obj
 0002:0001a0ec       __CTA3?AVout_of_range@std@@ 0048f0ec     libcpmt:xthrow.obj
 0002:0001a0fc       __CT??_R0?AVout_of_range@std@@@8??0out_of_range@std@@QAE@ABV01@@Z12 0048f0fc     libcpmt:xthrow.obj
 0002:0001a21c       __TI2?AVbad_exception@std@@ 0048f21c     libvcruntime:frame.obj
 0002:0001a22c       __CTA2?AVbad_exception@std@@ 0048f22c     libvcruntime:frame.obj
 0002:0001a238       __CT??_R0?AVbad_exception@std@@@8??0bad_exception@std@@QAE@ABV01@@Z12 0048f238     libvcruntime:frame.obj
 0002:0001a8e4       __IMPORT_DESCRIPTOR_GDI32  0048f8e4     gdi32:GDI32.dll
 0002:0001a8f8       __IMPORT_DESCRIPTOR_USER32 0048f8f8     user32:USER32.dll
 0002:0001a90c       __IMPORT_DESCRIPTOR_WSOCK32 0048f90c     wsock32:WSOCK32.dll
 0002:0001a920       __IMPORT_DESCRIPTOR_WINMM  0048f920     winmm:WINMM.dll
 0002:0001a934       __IMPORT_DESCRIPTOR_COMCTL32 0048f934     comctl32:COMCTL32.dll
 0002:0001a948       __IMPORT_DESCRIPTOR_LIBMYSQL 0048f948     libmysql:LIBMYSQL.dll
 0002:0001a95c       __IMPORT_DESCRIPTOR_WS2_32 0048f95c     ws2_32:WS2_32.dll
 0002:0001a970       __IMPORT_DESCRIPTOR_KERNEL32 0048f970     kernel32:KERNEL32.dll
 0002:0001a984       __NULL_IMPORT_DESCRIPTOR   0048f984     gdi32:GDI32.dll
 0003:00000000       ___security_cookie_complement 00491000     LIBCMT:gs_cookie.obj
 0003:00000004       ___security_cookie         00491004     LIBCMT:gs_cookie.obj
 0003:00000008       ___scrt_native_dllmain_reason 00491008     LIBCMT:utility.obj
 0003:0000000c       ___scrt_default_matherr    0049100c     LIBCMT:matherr.obj
 0003:00000010       ___isa_enabled             00491010     LIBCMT:_cpu_disp_.obj
 0003:00000030       __NLG_Destination          00491030     libvcruntime:_exsup_.obj
 0003:00000040       __lookuptrailbytes         00491040     libucrt:read.obj
 0003:00000140       ___abort_behavior          00491140     libucrt:abort.obj
 0003:00000150       __iob                      00491150     libucrt:_file.obj
 0003:000001f8       ___acrt_initial_locale_data 004911f8     libucrt:nlsdata.obj
 0003:000002b0       ___acrt_initial_locale_pointers 004912b0     libucrt:nlsdata.obj
 0003:000002b8       ___acrt_wide_c_locale_string 004912b8     libucrt:nlsdata.obj
 0003:000002c0       ___badioinfo               004912c0     libucrt:ioinit.obj
 0003:000002f0       __pwctype                  004912f0     libucrt:ctype.obj
 0003:00000490       __mbctype                  00491490     libucrt:mbctype.obj
 0003:00000598       __mbcasemap                00491598     libucrt:mbctype.obj
 0003:00000698       ___acrt_initial_multibyte_data 00491698     libucrt:mbctype.obj
 0003:000008b8       ___acrt_current_multibyte_data 004918b8     libucrt:mbctype.obj
 0003:000008bc       ___acrt_lconv_static_decimal 004918bc     libucrt:localeconv.obj
 0003:000008c0       ___acrt_lconv_static_W_decimal 004918c0     libucrt:localeconv.obj
 0003:000008c8       ___acrt_lconv_c            004918c8     libucrt:localeconv.obj
 0003:00000918       ___globallocalestatus      00491918     libucrt:glstatus.obj
 0003:00000924       ___dcrt_lowio_console_output_handle 00491924     libucrt:initcon.obj
 0003:00000930       __fltused                  00491930     LIBCMT:fltused.obj
 0003:00000980       ?admin_terminate_table@@3PAUadmin_table_struct@@A 00491980     adminfn.obj
 0003:000009e8       ?admin_kickoff_table@@3PAUadmin_table_struct@@A 004919e8     adminfn.obj
 0003:00000a50       ?admin_add_table@@3PAUadmin_table_struct@@A 00491a50     adminfn.obj
 0003:00000a84       ?admin_check_table@@3PAUadmin_table_struct@@A 00491a84     adminfn.obj
 0003:00000ab8       ?admin_reload_table@@3PAUadmin_table_struct@@A 00491ab8     adminfn.obj
 0003:00000b88       ?admin_showtimer_table@@3PAUadmin_table_struct@@A 00491b88     adminfn.obj
 0003:00000c24       ?admin_recreate_table@@3PAUadmin_table_struct@@A 00491c24     adminfn.obj
 0003:00000c58       ?admin_set_table@@3PAUadmin_table_struct@@A 00491c58     adminfn.obj
 0003:00000d28       ?admin_unsuspend_table@@3PAUadmin_table_struct@@A 00491d28     adminfn.obj
 0003:00000d90       ?admin_suspend_table@@3PAUadmin_table_struct@@A 00491d90     adminfn.obj
 0003:00000df8       ?admin_delete_table@@3PAUadmin_table_struct@@A 00491df8     adminfn.obj
 0003:00000ec8       ?admin_send_table@@3PAUadmin_table_struct@@A 00491ec8     adminfn.obj
 0003:00000fcc       ?admin_reset_table@@3PAUadmin_table_struct@@A 00491fcc     adminfn.obj
 0003:00001000       ?admin_create_table@@3PAUadmin_table_struct@@A 00492000     adminfn.obj
 0003:00001270       ?admin_enable_table@@3PAUadmin_table_struct@@A 00492270     adminfn.obj
 0003:000012a4       ?admin_disable_table@@3PAUadmin_table_struct@@A 004922a4     adminfn.obj
 0003:000012d8       ?admin_trace_table@@3PAUadmin_table_struct@@A 004922d8     adminfn.obj
 0003:00001340       ?admin_setacco_table@@3PAUadmin_table_struct@@A 00492340     adminfn.obj
 0003:00001448       ?admin_setcfg_table@@3PAUadmin_table_struct@@A 00492448     adminfn.obj
 0003:000014e4       ?beacon_str@@3PAEA         004924e4     resync.obj
 0003:000014f0       ?admin_save_table@@3PAUadmin_table_struct@@A 004924f0     adminfn.obj
 0003:00001558       ?admin_show_table@@3PAUadmin_table_struct@@A 00492558     adminfn.obj
 0003:00001d48       ?admin_main_table@@3PAUadmin_table_struct@@A 00492d48     adminfn.obj
 0003:000022f8       ?admin_hangup_table@@3PAUadmin_table_struct@@A 004932f8     adminfn.obj
 0003:00002400       ?bi_accounts@@3PAUbi_account@@A 00493400     builtin.obj
 0003:00002414       ?trace_session_id@@3HA     00493414     sendmsg.obj
 0003:00002420       ?channel_table@@3PAUchannel_table_type@@A 00493420     channel.obj
 0003:00002460       ?config_table@@3PAUconfig_table_type@@A 00493460     config.obj
 0003:00002f90       ?usercommand_def_table@@3PAUclient_def_table_type@@A 00493f90     sprocket.obj
 0003:00004670       ?client_def_table@@3PAUclient_def_table_type@@A 00495670     sprocket.obj
 0003:00006a10       ?system_def_table@@3PAUclient_def_table_type@@A 00497a10     sprocket.obj
 0003:00006b68       ?tell_cli_str@@3PAEA       00497b68     trysync.obj
 0003:00006b74       ?detect_str@@3PAEA         00497b74     trysync.obj
 0003:00006b80       ??_R0?AVbad_alloc@std@@@8  00497b80     LIBCMT:throw_bad_alloc.obj
 0003:00006b9c       ??_R0?AVexception@std@@@8  00497b9c     LIBCMT:throw_bad_alloc.obj
 0003:00006bb8       ??_R0?AVbad_array_new_length@std@@@8 00497bb8     LIBCMT:throw_bad_alloc.obj
 0003:00006be0       ??_R0?AVtype_info@@@8      00497be0     LIBCMT:std_type_info_static.obj
 0003:00006bf8       ??_R0?AVlogic_error@std@@@8 00497bf8     libcpmt:xthrow.obj
 0003:00006c18       ??_R0?AVlength_error@std@@@8 00497c18     libcpmt:xthrow.obj
 0003:00006c38       ??_R0?AVout_of_range@std@@@8 00497c38     libcpmt:xthrow.obj
 0003:00006c58       ??_R0?AVbad_exception@std@@@8 00497c58     libvcruntime:frame.obj
 0003:00006f9c       ___scrt_current_native_startup_state 00497f9c     LIBCMT:utility.obj
 0003:00006fa0       ___scrt_native_startup_lock 00497fa0     LIBCMT:utility.obj
 0003:00006fc0       ?__type_info_root_node@@3U__type_info_node@@A 00497fc0     LIBCMT:tncleanup.obj
 0003:00006fc8       ___scrt_debugger_hook_flag 00497fc8     LIBCMT:utility_desktop.obj
 0003:00006fcc       ___isa_available           00497fcc     LIBCMT:_cpu_disp_.obj
 0003:00006fd0       ___favor                   00497fd0     LIBCMT:_cpu_disp_.obj
 0003:00006fd4       ?g_OutOfMemoryExceptionCallback@@3P6GPAXXZA 00497fd4     libvcruntime:frame.obj
 0003:00007050       ___pPurecall               00498050     libvcruntime:purevirt_data.obj
 0003:00007054       ?pArgList@UnDecorator@@0PAVReplicator@@A 00498054     libvcruntime:undname.obj
 0003:00007058       ?pZNameList@UnDecorator@@0PAVReplicator@@A 00498058     libvcruntime:undname.obj
 0003:0000705c       ?pTemplateArgList@UnDecorator@@0PAVReplicator@@A 0049805c     libvcruntime:undname.obj
 0003:00007060       ?gName@UnDecorator@@0PBDB  00498060     libvcruntime:undname.obj
 0003:00007064       ?name@UnDecorator@@0PBDB   00498064     libvcruntime:undname.obj
 0003:00007068       ?outputString@UnDecorator@@0PADA 00498068     libvcruntime:undname.obj
 0003:0000706c       ?maxStringLength@UnDecorator@@0HA 0049806c     libvcruntime:undname.obj
 0003:00007070       ?disableFlags@UnDecorator@@0KA 00498070     libvcruntime:undname.obj
 0003:00007074       ?fExplicitTemplateParams@UnDecorator@@0_NA 00498074     libvcruntime:undname.obj
 0003:00007075       ?fGetTemplateArgumentList@UnDecorator@@0_NA 00498075     libvcruntime:undname.obj
 0003:00007078       ?m_pGetParameter@UnDecorator@@0P6APADJ@ZA 00498078     libvcruntime:undname.obj
 0003:000071b8       __environ_table            004981b8     libucrt:environment_initialization.obj
 0003:000071bc       __wenviron_table           004981bc     libucrt:environment_initialization.obj
 0003:000071c0       ___dcrt_initial_wide_environment 004981c0     libucrt:environment_initialization.obj
 0003:000071c4       ___dcrt_initial_narrow_environment 004981c4     libucrt:environment_initialization.obj
 0003:000071cc       ___acrt_locale_changed_data 004981cc     libucrt:wsetlocale.obj
 0003:000071d4       __commode                  004981d4     libucrt:ncommode.obj
 0003:000071d8       ___acrt_atexit_table       004981d8     libucrt:onexit.obj
 0003:000071e4       ___acrt_at_quick_exit_table 004981e4     libucrt:onexit.obj
 0003:000071f0       __nstream                  004981f0     libucrt:_file.obj
 0003:000071f4       ___piob                    004981f4     libucrt:_file.obj
 0003:000071f8       __cflush                   004981f8     libucrt:_file.obj
 0003:00007200       ___acrt_stdout_buffer      00498200     libucrt:_sftbuf.obj
 0003:00007204       ___acrt_stderr_buffer      00498204     libucrt:_sftbuf.obj
 0003:00007208       ___acrt_current_locale_data 00498208     libucrt:nlsdata.obj
 0003:00007210       ___pioinfo                 00498210     libucrt:ioinit.obj
 0003:00007410       __nhandle                  00498410     libucrt:ioinit.obj
 0003:00007640       ?_timezone@@3V?$dual_state_global@J@__crt_state_management@@A 00498640     libucrt:timeset.obj
 0003:00007644       ?_daylight@@3V?$dual_state_global@H@__crt_state_management@@A 00498644     libucrt:timeset.obj
 0003:00007648       ?_dstbias@@3V?$dual_state_global@J@__crt_state_management@@A 00498648     libucrt:timeset.obj
 0003:00007710       ___mblocalename            00498710     libucrt:mbctype.obj
 0003:00007714       ___mbcodepage              00498714     libucrt:mbctype.obj
 0003:00007718       ___ismbcodepage            00498718     libucrt:mbctype.obj
 0003:0000771c       ___mbulinfo                0049871c     libucrt:mbctype.obj
 0003:00007730       ___argc                    00498730     libucrt:argv_data.obj
 0003:00007734       ___argv                    00498734     libucrt:argv_data.obj
 0003:00007738       ___wargv                   00498738     libucrt:argv_data.obj
 0003:0000773c       __acmdln                   0049873c     libucrt:argv_data.obj
 0003:00007740       __wcmdln                   00498740     libucrt:argv_data.obj
 0003:00007744       __pgmptr                   00498744     libucrt:argv_data.obj
 0003:00007748       __fmode                    00498748     libucrt:txtmode.obj
 0003:0000774c       ___acrt_lconv_static_null  0049874c     libucrt:localeconv.obj
 0003:00007750       ___acrt_lconv_static_W_null 00498750     libucrt:localeconv.obj
 0003:00007754       ___acrt_heap               00498754     libucrt:heap_handle.obj
 0003:00007758       __umaskval                 00498758     libucrt:umask.obj
 0003:0000775c       ___fastflag                0049875c     libucrt:fp_flags.obj
 0003:00007768       ?_OptionsStorage@?1??__local_stdio_printf_options@@9@4_KA 00498768     md5.obj
 0003:00007770       ?console_account_node@@3Uaccount_node_struct@@A 00498770     account.obj
 0003:00007794       ?console_account@@3PAUaccount_node_struct@@A 00498794     account.obj
 0003:00007798       ?accounts@@3PAUaccount_node_struct@@A 00498798     account.obj
 0003:0000779c       ?next_account_id@@3HA      0049879c     account.obj
 0003:000077a0       ?admin_constants@@3PAUadmin_constant_struct@@A 004987a0     admincons.obj
 0003:000077a4       ?nameid_count@@3HA         004987a4     adminfn.obj
 0003:000077a8       ?admin_session_id@@3HA     004987a8     adminfn.obj
 0003:000077ac       ?accounts_in_game@@3HA     004987ac     adminfn.obj
 0003:000077b0       ?num_maintenance_masks@@3HA 004987b0     async_windows.obj
 0003:000077b4       ?maintenance_buffer@@3PADA 004987b4     async_windows.obj
 0003:000077bc       ?next_buffer_id@@3HA       004987bc     bufpool.obj
 0003:000077c0       ?maintenance_masks@@3PAPADA 004987c0     async_windows.obj
 0003:000077fc       ?csBuffers@@3U_RTL_CRITICAL_SECTION@@A 004987fc     bufpool.obj
 0003:00007814       ?buffers@@3PAUbuffer_struct@@A 00498814     bufpool.obj
 0003:00007818       ?head_buffer@@3HA          00498818     chanbuf.obj
 0003:0000781c       ?tail_buffer@@3HA          0049881c     chanbuf.obj
 0003:00007820       ?csChannel_buffers@@3U_RTL_CRITICAL_SECTION@@A 00498820     chanbuf.obj
 0003:00007838       ?csDynamic_config@@3U_RTL_CRITICAL_SECTION@@A 00498838     config.obj
 0003:00007850       ?channel_buffers@@3PAUchannel_buffer_node@@A 00498850     chanbuf.obj
 0003:000163a0       ?channel@@3PAUchannel_node@@A 004a73a0     channel.obj
 0003:000163b4       ?mysql@@3PAUst_mysql@@A    004a73b4     database.obj
 0003:000163b8       ?user@@3PADA               004a73b8     database.obj
 0003:000163bc       ?password@@3PADA           004a73bc     database.obj
 0003:000163c0       ?configs@@3PAUconfig_node@@A 004a73c0     config.obj
 0003:00016d80       ?db@@3PADA                 004a7d80     database.obj
 0003:00016d84       ?state@@3W4sql_worker_state@@A 004a7d84     database.obj
 0003:00016d88       ?queue@@3Usql_queue@@A     004a7d88     database.obj
 0003:00016d98       ?host@@3PADA               004a7d98     database.obj
 0003:00016d9c       ?dllist@@3PAUdllist_struct@@A 004a7d9c     dllist.obj
 0003:00016da8       ?reason_str@@3PADA         004a7da8     gamelock.obj
 0003:00016f38       ?game_lock@@3DA            004a7f38     gamelock.obj
 0003:00016f39       ?is_timer_pending@@3DA     004a7f39     interface_windows.obj
 0003:00016f3a       ?is_about@@3DA             004a7f3a     interface_windows.obj
 0003:00016f3b       ?quit@@3DA                 004a7f3b     intrlock.obj
 0003:00016f3c       ?next_string_renumber@@3HA 004a7f3c     garbage.obj
 0003:00016f40       ?next_table_renumber@@3HA  004a7f40     garbage.obj
 0003:00016f44       ?next_timer_renumber@@3HA  004a7f44     garbage.obj
 0003:00016f48       ?next_list_renumber@@3HA   004a7f48     garbage.obj
 0003:00016f4c       ?next_renumber@@3HA        004a7f4c     garbage.obj
 0003:00016f50       ?hInst@@3PAUHINSTANCE__@@A 004a7f50     interface_windows.obj
 0003:00016f54       ?console_session_id@@3HA   004a7f54     interface_windows.obj
 0003:00016f58       ?hwndMain@@3PAUHWND__@@A   004a7f58     interface_windows.obj
 0003:00016f5c       ?tab_pages@@3PAPAUHWND__@@A 004a7f5c     interface_windows.obj
 0003:00016f68       ?admin_response_buf@@3PADA 004a7f68     interface_windows.obj
 0003:00056f69       ?epoch@@3EA                004e7f69     session.obj
 0003:00056f6c       ?hwndLV@@3PAUHWND__@@A     004e7f6c     interface_windows.obj
 0003:00056f70       ?hwndTab_page@@3PAUHWND__@@A 004e7f70     interface_windows.obj
 0003:00056f74       ?sessions_logged_on@@3HA   004e7f74     interface_windows.obj
 0003:00056f78       ?len_admin_response_buf@@3HA 004e7f78     interface_windows.obj
 0003:00056f7c       ?hwndTab@@3PAUHWND__@@A    004e7f7c     interface_windows.obj
 0003:00056f80       ?hEvent@@3PAXA             004e7f80     interface_windows.obj
 0003:00056f84       ?tab_about@@3PAUHWND__@@A  004e7f84     interface_windows.obj
 0003:00056f88       ?window_display@@3HA       004e7f88     interface_windows.obj
 0003:00056f8c       ?csQuit@@3U_RTL_CRITICAL_SECTION@@A 004e7f8c     intrlock.obj
 0003:00056fa4       ?muxServer@@3PAXA          004e7fa4     intrlock.obj
 0003:00056fa8       ?current_class@@3PAUclass_struct@@A 004e7fa8     kodbase.obj
 0003:00056fac       ?num_nodes@@3HA            004e7fac     list.obj
 0003:00056fb0       ?list_nodes@@3PAUlist_node@@A 004e7fb0     list.obj
 0003:00056fb4       ?max_nodes@@3HA            004e7fb4     list.obj
 0003:00056fb8       ?lineno@@3HA               004e7fb8     loadacco.obj
 0003:00056fbc       ?load_game_classes_table_size@@3HA 004e7fbc     loadgame.obj
 0003:00056fc0       ?load_game_resources@@3PAUishash_table@@A 004e7fc0     loadgame.obj
 0003:00056fc4       ?savegame_version@@3HA     004e7fc4     loadgame.obj
 0003:00056fc8       ?loadfile@@3Uloaded_file_struct@@A 004e7fc8     loadgame.obj
 0003:000571d4       ?current_object_id@@3HA    004e81d4     loadgame.obj
 0003:000571d8       ?load_game_classes@@3PAPAUload_game_class_struct@@A 004e81d8     loadgame.obj
 0003:000571dc       ?mem_files@@3PAUloaded_bof_struct@@A 004e81dc     loadkod.obj
 0003:000571e0       ?main_thread_id@@3KA       004e81e0     main.obj
 0003:000571e4       ?motd@@3PADA               004e81e4     motd.obj
 0003:000571e8       ?max_objects@@3HA          004e81e8     object.obj
 0003:000571f0       ?memory_stat@@3Umemory_statistics@@A 004e81f0     memory.obj
 0003:00057254       ?objects@@3PAUobject_node@@A 004e8254     object.obj
 0003:00057258       ?num_objects@@3HA          004e8258     object.obj
 0003:00057260       ?cli_list_nodes@@3PATval_type@@A 004e8260     parsecli.obj
 0003:000572b0       ?system_table@@3PAUclient_table_node@@A 004e82b0     parsecli.obj
 0003:000572b4       ?usercommand_table@@3PAUclient_table_node@@A 004e82b4     parsecli.obj
 0003:000572b8       ?user_table@@3PAUclient_table_node@@A 004e82b8     parsecli.obj
 0003:000572bc       ?rooms@@3PAPAUroom_node@@A 004e82bc     roomdata.obj
 0003:000572c0       ?idcounter@@3HA            004e82c0     roomdata.obj
 0003:000572c4       ?accofile@@3PAU_iobuf@@A   004e82c4     saveacco.obj
 0003:000572c8       ?savefile@@3PAU_iobuf@@A   004e82c8     savegame.obj
 0003:000572cc       ?dynamic_rsc_count@@3HA    004e82cc     saversc.obj
 0003:000572d0       ?strfile@@3PAU_iobuf@@A    004e82d0     savestr.obj
 0003:000572d4       ?message_depth@@3HA        004e82d4     sendmsg.obj
 0003:000572d8       ?bkod@@3PADA               004e82d8     sendmsg.obj
 0003:000572e0       ?stack@@3PAUkod_stack_type@@A 004e82e0     sendmsg.obj
 0003:001689e0       ?post_q@@3Upost_queue_type@@A 005f99e0     sendmsg.obj
 0003:00383ae8       ?num_interpreted@@3HA      00814ae8     sendmsg.obj
 0003:00383af0       ?kod_stat@@3Ukod_statistics@@A 00814af0     sendmsg.obj
 0003:00384b30       ?ccall_table@@3PAP6AHHPAUlocal_var_type@@HQAUparm_node@@H1@ZA 00815b30     sendmsg.obj
 0003:00384f30       ?opcode_table@@3PAP6AXHPAUlocal_var_type@@@ZA 00815f30     sendmsg.obj
 0003:0038501c       ?done@@3HA                 0081601c     sendmsg.obj
 0003:00385020       ?sessions@@3PAUsession_node@@A 00816020     session.obj
 0003:00385024       ?csSessions@@3U_RTL_CRITICAL_SECTION@@A 00816024     session.obj
 0003:0038503c       ?num_sessions@@3HA         0081603c     session.obj
 0003:00385040       ?transmitted_bytes@@3HA    00816040     session.obj
 0003:00385044       ?temp_str@@3Ustring_node@@A 00816044     string.obj
 0003:00385050       ?strings@@3PAUstring_node@@A 00816050     string.obj
 0003:00385054       ?num_strings@@3HA          00816054     string.obj
 0003:00385058       ?max_strings@@3HA          00816058     string.obj
 0003:00385060       ?check_addr@@3Uin6_addr@@A 00816060     synched.obj
 0003:00385070       ?num_with_same_ip@@3HA     00816070     synched.obj
 0003:00385074       ?eventengine_obj_id@@3HA   00816074     system.obj
 0003:00385078       ?realtime_obj_id@@3HA      00816078     system.obj
 0003:0038507c       ?system_obj_id@@3HA        0081607c     system.obj
 0003:00385080       ?settings_obj_id@@3HA      00816080     system.obj
 0003:00385084       ?systimers@@3PAUsystimer_struct@@A 00816084     systimer.obj
 0003:00385088       ?tables@@3PAUtable_struct@@A 00816088     table.obj
 0003:0038508c       ?num_tables@@3HA           0081608c     table.obj
 0003:00385090       ?max_num_tables@@3HA       00816090     table.obj
 0003:00385094       ?next_timer_num@@3HA       00816094     timer.obj
 0003:0038509c       ?num_timer_nodes@@3HA      0081609c     timer.obj
 0003:003850a0       ?pause_time@@3HA           008160a0     timer.obj
 0003:003850a4       ?timer_heap@@3PAPAUtimer_struct@@A 008160a4     timer.obj
 0003:003850a8       ?users@@3PAUuser_struct@@A 008160a8     user.obj
 0003:003aa828       ?_OptionsStorage@?1??__local_stdio_scanf_options@@9@4_KA 0083b828     account.obj
 0003:003abd70       ___scrt_ucrt_dll_is_in_use 0083cd70     <common>
 0003:003abd74       ___dyn_tls_dtor_callback   0083cd74     <common>
 0003:003abd78       ___dyn_tls_init_callback   0083cd78     <common>
 0003:003abd7c       __pmatherr                 0083cd7c     <common>
 0003:003abd80       ___use_sse2_mathfcns       0083cd80     <common>

 entry point at        0001:000012d3

 Static symbols

 0000:ffbac000       .debug$S                   00400000     kernel32:KERNEL32.dll
 0000:ffbac000       .debug$S                   00400000     user32:USER32.dll
 0000:ffbac000       .debug$S                   00400000     user32:USER32.dll
 0000:ffbac000       .debug$S                   00400000     user32:USER32.dll
 0000:ffbac000       .debug$S                   00400000     user32:USER32.dll
 0000:ffbac000       .debug$S                   00400000     user32:USER32.dll
 0000:ffbac000       .debug$S                   00400000     user32:USER32.dll
 0000:ffbac000       .debug$S                   00400000     user32:USER32.dll
 0000:ffbac000       .debug$S                   00400000     user32:USER32.dll
 0000:ffbac000       .debug$S                   00400000     user32:USER32.dll
 0000:ffbac000       .debug$S                   00400000     user32:USER32.dll
 0000:ffbac000       .debug$S                   00400000     user32:USER32.dll
 0000:ffbac000       .debug$S                   00400000     user32:USER32.dll
 0000:ffbac000       .debug$S                   00400000     user32:USER32.dll
 0000:ffbac000       .debug$S                   00400000     user32:USER32.dll
 0000:ffbac000       .debug$S                   00400000     user32:USER32.dll
 0000:ffbac000       .debug$S                   00400000     user32:USER32.dll
 0000:ffbac000       .debug$S                   00400000     user32:USER32.dll
 0000:ffbac000       .debug$S                   00400000     user32:USER32.dll
 0000:ffbac000       .debug$S                   00400000     user32:USER32.dll
 0000:ffbac000       .debug$S                   00400000     user32:USER32.dll
 0000:ffbac000       .debug$S                   00400000     user32:USER32.dll
 0000:ffbac000       .debug$S                   00400000     user32:USER32.dll
 0000:ffbac000       .debug$S                   00400000     gdi32:GDI32.dll
 0000:ffbac000       .debug$S                   00400000     gdi32:GDI32.dll
 0000:ffbac000       .debug$S                   00400000     user32:USER32.dll
 0000:ffbac000       .debug$S                   00400000     user32:USER32.dll
 0000:ffbac000       .debug$S                   00400000     user32:USER32.dll
 0000:ffbac000       .debug$S                   00400000     user32:USER32.dll
 0000:ffbac000       .debug$S                   00400000     user32:USER32.dll
 0000:ffbac000       .debug$S                   00400000     user32:USER32.dll
 0000:ffbac000       .debug$S                   00400000     user32:USER32.dll
 0000:ffbac000       .debug$S                   00400000     user32:USER32.dll
 0000:ffbac000       .debug$S                   00400000     user32:USER32.dll
 0000:ffbac000       .debug$S                   00400000     user32:USER32.dll
 0000:ffbac000       .debug$S                   00400000     user32:USER32.dll
 0000:ffbac000       .debug$S                   00400000     user32:USER32.dll
 0000:ffbac000       .debug$S                   00400000     user32:USER32.dll
 0000:ffbac000       .debug$S                   00400000     user32:USER32.dll
 0000:ffbac000       .debug$S                   00400000     user32:USER32.dll
 0000:ffbac000       .debug$S                   00400000     user32:USER32.dll
 0000:ffbac000       .debug$S                   00400000     user32:USER32.dll
 0000:ffbac000       .debug$S                   00400000     user32:USER32.dll
 0000:ffbac000       .debug$S                   00400000     user32:USER32.dll
 0000:ffbac000       .debug$S                   00400000     user32:USER32.dll
 0000:ffbac000       .debug$S                   00400000     wsock32:WSOCK32.dll
 0000:ffbac000       .debug$S                   00400000     wsock32:WSOCK32.dll
 0000:ffbac000       .debug$S                   00400000     wsock32:WSOCK32.dll
 0000:ffbac000       .debug$S                   00400000     kernel32:KERNEL32.dll
 0000:ffbac000       .debug$S                   00400000     kernel32:KERNEL32.dll
 0000:ffbac000       .debug$S                   00400000     kernel32:KERNEL32.dll
 0000:ffbac000       .debug$S                   00400000     kernel32:KERNEL32.dll
 0000:ffbac000       .debug$S                   00400000     kernel32:KERNEL32.dll
 0000:ffbac000       .debug$S                   00400000     kernel32:KERNEL32.dll
 0000:ffbac000       .debug$S                   00400000     kernel32:KERNEL32.dll
 0000:ffbac000       .debug$S                   00400000     kernel32:KERNEL32.dll
 0000:ffbac000       .debug$S                   00400000     kernel32:KERNEL32.dll
 0000:ffbac000       .debug$S                   00400000     kernel32:KERNEL32.dll
 0000:ffbac000       .debug$S                   00400000     kernel32:KERNEL32.dll
 0000:ffbac000       .debug$S                   00400000     kernel32:KERNEL32.dll
 0000:ffbac000       .debug$S                   00400000     kernel32:KERNEL32.dll
 0000:ffbac000       .debug$S                   00400000     kernel32:KERNEL32.dll
 0000:ffbac000       .debug$S                   00400000     kernel32:KERNEL32.dll
 0000:ffbac000       .debug$S                   00400000     kernel32:KERNEL32.dll
 0000:ffbac000       .debug$S                   00400000     kernel32:KERNEL32.dll
 0000:ffbac000       .debug$S                   00400000     kernel32:KERNEL32.dll
 0000:ffbac000       .debug$S                   00400000     kernel32:KERNEL32.dll
 0000:ffbac000       .debug$S                   00400000     kernel32:KERNEL32.dll
 0000:ffbac000       .debug$S                   00400000     kernel32:KERNEL32.dll
 0000:ffbac000       .debug$S                   00400000     kernel32:KERNEL32.dll
 0000:ffbac000       .debug$S                   00400000     kernel32:KERNEL32.dll
 0000:ffbac000       .debug$S                   00400000     kernel32:KERNEL32.dll
 0000:ffbac000       .debug$S                   00400000     kernel32:KERNEL32.dll
 0000:ffbac000       .debug$S                   00400000     kernel32:KERNEL32.dll
 0000:ffbac000       .debug$S                   00400000     kernel32:KERNEL32.dll
 0000:ffbac000       .debug$S                   00400000     kernel32:KERNEL32.dll
 0000:ffbac000       .debug$S                   00400000     kernel32:KERNEL32.dll
 0000:ffbac000       .debug$S                   00400000     kernel32:KERNEL32.dll
 0000:ffbac000       .debug$S                   00400000     kernel32:KERNEL32.dll
 0000:ffbac000       .debug$S                   00400000     kernel32:KERNEL32.dll
 0000:ffbac000       .debug$S                   00400000     kernel32:KERNEL32.dll
 0000:ffbac000       .debug$S                   00400000     kernel32:KERNEL32.dll
 0000:ffbac000       .debug$S                   00400000     kernel32:KERNEL32.dll
 0000:ffbac000       .debug$S                   00400000     kernel32:KERNEL32.dll
 0000:ffbac000       .debug$S                   00400000     kernel32:KERNEL32.dll
 0000:ffbac000       .debug$S                   00400000     kernel32:KERNEL32.dll
 0000:ffbac000       .debug$S                   00400000     wsock32:WSOCK32.dll
 0000:ffbac000       .debug$S                   00400000     wsock32:WSOCK32.dll
 0000:ffbac000       .debug$S                   00400000     kernel32:KERNEL32.dll
 0000:ffbac000       .debug$S                   00400000     kernel32:KERNEL32.dll
 0000:ffbac000       .debug$S                   00400000     kernel32:KERNEL32.dll
 0000:ffbac000       .debug$S                   00400000     kernel32:KERNEL32.dll
 0000:ffbac000       .debug$S                   00400000     kernel32:KERNEL32.dll
 0000:ffbac000       .debug$S                   00400000     kernel32:KERNEL32.dll
 0000:ffbac000       .debug$S                   00400000     kernel32:KERNEL32.dll
 0000:ffbac000       .debug$S                   00400000     kernel32:KERNEL32.dll
 0000:ffbac000       .debug$S                   00400000     kernel32:KERNEL32.dll
 0000:ffbac000       .debug$S                   00400000     kernel32:KERNEL32.dll
 0000:ffbac000       .debug$S                   00400000     kernel32:KERNEL32.dll
 0000:ffbac000       .debug$S                   00400000     kernel32:KERNEL32.dll
 0000:ffbac000       .debug$S                   00400000     kernel32:KERNEL32.dll
 0000:ffbac000       .debug$S                   00400000     kernel32:KERNEL32.dll
 0000:ffbac000       .debug$S                   00400000     kernel32:KERNEL32.dll
 0000:ffbac000       .debug$S                   00400000     kernel32:KERNEL32.dll
 0000:ffbac000       .debug$S                   00400000     kernel32:KERNEL32.dll
 0000:ffbac000       .debug$S                   00400000     kernel32:KERNEL32.dll
 0000:ffbac000       .debug$S                   00400000     kernel32:KERNEL32.dll
 0000:ffbac000       .debug$S                   00400000     kernel32:KERNEL32.dll
 0000:ffbac000       .debug$S                   00400000     kernel32:KERNEL32.dll
 0000:ffbac000       .debug$S                   00400000     kernel32:KERNEL32.dll
 0000:ffbac000       .debug$S                   00400000     kernel32:KERNEL32.dll
 0000:ffbac000       .debug$S                   00400000     kernel32:KERNEL32.dll
 0000:ffbac000       .debug$S                   00400000     kernel32:KERNEL32.dll
 0000:ffbac000       .debug$S                   00400000     kernel32:KERNEL32.dll
 0000:ffbac000       .debug$S                   00400000     kernel32:KERNEL32.dll
 0000:ffbac000       .debug$S                   00400000     kernel32:KERNEL32.dll
 0000:ffbac000       .debug$S                   00400000     kernel32:KERNEL32.dll
 0000:ffbac000       .debug$S                   00400000     kernel32:KERNEL32.dll
 0000:ffbac000       .debug$S                   00400000     kernel32:KERNEL32.dll
 0000:ffbac000       .debug$S                   00400000     kernel32:KERNEL32.dll
 0000:ffbac000       .debug$S                   00400000     kernel32:KERNEL32.dll
 0000:ffbac000       .debug$S                   00400000     kernel32:KERNEL32.dll
 0000:ffbac000       .debug$S                   00400000     kernel32:KERNEL32.dll
 0000:ffbac000       .debug$S                   00400000     user32:USER32.dll
 0000:ffbac000       .debug$S                   00400000     kernel32:KERNEL32.dll
 0000:ffbac000       .debug$S                   00400000     kernel32:KERNEL32.dll
 0000:ffbac000       .debug$S                   00400000     kernel32:KERNEL32.dll
 0000:ffbac000       .debug$S                   00400000     kernel32:KERNEL32.dll
 0000:ffbac000       .debug$S                   00400000     kernel32:KERNEL32.dll
 0000:ffbac000       .debug$S                   00400000     kernel32:KERNEL32.dll
 0000:ffbac000       .debug$S                   00400000     kernel32:KERNEL32.dll
 0000:ffbac000       .debug$S                   00400000     kernel32:KERNEL32.dll
 0000:ffbac000       .debug$S                   00400000     kernel32:KERNEL32.dll
 0000:ffbac000       .debug$S                   00400000     kernel32:KERNEL32.dll
 0000:ffbac000       .debug$S                   00400000     kernel32:KERNEL32.dll
 0000:ffbac000       .debug$S                   00400000     kernel32:KERNEL32.dll
 0000:ffbac000       .debug$S                   00400000     kernel32:KERNEL32.dll
 0000:ffbac000       .debug$S                   00400000     kernel32:KERNEL32.dll
 0000:ffbac000       .debug$S                   00400000     kernel32:KERNEL32.dll
 0000:ffbac000       .debug$S                   00400000     kernel32:KERNEL32.dll
 0000:ffbac000       .debug$S                   00400000     kernel32:KERNEL32.dll
 0000:ffbac000       .debug$S                   00400000     kernel32:KERNEL32.dll
 0000:ffbac000       .debug$S                   00400000     kernel32:KERNEL32.dll
 0000:ffbac000       .debug$S                   00400000     wsock32:WSOCK32.dll
 0000:ffbac000       .debug$S                   00400000     kernel32:KERNEL32.dll
 0000:ffbac000       .debug$S                   00400000     kernel32:KERNEL32.dll
 0000:ffbac000       .debug$S                   00400000     kernel32:KERNEL32.dll
 0000:ffbac000       .debug$S                   00400000     kernel32:KERNEL32.dll
 0000:ffbac000       .debug$S                   00400000     kernel32:KERNEL32.dll
 0000:ffbac000       .debug$S                   00400000     kernel32:KERNEL32.dll
 0000:ffbac000       .debug$S                   00400000     kernel32:KERNEL32.dll
 0000:ffbac000       .debug$S                   00400000     kernel32:KERNEL32.dll
 0000:ffbac000       .debug$S                   00400000     kernel32:KERNEL32.dll
 0000:ffbac000       .debug$S                   00400000     kernel32:KERNEL32.dll
 0000:ffbac000       .debug$S                   00400000     kernel32:KERNEL32.dll
 0000:ffbac000       .debug$S                   00400000     kernel32:KERNEL32.dll
 0000:ffbac000       .debug$S                   00400000     kernel32:KERNEL32.dll
 0000:ffbac000       .debug$S                   00400000     kernel32:KERNEL32.dll
 0000:ffbac000       .debug$S                   00400000     kernel32:KERNEL32.dll
 0000:ffbac000       .debug$S                   00400000     kernel32:KERNEL32.dll
 0000:ffbac000       .debug$S                   00400000     kernel32:KERNEL32.dll
 0000:ffbac000       .debug$S                   00400000     kernel32:KERNEL32.dll
 0000:ffbac000       .debug$S                   00400000     kernel32:KERNEL32.dll
 0000:ffbac000       .debug$S                   00400000     kernel32:KERNEL32.dll
 0000:ffbac000       .debug$S                   00400000     kernel32:KERNEL32.dll
 0000:ffbac000       .debug$S                   00400000     kernel32:KERNEL32.dll
 0000:ffbac000       .debug$S                   00400000     wsock32:WSOCK32.dll
 0000:ffbac000       .debug$S                   00400000     wsock32:WSOCK32.dll
 0000:ffbac000       .debug$S                   00400000     wsock32:WSOCK32.dll
 0000:ffbac000       .debug$S                   00400000     wsock32:WSOCK32.dll
 0000:ffbac000       .debug$S                   00400000     wsock32:WSOCK32.dll
 0000:ffbac000       .debug$S                   00400000     wsock32:WSOCK32.dll
 0000:ffbac000       .debug$S                   00400000     ws2_32:WS2_32.dll
 0000:ffbac000       .debug$S                   00400000     ws2_32:WS2_32.dll
 0000:ffbac000       .debug$S                   00400000     libmysql:LIBMYSQL.dll
 0000:ffbac000       .debug$S                   00400000     libmysql:LIBMYSQL.dll
 0000:ffbac000       .debug$S                   00400000     libmysql:LIBMYSQL.dll
 0000:ffbac000       .debug$S                   00400000     libmysql:LIBMYSQL.dll
 0000:ffbac000       .debug$S                   00400000     libmysql:LIBMYSQL.dll
 0000:ffbac000       .debug$S                   00400000     libmysql:LIBMYSQL.dll
 0000:ffbac000       .debug$S                   00400000     libmysql:LIBMYSQL.dll
 0000:ffbac000       .debug$S                   00400000     libmysql:LIBMYSQL.dll
 0000:ffbac000       .debug$S                   00400000     libmysql:LIBMYSQL.dll
 0000:ffbac000       .debug$S                   00400000     libmysql:LIBMYSQL.dll
 0000:ffbac000       .debug$S                   00400000     libmysql:LIBMYSQL.dll
 0000:ffbac000       .debug$S                   00400000     comctl32:COMCTL32.dll
 0000:ffbac000       .debug$S                   00400000     comctl32:COMCTL32.dll
 0000:ffbac000       .debug$S                   00400000     winmm:WINMM.dll
 0000:ffbac000       .debug$S                   00400000     wsock32:WSOCK32.dll
 0000:ffbac000       .debug$S                   00400000     wsock32:WSOCK32.dll
 0001:000007c3       __catch$?_Copy@?$basic_string@DU?$char_traits@D@std@@V?$allocator@D@2@@std@@QAEXII@Z$0 004017c3 f i files.obj
 0001:0000086b       __catch$?_Copy@?$basic_string@DU?$char_traits@D@std@@V?$allocator@D@2@@std@@QAEXII@Z$1 0040186b f i files.obj
 0001:00000bf8       $LN17                      00401bf8     parsecli.obj
 0001:000010ad       ?pre_c_initialization@@YAHXZ 004020ad f   LIBCMT:exe_winmain.obj
 0001:00001151       ?post_pgo_initialization@@YAHXZ 00402151 f   LIBCMT:exe_winmain.obj
 0001:00001159       ?pre_cpp_initialization@@YAXXZ 00402159 f   LIBCMT:exe_winmain.obj
 0001:0000116b       ?__scrt_common_main_seh@@YAHXZ 0040216b f   LIBCMT:exe_winmain.obj
 0001:000013b6       ?find_pe_section@@YAPAU_IMAGE_SECTION_HEADER@@QAEI@Z 004023b6 f   LIBCMT:utility.obj
 0001:00001877       ?is_managed_app@@YA_NXZ    00402877 f   libucrt:exit.obj
 0001:00001970       $$000000                   00402970     LIBCMT:_sehprolg4_.obj
 0001:00001da9       ?CallCatchBlock@@YAPAXPAUEHExceptionRecord@@PAUEHRegistrationNode@@PAU_CONTEXT@@PBU_s_FuncInfo@@PAXHK@Z 00402da9 f   libvcruntime:frame.obj
 0001:00001f65       ?CallUnexpected@@YAXPBU_s_ESTypeList@@@Z 00402f65 f   libvcruntime:frame.obj
 0001:00001f85       __catch$?CallUnexpected@@YAXPBU_s_ESTypeList@@@Z$0 00402f85 f   libvcruntime:frame.obj
 0001:00001f9f       ?CatchIt@@YAXPAUEHExceptionRecord@@PAUEHRegistrationNode@@PAU_CONTEXT@@PAXPBU_s_FuncInfo@@PBU_s_HandlerType@@PBU_s_CatchableType@@PBU_s_TryBlockMapEntry@@H1E@Z 00402f9f f   libvcruntime:frame.obj
 0001:0000201a       ?ExFilterRethrow@@YAHPAU_EXCEPTION_POINTERS@@@Z 0040301a f   libvcruntime:frame.obj
 0001:00002064       ?FindHandler@@YAXPAUEHExceptionRecord@@PAUEHRegistrationNode@@PAU_CONTEXT@@PAXPBU_s_FuncInfo@@EH1@Z 00403064 f   libvcruntime:frame.obj
 0001:000023cc       ?FindHandlerForForeignException@@YAXPAUEHExceptionRecord@@PAUEHRegistrationNode@@PAU_CONTEXT@@PAXPBU_s_FuncInfo@@HH1@Z 004033cc f   libvcruntime:frame.obj
 0001:000024e7       ?IsInExceptionSpec@@YAEPAUEHExceptionRecord@@PBU_s_ESTypeList@@@Z 004034e7 f   libvcruntime:frame.obj
 0001:00002583       ?Is_bad_exception_allowed@@YAEPBU_s_ESTypeList@@@Z 00403583 f   libvcruntime:frame.obj
 0001:00002a50       $$000000                   00403a50     libvcruntime:strchr.obj
 0001:00002b80       $$000000                   00403b80     libvcruntime:strstr.obj
 0001:00002df0       $$000000                   00403df0     libvcruntime:memmove.obj
 0001:00003054       TrailingUpVec              00404054     libvcruntime:memmove.obj
 0001:00003100       TrailingDownVec            00404100     libvcruntime:memmove.obj
 0001:00003370       $$000000                   00404370     libvcruntime:strrchr.obj
 0001:000034b0       _ValidateLocalCookies      004044b0 f   libvcruntime:_chandler4_.obj
 0001:000037d0       $$000000                   004047d0     libvcruntime:memset.obj
 0001:00003a50       $$000000                   00404a50     libvcruntime:lowhelpr.obj
 0001:00003e80       $$000000                   00404e80     libvcruntime:_exsup4_.obj
 0001:00003f10       __unwind_handler4          00404f10 f   libvcruntime:_exsup4_.obj
 0001:00004069       ?try_get_function@@YAPAXW4function_id@?A0x89697e75@@QBDQBW4module_id@2@2@Z 00405069 f   libvcruntime:winapi_downlevel.obj
 0001:00004109       ?try_get_module@@YAPAUHINSTANCE__@@W4module_id@?A0x89697e75@@@Z 00405109 f   libvcruntime:winapi_downlevel.obj
 0001:00004350       $$000000                   00405350     libvcruntime:_exsup_.obj
 0001:00004370       __unwind_handler           00405370 f   libvcruntime:_exsup_.obj
 0001:00004579       ??$common_vsprintf@Vstandard_base@__crt_stdio_output@@D@@YAH_KQADIQBDQAU__crt_locale_pointers@@1@Z 00405579 f   libucrt:output.obj
 0001:000046f5       ??$common_vsprintf@Vstandard_base@__crt_stdio_output@@_W@@YAH_KQA_WIQB_WQAU__crt_locale_pointers@@QAD@Z 004056f5 f   libucrt:output.obj
 0001:00004db2       ??R<lambda_481dd5778c961fbcd3b60b650e9b9dc4>@@QBEHXZ 00405db2 f   libucrt:output.obj
 0001:00004e6f       ??R<lambda_4f2c1eaeead2a5fc776db5b62ea0fb9b>@@QBEHXZ 00405e6f f   libucrt:output.obj
 0001:000051fb       $LN54                      004061fb     libucrt:output.obj
 0001:00005317       $LN54                      00406317     libucrt:output.obj
 0001:00005437       $LN54                      00406437     libucrt:output.obj
 0001:00005557       $LN54                      00406557     libucrt:output.obj
 0001:0000676f       $LN19                      0040776f     libucrt:output.obj
 0001:00007715       ??$common_fsopen@D@@YAPAU_iobuf@@QBD0H@Z 00408715 f   libucrt:fopen.obj
 0001:00007d74       ??$common_vsscanf@D@@YAH_KQBDI1QAU__crt_locale_pointers@@QAD@Z 00408d74 f   libucrt:input.obj
 0001:000087ac       $LN38                      004097ac     libucrt:input.obj
 0001:000088b0       $LN21                      004098b0     libucrt:input.obj
 0001:0000908d       ??R<lambda_4794eb6df3f6f7d20e048423b4e04b2b>@@QBE_NXZ 0040a08d f   libucrt:input.obj
 0001:0000908d       ??R<lambda_79c077965043167fb4fbb9f601780f11>@@QBE_NXZ 0040a08d f   libucrt:input.obj
 0001:0000908d       ??R<lambda_24bca0711811e6233a81aece93ea4a83>@@QBE_NXZ 0040a08d f   libucrt:input.obj
 0001:0000bc95       $LN22                      0040cc95     libucrt:input.obj
 0001:0000c40e       $LN18                      0040d40e     libucrt:input.obj
 0001:0000c662       _memcpy_s                  0040d662 f   libucrt:cfout.obj
 0001:0000c662       _memcpy_s                  0040d662 f   libucrt:assert.obj
 0001:0000c662       _memcpy_s                  0040d662 f   libucrt:mbctype.obj
 0001:0000c662       _memcpy_s                  0040d662 f   libucrt:input.obj
 0001:0000c662       _memcpy_s                  0040d662 f   libucrt:fread.obj
 0001:0000c701       ??$common_fgets@D@@YAPADQADHV__crt_stdio_stream@@@Z 0040d701 f   libucrt:fgets.obj
 0001:0000c7d1       ??$common_tox_l@$1?internal_islower_l@@YA_NHQAU__crt_locale_pointers@@@Z$1?internal_map_upper@@YAHH0@Z@@YAHHKQAU__crt_locale_pointers@@@Z 0040d7d1 f   libucrt:tolower_toupper.obj
 0001:0000c91b       ??$common_tox_l@$1?internal_isupper_l@@YA_NHQAU__crt_locale_pointers@@@Z$1?internal_map_lower@@YAHH0@Z@@YAHHKQAU__crt_locale_pointers@@@Z 0040d91b f   libucrt:tolower_toupper.obj
 0001:0000ca65       ?internal_islower_l@@YA_NHQAU__crt_locale_pointers@@@Z 0040da65 f   libucrt:tolower_toupper.obj
 0001:0000ca82       ?internal_isupper_l@@YA_NHQAU__crt_locale_pointers@@@Z 0040da82 f   libucrt:tolower_toupper.obj
 0001:0000d918       _common_flush_all          0040e918 f   libucrt:fflush.obj
 0001:0000dac2       ??R<lambda_b51c0495177f500e782686251704ae76>@@QBEIXZ 0040eac2 f   libucrt:fwrite.obj
 0001:0000dcd9       ??$common_stat@U_stat64i32@@@@YAHQB_WQAU_stat64i32@@@Z 0040ecd9 f   libucrt:stat.obj
 0001:0000dde0       ??$common_stat_handle_file_not_opened@U_stat64i32@@@@YA_NQB_WAAU_stat64i32@@@Z 0040ede0 f   libucrt:stat.obj
 0001:0000de6c       ??$common_stat_handle_file_opened@U_stat64i32@@@@YA_NQB_WHQAXAAU_stat64i32@@@Z 0040ee6c f   libucrt:stat.obj
 0001:0000e024       ??$convert_large_integer_time_to_time_t@_J@@YA_JT_LARGE_INTEGER@@_J@Z 0040f024 f   libucrt:stat.obj
 0001:0000e10c       ?call_wfullpath@@YAPA_WQA_WQB_WIQAPA_W@Z 0040f10c f   libucrt:stat.obj
 0001:0000e16c       ?compute_size@@YA_NABT_LARGE_INTEGER@@AAJ@Z 0040f16c f   libucrt:stat.obj
 0001:0000e19e       ?convert_to_stat_mode@@YAGHQB_W@Z 0040f19e f   libucrt:stat.obj
 0001:0000e204       ?get_drive_number_from_path@@YA_NQB_WAAH@Z 0040f204 f   libucrt:stat.obj
 0001:0000e271       ?has_executable_extension@@YA_NQB_W@Z 0040f271 f   libucrt:stat.obj
 0001:0000e2e0       ?is_root_or_empty@@YA_NQB_W@Z 0040f2e0 f   libucrt:stat.obj
 0001:0000e337       ?is_root_unc_name@@YA_NQB_W@Z 0040f337 f   libucrt:stat.obj
 0001:0000e3fb       ?is_slash@@YA_N_W@Z        0040f3fb f   libucrt:stat.obj
 0001:0000e417       ?is_usable_drive_or_unc_root@@YA_NQB_W@Z 0040f417 f   libucrt:stat.obj
 0001:0000e524       ??$thread_start@P6AXPAX@Z@@YGKQAX@Z 0040f524 f   libucrt:thread.obj
 0001:0000e5da       ?common_end_thread@@YAXI@Z 0040f5da f   libucrt:thread.obj
 0001:0000e631       ?create_thread_parameter@@YAPAU__acrt_thread_parameter@@QAX0@Z 0040f631 f   libucrt:thread.obj
 0001:0000e9b0       $$000000                   0040f9b0     libucrt:strncpy.obj
 0001:0000eaf3       ?atexit_exception_filter@@YAHK@Z 0040faf3 f   libucrt:exit.obj
 0001:0000eb06       ?common_exit@@YAXHW4_crt_exit_cleanup_mode@@W4_crt_exit_return_mode@@@Z 0040fb06 f   libucrt:exit.obj
 0001:0000ec1f       ?exit_or_terminate_process@@YAXI@Z 0040fc1f f   libucrt:exit.obj
 0001:0000ec60       ?try_cor_exit_process@@YAXI@Z 0040fc60 f   libucrt:exit.obj
 0001:0000ed5b       ??$common_ftell@J@@YAJV__crt_stdio_stream@@@Z 0040fd5b f   libucrt:ftell.obj
 0001:0000edc8       ??$common_ftell_nolock@J@@YAJV__crt_stdio_stream@@@Z 0040fdc8 f   libucrt:ftell.obj
 0001:0000edf3       ??$common_ftell_nolock@_J@@YA_JV__crt_stdio_stream@@@Z 0040fdf3 f   libucrt:ftell.obj
 0001:0000ef88       ?common_ftell_read_mode_nolock@@YA_JV__crt_stdio_stream@@_J1@Z 0040ff88 f   libucrt:ftell.obj
 0001:0000f10c       ?common_ftell_translated_utf8_nolock@@YA_JV__crt_stdio_stream@@_J@Z 0041010c f   libucrt:ftell.obj
 0001:0000f2bd       ??$common_assert_to_message_box@_W@@YAXQB_W0IQAX@Z 004102bd f   libucrt:assert.obj
 0001:0000f359       ??$common_assert_to_message_box_build_string@_W@@YAXQA_WIQB_W1IQAX@Z 00410359 f   libucrt:assert.obj
 0001:0000f89e       ??$common_assert_to_stderr@_W@@YAXQB_W0I@Z 0041089e f   libucrt:assert.obj
 0001:0000f949       ?common_assert_to_stderr_direct@@YAXQB_W0I@Z 00410949 f   libucrt:assert.obj
 0001:0000f9fa       ?get_assert_format@@YAPB_W_W@Z 004109fa f   libucrt:assert.obj
 0001:0000fb56       ?common_fseek@@YAHV__crt_stdio_stream@@_JH@Z 00410b56 f   libucrt:fseek.obj
 0001:0000fbdd       ?common_fseek_binary_mode_read_only_fast_track_nolock@@YA_NV__crt_stdio_stream@@_JH@Z 00410bdd f   libucrt:fseek.obj
 0001:0000fcb6       ?common_fseek_nolock@@YAHV__crt_stdio_stream@@_JH@Z 00410cb6 f   libucrt:fseek.obj
 0001:000100de       ??$common_timespec_get@U_timespec64@@@@YAHQAU_timespec64@@H@Z 004110de f   libucrt:time.obj
 0001:0001019f       ??$common_localtime_s@_J@@YAHQAUtm@@QB_J@Z 0041119f f   libucrt:localtime.obj
 0001:0001070d       ??$common_configure_argv@D@@YAHW4_crt_argv_mode@@@Z 0041170d f   libucrt:argv_parsing.obj
 0001:00010831       ??$parse_command_line@D@@YAXPADPAPAD0PAI2@Z 00411831 f   libucrt:argv_parsing.obj
 0001:00010a06       ??$common_get_or_create_environment_nolock@D@@YAPAPADXZ 00411a06 f   libucrt:environment_initialization.obj
 0001:00010a35       ??$common_initialize_environment_nolock@D@@YAHXZ 00411a35 f   libucrt:environment_initialization.obj
 0001:00010a8e       ??$create_environment@D@@YAQAPADQAD@Z 00411a8e f   libucrt:environment_initialization.obj
 0001:00010b5f       ??$free_environment@D@@YAXQAPAD@Z 00411b5f f   libucrt:environment_initialization.obj
 0001:00010b5f       ??$free_environment@_W@@YAXQAPA_W@Z 00411b5f f   libucrt:environment_initialization.obj
 0001:00010b8e       ??$initialize_environment_by_cloning_nolock@D@@YAHXZ 00411b8e f   libucrt:environment_initialization.obj
 0001:00010c4d       ??$uninitialize_environment_internal@D@@YAXAAPAPAD@Z 00411c4d f   libucrt:environment_initialization.obj
 0001:00010c68       ??$uninitialize_environment_internal@_W@@YAXAAPAPA_W@Z 00411c68 f   libucrt:environment_initialization.obj
 0001:000110de       ??R<lambda_275893d493268fdec8709772e3fcec0e>@@QBEHXZ 004120de f   libucrt:onexit.obj
 0001:000111fe       ??R<lambda_4e60a939b0d047cfe11ddc22648dfba9>@@QBEHXZ 004121fe f   libucrt:onexit.obj
 0001:000113d3       _initialize_global_variables 004123d3 f   libucrt:initialization.obj
 0001:000113e5       _initialize_c              004123e5 f   libucrt:initialization.obj
 0001:000113ff       _uninitialize_environment  004123ff f   libucrt:initialization.obj
 0001:00011407       _initialize_global_state_isolation 00412407 f   libucrt:initialization.obj
 0001:00011407       _initialize_environment    00412407 f   libucrt:initialization.obj
 0001:00011407       _uninitialize_c            00412407 f   libucrt:initialization.obj
 0001:00011407       _report_memory_leaks       00412407 f   libucrt:initialization.obj
 0001:00011407       _uninitialize_global_state_isolation 00412407 f   libucrt:initialization.obj
 0001:0001140a       _initialize_pointers       0041240a f   libucrt:initialization.obj
 0001:00011447       _uninitialize_vcruntime    00412447 f   libucrt:initialization.obj
 0001:00011450       _uninitialize_allocated_memory 00412450 f   libucrt:initialization.obj
 0001:000117c6       ??$common_open@D@@YAHQBDHH@Z 004127c6 f   libucrt:open.obj
 0001:00011876       ??$common_sopen_dispatch@D@@YAHQBDHHHQAHH@Z 00412876 f   libucrt:open.obj
 0001:00011942       ?configure_text_mode@@YAHHUfile_options@?A0x704126de@@HAAW4__crt_lowio_text_mode@@@Z 00412942 f   libucrt:open.obj
 0001:00011b8f       ?create_file@@YAPAXQB_WQAU_SECURITY_ATTRIBUTES@@Ufile_options@?A0x704126de@@@Z 00412b8f f   libucrt:open.obj
 0001:00011bb4       ?decode_open_create_flags@@YAKH@Z 00412bb4 f   libucrt:open.obj
 0001:00011c24       ?decode_options@@YA?AUfile_options@?A0x704126de@@HHH@Z 00412c24 f   libucrt:open.obj
 0001:00011da0       ?truncate_ctrl_z_if_present@@YAHH@Z 00412da0 f   libucrt:open.obj
 0001:00012202       ??$translate_text_mode_nolock@D@@YAHHQADI@Z 00413202 f   libucrt:read.obj
 0001:00012359       ??$translate_text_mode_nolock@_W@@YAHHQA_WI@Z 00413359 f   libucrt:read.obj
 0001:00012519       ?translate_ansi_or_utf8_nolock@@YAHHQADIQA_WI@Z 00413519 f   libucrt:read.obj
 0001:00012669       ?translate_utf16_from_console_nolock@@YAHHQA_WI@Z 00413669 f   libucrt:read.obj
 0001:00012e3c       ?write_double_translated_ansi_nolock@@YA?AUwrite_result@?A0x47fa6670@@HQBDI@Z 00413e3c f   libucrt:write.obj
 0001:00012fef       ?write_double_translated_unicode_nolock@@YA?AUwrite_result@?A0x47fa6670@@QBDI@Z 00413fef f   libucrt:write.obj
 0001:0001305c       ?write_requires_double_translation_nolock@@YA_NH@Z 0041405c f   libucrt:write.obj
 0001:000130d2       ?write_text_ansi_nolock@@YA?AUwrite_result@?A0x47fa6670@@HQBDI@Z 004140d2 f   libucrt:write.obj
 0001:000131b1       ?write_text_utf16le_nolock@@YA?AUwrite_result@?A0x47fa6670@@HQBDI@Z 004141b1 f   libucrt:write.obj
 0001:0001329f       ?write_text_utf8_nolock@@YA?AUwrite_result@?A0x47fa6670@@HQBDI@Z 0041429f f   libucrt:write.obj
 0001:000140af       ?construct_ptd@@YAXQAU__acrt_ptd@@QAPAU__crt_locale_data@@@Z 004150af f   libucrt:per_thread_data.obj
 0001:00014128       ?destroy_fls@@YGXPAX@Z     00415128 f   libucrt:per_thread_data.obj
 0001:00014149       ?destroy_ptd@@YAXQAU__acrt_ptd@@@Z 00415149 f   libucrt:per_thread_data.obj
 0001:000141f2       ?replace_current_thread_locale_nolock@@YAXQAU__acrt_ptd@@QAU__crt_locale_data@@@Z 004151f2 f   libucrt:per_thread_data.obj
 0001:00014470       ?fp_format_a@@YAHQBNPADIQADIH_NIQAU__crt_locale_pointers@@@Z 00415470 f   libucrt:cvt.obj
 0001:00014773       ?fp_format_e@@YAHQBNQADI1IH_NIQAU__crt_locale_pointers@@@Z 00415773 f   libucrt:cvt.obj
 0001:0001480e       ?fp_format_e_internal@@YAHQADIH_NIQAU_strflt@@1QAU__crt_locale_pointers@@@Z 0041580e f   libucrt:cvt.obj
 0001:00014959       ?fp_format_f@@YAHQBNQADI1IHQAU__crt_locale_pointers@@@Z 00415959 f   libucrt:cvt.obj
 0001:000149e6       ?fp_format_f_internal@@YAHQADIHQAU_strflt@@_NQAU__crt_locale_pointers@@@Z 004159e6 f   libucrt:cvt.obj
 0001:00014abd       ?fp_format_g@@YAHQBNQADI1IH_NIQAU__crt_locale_pointers@@@Z 00415abd f   libucrt:cvt.obj
 0001:00014b85       ?fp_format_nan_or_infinity@@YAHW4__acrt_fp_class@@_NPADI1@Z 00415b85 f   libucrt:cvt.obj
 0001:00014c7d       ?shift_bytes@@YAXQADI0H@Z  00415c7d f   libucrt:cvt.obj
 0001:00014dfb       ?fputwc_binary_nolock@@YAG_WV__crt_stdio_stream@@@Z 00415dfb f   libucrt:fputwc.obj
 0001:000151f1       ?initialize_inherited_file_handles_nolock@@YAXXZ 004161f1 f   libucrt:ioinit.obj
 0001:000152a7       ?initialize_stdio_handles_nolock@@YAXXZ 004162a7 f   libucrt:ioinit.obj
 0001:00015479       ?find_or_allocate_unused_stream_nolock@@YA?AV__crt_stdio_stream@@XZ 00416479 f   libucrt:stream.obj
 0001:0001576e       ??$common_openfile@D@@YAPAU_iobuf@@QBD0HV__crt_stdio_stream@@@Z 0041676e f   libucrt:openfile.obj
 0001:0001592f       ??$common_refill_and_read_nolock@D@@YAHV__crt_stdio_stream@@@Z 0041692f f   libucrt:_filbuf.obj
 0001:00015d7c       ?__acrt_LCMapStringA_stat@@YAHPAU__crt_locale_pointers@@PB_WKPBDHPADHHH@Z 00416d7c f   libucrt:lcmapstringa.obj
 0001:000161d3       ??$common_flush_and_write_nolock@D@@YAHHV__crt_stdio_stream@@@Z 004171d3 f   libucrt:_flsbuf.obj
 0001:000162e4       ??$common_flush_and_write_nolock@_W@@YAHHV__crt_stdio_stream@@@Z 004172e4 f   libucrt:_flsbuf.obj
 0001:000163f9       ??$write_buffer_nolock@D@@YA_NDV__crt_stdio_stream@@@Z 004173f9 f   libucrt:_flsbuf.obj
 0001:000164c5       ??$write_buffer_nolock@_W@@YA_N_WV__crt_stdio_stream@@@Z 004174c5 f   libucrt:_flsbuf.obj
 0001:000165af       ?get_drive_number_from_path@@YAHQB_W@Z 004175af f   libucrt:drive.obj
 0001:0001668b       ??$common_fullpath_dynamic_buffer@_W@@YAPA_WQB_WIHQBDH@Z 0041768b f   libucrt:fullpath.obj
 0001:00016701       ??$common_fullpath_user_buffer@_W@@YAPA_WQA_WQB_WI@Z 00417701 f   libucrt:fullpath.obj
 0001:00016a37       ?try_get_CompareStringEx@@YAP6GHPB_WK0H0HPAU_nlsversioninfo@@PAXJ@ZXZ 00417a37 f   libucrt:winapi_thunks.obj
 0001:00016a51       ?try_get_MessageBoxA@@YAP6GHPAUHWND__@@PBD1I@ZXZ 00417a51 f   libucrt:winapi_thunks.obj
 0001:00016a6b       ?try_get_MessageBoxW@@YAP6GHPAUHWND__@@PB_W1I@ZXZ 00417a6b f   libucrt:winapi_thunks.obj
 0001:00016a85       ?try_get_function@@YAPAXW4function_id@?A0x352e5c4b@@QBDQBW4module_id@2@2@Z 00417a85 f   libucrt:winapi_thunks.obj
 0001:00016b21       ?try_get_module@@YAPAUHINSTANCE__@@W4module_id@?A0x352e5c4b@@@Z 00417b21 f   libucrt:winapi_thunks.obj
 0001:00017858       ??$common_loctotime_t@_J@@YA_JHHHHHHH@Z 00418858 f   libucrt:loctotime.obj
 0001:00017a8c       ??$common_lseek@_J@@YA_JH_JH@Z 00418a8c f   libucrt:lseek.obj
 0001:00017b91       ??$common_lseek_nolock@_J@@YA_JH_JH@Z 00418b91 f   libucrt:lseek.obj
 0001:00017c45       ??$common_xtox@K_W@@YAHKQA_WII_N@Z 00418c45 f   libucrt:xtoa.obj
 0001:00017cd3       ??$common_xtox_s@K_W@@YAHKQA_WII_N@Z 00418cd3 f   libucrt:xtoa.obj
 0001:00017e7f       ??$common_tcsncat_s@_W@@YAHQA_WIQB_WI@Z 00418e7f f   libucrt:wcsncat_s.obj
 0001:00017f75       ??$common_show_message_box@_W@@YAHQB_W0I@Z 00418f75 f   libucrt:crtmbox.obj
 0001:0001804e       ??$message_box_wait_thread@_W@@YGKQAX@Z 0041904e f   libucrt:crtmbox.obj
 0001:000180f4       ??R<lambda_b721fa326cdb32351d23dfa67958c160>@@QBEHXZ 004190f4 f   libucrt:setvbuf.obj
 0001:0001818e       ?set_buffer@@YAHV__crt_stdio_stream@@QADIH@Z 0041918e f   libucrt:setvbuf.obj
 0001:000182b9       ?get_global_action_nolock@@YAPAP6AXH@ZH@Z 004192b9 f   libucrt:signal.obj
 0001:000182fb       ?siglookup@@YAPAU__crt_signal_action_t@@HQAU1@@Z 004192fb f   libucrt:signal.obj
 0001:00018739       ?compute_iso_week@@YAHHHH@Z 00419739 f   libucrt:wcsftime.obj
 0001:00018787       ?compute_iso_week_internal@@YAHHHH@Z 00419787 f   libucrt:wcsftime.obj
 0001:0001881c       ?compute_iso_year@@YAHHHH@Z 0041981c f   libucrt:wcsftime.obj
 0001:00018847       ?expand_time@@YA_NPAU__crt_locale_pointers@@_WPBUtm@@PAPA_WPAIPBU__crt_lc_time_data@@_N@Z 00419847 f   libucrt:wcsftime.obj
 0001:00019323       $LN193                     0041a323     libucrt:wcsftime.obj
 0001:00019343       ?store_number@@YAXHHQAPA_WQAI_W@Z 0041a343 f   libucrt:wcsftime.obj
 0001:000193e5       ?store_number_without_lead_zeroes@@YAXHQAPA_WQAI@Z 0041a3e5 f   libucrt:wcsftime.obj
 0001:0001944c       ?store_string@@YAXPB_WQAPA_WQAI@Z 0041a44c f   libucrt:wcsftime.obj
 0001:0001947d       ?store_winword@@YA_NQAU__crt_locale_pointers@@HQBUtm@@QAPA_WQAIQBU__crt_lc_time_data@@@Z 0041a47d f   libucrt:wcsftime.obj
 0001:00019b71       ??$common_gmtime_s@_J@@YAHQAUtm@@QB_J@Z 0041ab71 f   libucrt:gmtime.obj
 0001:00019cbe       ?compute_year@@YAHAA_JAA_N@Z 0041acbe f   libucrt:gmtime.obj
 0001:00019dab       ?_isindst_nolock@@YAHQAUtm@@@Z 0041adab f   libucrt:tzset.obj
 0001:00019f92       ?cvtdate@@YAXW4transition_type@?A0xdb49773f@@W4date_type@2@HHHHHHHHH@Z 0041af92 f   libucrt:tzset.obj
 0001:0001a0e2       ?tzset_from_environment_nolock@@YAXPAD@Z 0041b0e2 f   libucrt:tzset.obj
 0001:0001a2b7       ?tzset_from_system_nolock@@YAXXZ 0041b2b7 f   libucrt:tzset.obj
 0001:0001a412       ?tzset_nolock@@YAXXZ       0041b412 f   libucrt:tzset.obj
 0001:0001a58d       ?<helper_func_cdecl>@<lambda_62bb7ecb46d0a77b591a051c43eb5ad1>@@CAHPBX0@Z 0041b58d f   libucrt:argv_wildcards.obj
 0001:0001a5a5       ??$common_expand_argv_wildcards@D@@YAHQAPADQAPAPAD@Z 0041b5a5 f   libucrt:argv_wildcards.obj
 0001:0001a735       ??$copy_and_add_argument_to_buffer@D@@YAHQBD0IAAV?$argument_list@D@?A0xb0e4b824@@@Z 0041b735 f   libucrt:argv_wildcards.obj
 0001:0001a7cb       ??$expand_argument_wildcards@D@@YAHQAD0AAV?$argument_list@D@?A0xb0e4b824@@@Z 0041b7cb f   libucrt:argv_wildcards.obj
 0001:0001aaa6       ??R<lambda_ad1ced32f4ac17aa236e5ef05d6b3b7c>@@QBEXXZ 0041baa6 f   libucrt:mbctype.obj
 0001:0001ab6a       ?CPtoLocaleName@@YAPB_WH@Z 0041bb6a f   libucrt:mbctype.obj
 0001:0001aba8       ?getSystemCP@@YAHH@Z       0041bba8 f   libucrt:mbctype.obj
 0001:0001ac1b       ?setSBCS@@YAXPAU__crt_multibyte_data@@@Z 0041bc1b f   libucrt:mbctype.obj
 0001:0001ac80       ?setSBUpLow@@YAXPAU__crt_multibyte_data@@@Z 0041bc80 f   libucrt:mbctype.obj
 0001:0001ae14       ?setmbcp_internal@@YAHH_N@Z 0041be14 f   libucrt:mbctype.obj
 0001:0001b1c6       ?x_ismbbtype_l@@YAHPAU__crt_locale_pointers@@IHH@Z 0041c1c6 f   libucrt:ismbbyte.obj
 0001:0001b250       ?find_end_of_double_null_terminated_sequence@@YAPB_WQB_W@Z 0041c250 f   libucrt:get_environment_from_os.obj
 0001:0001b30a       ??$common_set_variable_in_environment_nolock@D@@YAHQADH@Z 0041c30a f   libucrt:setenv.obj
 0001:0001b545       ??$copy_environment@D@@YAPAPADQAPAD@Z 0041c545 f   libucrt:setenv.obj
 0001:0001b5f6       ??$find_in_environment_nolock@D@@YAHQBDI@Z 0041c5f6 f   libucrt:setenv.obj
 0001:0001b7e3       ?free_crt_array_internal@@YAXQAPBXI@Z 0041c7e3 f   libucrt:inittime.obj
 0001:0001bf14       ___hw_cw_sse2              0041cf14 f   libucrt:ieee87.obj
 0001:0001c39f       __hw_cw                    0041d39f f   libucrt:ieee87.obj
 0001:0001c440       $$000000                   0041d440     libucrt:_strnicm.obj
 0001:0001dce0       $$000000                   0041ece0     libucrt:strncmp.obj
 0001:0001ddb5       ___get_abstract_control_sse2 0041edb5 f   libucrt:_fenvutils.obj
 0001:0001de32       ___get_abstract_control_x87 0041ee32 f   libucrt:_fenvutils.obj
 0001:0001dea5       ___get_machine_control     0041eea5 f   libucrt:_fenvutils.obj
 0001:0001df16       ___get_machine_control_sse2 0041ef16 f   libucrt:_fenvutils.obj
 0001:0001df96       ___get_machine_status_sse2 0041ef96 f   libucrt:_fenvutils.obj
 0001:0001dff7       ___get_machine_status_x87  0041eff7 f   libucrt:_fenvutils.obj
 0001:0001e25f       ??$common_getdcwd@_W@@YAPA_WHQA_WHHQBDH@Z 0041f25f f   libucrt:getcwd.obj
 0001:0001e34c       ??$common_getdcwd_dynamic_buffer@_W@@YAPA_WQA_WIHQBDH@Z 0041f34c f   libucrt:getcwd.obj
 0001:0001e3cd       ??$common_getdcwd_user_buffer@_W@@YAPA_WQA_W0I@Z 0041f3cd f   libucrt:getcwd.obj
 0001:0001e427       ?is_valid_drive@@YAHI@Z    0041f427 f   libucrt:getcwd.obj
 0001:0001e58a       ?GetTableIndexFromLocaleName@@YAHPB_W@Z 0041f58a f   libucrt:lcidtoname_downlevel.obj
 0001:0001e672       ?_mbstowcs_l_helper@@YAIPA_WPBDIPAU__crt_locale_pointers@@@Z 0041f672 f   libucrt:mbstowcs.obj
 0001:0001e8ce       ??$common_getenv_nolock@D@@YAPADQBD@Z 0041f8ce f   libucrt:getenv.obj
 0001:0001e93e       ??$common_getenv_s@D@@YAHQAIQADIQBD@Z 0041f93e f   libucrt:getenv.obj
 0001:0001e993       ??$common_getenv_s_nolock@D@@YAHQAIQADIQBD@Z 0041f993 f   libucrt:getenv.obj
 0001:0001ea46       ??$common_tcsncpy_s@D@@YAHQADIQBDI@Z 0041fa46 f   libucrt:strncpy_s.obj
 0001:0001eb10       ?shortsort@@YAXPAD0IP6AHPBX1@Z@Z 0041fb10 f   libucrt:qsort.obj
 0001:0001ebb0       ?swap@@YAXPAD0I@Z          0041fbb0 f   libucrt:qsort.obj
 0001:0001ef90       $$000000                   0041ff90     libucrt:strpbrk.obj
 0001:0001f074       ?initialize_multibyte@@YAHXZ 00420074 f   libucrt:multibyte_initializer.obj
 0001:0001f3c0       $$000000                   004203c0     libucrt:log10.obj
 0001:0001f510       $$000000                   00420510     libucrt:ceil_pentium4.obj
 0001:0001f66b       ?InternalCompareStringA@@YAHPAU__crt_locale_pointers@@PB_WKPBDH2HH@Z 0042066b f   libucrt:comparestringa.obj
 0001:0001f970       $$000000                   00420970     libucrt:log10_pentium4.obj
 0001:0001fc00       $$000000                   00420c00     libucrt:87tran.obj
 0001:0001fe00       $$000000                   00420e00     libucrt:87disp.obj
 0001:00020000       $$000000                   00421000     libucrt:common.obj
 0001:00020190       $$000000                   00421190     libucrt:genexcep.obj
 0001:000211c0       $$000000                   004221c0     LIBCMT:ulldvrm.obj
 0001:00021260       $$000000                   00422260     LIBCMT:llmul.obj
 0001:000212a0       $$000000                   004222a0     LIBCMT:llshl.obj
 0001:000212c0       $$000000                   004222c0     LIBCMT:ullshr.obj
 0001:000212e0       $$000000                   004222e0     LIBCMT:_sehprolg4gs_.obj
 0001:00021340       $$000000                   00422340     LIBCMT:lldiv.obj
 0001:000213f0       $$000000                   004223f0     LIBCMT:chkstk.obj
 0001:00021420       $$000000                   00422420     LIBCMT:lldvrm.obj
 0001:00021500       $$000000                   00422500     LIBCMT:llrem.obj
 0001:000215c0       $$000000                   004225c0     LIBCMT:alloca16.obj
 0001:000215f0       $$000000                   004225f0     LIBCMT:_ftol2_.obj
 0001:000216b0       $$000000                   004226b0     libvcruntime:memcpy.obj
 0001:00021914       TrailingUpVec              00422914     libvcruntime:memcpy.obj
 0001:000219c0       TrailingDownVec            004229c0     libvcruntime:memcpy.obj
 0001:00021e40       ?Decode@@YAXPAKPAEI@Z      00422e40 f   md5.obj
 0001:00021e80       ?Encode@@YAXPAEPAKI@Z      00422e80 f   md5.obj
 0001:00021ec0       ?MD5Transform@@YAXQAKQAE@Z 00422ec0 f   md5.obj
 0001:000225c0       ?MD5Final@@YAXQAEPAUMD5_CTX@@@Z 004235c0 f   md5.obj
 0001:000226a0       ?MD5Update@@YAXPAUMD5_CTX@@PAEI@Z 004236a0 f   md5.obj
 0001:00022750       ?MD5Init@@YAXPAUMD5_CTX@@@Z 00423750 f   md5.obj
 0001:00022780       ?RscFileRead@@YA_NPADPAU_iobuf@@P6A_N0HH0@Z@Z 00423780 f   rscload.obj
 0001:00025a54       $LN16                      00426a54     adminfn.obj
 0001:00027ccc       $LN76                      00428ccc     adminfn.obj
 0001:00027ce4       $LN68                      00428ce4     adminfn.obj
 0001:00028ebc       $LN121                     00429ebc     adminfn.obj
 0001:00029024       $LN118                     0042a024     adminfn.obj
 0001:000291c8       $LN15                      0042a1c8     adminfn.obj
 0001:00029378       $LN20                      0042a378     adminfn.obj
 0001:0002b430       $LN31                      0042c430     adminfn.obj
 0001:0002b948       $LN27                      0042c948     adminfn.obj
 0001:0002e668       $LN37                      0042f668     builtin.obj
 0001:00031c28       $LN555                     00432c28     ccode.obj
 0001:0003fc00       $LN39                      00440c00     ccode.obj
 0001:0003fc1c       $LN31                      00440c1c     ccode.obj
 0001:00040214       $LN74                      00441214     ccode.obj
 0001:00041748       $LN99                      00442748     ccode.obj
 0001:00041760       $LN84                      00442760     ccode.obj
 0001:00041f3c       $LN26                      00442f3c     ccode.obj
 0001:00041f54       $LN19                      00442f54     ccode.obj
 0001:00044858       $LN104                     00445858     ccode.obj
 0001:00044e1c       $LN101                     00445e1c     ccode.obj
 0001:00047118       $LN34                      00448118     commcli.obj
 0001:000479fc       $LN48                      004489fc     config.obj
 0001:00047a60       _stat                      00448a60 f   config.obj
 0001:00048c94       $LN28                      00449c94     database.obj
 0001:00049234       $LN126                     0044a234     database.obj
 0001:0004b09c       $LN66                      0044c09c     game.obj
 0001:0004b0c4       $LN56                      0044c0c4     game.obj
 0001:0004d900       $LN604                     0044e900     garbage.obj
 0001:0004e720       $LN21                      0044f720     interface_windows.obj
 0001:0004e730       $LN22                      0044f730     interface_windows.obj
 0001:0004f920       $LN55                      00450920     interface_windows.obj
 0001:0004f93c       $LN56                      0045093c     interface_windows.obj
 0001:000506f4       $LN68                      004516f4     kodbase.obj
 0001:00050714       $LN63                      00451714     kodbase.obj
 0001:000538c0       $LN17                      004548c0     loadgame.obj
 0001:000538d4       $LN14                      004548d4     loadgame.obj
 0001:00054870       $LN50                      00455870     loadgame.obj
 0001:000555d0       _stat                      004565d0 f   loadkod.obj
 0001:00055ba0       _stat                      00456ba0 f   loadrsc.obj
 0001:00057010       _stat                      00458010 f   motd.obj
 0001:00058ac8       $LN158                     00459ac8     parsecli.obj
 0001:00058d3c       $LN51                      00459d3c     resync.obj
 0001:00069f84       $LN22                      0046af84     session.obj
 0001:0006a000       $LN19                      0046b000     session.obj
 0001:0006a38c       $LN22                      0046b38c     session.obj
 0001:0006a924       $LN84                      0046b924     session.obj
 0001:0006ac54       $LN23                      0046bc54     session.obj
 0001:0006ae20       $LN19                      0046be20     session.obj
 0001:0006aeb0       $LN17                      0046beb0     session.obj
 0001:0006afa4       $LN22                      0046bfa4     session.obj
 0001:0006b004       $LN25                      0046c004     session.obj
 0001:0006e404       $LN53                      0046f404     synched.obj
 0001:0006ebb8       $LN10                      0046fbb8     system.obj
 0001:0006ecbc       $LN19                      0046fcbc     systimer.obj
 0001:0006f3fc       $LN59                      004703fc     systimer.obj
 0001:00070410       $LN23                      00471410     term.obj
 0001:0007062c       $LN24                      0047162c     term.obj
 0001:00070860       _time                      00471860 f   time.obj
 0001:00070870       _localtime                 00471870 f   time.obj
 0001:00070ed0       ?TimerSwapIndex@@YAXHH@Z   00471ed0 f   timer.obj
 0001:0007155c       $LN142                     0047255c     timer.obj
 0001:00071d1c       $LN54                      00472d1c     trysync.obj
 0001:00071ddc       $LN48                      00472ddc     trysync.obj
 0001:00072410       $$000000                   00473410     LIBCMT:ullrem.obj
 0001:00072490       $$000000                   00473490     LIBCMT:_ftol3_.obj
 0001:00072810       $$000000                   00473810     libucrt:87ctriga.obj
 0001:00072830       $$000000                   00473830     libucrt:cos_sse2_precise.obj
 0001:000729f0       $$000000                   004739f0     libucrt:sin_sse2_precise.obj
 0001:00072bc0       $$000000                   00473bc0     libucrt:sqrt_sse2_precise.obj
 0001:00072cc0       $$000000                   00473cc0     libucrt:87triga.obj
 0001:00072d70       $$000000                   00473d70     libucrt:87cdisp.obj
 0001:00073000       $$000000                   00474000     libucrt:cos.obj
 0001:00073130       $$000000                   00474130     libucrt:sin.obj
 0001:00073260       $$000000                   00474260     libucrt:sqrt.obj
 0001:00073320       $$000000                   00474320     libucrt:cos_pentium4.obj
 0001:000734d0       $$000000                   004744d0     libucrt:sin_pentium4.obj
 0001:000736a0       __ehhandler$??1?$basic_string@DU?$char_traits@D@std@@V?$allocator@D@2@@std@@QAE@XZ 004746a0 f   files.obj
 0001:000736c0       __ehhandler$??0?$basic_string@DU?$char_traits@D@std@@V?$allocator@D@2@@std@@QAE@$$QAV01@@Z 004746c0 f   files.obj
 0001:000736c0       __ehhandler$??1?$vector@V?$basic_string@DU?$char_traits@D@std@@V?$allocator@D@2@@std@@V?$allocator@V?$basic_string@DU?$char_traits@D@std@@V?$allocator@D@2@@std@@@2@@std@@QAE@XZ 004746c0 f   loadkod.obj
 0001:000736e0       __ehhandler$?_Copy@?$basic_string@DU?$char_traits@D@std@@V?$allocator@D@2@@std@@QAEXII@Z 004746e0 f   files.obj
 0001:00073700       __unwindfunclet$??$_Destroy_range1@V?$allocator@V?$basic_string@DU?$char_traits@D@std@@V?$allocator@D@2@@std@@@std@@PAV?$basic_string@DU?$char_traits@D@std@@V?$allocator@D@2@@2@@std@@YAXPAV?$basic_string@DU?$char_traits@D@std@@V?$allocator@D@2@@0@0AAU?$_Wrap_alloc@V?$allocator@V?$basic_string@DU?$char_traits@D@std@@V?$allocator@D@2@@std@@@std@@@0@U?$integral_constant@_N$0A@@0@@Z$1 00474700 f   files.obj
 0001:00073706       __ehhandler$??$_Destroy_range1@V?$allocator@V?$basic_string@DU?$char_traits@D@std@@V?$allocator@D@2@@std@@@std@@PAV?$basic_string@DU?$char_traits@D@std@@V?$allocator@D@2@@2@@std@@YAXPAV?$basic_string@DU?$char_traits@D@std@@V?$allocator@D@2@@0@0AAU?$_Wrap_alloc@V?$allocator@V?$basic_string@DU?$char_traits@D@std@@V?$allocator@D@2@@std@@@std@@@0@U?$integral_constant@_N$0A@@0@@Z 00474706 f   files.obj
 0001:00073730       __unwindfunclet$??$_Uninitialized_move_al_unchecked1@PAV?$basic_string@DU?$char_traits@D@std@@V?$allocator@D@2@@std@@PAV12@V?$allocator@V?$basic_string@DU?$char_traits@D@std@@V?$allocator@D@2@@std@@@2@@std@@YAPAV?$basic_string@DU?$char_traits@D@std@@V?$allocator@D@2@@0@PAV10@00AAU?$_Wrap_alloc@V?$allocator@V?$basic_string@DU?$char_traits@D@std@@V?$allocator@D@2@@std@@@std@@@0@U_General_ptr_iterator_tag@0@U_Any_tag@0@@Z$6 00474730 f   files.obj
 0001:00073736       __ehhandler$??$_Uninitialized_move_al_unchecked1@PAV?$basic_string@DU?$char_traits@D@std@@V?$allocator@D@2@@std@@PAV12@V?$allocator@V?$basic_string@DU?$char_traits@D@std@@V?$allocator@D@2@@std@@@2@@std@@YAPAV?$basic_string@DU?$char_traits@D@std@@V?$allocator@D@2@@0@PAV10@00AAU?$_Wrap_alloc@V?$allocator@V?$basic_string@DU?$char_traits@D@std@@V?$allocator@D@2@@std@@@std@@@0@U_General_ptr_iterator_tag@0@U_Any_tag@0@@Z 00474736 f   files.obj
 0001:00073751       __ehhandler$?CallUnexpected@@YAXPBU_s_ESTypeList@@@Z 00474751 f   libvcruntime:frame.obj
 0001:00073770       __unwindfunclet$?FindMatchingFiles@@YA_NPBDPAV?$vector@V?$basic_string@DU?$char_traits@D@std@@V?$allocator@D@2@@std@@V?$allocator@V?$basic_string@DU?$char_traits@D@std@@V?$allocator@D@2@@std@@@2@@std@@@Z$0 00474770 f   files.obj
 0001:00073778       __unwindfunclet$?FindMatchingFiles@@YA_NPBDPAV?$vector@V?$basic_string@DU?$char_traits@D@std@@V?$allocator@D@2@@std@@V?$allocator@V?$basic_string@DU?$char_traits@D@std@@V?$allocator@D@2@@std@@@2@@std@@@Z$104 00474778 f   files.obj
 0001:0007377e       __ehhandler$?FindMatchingFiles@@YA_NPBDPAV?$vector@V?$basic_string@DU?$char_traits@D@std@@V?$allocator@D@2@@std@@V?$allocator@V?$basic_string@DU?$char_traits@D@std@@V?$allocator@D@2@@std@@@2@@std@@@Z 0047477e f   files.obj
 0001:000737b0       __unwindfunclet$?LoadBof@@YAXXZ$0 004747b0 f   loadkod.obj
 0001:000737bb       __unwindfunclet$?LoadBof@@YAXXZ$49 004747bb f   loadkod.obj
 0001:000737c1       __ehhandler$?LoadBof@@YAXXZ 004747c1 f   loadkod.obj
 0001:000737f0       __unwindfunclet$?LoadRsc@@YAXXZ$0 004747f0 f   loadrsc.obj
 0001:000737fb       __unwindfunclet$?LoadRsc@@YAXXZ$29 004747fb f   loadrsc.obj
 0001:00073801       __ehhandler$?LoadRsc@@YAXXZ 00474801 f   loadrsc.obj
 0001:00073830       __unwindfunclet$?BSPLoadRoom@@YA_NPADPAUroom_type@@@Z$0 00474830 f   roofile.obj
 0001:00073836       __unwindfunclet$?BSPLoadRoom@@YA_NPADPAUroom_type@@@Z$1 00474836 f   roofile.obj
 0001:0007383c       __unwindfunclet$?BSPLoadRoom@@YA_NPADPAUroom_type@@@Z$2 0047483c f   roofile.obj
 0001:00073842       __unwindfunclet$?BSPLoadRoom@@YA_NPADPAUroom_type@@@Z$3 00474842 f   roofile.obj
 0001:00073848       __ehhandler$?BSPLoadRoom@@YA_NPADPAUroom_type@@@Z 00474848 f   roofile.obj
 0002:000002e4       ?pre_cpp_initializer@@3P6AXXZA 004752e4     LIBCMT:exe_winmain.obj
 0002:000002f0       ?pre_c_initializer@@3P6AHXZA 004752f0     LIBCMT:exe_winmain.obj
 0002:000002f4       ?post_pgo_initializer@@3P6AHXZA 004752f4     LIBCMT:exe_winmain.obj
 0002:00000340       _GS_ExceptionPointers      00475340     LIBCMT:gs_report.obj
 0002:000003f4       ?ExceptionTemplate@?1??_CxxThrowException@@9@8@4UEHExceptionRecord@@B 004753f4     libvcruntime:throw.obj
 0002:00000414       ?module_names@?A0x89697e75@@3QBQB_WB 00475414     libvcruntime:winapi_downlevel.obj
 0002:000004c4       ?candidate_modules@?1??try_get_FlsAlloc@@YAP6GKP6GXPAX@Z@ZXZ@4QBW4module_id@?A0x89697e75@@B 004754c4     libvcruntime:winapi_downlevel.obj
 0002:000004d8       ?candidate_modules@?1??try_get_FlsFree@@YAP6GHK@ZXZ@4QBW4module_id@?A0x89697e75@@B 004754d8     libvcruntime:winapi_downlevel.obj
 0002:000004e8       ?candidate_modules@?1??try_get_FlsGetValue@@YAP6GPAXK@ZXZ@4QBW4module_id@?A0x89697e75@@B 004754e8     libvcruntime:winapi_downlevel.obj
 0002:000004fc       ?candidate_modules@?1??try_get_FlsSetValue@@YAP6GHKPAX@ZXZ@4QBW4module_id@?A0x89697e75@@B 004754fc     libvcruntime:winapi_downlevel.obj
 0002:00000510       ?candidate_modules@?1??try_get_InitializeCriticalSectionEx@@YAP6GHPAU_RTL_CRITICAL_SECTION@@KK@ZXZ@4QBW4module_id@?A0x89697e75@@B 00475510     libvcruntime:winapi_downlevel.obj
 0002:00000538       ?tokenTable@@3QBQBDB       00475538     libvcruntime:undname.obj
 0002:00000570       ?nameTable@@3QBQBDB        00475570     libvcruntime:undname.obj
 0002:000006b4       ?rttiTable@@3QBQBDB        004756b4     libvcruntime:undname.obj
 0002:00001ca8       ___acrt_initializers       00476ca8     libucrt:initialization.obj
 0002:00001d20       _errtable                  00476d20     libucrt:errno.obj
 0002:00002bb8       _module_names              00477bb8     libucrt:winapi_thunks.obj
 0002:00003058       ?candidate_modules@?1??try_get_AreFileApisANSI@@YAP6GHXZXZ@4QBW4module_id@?A0x352e5c4b@@B 00478058     libucrt:winapi_thunks.obj
 0002:0000306c       ?candidate_modules@?1??try_get_CompareStringEx@@YAP6GHPB_WK0H0HPAU_nlsversioninfo@@PAXJ@ZXZ@4QBW4module_id@?A0x352e5c4b@@B 0047806c     libucrt:winapi_thunks.obj
 0002:00003084       ?candidate_modules@?1??try_get_FlsAlloc@@YAP6GKP6GXPAX@Z@ZXZ@4QBW4module_id@?A0x352e5c4b@@B 00478084     libucrt:winapi_thunks.obj
 0002:0000308c       ?candidate_modules@?1??try_get_FlsFree@@YAP6GHK@ZXZ@4QBW4module_id@?A0x352e5c4b@@B 0047808c     libucrt:winapi_thunks.obj
 0002:00003094       ?candidate_modules@?1??try_get_FlsGetValue@@YAP6GPAXK@ZXZ@4QBW4module_id@?A0x352e5c4b@@B 00478094     libucrt:winapi_thunks.obj
 0002:0000309c       ?candidate_modules@?1??try_get_FlsSetValue@@YAP6GHKPAX@ZXZ@4QBW4module_id@?A0x352e5c4b@@B 0047809c     libucrt:winapi_thunks.obj
 0002:000030a4       ?candidate_modules@?1??try_get_GetActiveWindow@@YAP6GPAUHWND__@@XZXZ@4QBW4module_id@?A0x352e5c4b@@B 004780a4     libucrt:winapi_thunks.obj
 0002:000030bc       ?candidate_modules@?1??try_get_GetCurrentPackageId@@YAP6GJPAIPAE@ZXZ@4QBW4module_id@?A0x352e5c4b@@B 004780bc     libucrt:winapi_thunks.obj
 0002:000030d8       ?candidate_modules@?1??try_get_GetDateFormatEx@@YAP6GHPB_WKPBU_SYSTEMTIME@@0PA_WH0@ZXZ@4QBW4module_id@?A0x352e5c4b@@B 004780d8     libucrt:winapi_thunks.obj
 0002:000030f0       ?candidate_modules@?1??try_get_GetFileInformationByHandleEx@@YAP6GHPAXW4_FILE_INFO_BY_HANDLE_CLASS@@0K@ZXZ@4QBW4module_id@?A0x352e5c4b@@B 004780f0     libucrt:winapi_thunks.obj
 0002:00003118       ?candidate_modules@?1??try_get_GetLastActivePopup@@YAP6GPAUHWND__@@PAU2@@ZXZ@4QBW4module_id@?A0x352e5c4b@@B 00478118     libucrt:winapi_thunks.obj
 0002:00003134       ?candidate_modules@?1??try_get_GetProcessWindowStation@@YAP6GPAUHWINSTA__@@XZXZ@4QBW4module_id@?A0x352e5c4b@@B 00478134     libucrt:winapi_thunks.obj
 0002:00003154       ?candidate_modules@?1??try_get_GetSystemTimePreciseAsFileTime@@YAP6GXPAU_FILETIME@@@ZXZ@4QBW4module_id@?A0x352e5c4b@@B 00478154     libucrt:winapi_thunks.obj
 0002:00003178       ?candidate_modules@?1??try_get_GetTimeFormatEx@@YAP6GHPB_WKPBU_SYSTEMTIME@@0PA_WH@ZXZ@4QBW4module_id@?A0x352e5c4b@@B 00478178     libucrt:winapi_thunks.obj
 0002:00003190       ?candidate_modules@?1??try_get_GetUserObjectInformationW@@YAP6GHPAXH0KPAK@ZXZ@4QBW4module_id@?A0x352e5c4b@@B 00478190     libucrt:winapi_thunks.obj
 0002:000031b4       ?candidate_modules@?1??try_get_InitializeCriticalSectionEx@@YAP6GHPAU_RTL_CRITICAL_SECTION@@KK@ZXZ@4QBW4module_id@?A0x352e5c4b@@B 004781b4     libucrt:winapi_thunks.obj
 0002:000031bc       ?candidate_modules@?1??try_get_LCMapStringEx@@YAP6GHPB_WK0HPA_WHPAU_nlsversioninfo@@PAXJ@ZXZ@4QBW4module_id@?A0x352e5c4b@@B 004781bc     libucrt:winapi_thunks.obj
 0002:000031d4       ?candidate_modules@?1??try_get_LocaleNameToLCID@@YAP6GKPB_WK@ZXZ@4QBW4module_id@?A0x352e5c4b@@B 004781d4     libucrt:winapi_thunks.obj
 0002:000031f0       ?candidate_modules@?1??try_get_MessageBoxA@@YAP6GHPAUHWND__@@PBD1I@ZXZ@4QBW4module_id@?A0x352e5c4b@@B 004781f0     libucrt:winapi_thunks.obj
 0002:00003204       ?candidate_modules@?1??try_get_MessageBoxW@@YAP6GHPAUHWND__@@PB_W1I@ZXZ@4QBW4module_id@?A0x352e5c4b@@B 00478204     libucrt:winapi_thunks.obj
 0002:00003218       ?candidate_modules@?1??try_get_RoInitialize@@YAP6GJW4RO_INIT_TYPE@@@ZXZ@4QBW4module_id@?A0x352e5c4b@@B 00478218     libucrt:winapi_thunks.obj
 0002:0000322c       ?candidate_modules@?1??try_get_RoUninitialize@@YAP6GXXZXZ@4QBW4module_id@?A0x352e5c4b@@B 0047822c     libucrt:winapi_thunks.obj
 0002:00003240       ?mask@?3??_fd_int@@9@9     00478240     libucrt:_test.obj
 0002:00003260       ?sub@?3??_fd_int@@9@9      00478260     libucrt:_test.obj
 0002:00003298       __mb_locale_names          00478298     libucrt:mbctype.obj
 0002:00003300       _LcidToLocaleNameTable     00478300     libucrt:lcidtoname_downlevel.obj
 0002:00004420       _LocaleNameToIndexTable    00479420     libucrt:lcidtoname_downlevel.obj
 0002:000053d8       _over                      0047a3d8     libucrt:fpctrl.obj
 0002:000053e4       _under                     0047a3e4     libucrt:fpctrl.obj
 0002:00005400       LOG_name                   0047a400     libucrt:log10.obj
 0002:00005410       _One                       0047a410     libucrt:ceil_pentium4.obj
 0002:00005420       _Bns                       0047a420     libucrt:ceil_pentium4.obj
 0002:00005430       _Zero                      0047a430     libucrt:ceil_pentium4.obj
 0002:00005440       _S                         0047a440     libucrt:ceil_pentium4.obj
 0002:00005450       _NegZero                   0047a450     libucrt:ceil_pentium4.obj
 0002:00005460       emask                      0047a460     libucrt:log10_pentium4.obj
 0002:00005470       CC                         0047a470     libucrt:log10_pentium4.obj
 0002:00005480       Magic                      0047a480     libucrt:log10_pentium4.obj
 0002:00005490       hi_mask                    0047a490     libucrt:log10_pentium4.obj
 0002:000054a0       LOG10_2                    0047a4a0     libucrt:log10_pentium4.obj
 0002:000054b0       place_L                    0047a4b0     libucrt:log10_pentium4.obj
 0002:000054d0       One                        0047a4d0     libucrt:log10_pentium4.obj
 0002:000054e0       Zero                       0047a4e0     libucrt:log10_pentium4.obj
 0002:000054f0       Two52                      0047a4f0     libucrt:log10_pentium4.obj
 0002:00005500       Infs                       0047a500     libucrt:log10_pentium4.obj
 0002:00005510       NaN                        0047a510     libucrt:log10_pentium4.obj
 0002:00005520       coeff                      0047a520     libucrt:log10_pentium4.obj
 0002:0000557e       _log2max                   0047a57e     libucrt:87tran.obj
 0002:00005588       _smallarg                  0047a588     libucrt:87tran.obj
 0002:00005592       _half                      0047a592     libucrt:87tran.obj
 0002:000055de       One                        0047a5de     libucrt:87disp.obj
 0002:000055e6       Three                      0047a5e6     libucrt:87disp.obj
 0002:000055ee       XAMtoTagTab                0047a5ee     libucrt:87disp.obj
 0002:00005600       One                        0047a600     libucrt:common.obj
 0002:00005614       DblMax                     0047a614     libucrt:common.obj
 0002:0000561c       DblMin                     0047a61c     libucrt:common.obj
 0002:00005624       IeeeAdjO                   0047a624     libucrt:common.obj
 0002:0000562c       IeeeAdjU                   0047a62c     libucrt:common.obj
 0002:00005634       _infinity                  0047a634     libucrt:common.obj
 0002:0000563c       _zero                      0047a63c     libucrt:common.obj
 0002:00005f28       ?_names@?1??_get_fname@@9@9 0047af28     libucrt:fpexcept.obj
 0002:00006040       ?crc_table@@3QBIB          0047b040     crc.obj
 0002:00006440       ?rsc_magic@@3PADA          0047b440     rscload.obj
 0002:00006444       ?magic_num@@3PAEA          0047b444     loadkod.obj
 0002:00018c10       _Int32ToUInt32             0048dc10     LIBCMT:_ftol3_.obj
 0002:00018c18       _DP2to32                   0048dc18     LIBCMT:_ftol3_.obj
 0002:00018c20       _MantissaMask              0048dc20     LIBCMT:_ftol3_.obj
 0002:00018c28       _IntegerBit                0048dc28     LIBCMT:_ftol3_.obj
 0002:00018c30       _SignBit64                 0048dc30     LIBCMT:_ftol3_.obj
 0002:00018c38       _MinFP64                   0048dc38     LIBCMT:_ftol3_.obj
 0002:00018c40       _MinInt64                  0048dc40     LIBCMT:_ftol3_.obj
 0002:00018c48       _MaxInt64                  0048dc48     LIBCMT:_ftol3_.obj
 0002:00018c50       _MaxUInt64                 0048dc50     LIBCMT:_ftol3_.obj
 0002:00018c58       _MaxFP32                   0048dc58     LIBCMT:_ftol3_.obj
 0002:00018c60       _MinFP32                   0048dc60     LIBCMT:_ftol3_.obj
 0002:00018c68       _MinSubInexact             0048dc68     LIBCMT:_ftol3_.obj
 0002:00018c70       _FpExcptTable              0048dc70     LIBCMT:_ftol3_.obj
 0002:00018c80       _i1075                     0048dc80     LIBCMT:_ftol3_.obj
 0002:00018c84       _i1087                     0048dc84     LIBCMT:_ftol3_.obj
 0002:00018c88       _x0800                     0048dc88     LIBCMT:_ftol3_.obj
 0002:00018c8c       _x17FF                     0048dc8c     LIBCMT:_ftol3_.obj
 0002:00018c90       _CWMask                    0048dc90     LIBCMT:_ftol3_.obj
 0002:00018ca0       SC_1                       0048dca0     libucrt:cos_sse2_precise.obj
 0002:00018cb0       SC_2                       0048dcb0     libucrt:cos_sse2_precise.obj
 0002:00018cc0       SC_3                       0048dcc0     libucrt:cos_sse2_precise.obj
 0002:00018cd0       SC_4                       0048dcd0     libucrt:cos_sse2_precise.obj
 0002:00018ce0       PI32INV                    0048dce0     libucrt:cos_sse2_precise.obj
 0002:00018ce8       SHIFTER                    0048dce8     libucrt:cos_sse2_precise.obj
 0002:00018cf0       P_2                        0048dcf0     libucrt:cos_sse2_precise.obj
 0002:00018d00       P_1                        0048dd00     libucrt:cos_sse2_precise.obj
 0002:00018d08       P_3                        0048dd08     libucrt:cos_sse2_precise.obj
 0002:00018d10       TWO_POW_55                 0048dd10     libucrt:cos_sse2_precise.obj
 0002:00018d18       TWO_POW_M55                0048dd18     libucrt:cos_sse2_precise.obj
 0002:00018d20       ALL_ONES                   0048dd20     libucrt:cos_sse2_precise.obj
 0002:00018d28       NEG_ZERO                   0048dd28     libucrt:cos_sse2_precise.obj
 0002:00018d30       ONE                        0048dd30     libucrt:cos_sse2_precise.obj
 0002:00018d40       SIGN_MASK                  0048dd40     libucrt:cos_sse2_precise.obj
 0002:00018d50       SC_1                       0048dd50     libucrt:sin_sse2_precise.obj
 0002:00018d60       SC_2                       0048dd60     libucrt:sin_sse2_precise.obj
 0002:00018d70       SC_3                       0048dd70     libucrt:sin_sse2_precise.obj
 0002:00018d80       SC_4                       0048dd80     libucrt:sin_sse2_precise.obj
 0002:00018d90       PI32INV                    0048dd90     libucrt:sin_sse2_precise.obj
 0002:00018d98       SHIFTER                    0048dd98     libucrt:sin_sse2_precise.obj
 0002:00018da0       P_2                        0048dda0     libucrt:sin_sse2_precise.obj
 0002:00018db0       P_1                        0048ddb0     libucrt:sin_sse2_precise.obj
 0002:00018db8       P_3                        0048ddb8     libucrt:sin_sse2_precise.obj
 0002:00018dc0       TWO_POW_55                 0048ddc0     libucrt:sin_sse2_precise.obj
 0002:00018dc8       TWO_POW_M55                0048ddc8     libucrt:sin_sse2_precise.obj
 0002:00018dd0       ALL_ONES                   0048ddd0     libucrt:sin_sse2_precise.obj
 0002:00018dd8       NEG_ZERO                   0048ddd8     libucrt:sin_sse2_precise.obj
 0002:00018de0       ONE                        0048dde0     libucrt:sin_sse2_precise.obj
 0002:00018e40       DblMax                     0048de40     libucrt:87cdisp.obj
 0002:00018e48       DblMin                     0048de48     libucrt:87cdisp.obj
 0002:00018e50       IeeeAdjO                   0048de50     libucrt:87cdisp.obj
 0002:00018e58       IeeeAdjU                   0048de58     libucrt:87cdisp.obj
 0002:00018e60       _infinity                  0048de60     libucrt:87cdisp.obj
 0002:00018e68       _zero                      0048de68     libucrt:87cdisp.obj
 0002:00018e70       _NAME_                     0048de70     libucrt:cos.obj
 0002:00019680       _NAME_                     0048e680     libucrt:sin.obj
 0002:00019690       _NAME_                     0048e690     libucrt:sqrt.obj
 0002:000196a0       SC_1                       0048e6a0     libucrt:cos_pentium4.obj
 0002:000196b0       SC_2                       0048e6b0     libucrt:cos_pentium4.obj
 0002:000196c0       SC_3                       0048e6c0     libucrt:cos_pentium4.obj
 0002:000196d0       SC_4                       0048e6d0     libucrt:cos_pentium4.obj
 0002:000196e0       PI32INV                    0048e6e0     libucrt:cos_pentium4.obj
 0002:000196e8       SHIFTER                    0048e6e8     libucrt:cos_pentium4.obj
 0002:000196f0       P_2                        0048e6f0     libucrt:cos_pentium4.obj
 0002:00019700       P_1                        0048e700     libucrt:cos_pentium4.obj
 0002:00019708       P_3                        0048e708     libucrt:cos_pentium4.obj
 0002:00019710       TWO_POW_55                 0048e710     libucrt:cos_pentium4.obj
 0002:00019718       TWO_POW_M55                0048e718     libucrt:cos_pentium4.obj
 0002:00019720       ALL_ONES                   0048e720     libucrt:cos_pentium4.obj
 0002:00019728       NEG_ZERO                   0048e728     libucrt:cos_pentium4.obj
 0002:00019730       ONE                        0048e730     libucrt:cos_pentium4.obj
 0002:00019740       SIGN_MASK                  0048e740     libucrt:cos_pentium4.obj
 0002:00019750       SC_1                       0048e750     libucrt:sin_pentium4.obj
 0002:00019760       SC_2                       0048e760     libucrt:sin_pentium4.obj
 0002:00019770       SC_3                       0048e770     libucrt:sin_pentium4.obj
 0002:00019780       SC_4                       0048e780     libucrt:sin_pentium4.obj
 0002:00019790       PI32INV                    0048e790     libucrt:sin_pentium4.obj
 0002:00019798       SHIFTER                    0048e798     libucrt:sin_pentium4.obj
 0002:000197a0       P_2                        0048e7a0     libucrt:sin_pentium4.obj
 0002:000197b0       P_1                        0048e7b0     libucrt:sin_pentium4.obj
 0002:000197b8       P_3                        0048e7b8     libucrt:sin_pentium4.obj
 0002:000197c0       TWO_POW_55                 0048e7c0     libucrt:sin_pentium4.obj
 0002:000197c8       TWO_POW_M55                0048e7c8     libucrt:sin_pentium4.obj
 0002:000197d0       ALL_ONES                   0048e7d0     libucrt:sin_pentium4.obj
 0002:000197d8       NEG_ZERO                   0048e7d8     libucrt:sin_pentium4.obj
 0002:000197e0       ONE                        0048e7e0     libucrt:sin_pentium4.obj
 0002:00019ea0       __ehfuncinfo$??1?$vector@V?$basic_string@DU?$char_traits@D@std@@V?$allocator@D@2@@std@@V?$allocator@V?$basic_string@DU?$char_traits@D@std@@V?$allocator@D@2@@std@@@2@@std@@QAE@XZ 0048eea0     loadkod.obj
 0002:00019ea0       __ehfuncinfo$??1?$basic_string@DU?$char_traits@D@std@@V?$allocator@D@2@@std@@QAE@XZ 0048eea0     files.obj
 0002:00019ea0       __ehfuncinfo$??0?$basic_string@DU?$char_traits@D@std@@V?$allocator@D@2@@std@@QAE@$$QAV01@@Z 0048eea0     files.obj
 0002:00019ec4       __ehfuncinfo$?_Copy@?$basic_string@DU?$char_traits@D@std@@V?$allocator@D@2@@std@@QAEXII@Z 0048eec4     files.obj
 0002:00019ee8       __unwindtable$?_Copy@?$basic_string@DU?$char_traits@D@std@@V?$allocator@D@2@@std@@QAEXII@Z 0048eee8     files.obj
 0002:00019f08       __tryblocktable$?_Copy@?$basic_string@DU?$char_traits@D@std@@V?$allocator@D@2@@std@@QAEXII@Z 0048ef08     files.obj
 0002:00019f30       __catchsym$?_Copy@?$basic_string@DU?$char_traits@D@std@@V?$allocator@D@2@@std@@QAEXII@Z$110 0048ef30     files.obj
 0002:00019f40       __catchsym$?_Copy@?$basic_string@DU?$char_traits@D@std@@V?$allocator@D@2@@std@@QAEXII@Z$111 0048ef40     files.obj
 0002:00019f50       __ehfuncinfo$??$_Destroy_range1@V?$allocator@V?$basic_string@DU?$char_traits@D@std@@V?$allocator@D@2@@std@@@std@@PAV?$basic_string@DU?$char_traits@D@std@@V?$allocator@D@2@@2@@std@@YAXPAV?$basic_string@DU?$char_traits@D@std@@V?$allocator@D@2@@0@0AAU?$_Wrap_alloc@V?$allocator@V?$basic_string@DU?$char_traits@D@std@@V?$allocator@D@2@@std@@@std@@@0@U?$integral_constant@_N$0A@@0@@Z 0048ef50     files.obj
 0002:00019f74       __unwindtable$??$_Destroy_range1@V?$allocator@V?$basic_string@DU?$char_traits@D@std@@V?$allocator@D@2@@std@@@std@@PAV?$basic_string@DU?$char_traits@D@std@@V?$allocator@D@2@@2@@std@@YAXPAV?$basic_string@DU?$char_traits@D@std@@V?$allocator@D@2@@0@0AAU?$_Wrap_alloc@V?$allocator@V?$basic_string@DU?$char_traits@D@std@@V?$allocator@D@2@@std@@@std@@@0@U?$integral_constant@_N$0A@@0@@Z 0048ef74     files.obj
 0002:00019f7c       __ehfuncinfo$??$_Uninitialized_move_al_unchecked1@PAV?$basic_string@DU?$char_traits@D@std@@V?$allocator@D@2@@std@@PAV12@V?$allocator@V?$basic_string@DU?$char_traits@D@std@@V?$allocator@D@2@@std@@@2@@std@@YAPAV?$basic_string@DU?$char_traits@D@std@@V?$allocator@D@2@@0@PAV10@00AAU?$_Wrap_alloc@V?$allocator@V?$basic_string@DU?$char_traits@D@std@@V?$allocator@D@2@@std@@@std@@@0@U_General_ptr_iterator_tag@0@U_Any_tag@0@@Z 0048ef7c     files.obj
 0002:00019fa0       __unwindtable$??$_Uninitialized_move_al_unchecked1@PAV?$basic_string@DU?$char_traits@D@std@@V?$allocator@D@2@@std@@PAV12@V?$allocator@V?$basic_string@DU?$char_traits@D@std@@V?$allocator@D@2@@std@@@2@@std@@YAPAV?$basic_string@DU?$char_traits@D@std@@V?$allocator@D@2@@0@PAV10@00AAU?$_Wrap_alloc@V?$allocator@V?$basic_string@DU?$char_traits@D@std@@V?$allocator@D@2@@std@@@std@@@0@U_General_ptr_iterator_tag@0@U_Any_tag@0@@Z 0048efa0     files.obj
 0002:00019fb8       __sehtable$?__scrt_common_main_seh@@YAHXZ 0048efb8     LIBCMT:exe_winmain.obj
 0002:0001a068       __sehtable$___scrt_is_nonwritable_in_current_image 0048f068     LIBCMT:utility.obj
 0002:0001a118       __sehtable$___FrameUnwindToState 0048f118     libvcruntime:frame.obj
 0002:0001a140       __sehtable$?CallCatchBlock@@YAPAXPAUEHExceptionRecord@@PAUEHRegistrationNode@@PAU_CONTEXT@@PBU_s_FuncInfo@@PAXHK@Z 0048f140     libvcruntime:frame.obj
 0002:0001a168       __sehtable$___BuildCatchObject 0048f168     libvcruntime:frame.obj
 0002:0001a188       __sehtable$___DestructExceptionObject 0048f188     libvcruntime:frame.obj
 0002:0001a1a4       __catchsym$?CallUnexpected@@YAXPBU_s_ESTypeList@@@Z$2 0048f1a4     libvcruntime:frame.obj
 0002:0001a1b4       __unwindtable$?CallUnexpected@@YAXPBU_s_ESTypeList@@@Z 0048f1b4     libvcruntime:frame.obj
 0002:0001a1c4       __tryblocktable$?CallUnexpected@@YAXPBU_s_ESTypeList@@@Z 0048f1c4     libvcruntime:frame.obj
 0002:0001a1d8       __ehfuncinfo$?CallUnexpected@@YAXPBU_s_ESTypeList@@@Z 0048f1d8     libvcruntime:frame.obj
 0002:0001a200       __sehtable$___BuildCatchObjectHelper 0048f200     libvcruntime:frame.obj
 0002:0001a258       __sehtable$??$?RV<lambda_db08b09ef7aa9d4f8620ce68402612bc>@@AAV<lambda_4f2c1eaeead2a5fc776db5b62ea0fb9b>@@V<lambda_3ae262bc35d4ba6a3825c4f6bcaaf95c>@@@?$__crt_seh_guarded_call@H@@QAEH$$QAV<lambda_db08b09ef7aa9d4f8620ce68402612bc>@@AAV<lambda_4f2c1eaeead2a5fc776db5b62ea0fb9b>@@$$QAV<lambda_3ae262bc35d4ba6a3825c4f6bcaaf95c>@@@Z 0048f258     libucrt:output.obj
 0002:0001a278       __sehtable$??$?RV<lambda_ab9923ffb5d694ec0d78876dd103e44f>@@AAV<lambda_481dd5778c961fbcd3b60b650e9b9dc4>@@V<lambda_7923d86c9e3f319b415918ec4b39749c>@@@?$__crt_seh_guarded_call@H@@QAEH$$QAV<lambda_ab9923ffb5d694ec0d78876dd103e44f>@@AAV<lambda_481dd5778c961fbcd3b60b650e9b9dc4>@@$$QAV<lambda_7923d86c9e3f319b415918ec4b39749c>@@@Z 0048f278     libucrt:output.obj
 0002:0001a298       __sehtable$??$common_fsopen@D@@YAPAU_iobuf@@QBD0H@Z 0048f298     libucrt:fopen.obj
 0002:0001a2b8       __sehtable$_fclose         0048f2b8     libucrt:fclose.obj
 0002:0001a2d8       __sehtable$_fread_s        0048f2d8     libucrt:fread.obj
 0002:0001a2f8       __sehtable$??$common_fgets@D@@YAPADQADHV__crt_stdio_stream@@@Z 0048f2f8     libucrt:fgets.obj
 0002:0001a318       __sehtable$_fflush         0048f318     libucrt:fflush.obj
 0002:0001a338       __sehtable$_common_flush_all 0048f338     libucrt:fflush.obj
 0002:0001a360       __sehtable$??$?RV<lambda_11b4f7b0d3157825a5656a18eba1ae27>@@AAV<lambda_b51c0495177f500e782686251704ae76>@@V<lambda_cf89b47920b5017557bfe891e78aca36>@@@?$__crt_seh_guarded_call@I@@QAEI$$QAV<lambda_11b4f7b0d3157825a5656a18eba1ae27>@@AAV<lambda_b51c0495177f500e782686251704ae76>@@$$QAV<lambda_cf89b47920b5017557bfe891e78aca36>@@@Z 0048f360     libucrt:fwrite.obj
 0002:0001a380       __sehtable$??$thread_start@P6AXPAX@Z@@YGKQAX@Z 0048f380     libucrt:thread.obj
 0002:0001a3a0       __sehtable$?common_exit@@YAXHW4_crt_exit_cleanup_mode@@W4_crt_exit_return_mode@@@Z 0048f3a0     libucrt:exit.obj
 0002:0001a3c8       __sehtable$??$common_ftell@J@@YAJV__crt_stdio_stream@@@Z 0048f3c8     libucrt:ftell.obj
 0002:0001a3e8       __sehtable$?common_fseek@@YAHV__crt_stdio_stream@@_JH@Z 0048f3e8     libucrt:fseek.obj
 0002:0001a408       __sehtable$__query_new_handler 0048f408     libucrt:new_handler.obj
 0002:0001a428       __sehtable$___acrt_uninitialize_locale 0048f428     libucrt:wsetlocale.obj
 0002:0001a448       __sehtable$??$?RV<lambda_800076c951b434888f4765a74a194fcc>@@AAV<lambda_4e60a939b0d047cfe11ddc22648dfba9>@@V<lambda_6dbb1268764f43b569ce7b67e331d33a>@@@?$__crt_seh_guarded_call@H@@QAEH$$QAV<lambda_800076c951b434888f4765a74a194fcc>@@AAV<lambda_4e60a939b0d047cfe11ddc22648dfba9>@@$$QAV<lambda_6dbb1268764f43b569ce7b67e331d33a>@@@Z 0048f448     libucrt:onexit.obj
 0002:0001a468       __sehtable$??$?RV<lambda_995298e7d72eb4c2aab26c0585b3abe5>@@AAV<lambda_275893d493268fdec8709772e3fcec0e>@@V<lambda_293819299cbf9a7022e18b56a874bb5c>@@@?$__crt_seh_guarded_call@H@@QAEH$$QAV<lambda_995298e7d72eb4c2aab26c0585b3abe5>@@AAV<lambda_275893d493268fdec8709772e3fcec0e>@@$$QAV<lambda_293819299cbf9a7022e18b56a874bb5c>@@@Z 0048f468     libucrt:onexit.obj
 0002:0001a488       __sehtable$_terminate      0048f488     libucrt:terminate.obj
 0002:0001a4a8       __sehtable$??$common_open@D@@YAHQBDHH@Z 0048f4a8     libucrt:open.obj
 0002:0001a4c8       __sehtable$??$common_sopen_dispatch@D@@YAHQBDHHHQAHH@Z 0048f4c8     libucrt:open.obj
 0002:0001a4e8       __sehtable$__read          0048f4e8     libucrt:read.obj
 0002:0001a508       __sehtable$??$?RV<lambda_123407a5e2ac06da108355a851863b7a>@@AAV<lambda_2fe9b910cf3cbf4a0ab98a02ba45b3ec>@@V<lambda_ae55bdf541ad94d75914d381c370e64d>@@@?$__crt_seh_guarded_call@H@@QAEH$$QAV<lambda_123407a5e2ac06da108355a851863b7a>@@AAV<lambda_2fe9b910cf3cbf4a0ab98a02ba45b3ec>@@$$QAV<lambda_ae55bdf541ad94d75914d381c370e64d>@@@Z 0048f508     libucrt:close.obj
 0002:0001a528       __sehtable$__write         0048f528     libucrt:write.obj
 0002:0001a548       __sehtable$??$?RV<lambda_9df27f884b057bc3edfc946cb5b7cf47>@@AAV<lambda_e69574bed617af4e071282c136b37893>@@V<lambda_cc0d902bcbbeb830f749456577db4721>@@@?$__crt_seh_guarded_call@X@@QAEX$$QAV<lambda_9df27f884b057bc3edfc946cb5b7cf47>@@AAV<lambda_e69574bed617af4e071282c136b37893>@@$$QAV<lambda_cc0d902bcbbeb830f749456577db4721>@@@Z 0048f548     libucrt:per_thread_data.obj
 0002:0001a568       __sehtable$??$?RV<lambda_3518db117f0e7cdb002338c5d3c47b6c>@@AAV<lambda_b2ea41f6bbb362cd97d94c6828d90b61>@@V<lambda_abdedf541bb04549bc734292b4a045d4>@@@?$__crt_seh_guarded_call@X@@QAEX$$QAV<lambda_3518db117f0e7cdb002338c5d3c47b6c>@@AAV<lambda_b2ea41f6bbb362cd97d94c6828d90b61>@@$$QAV<lambda_abdedf541bb04549bc734292b4a045d4>@@@Z 0048f568     libucrt:per_thread_data.obj
 0002:0001a588       __sehtable$??$?RV<lambda_51b6e8b1eb166f2a3faf91f424b38130>@@AAV<lambda_6250bd4b2a391816dd638c3bf72b0bcb>@@V<lambda_0b5a4a3e68152e1d9b943535f5f47bed>@@@?$__crt_seh_guarded_call@X@@QAEX$$QAV<lambda_51b6e8b1eb166f2a3faf91f424b38130>@@AAV<lambda_6250bd4b2a391816dd638c3bf72b0bcb>@@$$QAV<lambda_0b5a4a3e68152e1d9b943535f5f47bed>@@@Z 0048f588     libucrt:per_thread_data.obj
 0002:0001a5a8       __sehtable$??$?RV<lambda_5b71d36f03204c0beab531769a5b5694>@@AAV<lambda_be2b3da3f62db62e9dad5dc70221a656>@@V<lambda_8f9ce462984622f9bf76b59e2aaaf805>@@@?$__crt_seh_guarded_call@X@@QAEX$$QAV<lambda_5b71d36f03204c0beab531769a5b5694>@@AAV<lambda_be2b3da3f62db62e9dad5dc70221a656>@@$$QAV<lambda_8f9ce462984622f9bf76b59e2aaaf805>@@@Z 0048f5a8     libucrt:per_thread_data.obj
 0002:0001a5c8       __sehtable$___acrt_initialize_lowio 0048f5c8     libucrt:ioinit.obj
 0002:0001a5e8       __sehtable$?__acrt_stdio_allocate_stream@@YA?AV__crt_stdio_stream@@XZ 0048f5e8     libucrt:stream.obj
 0002:0001a608       __sehtable$??$?RV<lambda_61cee617f5178ae960314fd4d05640a0>@@AAV<lambda_6978c1fb23f02e42e1d9e99668cc68aa>@@V<lambda_9cd88cf8ad10232537feb2133f08c833>@@@?$__crt_seh_guarded_call@H@@QAEH$$QAV<lambda_61cee617f5178ae960314fd4d05640a0>@@AAV<lambda_6978c1fb23f02e42e1d9e99668cc68aa>@@$$QAV<lambda_9cd88cf8ad10232537feb2133f08c833>@@@Z 0048f608     libucrt:commit.obj
 0002:0001a628       __sehtable$__alloc_osfhnd  0048f628     libucrt:osfinfo.obj
 0002:0001a648       __sehtable$___acrt_lowio_ensure_fh_exists 0048f648     libucrt:osfinfo.obj
 0002:0001a668       __sehtable$??$common_lseek@_J@@YA_JH_JH@Z 0048f668     libucrt:lseek.obj
 0002:0001a688       __sehtable$??$?RV<lambda_d92cfe8357b99225085016881b624cb0>@@AAV<lambda_b721fa326cdb32351d23dfa67958c160>@@V<lambda_42d75b0848218ec137fa420c8ba9fdf9>@@@?$__crt_seh_guarded_call@H@@QAEH$$QAV<lambda_d92cfe8357b99225085016881b624cb0>@@AAV<lambda_b721fa326cdb32351d23dfa67958c160>@@$$QAV<lambda_42d75b0848218ec137fa420c8ba9fdf9>@@@Z 0048f688     libucrt:setvbuf.obj
 0002:0001a6a8       __sehtable$_raise          0048f6a8     libucrt:signal.obj
 0002:0001a6c8       __sehtable$??$?RV<lambda_a048d3beccc847880fc8490e18b82769>@@AAV<lambda_ec61778202f4f5fc7e7711acc23c3bca>@@V<lambda_f7496a158712204296dd6628a163878e>@@@?$__crt_seh_guarded_call@P6AXH@Z@@QAEP6AXH@Z$$QAV<lambda_a048d3beccc847880fc8490e18b82769>@@AAV<lambda_ec61778202f4f5fc7e7711acc23c3bca>@@$$QAV<lambda_f7496a158712204296dd6628a163878e>@@@Z 0048f6c8     libucrt:signal.obj
 0002:0001a6e8       __sehtable$__isindst       0048f6e8     libucrt:tzset.obj
 0002:0001a708       __sehtable$___tzset        0048f708     libucrt:tzset.obj
 0002:0001a728       __sehtable$___acrt_update_thread_multibyte_data 0048f728     libucrt:mbctype.obj
 0002:0001a748       __sehtable$??$?RV<lambda_978dc153c237d78434369da87b74ff60>@@AAV<lambda_ad1ced32f4ac17aa236e5ef05d6b3b7c>@@V<lambda_4a8533e2866a575feecb8298ce776b0d>@@@?$__crt_seh_guarded_call@X@@QAEX$$QAV<lambda_978dc153c237d78434369da87b74ff60>@@AAV<lambda_ad1ced32f4ac17aa236e5ef05d6b3b7c>@@$$QAV<lambda_4a8533e2866a575feecb8298ce776b0d>@@@Z 0048f748     libucrt:mbctype.obj
 0002:0001a768       __sehtable$___acrt_update_thread_locale_data 0048f768     libucrt:locale_refcounting.obj
 0002:0001a788       __sehtable$__fcloseall     0048f788     libucrt:closeall.obj
 0002:0001a7a8       __sehtable$??$common_getenv_s@D@@YAHQAIQADIQBD@Z 0048f7a8     libucrt:getenv.obj
 0002:0001a7c8       __sehtable$___set_fpsr_sse2 0048f7c8     libucrt:fpctrl.obj
 0002:0001a7e8       __sehtable$__IsNonwritableInCurrentImage 0048f7e8     LIBCMT:pesect.obj
 0002:0001a804       __ehfuncinfo$?FindMatchingFiles@@YA_NPBDPAV?$vector@V?$basic_string@DU?$char_traits@D@std@@V?$allocator@D@2@@std@@V?$allocator@V?$basic_string@DU?$char_traits@D@std@@V?$allocator@D@2@@std@@@2@@std@@@Z 0048f804     files.obj
 0002:0001a828       __unwindtable$?FindMatchingFiles@@YA_NPBDPAV?$vector@V?$basic_string@DU?$char_traits@D@std@@V?$allocator@D@2@@std@@V?$allocator@V?$basic_string@DU?$char_traits@D@std@@V?$allocator@D@2@@std@@@2@@std@@@Z 0048f828     files.obj
 0002:0001a838       __ehfuncinfo$?LoadBof@@YAXXZ 0048f838     loadkod.obj
 0002:0001a85c       __unwindtable$?LoadBof@@YAXXZ 0048f85c     loadkod.obj
 0002:0001a86c       __ehfuncinfo$?LoadRsc@@YAXXZ 0048f86c     loadrsc.obj
 0002:0001a890       __unwindtable$?LoadRsc@@YAXXZ 0048f890     loadrsc.obj
 0002:0001a8a0       __ehfuncinfo$?BSPLoadRoom@@YA_NPADPAUroom_type@@@Z 0048f8a0     roofile.obj
 0002:0001a8c4       __unwindtable$?BSPLoadRoom@@YA_NPADPAUroom_type@@@Z 0048f8c4     roofile.obj
 0002:0001ac9c       .idata$6                   0048fc9c     gdi32:GDI32.dll
 0002:0001af8e       .idata$6                   0048ff8e     user32:USER32.dll
 0002:0001af9a       .idata$6                   0048ff9a     wsock32:WSOCK32.dll
 0002:0001afb4       .idata$6                   0048ffb4     winmm:WINMM.dll
 0002:0001afbe       .idata$6                   0048ffbe     comctl32:COMCTL32.dll
 0002:0001b094       .idata$6                   00490094     libmysql:LIBMYSQL.dll
 0002:0001b0ba       .idata$6                   004900ba     ws2_32:WS2_32.dll
 0002:0001b358       .idata$6                   00490358     kernel32:KERNEL32.dll
 0003:00000020       ?__vcrt_flsindex@@3KA      00491020     libvcruntime:per_thread_data.obj
 0003:00000144       _errno_no_memory           00491144     libucrt:errno.obj
 0003:00000148       _doserrno_no_memory        00491148     libucrt:errno.obj
 0003:0000014c       ___acrt_flsindex           0049114c     libucrt:per_thread_data.obj
 0003:000002f8       _tzstd_program             004912f8     libucrt:timeset.obj
 0003:00000338       _tzdst_program             00491338     libucrt:timeset.obj
 0003:00000378       _tzname_states             00491378     libucrt:timeset.obj
 0003:00000380       _dststart                  00491380     libucrt:tzset.obj
 0003:0000038c       _dstend                    0049138c     libucrt:tzset.obj
 0003:00000398       ___rgctypeflag             00491398     libucrt:mbctype.obj
 0003:000003a0       ___rgcode_page_info        004913a0     libucrt:mbctype.obj
 0003:00000920       ?__DAZ_ENABLED@?1??__set_fpsr_sse2@@9@9 00491920     libucrt:fpctrl.obj
 0003:00000940       ?PADDING@@3PAEA            00491940     md5.obj
 0003:00001444       ?highestAccount@@3HA       00492444     loadacco.obj
 0003:00001d44       ?magic_num@@3PADA          00492d44     saversc.obj
 0003:00006c80       _GS_ExceptionRecord        00497c80     LIBCMT:gs_report.obj
 0003:00006cd0       _GS_ContextRecord          00497cd0     LIBCMT:gs_report.obj
 0003:00006fa4       ?module_local_atexit_table@@3U_onexit_table_t@@A 00497fa4     LIBCMT:utility.obj
 0003:00006fb0       ?module_local_at_quick_exit_table@@3U_onexit_table_t@@A 00497fb0     LIBCMT:utility.obj
 0003:00006fbc       ?is_initialized_as_dll@@3_NA 00497fbc     LIBCMT:utility.obj
 0003:00006fd8       ?__vcrt_startup_thread_ptd@@3U__vcrt_ptd@@A 00497fd8     libvcruntime:per_thread_data.obj
 0003:00007000       ___vcrt_lock_table         00498000     libvcruntime:locks.obj
 0003:00007018       ___vcrt_locks_initialized  00498018     libvcruntime:locks.obj
 0003:0000701c       ?module_handles@@3PAPAUHINSTANCE__@@A 0049801c     libvcruntime:winapi_downlevel.obj
 0003:0000702c       ?encoded_function_pointers@@3PAPAXA 0049802c     libvcruntime:winapi_downlevel.obj
 0003:0000707c       ?heap@@3V_HeapManager@@A   0049807c     libvcruntime:undname.obj
 0003:00007090       ___acrt_invalid_parameter_handler 00498090     libucrt:invalid_parameter.obj
 0003:00007094       _c_termination_complete    00498094     libucrt:exit.obj
 0003:00007098       _thread_local_exit_callback_func 00498098     libucrt:exit.obj
 0003:0000709c       ?c_exit_complete@?5??common_exit@@YAXHW4_crt_exit_cleanup_mode@@W4_crt_exit_return_mode@@@Z@4_NA 0049809c     libucrt:exit.obj
 0003:000070a0       ___acrt_new_handler        004980a0     libucrt:new_handler.obj
 0003:000070a4       ___acrt_app_type           004980a4     libucrt:report_runtime_error.obj
 0003:000070a8       _user_matherr              004980a8     libucrt:matherr.obj
 0003:000070b0       ?program_name@?5???$common_configure_argv@D@@YAHW4_crt_argv_mode@@@Z@4PADA 004980b0     libucrt:argv_parsing.obj
 0003:000071c8       ?empty_string@?1???$common_wincmdln@D@@YAPADXZ@4PADA 004981c8     libucrt:argv_winmain.obj
 0003:000071d0       ___acrt_global_new_mode    004981d0     libucrt:new_mode.obj
 0003:000071fc       _enable_percent_n          004981fc     libucrt:printf_count_output.obj
 0003:00007418       ___acrt_lock_table         00498418     libucrt:locks.obj
 0003:00007550       ___acrt_locks_initialized  00498550     libucrt:locks.obj
 0003:00007558       _module_handles            00498558     libucrt:winapi_thunks.obj
 0003:000075a8       _encoded_function_pointers 004985a8     libucrt:winapi_thunks.obj
 0003:00007628       ?state_cache@?1??__acrt_is_packaged_app@@9@4JA 00498628     libucrt:winapi_thunks.obj
 0003:0000762c       ___acrt_error_mode         0049862c     libucrt:set_error_mode.obj
 0003:00007630       _ctrlc_action              00498630     libucrt:signal.obj
 0003:00007634       _ctrlbreak_action          00498634     libucrt:signal.obj
 0003:00007638       _abort_action              00498638     libucrt:signal.obj
 0003:0000763c       _term_action               0049863c     libucrt:signal.obj
 0003:0000764c       __tzname                   0049864c     libucrt:timeset.obj
 0003:00007650       _last_tz                   00498650     libucrt:tzset.obj
 0003:00007658       _tz_api_used               00498658     libucrt:tzset.obj
 0003:00007660       _tz_info                   00498660     libucrt:tzset.obj
 0003:0000770c       ?first_time@?1??__tzset@@9@4JA 0049870c     libucrt:tzset.obj
 0003:00007728       _fSystemSet                00498728     libucrt:mbctype.obj
 0003:0000772c       ?initialized@?1??__acrt_initialize_multibyte@@9@4_NA 0049872c     libucrt:mbctype.obj
 0003:00007760       __pmatherr_set             00498760     libucrt:libm_error.obj
 0003:000077b8       ?block_head@@3PAUblock_node_struct@@A 004987b8     block.obj
 0003:00016da0       ?_redbookid@@3HA           004a7da0     game.obj
 0003:00016da4       ?_redbookstring@@3PADA     004a7da4     game.obj
 0003:00056f6a       ?in_main_loop@@3DA         004e7f6a     timer.obj
 0003:00385098       ?numActiveTimers@@3HA      00816098     timer.obj
 0003:003850ac       ?used_guest_accounts@@3HA  008160ac     account.obj
 0003:003850b0       ?show_messages_time@@3NA   008160b0     adminfn.obj
 0003:003850b8       ?admin_show_references_value@@3Tval_type@@A 008160b8     adminfn.obj
 0003:003850bc       ?blist@@3PAUbuffer_struct@@A 008160bc     adminfn.obj
 0003:003850c0       ?admin_show_references_current_prop@@3PBDB 008160c0     adminfn.obj
 0003:003850c4       ?admin_show_references_current_object@@3HA 008160c4     adminfn.obj
 0003:003850c8       ?say_admin_text@@3PADA     008160c8     adminfn.obj
 0003:003850cc       ?admin_user_is_logged_in@@3DA 008160cc     adminfn.obj
 0003:003850d0       ?show_messages_message_id@@3HA 008160d0     adminfn.obj
 0003:003850d4       ?admin_show_references_data_str@@3PBDB 008160d4     adminfn.obj
 0003:003850d8       ?admin_show_references_current_class@@3PAUclass_struct@@A 008160d8     adminfn.obj
 0003:003850dc       ?show_messages_total_count@@3HA 008160dc     adminfn.obj
 0003:003850e0       ?show_messages_timed_count@@3HA 008160e0     adminfn.obj
 0003:003850e4       ?configfile@@3PAU_iobuf@@A 008160e4     adminfn.obj
 0003:003850e8       ?num_timers_printed@@3HA   008160e8     adminfn.obj
 0003:003850ec       ?login_time_check@@3HA     008160ec     adminfn.obj
 0003:003850f0       ?show_messages_ignore_count@@3HA 008160f0     adminfn.obj
 0003:003850f4       ?num_active_accts@@3HA     008160f4     adminfn.obj
 0003:003850f8       ?say_admin_session_id@@3HA 008160f8     adminfn.obj
 0003:003850fc       ?admin_show_references_count@@3HA 008160fc     adminfn.obj
 0003:00385100       ?admin_check_user@@3HA     00816100     adminfn.obj
 0003:00385104       ?show_messages_class@@3PAUclass_struct@@A 00816104     adminfn.obj
 0003:00385108       ?admin_who_count@@3HA      00816108     adminfn.obj
 0003:0038510c       ?admin_show_references_tag_str@@3PBDB 0081610c     adminfn.obj
 0003:00385110       ?show_messages_ignore_id@@3HA 00816110     adminfn.obj
 0003:00385114       ?name_lookup_handle@@3PAXA 00816114     async.obj
 0003:00385118       ?next_dynamic_rsc@@3HA     00816118     blakres.obj
 0003:0038511c       ?resources_table_size@@3HA 0081611c     blakres.obj
 0003:00385120       ?resources@@3PAPAUresource_struct@@A 00816120     blakres.obj
 0003:00385124       ?notify_r@@3PAUresource_struct@@A 00816124     blakres.obj
 0003:00385128       ?rsb_file_md5@@3PADA       00816128     blakres.obj
 0003:0038513c       ?resource_name_map@@3PAUsihash_table@@A 0081613c     blakres.obj
 0003:00385140       ?buf0@@3PADA               00816140     ccode.obj
 0003:003868b4       ?class_name_map@@3PAUsihash_table@@A 008178b4     class.obj
 0003:003868b8       ?classes_table_size@@3HA   008178b8     class.obj
 0003:003868c0       ?buf1@@3PADA               008178c0     ccode.obj
 0003:00388034       ?classes@@3PAPAUclass_struct@@A 00819034     class.obj
 0003:00388038       ?blist@@3PAUbuffer_struct@@A 00819038     commcli.obj
 0003:0038803c       ?lpfnDefAdminResponseProc@@3P6GJPAUHWND__@@IIJ@ZA 0081903c     interface_windows.obj
 0003:00388040       ?lpfnDefAdminInputProc@@3P6GJPAUHWND__@@IIJ@ZA 00819040     interface_windows.obj
 0003:00388044       ?max_messages@@3HA         00819044     message.obj
 0003:00388048       ?hash_collisions@@3HA      00819048     message.obj
 0003:0038804c       ?num_nameids@@3HA          0081904c     nameid.obj
 0003:00388050       ?nameids@@3PAPAUnameid_struct@@A 00819050     nameid.obj
 0003:00388054       ?nameid_name_map@@3PAUsihash_table@@A 00819054     nameid.obj
 0003:00388058       ?nameids_size@@3HA         00819058     nameid.obj
 0003:0038805c       ?buffer_size@@3HA          0081905c     savegame.obj
 0003:00388060       ?buffer_position@@3HA      00819060     savegame.obj
 0003:00388064       ?buffer@@3PADA             00819064     savegame.obj
 0003:00388068       ?buffer_warning_size@@3HA  00819068     savegame.obj
 0003:0038806c       ?rscfile@@3PAU_iobuf@@A    0081906c     saversc.obj
 0003:00388070       ?buffer_size@@3HA          00819070     saversc.obj
 0003:00388074       ?buffer_position@@3HA      00819074     saversc.obj
 0003:00388078       ?buffer@@3PADA             00819078     saversc.obj
 0003:0038807c       ?buffer_warning_size@@3HA  0081907c     saversc.obj
 0003:00388080       ?buffer_size@@3HA          00819080     savestr.obj
 0003:00388084       ?buffer_position@@3HA      00819084     savestr.obj
 0003:00388088       ?buffer@@3PADA             00819088     savestr.obj
 0003:0038808c       ?buffer_warning_size@@3HA  0081908c     savestr.obj
 0003:00388090       ?numExecuted@@3HA          00819090     sendmsg.obj
 0003:00388094       ?classMsg@@3UClassMessage@@A 00819094     sendmsg.obj
 0003:003880b0       ?user_table@@3PAUclient_table_node@@A 008190b0     sprocket.obj
 0003:003930b0       ?usercommand_table@@3PAUclient_table_node@@A 008240b0     sprocket.obj
 0003:0039e0b0       ?system_table@@3PAUclient_table_node@@A 0082f0b0     sprocket.obj
 0003:003a90b0       ?buf0@@3PADA               0083a0b0     table.obj
 0003:003aa830       ?admin_in_read@?1??AdminRead@@YAXHQA_KHQAUparm_node@@@Z@4HA 0083b830     adminfn.obj
 0003:003aa838       ?buf@?1??BlakodStackInfo@@YAPADXZ@4PADA 0083b838     sendmsg.obj
 0003:003abbc0       ?s@?1??BlakodDebugInfo@@YAPADXZ@4PADA 0083cbc0     sendmsg.obj
 0003:003abc24       ?buf@?1??GetStateName@@YAPBDPAUsession_node@@@Z@4PADA 0083cc24     session.obj
 0003:003abc58       ?s@?1??GetDataName@@YAPBDTval_type@@@Z@4PADA 0083cc58     term.obj
 0003:003abc68       ?microFrequency@?1??GetMicroCountDouble@@YANXZ@4T_LARGE_INTEGER@@A 0083cc68     time.obj
 0003:003abc70       ?s@?1??RelativeTimeStr@@YAPBDH@Z@4PADA 0083cc70     time.obj
 0003:003abcc0       ?frequency@?1??GetMilliCount@@YA_KXZ@4T_LARGE_INTEGER@@A 0083ccc0     time.obj
 0003:003abcd0       ?s@?1??TimeStr@@YAPBD_J@Z@4PADA 0083ccd0     time.obj
 0003:003abd20       ?s@?1??ShortTimeStr@@YAPBD_J@Z@4PADA 0083cd20     time.obj
 0004:00000000       __guard_fids___beginthread 0083d000     libucrt:thread.obj
 0004:00000004       __guard_fids____dcrt_uninitialize_environments_nolock 0083d004     libucrt:environment_initialization.obj
 0004:0000000c       __guard_fids__             0083d00c     libucrt:initialization.obj
 0004:0000006c       __guard_fids____acrt_initialize_ptd 0083d06c     libucrt:per_thread_data.obj
 0004:00000070       __guard_fids_??$common_show_message_box@_W@@YAHQB_W0I@Z 0083d070     libucrt:crtmbox.obj
 0004:00000074       __guard_fids_??$expand_argument_wildcards@D@@YAHQAD0AAV?$argument_list@D@?A0xb0e4b824@@@Z 0083d074     libucrt:argv_wildcards.obj
 0004:00000078       __guard_fids__             0083d078     libucrt:locale_initializer.obj
 0004:0000007c       __guard_fids__             0083d07c     libucrt:stdio_initializer.obj
 0004:00000080       __guard_fids__             0083d080     libucrt:stdio_initializer.obj
 0004:00000084       __guard_fids__             0083d084     libucrt:timeset_initializer.obj
 0004:00000088       __guard_fids__             0083d088     libucrt:multibyte_initializer.obj
 0004:0000008c       __guard_fids__             0083d08c     libucrt:console_output_initializer.obj
 0004:00000090       __guard_fids____libm_error_support 0083d090     libucrt:libm_error.obj
 0004:00000094       __guard_fids__             0083d094     libucrt:sse2_initializer.obj
 0004:00000098       __guard_fids__             0083d098     LIBCMT:exe_winmain.obj
 0004:0000009c       __guard_fids__             0083d09c     LIBCMT:exe_winmain.obj
 0004:000000a0       __guard_fids__             0083d0a0     LIBCMT:exe_winmain.obj
 0004:000000a4       __guard_fids_?pre_c_initialization@@YAHXZ 0083d0a4     LIBCMT:exe_winmain.obj
 0004:000000ac       __guard_fids__             0083d0ac     LIBCMT:throw_bad_alloc.obj
 0004:000000b4       __guard_fids__             0083d0b4     LIBCMT:throw_bad_alloc.obj
 0004:000000bc       __guard_fids__             0083d0bc     LIBCMT:throw_bad_alloc.obj
 0004:000000c4       __guard_fids__             0083d0c4     LIBCMT:throw_bad_alloc.obj
 0004:000000c8       __guard_fids__             0083d0c8     LIBCMT:throw_bad_alloc.obj
 0004:000000cc       __guard_fids__             0083d0cc     LIBCMT:throw_bad_alloc.obj
 0004:000000d0       __guard_fids__             0083d0d0     LIBCMT:throw_bad_alloc.obj
 0004:000000d4       __guard_fids__             0083d0d4     LIBCMT:throw_bad_alloc.obj
 0004:000000d8       __guard_fids____scrt_set_unhandled_exception_filter 0083d0d8     LIBCMT:utility_desktop.obj
 0004:000000dc       __guard_fids__             0083d0dc     LIBCMT:std_type_info_static.obj
 0004:000000e0       __guard_fids__             0083d0e0     LIBCMT:guard_support.obj
 0004:000000e4       __guard_fids__             0083d0e4     libcpmt:xthrow.obj
 0004:000000ec       __guard_fids__             0083d0ec     libcpmt:xthrow.obj
 0004:000000f4       __guard_fids__             0083d0f4     libcpmt:xthrow.obj
 0004:000000fc       __guard_fids__             0083d0fc     libcpmt:xthrow.obj
 0004:00000100       __guard_fids__             0083d100     libcpmt:xthrow.obj
 0004:00000104       __guard_fids__             0083d104     libcpmt:xthrow.obj
 0004:00000108       __guard_fids__             0083d108     libcpmt:xthrow.obj
 0004:0000010c       __guard_fids__             0083d10c     libcpmt:xthrow.obj
 0004:00000110       __guard_fids__             0083d110     libvcruntime:frame.obj
 0004:00000114       __guard_fids__             0083d114     libvcruntime:frame.obj
 0004:0000011c       __guard_fids__             0083d11c     libvcruntime:frame.obj
 0004:00000120       __guard_fids__             0083d120     libvcruntime:frame.obj
 0004:00000124       __guard_fids____vcrt_initialize_ptd 0083d124     libvcruntime:per_thread_data.obj
 0005:000004e0       $R000000                   0083e4e0     blakserv.res
 0005:000007c8       $R0002E8                   0083e7c8     blakserv.res
 0005:000007e0       $R000300                   0083e7e0     blakserv.res
 0005:00000908       $R000428                   0083e908     blakserv.res
 0005:00000e70       $R000990                   0083ee70     blakserv.res
 0005:00001158       $R000C78                   0083f158     blakserv.res
 0005:00001a00       $R001520                   0083fa00     blakserv.res
 0005:00002068       $R001B88                   00840068     blakserv.res
 0005:00002f10       $R002A30                   00840f10     blakserv.res
 0005:00002f70       $R002A90                   00840f70     blakserv.res
 0005:00006a78       $R006598                   00844a78     blakserv.res
 0005:00006b20       $R006640                   00844b20     blakserv.res
 0005:00006be0       $R006700                   00844be0     blakserv.res
 0005:00006dc0       $R0068E0                   00844dc0     blakserv.res
 0005:00007138       $R006C58                   00845138     blakserv.res
 0005:000071f0       $R006D10                   008451f0     blakserv.res
 0005:000072e8       $R006E08                   008452e8     blakserv.res
 0005:00007660       $R007180                   00845660     blakserv.res
 0005:00007688       $R0071A8                   00845688     blakserv.res
 0005:00008728       $R008248                   00846728     blakserv.res
 0005:0000b548       $R00B068                   00849548     blakserv.res
