 blakserv

 Timestamp is 5aa2d572 (Fri Mar  9 12:41:54 2018)

 Preferred load address is 00400000

 Start         Length     Name                   Class
 0001:00000000 000df0c0H .text$mn                CODE
 0001:000df0c0 000013e3H .text$x                 CODE
 0002:00000000 00000104H .CRT$XCA                DATA
 0002:00000104 00000104H .CRT$XCAA               DATA
 0002:00000208 00000104H .CRT$XCZ                DATA
 0002:0000030c 00000104H .CRT$XIA                DATA
 0002:00000410 00000104H .CRT$XIAA               DATA
 0002:00000514 00000104H .CRT$XIAC               DATA
 0002:00000618 00000114H .CRT$XIC                DATA
 0002:0000072c 00000104H .CRT$XIZ                DATA
 0002:00000830 00000104H .CRT$XPA                DATA
 0002:00000934 0000010cH .CRT$XPX                DATA
 0002:00000a40 00000104H .CRT$XPXA               DATA
 0002:00000b44 00000104H .CRT$XPZ                DATA
 0002:00000c48 00000104H .CRT$XTA                DATA
 0002:00000d4c 00000104H .CRT$XTZ                DATA
 0002:00000e50 0002568cH .rdata                  DATA
 0002:000264dc 00000814H .rdata$r                DATA
 0002:00026cf0 00000174H .rdata$sxdata           DATA
 0002:00026e64 0000016cH .rdata$zzzdbg           DATA
 0002:00026fd0 00000104H .rtc$IAA                DATA
 0002:000270d4 0000025cH .rtc$IMZ                DATA
 0002:00027330 00000104H .rtc$IZZ                DATA
 0002:00027434 00000104H .rtc$TAA                DATA
 0002:00027538 0000025cH .rtc$TMZ                DATA
 0002:00027794 00000104H .rtc$TZZ                DATA
 0002:00027898 0000172fH .xdata$x                DATA
 0002:00028fc7 00000000H .edata                  DATA
 0003:00000000 0000830cH .data                   DATA
 0003:0000830c 000003bcH .data$r                 DATA
 0003:000086c8 004605acH .bss                    DATA
 0004:00000000 000004e8H .idata$5                DATA
 0004:000004e8 000000a0H .idata$2                DATA
 0004:00000588 00000014H .idata$3                DATA
 0004:0000059c 000004e8H .idata$4                DATA
 0004:00000a84 00000f3fH .idata$6                DATA
 0005:00000000 00000234H .gfids$x                DATA
 0005:00000234 000002ccH .gfids$y                DATA
 0006:00000000 00000104H .00cfg                  DATA
 0007:00000000 000006d0H .rsrc$01                DATA
 0007:000006d0 0000d67cH .rsrc$02                DATA

  Address         Publics by Value              Rva+Base       Lib:Object

 0000:00000000       ___guard_iat_table         00000000     <absolute>
 0000:00000000       __except_list              00000000     <absolute>
 0000:00000000       ___guard_fids_count        00000000     <absolute>
 0000:00000000       ___guard_iat_count         00000000     <absolute>
 0000:00000000       ___guard_longjmp_count     00000000     <absolute>
 0000:00000000       ___dynamic_value_reloc_table 00000000     <absolute>
 0000:00000000       ___guard_longjmp_table     00000000     <absolute>
 0000:00000000       ___guard_fids_table        00000000     <absolute>
 0000:00000018       ___safe_se_handler_count   00000018     <absolute>
 0000:00000100       ___guard_flags             00000100     <absolute>
 0000:00000000       ___ImageBase               00400000     <linker-defined>
 0001:0000a910       ?CRC32@@YAIPBDH@Z          0040b910 f   crc.obj
 0001:0000a950       ?CRC32Incremental@@YAIIPBDH@Z 0040b950 f   crc.obj
 0001:0000a9f0       ?MDString@@YAXPADPAE@Z     0040b9f0 f   md5.obj
 0001:0000aad0       ?MDFileHash@@YAXPAD0I@Z    0040bad0 f   md5.obj
 0001:0000aba0       ?MDStringBytes@@YAXPADPAEI@Z 0040bba0 f   md5.obj
 0001:0000c1b0       _WinMain@16                0040d1b0 f   main.obj
 0001:0000c250       ?MainReloadGameData@@YAXXZ 0040d250 f   main.obj
 0001:0000c2d0       ?GetLastErrorStr@@YAPADXZ  0040d2d0 f   main.obj
 0001:0000c370       ?SignalHandler@@YAXH@Z     0040d370 f   main.obj
 0001:0000c790       ??$__vcrt_va_start_verify_argument_type@QBD@@YAXXZ 0040d790 f i md5.obj
 0001:0000c7a0       ___local_stdio_printf_options 0040d7a0 f i md5.obj
 0001:0000c7b0       __vsnprintf_l              0040d7b0 f i md5.obj
 0001:0000c840       __vsprintf_l               0040d840 f i md5.obj
 0001:0000c870       _sprintf                   0040d870 f i md5.obj
 0001:0000c8e0       ?RscFileLoad@@YA_NPADP6A_N0HH0@Z@Z 0040d8e0 f   rscload.obj
 0001:0000cc80       ?AccountValidateEmail@@YA_NPAD@Z 0040dc80 f   account.obj
 0001:0000ccc0       ?InitAccount@@YAXXZ        0040dcc0 f   account.obj
 0001:0000cda0       ?ResetAccount@@YAXXZ       0040dda0 f   account.obj
 0001:0000ceb0       ?GetConsoleAccount@@YAPAUaccount_node_struct@@XZ 0040deb0 f   account.obj
 0001:0000cec0       ?GetNextAccountID@@YAHXZ   0040dec0 f   account.obj
 0001:0000ced0       ?GetUsedGuestAccounts@@YAHXZ 0040ded0 f   account.obj
 0001:0000cf00       ?CreateAccount@@YADPAD00HPAH@Z 0040df00 f   account.obj
 0001:0000d100       ?CreateAccountSecurePassword@@YAHPAD00H@Z 0040e100 f   account.obj
 0001:0000d340       ?RecreateAccountSecurePassword@@YAHHPAD00H@Z 0040e340 f   account.obj
 0001:0000d5b0       ?LoadAccount@@YAXHPAD00HHHH@Z 0040e5b0 f   account.obj
 0001:0000d720       ?DeleteAccount@@YADH@Z     0040e720 f   account.obj
 0001:0000d8f0       ?SetAccountName@@YAXPAUaccount_node_struct@@PAD@Z 0040e8f0 f   account.obj
 0001:0000d960       ?SetAccountPassword@@YAXPAUaccount_node_struct@@PAD@Z 0040e960 f   account.obj
 0001:0000da70       ?SetAccountPasswordAlreadyEncrypted@@YAXPAUaccount_node_struct@@PAD@Z 0040ea70 f   account.obj
 0001:0000dae0       ?SetAccountEmail@@YAXPAUaccount_node_struct@@PAD@Z 0040eae0 f   account.obj
 0001:0000db50       ?SetNextAccountID@@YAXH@Z  0040eb50 f   account.obj
 0001:0000db60       ?GetAccountByID@@YAPAUaccount_node_struct@@H@Z 0040eb60 f   account.obj
 0001:0000dba0       ?GetAccountByName@@YAPAUaccount_node_struct@@PAD@Z 0040eba0 f   account.obj
 0001:0000dbf0       ?GetAccountByEmail@@YAPAUaccount_node_struct@@PAD@Z 0040ebf0 f   account.obj
 0001:0000dc40       ?AccountLoginByName@@YAPAUaccount_node_struct@@PAD@Z 0040ec40 f   account.obj
 0001:0000dd00       ?AccountLogoff@@YAXPAUaccount_node_struct@@@Z 0040ed00 f   account.obj
 0001:0000dd10       ?DoneLoadAccounts@@YAXXZ   0040ed10 f   account.obj
 0001:0000dd40       ?ForEachAccount@@YAXP6AXPAUaccount_node_struct@@@Z@Z 0040ed40 f   account.obj
 0001:0000dd90       ?ForEachAccountWithString@@YAXP6AXPAUaccount_node_struct@@PAD@Z1@Z 0040ed90 f   account.obj
 0001:0000dde0       ?DeleteAccountAndAssociatedUsersByID@@YAXH@Z 0040ede0 f   account.obj
 0001:0000df20       ?DeleteAccountsIfUnused@@YAXXZ 0040ef20 f   account.obj
 0001:0000df70       ?DeleteAccountIfUnused@@YAXPAUaccount_node_struct@@@Z 0040ef70 f   account.obj
 0001:0000dfa0       ?CompactAccounts@@YAXXZ    0040efa0 f   account.obj
 0001:0000e020       ?SuspendAccountAbsolute@@YADPAUaccount_node_struct@@H@Z 0040f020 f   account.obj
 0001:0000e160       ?SuspendAccountRelative@@YADPAUaccount_node_struct@@H@Z 0040f160 f   account.obj
 0001:0000e1c0       ?GetActiveAccountCount@@YAHXZ 0040f1c0 f   account.obj
 0001:0000e210       ?InsertAccount@@YAXPAUaccount_node_struct@@@Z 0040f210 f   account.obj
 0001:0000e290       ?CountUsedGuestAccounts@@YAXPAUsession_node@@@Z 0040f290 f   account.obj
 0001:0000e870       ??$max@H@std@@YAABHABH0@Z  0040f870 f i account.obj
 0001:0000e8c0       ?strchr@@YAPADQADH@Z       0040f8c0 f i account.obj
 0001:0000e8f0       ___local_stdio_scanf_options 0040f8f0 f i account.obj
 0001:0000e900       __vsscanf_l                0040f900 f i account.obj
 0001:0000e940       _sscanf                    0040f940 f i account.obj
 0001:0000e9b0       ?AdminInit@@YAXPAUsession_node@@@Z 0040f9b0 f   admin.obj
 0001:0000ea00       ?AdminExit@@YAXPAUsession_node@@@Z 0040fa00 f   admin.obj
 0001:0000ea10       ?AdminProcessSessionBuffer@@YAXPAUsession_node@@@Z 0040fa10 f   admin.obj
 0001:0000eb30       ?AdminInputChar@@YAXPAUsession_node@@D@Z 0040fb30 f   admin.obj
 0001:0000ed20       ?InitAdminConstants@@YAXXZ 0040fd20 f   admincons.obj
 0001:0000ed30       ?ResetAdminConstants@@YAXXZ 0040fd30 f   admincons.obj
 0001:0000ede0       ?LoadAdminConstants@@YAXXZ 0040fde0 f   admincons.obj
 0001:0000f010       ?LookupAdminConstant@@YADPBDPAH@Z 00410010 f   admincons.obj
 0001:0000f070       ?AddAdminConstant@@YAXPADH@Z 00410070 f   admincons.obj
 0001:0000f1f0       ?SendSessionAdminText@@YAXHPBDZZ 004101f0 f   adminfn.obj
 0001:0000f2d0       ?TryAdminCommand@@YAXHPAD@Z 004102d0 f   adminfn.obj
 0001:0000f390       ?AdminBufferSend@@YAXPADH@Z 00410390 f   adminfn.obj
 0001:0000f3c0       ?AdminDeleteEachUserObject@@YAXPAUuser_struct@@@Z 004103c0 f   adminfn.obj
 0001:0000f430       ?AdminSendBufferList@@YAXXZ 00410430 f   adminfn.obj
 0001:0000f560       ?SendAdminBuffer@@YAXPADH@Z 00410560 f   adminfn.obj
 0001:0000f660       ?DoAdminCommand@@YAXPAD@Z  00410660 f   adminfn.obj
 0001:0000f6c0       ?AdminTable@@YAXHQAUadmin_table_struct@@HPAD@Z 004106c0 f   adminfn.obj
 0001:0000ff10       ?AdminIsValidBlakParm@@YADTval_type@@@Z 00410f10 f   adminfn.obj
 0001:0000fff0       ?AdminHelp@@YAXHHQAUadmin_table_struct@@@Z 00410ff0 f   adminfn.obj
 0001:00010140       ?AdminGarbage@@YAXHQA_KHQAUparm_node@@@Z 00411140 f   adminfn.obj
 0001:000101b0       ?AdminSaveGame@@YAXHQA_KHQAUparm_node@@@Z 004111b0 f   adminfn.obj
 0001:00010230       ?AdminSaveConfiguration@@YAXHQA_KHQAUparm_node@@@Z 00411230 f   adminfn.obj
 0001:000102f0       ?AdminSaveOneConfigNode@@YAXPAUconfig_node@@PBD1@Z 004112f0 f   adminfn.obj
 0001:00010550       ?AdminWho@@YAXHQA_KHQAUparm_node@@@Z 00411550 f   adminfn.obj
 0001:000105a0       ?AdminWhoEachSession@@YAXPAUsession_node@@@Z 004115a0 f   adminfn.obj
 0001:00010820       ?AdminLock@@YAXHQA_KHQAUparm_node@@@Z 00411820 f   adminfn.obj
 0001:00010900       ?AdminUnlock@@YAXHQA_KHQAUparm_node@@@Z 00411900 f   adminfn.obj
 0001:00010950       ?AdminMail@@YAXHQA_KHQAUparm_node@@@Z 00411950 f   adminfn.obj
 0001:00010ad0       ?AdminPage@@YAXHQA_KHQAUparm_node@@@Z 00411ad0 f   adminfn.obj
 0001:00010b40       ?AdminShowStatus@@YAXHQA_KHQAUparm_node@@@Z 00411b40 f   adminfn.obj
 0001:00010eb0       ?AdminShowMemory@@YAXHQA_KHQAUparm_node@@@Z 00411eb0 f   adminfn.obj
 0001:00010fa0       ?AdminShowCalled@@YAXHQA_KHQAUparm_node@@@Z 00411fa0 f   adminfn.obj
 0001:00011150       ?AdminShowCalledClass@@YAXPAUclass_struct@@@Z 00412150 f   adminfn.obj
 0001:000112a0       ?AdminShowRoomTable@@YAXHQA_KHQAUparm_node@@@Z 004122a0 f   adminfn.obj
 0001:000112c0       ?AdminShowBlockers@@YAXHQA_KHQAUparm_node@@@Z 004122c0 f   adminfn.obj
 0001:000113f0       ?AdminShowObject@@YAXHQA_KHQAUparm_node@@@Z 004123f0 f   adminfn.obj
 0001:00011600       ?AdminShowObjects@@YAXHQA_KHQAUparm_node@@@Z 00412600 f   adminfn.obj
 0001:00011780       ?AdminShowListNode@@YAXHQA_KHQAUparm_node@@@Z 00412780 f   adminfn.obj
 0001:00011840       ?AdminShowList@@YAXHQA_KHQAUparm_node@@@Z 00412840 f   adminfn.obj
 0001:000118a0       ?AdminShowListParen@@YAXHH@Z 004128a0 f   adminfn.obj
 0001:00011a90       ?AdminShowUsers@@YAXHQA_KHQAUparm_node@@@Z 00412a90 f   adminfn.obj
 0001:00011ab0       ?AdminShowUser@@YAXHQA_KHQAUparm_node@@@Z 00412ab0 f   adminfn.obj
 0001:00011bc0       ?AdminShowUsage@@YAXHQA_KHQAUparm_node@@@Z 00412bc0 f   adminfn.obj
 0001:00011c20       ?AdminShowUserHeader@@YAXXZ 00412c20 f   adminfn.obj
 0001:00011c50       ?AdminShowOneUser@@YAXPAUuser_struct@@@Z 00412c50 f   adminfn.obj
 0001:00011dc0       ?AdminShowAccounts@@YAXHQA_KHQAUparm_node@@@Z 00412dc0 f   adminfn.obj
 0001:00011de0       ?AdminShowActive@@YAXHQA_KHQAUparm_node@@@Z 00412de0 f   adminfn.obj
 0001:00011e50       ?AdminShowOneAccountIfActive@@YAXPAUaccount_node_struct@@@Z 00412e50 f   adminfn.obj
 0001:00011e90       ?AdminShowAccByEmail@@YAXHQA_KHQAUparm_node@@@Z 00412e90 f   adminfn.obj
 0001:00011ee0       ?AdminPrintAccountByEmail@@YAXPAUaccount_node_struct@@PAD@Z 00412ee0 f   adminfn.obj
 0001:00011f20       ?AdminShowAccount@@YAXHQA_KHQAUparm_node@@@Z 00412f20 f   adminfn.obj
 0001:00012060       ?AdminShowAccountHeader@@YAXXZ 00413060 f   adminfn.obj
 0001:000120a0       ?AdminShowOneAccount@@YAXPAUaccount_node_struct@@@Z 004130a0 f   adminfn.obj
 0001:00012210       ?AdminShowOneAccountIfSuspended@@YAXPAUaccount_node_struct@@@Z 00413210 f   adminfn.obj
 0001:00012240       ?AdminDeleteUnusedAccounts@@YAXHQA_KHQAUparm_node@@@Z 00413240 f   adminfn.obj
 0001:00012320       ?AdminShowResource@@YAXHQA_KHQAUparm_node@@@Z 00413320 f   adminfn.obj
 0001:00012420       ?AdminPrintResource@@YAXPAUresource_struct@@@Z 00413420 f   adminfn.obj
 0001:000124a0       ?AdminShowDynamicResources@@YAXHQA_KHQAUparm_node@@@Z 004134a0 f   adminfn.obj
 0001:000124d0       ?AdminShowTimers@@YAXHQA_KHQAUparm_node@@@Z 004134d0 f   adminfn.obj
 0001:00012530       ?AdminShowTimer@@YAXHQA_KHQAUparm_node@@@Z 00413530 f   adminfn.obj
 0001:000125c0       ?AdminShowTimerMessageID@@YAXHQA_KHQAUparm_node@@@Z 004135c0 f   adminfn.obj
 0001:00012670       ?AdminShowTimerObjectID@@YAXHQA_KHQAUparm_node@@@Z 00413670 f   adminfn.obj
 0001:000126f0       ?AdminShowTime@@YAXHQA_KHQAUparm_node@@@Z 004136f0 f   adminfn.obj
 0001:00012740       ?AdminShowOneTimer@@YAXPAUtimer_struct@@@Z 00413740 f   adminfn.obj
 0001:000127f0       ?AdminShowConfiguration@@YAXHQA_KHQAUparm_node@@@Z 004137f0 f   adminfn.obj
 0001:00012810       ?AdminShowOneConfigNode@@YAXPAUconfig_node@@PBD1@Z 00413810 f   adminfn.obj
 0001:00012940       ?AdminShowString@@YAXHQA_KHQAUparm_node@@@Z 00413940 f   adminfn.obj
 0001:00012a10       ?AdminShowSuspended@@YAXHQA_KHQAUparm_node@@@Z 00413a10 f   adminfn.obj
 0001:00012a30       ?AdminShowSysTimers@@YAXHQA_KHQAUparm_node@@@Z 00413a30 f   adminfn.obj
 0001:00012a70       ?AdminShowEachSysTimer@@YAXPAUsystimer_struct@@@Z 00413a70 f   adminfn.obj
 0001:00012b90       ?AdminShowOpcodes@@YAXHQA_KHQAUparm_node@@@Z 00413b90 f   adminfn.obj
 0001:00012bb0       ?AdminShowCalls@@YAXHQA_KHQAUparm_node@@@Z 00413bb0 f   adminfn.obj
 0001:000137a0       ?AdminShowMessage@@YAXHQA_KHQAUparm_node@@@Z 004147a0 f   adminfn.obj
 0001:00013ae0       ?AdminShowClass@@YAXHQA_KHQAUparm_node@@@Z 00414ae0 f   adminfn.obj
 0001:00013d30       ?AdminShowPackages@@YAXHQA_KHQAUparm_node@@@Z 00414d30 f   adminfn.obj
 0001:00013d70       ?AdminShowOnePackage@@YAXPAUdllist_struct@@@Z 00414d70 f   adminfn.obj
 0001:00013db0       ?AdminShowConstant@@YAXHQA_KHQAUparm_node@@@Z 00414db0 f   adminfn.obj
 0001:00013e60       ?AdminShowTransmitted@@YAXHQA_KHQAUparm_node@@@Z 00414e60 f   adminfn.obj
 0001:00013e80       ?AdminShowTable@@YAXHQA_KHQAUparm_node@@@Z 00414e80 f   adminfn.obj
 0001:00013ff0       ?AdminShowName@@YAXHQA_KHQAUparm_node@@@Z 00414ff0 f   adminfn.obj
 0001:00014070       ?AdminShowNameIDs@@YAXHQA_KHQAUparm_node@@@Z 00415070 f   adminfn.obj
 0001:000140b0       ?AdminPrintNameID@@YAXPAUnameid_struct@@@Z 004150b0 f   adminfn.obj
 0001:000140f0       ?AdminShowReferences@@YAXHQA_KHQAUparm_node@@@Z 004150f0 f   adminfn.obj
 0001:000142e0       ?AdminShowReferencesEachObject@@YAXPAUobject_node@@@Z 004152e0 f   adminfn.obj
 0001:00014440       ?AdminShowReferencesEachList@@YAXHH@Z 00415440 f   adminfn.obj
 0001:00014570       ?AdminShowReferencesEachTable@@YAXHH@Z 00415570 f   adminfn.obj
 0001:000146e0       ?AdminShowInstances@@YAXHQA_KHQAUparm_node@@@Z 004156e0 f   adminfn.obj
 0001:00014800       ?AdminShowMatches@@YAXHQA_KHQAUparm_node@@@Z 00415800 f   adminfn.obj
 0001:00014f90       ?AdminShowProtocol@@YAXHQA_KHQAUparm_node@@@Z 00415f90 f   adminfn.obj
 0001:000151d0       ?AdminSetClass@@YAXHQA_KHQAUparm_node@@@Z 004161d0 f   adminfn.obj
 0001:000153c0       ?AdminSetObject@@YAXHQA_KHQAUparm_node@@@Z 004163c0 f   adminfn.obj
 0001:000155e0       ?AdminSetAccountName@@YAXHQA_KHQAUparm_node@@@Z 004165e0 f   adminfn.obj
 0001:000156f0       ?AdminSetAccountPassword@@YAXHQA_KHQAUparm_node@@@Z 004166f0 f   adminfn.obj
 0001:000157b0       ?AdminSetAccountEmail@@YAXHQA_KHQAUparm_node@@@Z 004167b0 f   adminfn.obj
 0001:000158c0       ?AdminSetAccountCredits@@YAXHQA_KHQAUparm_node@@@Z 004168c0 f   adminfn.obj
 0001:00015960       ?AdminSetAccountObject@@YAXHQA_KHQAUparm_node@@@Z 00416960 f   adminfn.obj
 0001:00015a90       ?AdminSetConfigInt@@YAXHQA_KHQAUparm_node@@@Z 00416a90 f   adminfn.obj
 0001:00015ba0       ?AdminSetConfigBool@@YAXHQA_KHQAUparm_node@@@Z 00416ba0 f   adminfn.obj
 0001:00015d40       ?AdminSetConfigStr@@YAXHQA_KHQAUparm_node@@@Z 00416d40 f   adminfn.obj
 0001:00015e50       ?AdminSuspendUser@@YAXHQA_KHQAUparm_node@@@Z 00416e50 f   adminfn.obj
 0001:00016000       ?AdminSuspendAccount@@YAXHQA_KHQAUparm_node@@@Z 00417000 f   adminfn.obj
 0001:000161c0       ?AdminUnsuspendUser@@YAXHQA_KHQAUparm_node@@@Z 004171c0 f   adminfn.obj
 0001:00016330       ?AdminUnsuspendAccount@@YAXHQA_KHQAUparm_node@@@Z 00417330 f   adminfn.obj
 0001:000164a0       ?AdminCheckTimerHeap@@YAXHQA_KHQAUparm_node@@@Z 004174a0 f   adminfn.obj
 0001:00016530       ?AdminCreateAccount@@YAXHQA_KHQAUparm_node@@@Z 00417530 f   adminfn.obj
 0001:000167d0       ?AdminCreateAutomated@@YAXHQA_KHQAUparm_node@@@Z 004177d0 f   adminfn.obj
 0001:00016900       ?AdminRecreateAutomated@@YAXHQA_KHQAUparm_node@@@Z 00417900 f   adminfn.obj
 0001:000169f0       ?AdminResetHighestTimed@@YAXHQA_KHQAUparm_node@@@Z 004179f0 f   adminfn.obj
 0001:00016b40       ?AdminAddUserToEachAccount@@YAXHQA_KHQAUparm_node@@@Z 00417b40 f   adminfn.obj
 0001:00016b70       ?AdminCreateUser@@YAXHQA_KHQAUparm_node@@@Z 00417b70 f   adminfn.obj
 0001:00016be0       ?AdminCreateEscapedConvict@@YAXHQA_KHQAUparm_node@@@Z 00417be0 f   adminfn.obj
 0001:00016c50       ?AdminCreateAdmin@@YAXHQA_KHQAUparm_node@@@Z 00417c50 f   adminfn.obj
 0001:00016cc0       ?AdminCreateDM@@YAXHQA_KHQAUparm_node@@@Z 00417cc0 f   adminfn.obj
 0001:00016d30       ?AdminCreateObject@@YAXHQA_KHQAUparm_node@@@Z 00417d30 f   adminfn.obj
 0001:00016e60       ?AdminCreateListNode@@YAXHQA_KHQAUparm_node@@@Z 00417e60 f   adminfn.obj
 0001:00017070       ?AdminCreateTable@@YAXHQA_KHQAUparm_node@@@Z 00418070 f   adminfn.obj
 0001:00017100       ?AdminCreateTimer@@YAXHQA_KHQAUparm_node@@@Z 00418100 f   adminfn.obj
 0001:000171b0       ?AdminCreateResource@@YAXHQA_KHQAUparm_node@@@Z 004181b0 f   adminfn.obj
 0001:00017250       ?AdminDeleteTimer@@YAXHQA_KHQAUparm_node@@@Z 00418250 f   adminfn.obj
 0001:000172d0       ?AdminDeleteAccount@@YAXHQA_KHQAUparm_node@@@Z 004182d0 f   adminfn.obj
 0001:00017380       ?AdminDeleteUser@@YAXHQA_KHQAUparm_node@@@Z 00418380 f   adminfn.obj
 0001:00017440       ?AdminCheckUserLoggedOn@@YAXPAUsession_node@@@Z 00418440 f   adminfn.obj
 0001:00017480       ?AdminSendInt@@YAXHQA_KHQAUparm_node@@@Z 00418480 f   adminfn.obj
 0001:00017560       ?AdminSendObject@@YAXHQA_KHQAUparm_node@@@Z 00418560 f   adminfn.obj
 0001:000179b0       ?AdminSendList@@YAXHQA_KHQAUparm_node@@@Z 004189b0 f   adminfn.obj
 0001:00017b40       ?AdminSendUsers@@YAXHQA_KHQAUparm_node@@@Z 00418b40 f   adminfn.obj
 0001:00017c70       ?AdminSendClass@@YAXHQA_KHQAUparm_node@@@Z 00418c70 f   adminfn.obj
 0001:00017da0       ?AdminTraceOnMessage@@YAXHQA_KHQAUparm_node@@@Z 00418da0 f   adminfn.obj
 0001:00017ea0       ?AdminTraceOffMessage@@YAXHQA_KHQAUparm_node@@@Z 00418ea0 f   adminfn.obj
 0001:00017fa0       ?AdminAddCredits@@YAXHQA_KHQAUparm_node@@@Z 00418fa0 f   adminfn.obj
 0001:00018040       ?AdminKickoffAll@@YAXHQA_KHQAUparm_node@@@Z 00419040 f   adminfn.obj
 0001:00018070       ?AdminKickoffEachSession@@YAXPAUsession_node@@@Z 00419070 f   adminfn.obj
 0001:000180c0       ?AdminKickoffAccount@@YAXHQA_KHQAUparm_node@@@Z 004190c0 f   adminfn.obj
 0001:000181b0       ?AdminHangupAll@@YAXHQA_KHQAUparm_node@@@Z 004191b0 f   adminfn.obj
 0001:000181e0       ?AdminHangupEachSession@@YAXPAUsession_node@@@Z 004191e0 f   adminfn.obj
 0001:00018200       ?AdminHangupUser@@YAXHQA_KHQAUparm_node@@@Z 00419200 f   adminfn.obj
 0001:000183e0       ?AdminHangupAccount@@YAXHQA_KHQAUparm_node@@@Z 004193e0 f   adminfn.obj
 0001:00018590       ?AdminHangupSession@@YAXHQA_KHQAUparm_node@@@Z 00419590 f   adminfn.obj
 0001:00018640       ?AdminBlockIP@@YAXHQA_KHQAUparm_node@@@Z 00419640 f   adminfn.obj
 0001:00018770       ?AdminReloadSystem@@YAXHQA_KHQAUparm_node@@@Z 00419770 f   adminfn.obj
 0001:00018840       ?AdminReloadGame@@YAXHQA_KHQAUparm_node@@@Z 00419840 f   adminfn.obj
 0001:000189d0       ?AdminReloadGameEachSession@@YAXPAUsession_node@@@Z 004199d0 f   adminfn.obj
 0001:000189f0       ?AdminReloadMotd@@YAXHQA_KHQAUparm_node@@@Z 004199f0 f   adminfn.obj
 0001:00018a40       ?AdminReloadPackages@@YAXHQA_KHQAUparm_node@@@Z 00419a40 f   adminfn.obj
 0001:00018a80       ?AdminDisableSysTimer@@YAXHQA_KHQAUparm_node@@@Z 00419a80 f   adminfn.obj
 0001:00018ae0       ?AdminEnableSysTimer@@YAXHQA_KHQAUparm_node@@@Z 00419ae0 f   adminfn.obj
 0001:00018b40       ?AdminTerminateNoSave@@YAXHQA_KHQAUparm_node@@@Z 00419b40 f   adminfn.obj
 0001:00018b60       ?AdminTerminateSave@@YAXHQA_KHQAUparm_node@@@Z 00419b60 f   adminfn.obj
 0001:00018bd0       ?AdminSay@@YAXHQA_KHQAUparm_node@@@Z 00419bd0 f   adminfn.obj
 0001:00018c30       ?AdminSayEachAdminSession@@YAXPAUsession_node@@@Z 00419c30 f   adminfn.obj
 0001:00018d30       ?AdminRead@@YAXHQA_KHQAUparm_node@@@Z 00419d30 f   adminfn.obj
 0001:00018ed0       ?AdminMark@@YAXHQA_KHQAUparm_node@@@Z 00419ed0 f   adminfn.obj
 0001:00018f10       ?to_lowercase@@YAPADPAD@Z  00419f10 f   adminfn.obj
 0001:0001b6c0       ??$__vcrt_va_start_verify_argument_type@PBD@@YAXXZ 0041c6c0 f i adminfn.obj
 0001:0001b6d0       ??$min@H@std@@YAABHABH0@Z  0041c6d0 f i adminfn.obj
 0001:0001b720       ??$min@I@std@@YAABIABI0@Z  0041c720 f i adminfn.obj
 0001:0001b770       __vfprintf_l               0041c770 f i adminfn.obj
 0001:0001b7b0       _fprintf                   0041c7b0 f i adminfn.obj
 0001:0001b820       _vsnprintf                 0041c820 f i adminfn.obj
 0001:0001b8a0       ?AppendTextFile@@YAXPAUsession_node@@PADH1@Z 0041c8a0 f   apndfile.obj
 0001:0001bb60       ?AsyncSocketStart@@YAXXZ   0041cb60 f   async.obj
 0001:0001bba0       ?AsyncNameLookup@@YAXPAXH@Z 0041cba0 f   async.obj
 0001:0001bbe0       ?AsyncSocketClose@@YAXI@Z  0041cbe0 f   async.obj
 0001:0001bc20       ?AsyncSocketWrite@@YAXI@Z  0041cc20 f   async.obj
 0001:0001bde0       ?AsyncSocketRead@@YAXI@Z   0041cde0 f   async.obj
 0001:0001c060       ?AcceptSocketConnections@@YAXHH@Z 0041d060 f   async.obj
 0001:0001c350       ?AsyncEachSessionNameLookup@@YAXPAUsession_node@@@Z 0041d350 f   async.obj
 0001:0001c5c0       ?InitAsyncConnections@@YAXXZ 0041d5c0 f   async_windows.obj
 0001:0001c710       ?ExitAsyncConnections@@YAXXZ 0041d710 f   async_windows.obj
 0001:0001c740       ?AsyncSocketAccept@@YAXIHHH@Z 0041d740 f   async_windows.obj
 0001:0001ca90       ?AsyncSocketSelect@@YAXIHH@Z 0041da90 f   async_windows.obj
 0001:0001cb50       ?CheckMaintenanceMask@@YADPAUsockaddr_in6@@H@Z 0041db50 f   async_windows.obj
 0001:0001ce30       ?SaveRsbMD5@@YAXPAD@Z      0041de30 f   blakres.obj
 0001:0001ce80       ?GetRsbMD5@@YAPADXZ        0041de80 f   blakres.obj
 0001:0001ce90       ?InitResource@@YAXXZ       0041de90 f   blakres.obj
 0001:0001cf30       ?ResetResource@@YAXXZ      0041df30 f   blakres.obj
 0001:0001d0b0       ?AddResource@@YAXHHPAD@Z   0041e0b0 f   blakres.obj
 0001:0001d1f0       ?SetResourceName@@YAXHPAD@Z 0041e1f0 f   blakres.obj
 0001:0001d290       ?AddDynamicResource@@YAHPAD@Z 0041e290 f   blakres.obj
 0001:0001d310       ?ChangeDynamicResourceStr@@YAXPAUresource_struct@@PAD@Z 0041e310 f   blakres.obj
 0001:0001d340       ?ChangeDynamicResource@@YAXPAUresource_struct@@PADH@Z 0041e340 f   blakres.obj
 0001:0001d410       ?GetResourceByID@@YAPAUresource_struct@@H@Z 0041e410 f   blakres.obj
 0001:0001d460       ?GetResourceStrByLanguageID@@YAPADHH@Z 0041e460 f   blakres.obj
 0001:0001d520       ?IsResourceByID@@YADH@Z    0041e520 f   blakres.obj
 0001:0001d560       ?GetResourceByName@@YAPAUresource_struct@@PBD@Z 0041e560 f   blakres.obj
 0001:0001d5f0       ?ForEachResource@@YAXP6AXPAUresource_struct@@@Z@Z 0041e5f0 f   blakres.obj
 0001:0001d680       ?ForEachDynamicRsc@@YAXP6AXPAUresource_struct@@@Z@Z 0041e680 f   blakres.obj
 0001:0001d710       ?DynamicResourceChangeNotify@@YAXPAUsession_node@@@Z 0041e710 f   blakres.obj
 0001:0001d9e0       ?AddBlock@@YAXHPAUin6_addr@@@Z 0041e9e0 f   block.obj
 0001:0001dab0       ?DeleteBlock@@YAXPAUin6_addr@@@Z 0041eab0 f   block.obj
 0001:0001db70       ?DeleteAllBlocks@@YAXXZ    0041eb70 f   block.obj
 0001:0001dc00       ?CheckBlockList@@YA_NPAUin6_addr@@@Z 0041ec00 f   block.obj
 0001:0001dc60       ?BuildBannedIPBlocks@@YAXPAD@Z 0041ec60 f   block.obj
 0001:0001de10       ?FindBlock@@YAPAUblock_node_struct@@PAUin6_addr@@@Z 0041ee10 f   block.obj
 0001:0001df90       ?InitBufferPool@@YAXXZ     0041ef90 f   bufpool.obj
 0001:0001dfd0       ?ResetBufferPool@@YAXXZ    0041efd0 f   bufpool.obj
 0001:0001e0d0       ?GetBuffer@@YAPAUbuffer_struct@@XZ 0041f0d0 f   bufpool.obj
 0001:0001e220       ?DeleteBuffer@@YAXPAUbuffer_struct@@@Z 0041f220 f   bufpool.obj
 0001:0001e290       ?AddToBufferList@@YAPAUbuffer_struct@@PAU1@PAXH@Z 0041f290 f   bufpool.obj
 0001:0001e3a0       ?AddByteToBufferList@@YAPAUbuffer_struct@@PAU1@D@Z 0041f3a0 f   bufpool.obj
 0001:0001e410       ?CopyBufferList@@YAPAUbuffer_struct@@PAU1@@Z 0041f410 f   bufpool.obj
 0001:0001e4d0       ?DeleteBufferList@@YAXPAUbuffer_struct@@@Z 0041f4d0 f   bufpool.obj
 0001:0001e670       ?CreateBuiltInAccounts@@YAXXZ 0041f670 f   builtin.obj
 0001:0001e9e0       ?C_Invalid@@YAHHPAUlocal_var_type@@HQAUparm_node@@H1@Z 0041f9e0 f   ccode.obj
 0001:0001ea00       ?C_SaveGame@@YAHHPAUlocal_var_type@@HQAUparm_node@@H1@Z 0041fa00 f   ccode.obj
 0001:0001eb70       ?C_LoadGame@@YAHHPAUlocal_var_type@@HQAUparm_node@@H1@Z 0041fb70 f   ccode.obj
 0001:0001ecd0       ?C_AddPacket@@YAHHPAUlocal_var_type@@HQAUparm_node@@H1@Z 0041fcd0 f   ccode.obj
 0001:0001ee00       ?C_SendPacket@@YAHHPAUlocal_var_type@@HQAUparm_node@@H1@Z 0041fe00 f   ccode.obj
 0001:0001eee0       ?C_SendCopyPacket@@YAHHPAUlocal_var_type@@HQAUparm_node@@H1@Z 0041fee0 f   ccode.obj
 0001:0001efc0       ?C_ClearPacket@@YAHHPAUlocal_var_type@@HQAUparm_node@@H1@Z 0041ffc0 f   ccode.obj
 0001:0001efe0       ?C_GodLog@@YAHHPAUlocal_var_type@@HQAUparm_node@@H1@Z 0041ffe0 f   ccode.obj
 0001:0001f5c0       ?C_Debug@@YAHHPAUlocal_var_type@@HQAUparm_node@@H1@Z 004205c0 f   ccode.obj
 0001:0001fbd0       ?C_GetInactiveTime@@YAHHPAUlocal_var_type@@HQAUparm_node@@H1@Z 00420bd0 f   ccode.obj
 0001:0001fd60       ?C_DumpStack@@YAHHPAUlocal_var_type@@HQAUparm_node@@H1@Z 00420d60 f   ccode.obj
 0001:0001fe00       ?C_SendMessage@@YAHHPAUlocal_var_type@@HQAUparm_node@@H1@Z 00420e00 f   ccode.obj
 0001:000200d0       ?C_PostMessage@@YAHHPAUlocal_var_type@@HQAUparm_node@@H1@Z 004210d0 f   ccode.obj
 0001:000203b0       ?C_SendListMessage@@YAHHPAUlocal_var_type@@HQAUparm_node@@H1@Z 004213b0 f   ccode.obj
 0001:00020750       ?C_SendListMessageBreak@@YAHHPAUlocal_var_type@@HQAUparm_node@@H1@Z 00421750 f   ccode.obj
 0001:00020af0       ?C_SendListMessageByClass@@YAHHPAUlocal_var_type@@HQAUparm_node@@H1@Z 00421af0 f   ccode.obj
 0001:00020f30       ?C_SendListMessageByClassBreak@@YAHHPAUlocal_var_type@@HQAUparm_node@@H1@Z 00421f30 f   ccode.obj
 0001:00021370       ?C_CreateObject@@YAHHPAUlocal_var_type@@HQAUparm_node@@H1@Z 00422370 f   ccode.obj
 0001:000214a0       ?C_GetClass@@YAHHPAUlocal_var_type@@HQAUparm_node@@H1@Z 004224a0 f   ccode.obj
 0001:000215f0       ?C_StringEqual@@YAHHPAUlocal_var_type@@HQAUparm_node@@H1@Z 004225f0 f   ccode.obj
 0001:00021ad0       ?C_StringSubstitute@@YAHHPAUlocal_var_type@@HQAUparm_node@@H1@Z 00422ad0 f   ccode.obj
 0001:000221c0       ?C_StringContain@@YAHHPAUlocal_var_type@@HQAUparm_node@@H1@Z 004231c0 f   ccode.obj
 0001:000226d0       ?C_SetResource@@YAHHPAUlocal_var_type@@HQAUparm_node@@H1@Z 004236d0 f   ccode.obj
 0001:00022980       ?C_ParseString@@YAHHPAUlocal_var_type@@HQAUparm_node@@H1@Z 00423980 f   ccode.obj
 0001:00022cf0       ?C_SetString@@YAHHPAUlocal_var_type@@HQAUparm_node@@H1@Z 00423cf0 f   ccode.obj
 0001:000231c0       ?C_AppendTempString@@YAHHPAUlocal_var_type@@HQAUparm_node@@H1@Z 004241c0 f   ccode.obj
 0001:00023460       ?C_ClearTempString@@YAHHPAUlocal_var_type@@HQAUparm_node@@H1@Z 00424460 f   ccode.obj
 0001:000234e0       ?C_GetTempString@@YAHHPAUlocal_var_type@@HQAUparm_node@@H1@Z 004244e0 f   ccode.obj
 0001:00023550       ?C_CreateString@@YAHHPAUlocal_var_type@@HQAUparm_node@@H1@Z 00424550 f   ccode.obj
 0001:000235e0       ?C_IsString@@YAHHPAUlocal_var_type@@HQAUparm_node@@H1@Z 004245e0 f   ccode.obj
 0001:000236d0       ?C_StringLength@@YAHHPAUlocal_var_type@@HQAUparm_node@@H1@Z 004246d0 f   ccode.obj
 0001:000237e0       ?C_StringConsistsOf@@YAHHPAUlocal_var_type@@HQAUparm_node@@H1@Z 004247e0 f   ccode.obj
 0001:000239d0       ?C_CreateTimer@@YAHHPAUlocal_var_type@@HQAUparm_node@@H1@Z 004249d0 f   ccode.obj
 0001:00023c80       ?C_DeleteTimer@@YAHHPAUlocal_var_type@@HQAUparm_node@@H1@Z 00424c80 f   ccode.obj
 0001:00023db0       ?C_GetTimeRemaining@@YAHHPAUlocal_var_type@@HQAUparm_node@@H1@Z 00424db0 f   ccode.obj
 0001:00023f30       ?C_IsTimer@@YAHHPAUlocal_var_type@@HQAUparm_node@@H1@Z 00424f30 f   ccode.obj
 0001:00024050       ?C_LoadRoom@@YAHHPAUlocal_var_type@@HQAUparm_node@@H1@Z 00425050 f   ccode.obj
 0001:00024130       ?C_FreeRoom@@YAHHPAUlocal_var_type@@HQAUparm_node@@H1@Z 00425130 f   ccode.obj
 0001:00024240       ?C_RoomData@@YAHHPAUlocal_var_type@@HQAUparm_node@@H1@Z 00425240 f   ccode.obj
 0001:000245c0       ?C_GetLocationInfoBSP@@YAHHPAUlocal_var_type@@HQAUparm_node@@H1@Z 004255c0 f   ccode.obj
 0001:00025150       ?C_CanMoveInRoomBSP@@YAHHPAUlocal_var_type@@HQAUparm_node@@H1@Z 00426150 f   ccode.obj
 0001:000259c0       ?C_LineOfSightBSP@@YAHHPAUlocal_var_type@@HQAUparm_node@@H1@Z 004269c0 f   ccode.obj
 0001:000261e0       ?C_LineOfSightView@@YAHHPAUlocal_var_type@@HQAUparm_node@@H1@Z 004271e0 f   ccode.obj
 0001:000268a0       ?C_ChangeTextureBSP@@YAHHPAUlocal_var_type@@HQAUparm_node@@H1@Z 004278a0 f   ccode.obj
 0001:00026b90       ?C_MoveSectorBSP@@YAHHPAUlocal_var_type@@HQAUparm_node@@H1@Z 00427b90 f   ccode.obj
 0001:00026f50       ?C_BlockerAddBSP@@YAHHPAUlocal_var_type@@HQAUparm_node@@H1@Z 00427f50 f   ccode.obj
 0001:000273d0       ?C_BlockerMoveBSP@@YAHHPAUlocal_var_type@@HQAUparm_node@@H1@Z 004283d0 f   ccode.obj
 0001:00027850       ?C_BlockerRemoveBSP@@YAHHPAUlocal_var_type@@HQAUparm_node@@H1@Z 00428850 f   ccode.obj
 0001:00027a40       ?C_BlockerClearBSP@@YAHHPAUlocal_var_type@@HQAUparm_node@@H1@Z 00428a40 f   ccode.obj
 0001:00027b90       ?C_GetRandomPointBSP@@YAHHPAUlocal_var_type@@HQAUparm_node@@H1@Z 00428b90 f   ccode.obj
 0001:00028190       ?C_GetStepTowardsBSP@@YAHHPAUlocal_var_type@@HQAUparm_node@@H1@Z 00429190 f   ccode.obj
 0001:00028c10       ?C_AppendListElem@@YAHHPAUlocal_var_type@@HQAUparm_node@@H1@Z 00429c10 f   ccode.obj
 0001:00028d90       ?C_Cons@@YAHHPAUlocal_var_type@@HQAUparm_node@@H1@Z 00429d90 f   ccode.obj
 0001:00028f10       ?C_First@@YAHHPAUlocal_var_type@@HQAUparm_node@@H1@Z 00429f10 f   ccode.obj
 0001:00029030       ?C_Rest@@YAHHPAUlocal_var_type@@HQAUparm_node@@H1@Z 0042a030 f   ccode.obj
 0001:00029150       ?C_Length@@YAHHPAUlocal_var_type@@HQAUparm_node@@H1@Z 0042a150 f   ccode.obj
 0001:000292a0       ?C_Last@@YAHHPAUlocal_var_type@@HQAUparm_node@@H1@Z 0042a2a0 f   ccode.obj
 0001:00029380       ?C_Nth@@YAHHPAUlocal_var_type@@HQAUparm_node@@H1@Z 0042a380 f   ccode.obj
 0001:00029540       ?C_IsListMatch@@YAHHPAUlocal_var_type@@HQAUparm_node@@H1@Z 0042a540 f   ccode.obj
 0001:00029700       ?C_List@@YAHHPAUlocal_var_type@@HQAUparm_node@@H1@Z 0042a700 f   ccode.obj
 0001:00029820       ?C_IsList@@YAHHPAUlocal_var_type@@HQAUparm_node@@H1@Z 0042a820 f   ccode.obj
 0001:00029920       ?C_SetFirst@@YAHHPAUlocal_var_type@@HQAUparm_node@@H1@Z 0042a920 f   ccode.obj
 0001:00029a60       ?C_SwapListElem@@YAHHPAUlocal_var_type@@HQAUparm_node@@H1@Z 0042aa60 f   ccode.obj
 0001:00029ca0       ?C_SetNth@@YAHHPAUlocal_var_type@@HQAUparm_node@@H1@Z 0042aca0 f   ccode.obj
 0001:00029e60       ?C_FindListElem@@YAHHPAUlocal_var_type@@HQAUparm_node@@H1@Z 0042ae60 f   ccode.obj
 0001:00029fe0       ?C_GetAllListNodesByClass@@YAHHPAUlocal_var_type@@HQAUparm_node@@H1@Z 0042afe0 f   ccode.obj
 0001:0002a200       ?C_GetListNode@@YAHHPAUlocal_var_type@@HQAUparm_node@@H1@Z 0042b200 f   ccode.obj
 0001:0002a410       ?C_GetListElemByClass@@YAHHPAUlocal_var_type@@HQAUparm_node@@H1@Z 0042b410 f   ccode.obj
 0001:0002a5a0       ?C_ListCopy@@YAHHPAUlocal_var_type@@HQAUparm_node@@H1@Z 0042b5a0 f   ccode.obj
 0001:0002a6e0       ?C_InsertListElem@@YAHHPAUlocal_var_type@@HQAUparm_node@@H1@Z 0042b6e0 f   ccode.obj
 0001:0002a930       ?C_DelListElem@@YAHHPAUlocal_var_type@@HQAUparm_node@@H1@Z 0042b930 f   ccode.obj
 0001:0002aa70       ?C_DelLastListElem@@YAHHPAUlocal_var_type@@HQAUparm_node@@H1@Z 0042ba70 f   ccode.obj
 0001:0002ab70       ?C_GetTimeZoneOffset@@YAHHPAUlocal_var_type@@HQAUparm_node@@H1@Z 0042bb70 f   ccode.obj
 0001:0002ac00       ?C_GetTime@@YAHHPAUlocal_var_type@@HQAUparm_node@@H1@Z 0042bc00 f   ccode.obj
 0001:0002ac90       ?C_GetTickCount@@YAHHPAUlocal_var_type@@HQAUparm_node@@H1@Z 0042bc90 f   ccode.obj
 0001:0002ad20       ?C_Random@@YAHHPAUlocal_var_type@@HQAUparm_node@@H1@Z 0042bd20 f   ccode.obj
 0001:0002af20       ?C_Abs@@YAHHPAUlocal_var_type@@HQAUparm_node@@H1@Z 0042bf20 f   ccode.obj
 0001:0002b060       ?C_Sqrt@@YAHHPAUlocal_var_type@@HQAUparm_node@@H1@Z 0042c060 f   ccode.obj
 0001:0002b1b0       ?C_Bound@@YAHHPAUlocal_var_type@@HQAUparm_node@@H1@Z 0042c1b0 f   ccode.obj
 0001:0002b3f0       ?C_CreateTable@@YAHHPAUlocal_var_type@@HQAUparm_node@@H1@Z 0042c3f0 f   ccode.obj
 0001:0002b540       ?C_AddTableEntry@@YAHHPAUlocal_var_type@@HQAUparm_node@@H1@Z 0042c540 f   ccode.obj
 0001:0002b730       ?C_GetTableEntry@@YAHHPAUlocal_var_type@@HQAUparm_node@@H1@Z 0042c730 f   ccode.obj
 0001:0002b870       ?C_DeleteTableEntry@@YAHHPAUlocal_var_type@@HQAUparm_node@@H1@Z 0042c870 f   ccode.obj
 0001:0002b9b0       ?C_DeleteTable@@YAHHPAUlocal_var_type@@HQAUparm_node@@H1@Z 0042c9b0 f   ccode.obj
 0001:0002ba90       ?C_IsTable@@YAHHPAUlocal_var_type@@HQAUparm_node@@H1@Z 0042ca90 f   ccode.obj
 0001:0002bb90       ?C_RecycleUser@@YAHHPAUlocal_var_type@@HQAUparm_node@@H1@Z 0042cb90 f   ccode.obj
 0001:0002bd40       ?C_IsObject@@YAHHPAUlocal_var_type@@HQAUparm_node@@H1@Z 0042cd40 f   ccode.obj
 0001:0002be50       ?C_StringToNumber@@YAHHPAUlocal_var_type@@HQAUparm_node@@H1@Z 0042ce50 f   ccode.obj
 0001:0002bfc0       ?C_RecordStat@@YAHHPAUlocal_var_type@@HQAUparm_node@@H1@Z 0042cfc0 f   ccode.obj
 0001:0002d410       ?C_GetSessionIP@@YAHHPAUlocal_var_type@@HQAUparm_node@@H1@Z 0042e410 f   ccode.obj
 0001:0002d5e0       ?C_SetClassVar@@YAHHPAUlocal_var_type@@HQAUparm_node@@H1@Z 0042e5e0 f   ccode.obj
 0001:0002d910       ?FuzzyCollapseString@@YAXPADPBDH@Z 0042e910 f   ccode.obj
 0001:0002da20       ?FuzzyBufferEqual@@YA_NPBDH0H@Z 0042ea20 f   ccode.obj
 0001:0002dc10       ?FuzzyBufferContain@@YA_NPBDH0H@Z 0042ec10 f   ccode.obj
 0001:0002dca0       ?stristr@@YAPBDPBD0@Z      0042eca0 f   ccode.obj
 0001:0002dd40       ?LookupString@@YA_NTval_type@@PBDPAPBDPAH@Z 0042ed40 f   ccode.obj
 0001:00031c80       ?RetrieveValue@@YA?ATval_type@@HPAUlocal_var_type@@HH@Z 00432c80 f i ccode.obj
 0001:00031f00       ?strstr@@YAPADQADQBD@Z     00432f00 f i ccode.obj
 0001:00031f30       _snprintf                  00432f30 f i ccode.obj
 0001:00031fa0       ?InitChannelBuffer@@YAXXZ  00432fa0 f   chanbuf.obj
 0001:00031fe0       ?WriteChannelBuffer@@YAXHPAD@Z 00432fe0 f   chanbuf.obj
 0001:00032120       ?IsNewChannelText@@YADXZ   00433120 f   chanbuf.obj
 0001:00032190       ?GetChannelBuffer@@YAPAUchannel_buffer_node@@XZ 00433190 f   chanbuf.obj
 0001:000321d0       ?DoneChannelBuffer@@YAXXZ  004331d0 f   chanbuf.obj
 0001:000322b0       ?OpenDefaultChannels@@YAXXZ 004332b0 f   channel.obj
 0001:00032350       ?CloseDefaultChannels@@YAXXZ 00433350 f   channel.obj
 0001:000323c0       ?FlushDefaultChannels@@YAXXZ 004333c0 f   channel.obj
 0001:00032420       ?aprintf@@YAXPBDZZ         00433420 f   channel.obj
 0001:00032500       ?dprintf@@YAXPBDZZ         00433500 f   channel.obj
 0001:00032620       ?eprintf@@YAXPBDZZ         00433620 f   channel.obj
 0001:00032710       ?bprintf@@YAXPBDZZ         00433710 f   channel.obj
 0001:00032830       ?lprintf@@YAXPBDZZ         00433830 f   channel.obj
 0001:00032950       ?gprintf@@YAXPBDZZ         00433950 f   channel.obj
 0001:00032b20       ?WriteStrChannel@@YAXHPAD@Z 00433b20 f   channel.obj
 0001:00032ba0       ?CreateFileChannel@@YAPAU_iobuf@@H@Z 00433ba0 f   channel.obj
 0001:00032ed0       _vsprintf                  00433ed0 f i channel.obj
 0001:00032f00       ?InitClass@@YAXXZ          00433f00 f   class.obj
 0001:00032f90       ?ResetClass@@YAXXZ         00433f90 f   class.obj
 0001:000331f0       ?AddClass@@YAXHPAUbof_class_header@@PAD1PAUbof_dstring@@PAUbof_line_table@@PAUbof_class_props@@@Z 004341f0 f   class.obj
 0001:00033450       ?SetClassName@@YAXHPAD@Z   00434450 f   class.obj
 0001:000334f0       ?SetClassesSuperPtr@@YAXXZ 004344f0 f   class.obj
 0001:000335d0       ?SetClassVariables@@YAXXZ  004345d0 f   class.obj
 0001:00033670       ?AddClassPropertyName@@YAXPAUclass_struct@@PADH@Z 00434670 f   class.obj
 0001:00033700       ?SetClassPropertyNames@@YAXXZ 00434700 f   class.obj
 0001:00033790       ?GetClassByName@@YAPAUclass_struct@@PBD@Z 00434790 f   class.obj
 0001:00033820       ?GetClassByID@@YAPAUclass_struct@@H@Z 00434820 f   class.obj
 0001:00033880       ?GetPropertyNameByID@@YAPBDPAUclass_struct@@H@Z 00434880 f   class.obj
 0001:000338a0       ?GetPropertyIDByName@@YAHPAUclass_struct@@PBD@Z 004348a0 f   class.obj
 0001:00033950       ?GetClassVarNameByID@@YAPADPAUclass_struct@@H@Z 00434950 f   class.obj
 0001:000339d0       ?GetClassVarIDByName@@YAHPAUclass_struct@@PBD@Z 004349d0 f   class.obj
 0001:00033a60       ?ForEachClass@@YAXP6AXPAUclass_struct@@@Z@Z 00434a60 f   class.obj
 0001:00033ae0       ?GetClassDebugStr@@YAPBDPAUclass_struct@@H@Z 00434ae0 f   class.obj
 0001:00033b30       ?GetSourceLine@@YAHPAUclass_struct@@PAD@Z 00434b30 f   class.obj
 0001:00033bc0       ?SetOneClassVariables@@YAXPAUclass_struct@@0@Z 00434bc0 f   class.obj
 0001:00033ca0       ?SetOneClassPropertyNames@@YAXPAUclass_struct@@@Z 00434ca0 f   class.obj
 0001:00034100       ?InitCommCli@@YAXXZ        00435100 f   commcli.obj
 0001:00034110       ?AddBlakodToPacket@@YAXTval_type@@0@Z 00435110 f   commcli.obj
 0001:000343b0       ?AddByteToPacket@@YAXE@Z   004353b0 f   commcli.obj
 0001:000343e0       ?AddShortToPacket@@YAXF@Z  004353e0 f   commcli.obj
 0001:00034410       ?AddIntToPacket@@YAXH@Z    00435410 f   commcli.obj
 0001:00034440       ?AddStringToPacket@@YAXHPBD@Z 00435440 f   commcli.obj
 0001:000344d0       ?SecurePacketBufferList@@YAXHPAUbuffer_struct@@@Z 004354d0 f   commcli.obj
 0001:00034670       ?SendPacket@@YAXH@Z        00435670 f   commcli.obj
 0001:000346b0       ?SendCopyPacket@@YAXH@Z    004356b0 f   commcli.obj
 0001:00034700       ?ClearPacket@@YAXXZ        00435700 f   commcli.obj
 0001:00034730       ?ClientHangupToBlakod@@YAXPAUsession_node@@@Z 00435730 f   commcli.obj
 0001:00034870       ?SendBlakodBeginSystemEvent@@YAXH@Z 00435870 f   commcli.obj
 0001:00034960       ?SendBlakodEndSystemEvent@@YAXH@Z 00435960 f   commcli.obj
 0001:00034cd0       ?InitConfig@@YAXXZ         00435cd0 f   config.obj
 0001:00034d40       ?ResetConfig@@YAXXZ        00435d40 f   config.obj
 0001:00034d50       ?GetConfigByID@@YAPAUconfig_node@@H@Z 00435d50 f   config.obj
 0001:00034da0       ?ForEachConfigNode@@YAXP6AXPAUconfig_node@@PBD1@Z@Z 00435da0 f   config.obj
 0001:00034e20       ?ConfigInt@@YAHH@Z         00435e20 f   config.obj
 0001:00034ec0       ?ConfigStr@@YAPADH@Z       00435ec0 f   config.obj
 0001:00034f50       ?ConfigBool@@YADH@Z        00435f50 f   config.obj
 0001:00034ff0       ?LockConfigStr@@YAPADH@Z   00435ff0 f   config.obj
 0001:00035070       ?UnlockConfigStr@@YAXXZ    00436070 f   config.obj
 0001:00035090       ?GetConfigIDByGroupAndName@@YAHPAD0@Z 00436090 f   config.obj
 0001:00035140       ?SetConfigInt@@YAXHH@Z     00436140 f   config.obj
 0001:000351d0       ?SetConfigBool@@YAXHD@Z    004361d0 f   config.obj
 0001:00035260       ?SetConfigStr@@YAXHPAD@Z   00436260 f   config.obj
 0001:00035350       ?LoadConfig@@YAXXZ         00436350 f   config.obj
 0001:000354f0       ?AddConfig@@YAPBDHPBDHH@Z  004364f0 f   config.obj
 0001:000358b0       ?LockDynamicConfig@@YAXXZ  004368b0 f   config.obj
 0001:000358e0       ?UnlockDynamicConfig@@YAXXZ 004368e0 f   config.obj
 0001:00035910       ?LoadConfigLine@@YAHPADHPBDH@Z 00436910 f   config.obj
 0001:00035fe0       ?MySQLInit@@YAXPAD000@Z    00436fe0 f   database.obj
 0001:00036090       ?MySQLEnd@@YAXXZ           00437090 f   database.obj
 0001:000360a0       ?MySQLRecordTotalMoney@@YAHH@Z 004370a0 f   database.obj
 0001:00036160       ?MySQLRecordMoneyCreated@@YAHH@Z 00437160 f   database.obj
 0001:00036220       ?MySQLRecordPlayerLogin@@YAHPAD00@Z 00437220 f   database.obj
 0001:00036350       ?MySQLRecordPlayerAssessDamage@@YAHPAD0HHHH0@Z 00437350 f   database.obj
 0001:000364b0       ?MySQLRecordPlayerDeath@@YAHPAD000H@Z 004374b0 f   database.obj
 0001:00036620       ?MySQLRecordPlayer@@YAHHPAD000HHHHHHHH@Z 00437620 f   database.obj
 0001:00036800       ?MySQLRecordPlayerSuicide@@YAHHPAD@Z 00437800 f   database.obj
 0001:000368f0       ?MySQLRecordGuild@@YAHPAD00@Z 004378f0 f   database.obj
 0001:00036a20       ?MySQLRecordGuildDisband@@YAHPAD@Z 00437a20 f   database.obj
 0001:00036b00       ?_MySQLWorker@@YAXPAX@Z    00437b00 f   database.obj
 0001:00036da0       ?_MySQLVerifySchema@@YAXXZ 00437da0 f   database.obj
 0001:00036f70       ?_MySQLEnqueue@@YAHPAUsql_queue_node@@@Z 00437f70 f   database.obj
 0001:00037060       ?_MySQLDequeue@@YAHH@Z     00438060 f   database.obj
 0001:00037130       ?_MySQLCallProc@@YAXPADQAUst_mysql_bind@@@Z 00438130 f   database.obj
 0001:000371c0       ?_MySQLWriteNode@@YAXPAUsql_queue_node@@H@Z 004381c0 f   database.obj
 0001:00037300       ?_MySQLWriteTotalMoney@@YAXPAUsql_record_totalmoney@@H@Z 00438300 f   database.obj
 0001:000373c0       ?_MySQLWriteMoneyCreated@@YAXPAUsql_record_moneycreated@@H@Z 004383c0 f   database.obj
 0001:00037480       ?_MySQLWritePlayerLogin@@YAXPAUsql_record_playerlogin@@H@Z 00438480 f   database.obj
 0001:000376c0       ?_MySQLWritePlayerAssessDamage@@YAXPAUsql_record_playerassessdamage@@H@Z 004386c0 f   database.obj
 0001:00037a40       ?_MySQLWritePlayerDeath@@YAXPAUsql_record_playerdeath@@H@Z 00438a40 f   database.obj
 0001:00037d60       ?_MySQLWritePlayer@@YAXPAUsql_record_player@@H@Z 00438d60 f   database.obj
 0001:000382e0       ?_MySQLWritePlayerSuicide@@YAXPAUsql_record_playersuicide@@H@Z 004392e0 f   database.obj
 0001:00038430       ?_MySQLWriteGuild@@YAXPAUsql_record_guild@@H@Z 00439430 f   database.obj
 0001:00038640       ?_MySQLWriteGuildDisband@@YAXPAUsql_record_guilddisband@@H@Z 00439640 f   database.obj
 0001:000390f0       ?InitDebug@@YAXXZ          0043a0f0 f   debug.obj
 0001:00039120       ?DebugHeapAll@@YAXXZ       0043a120 f   debug.obj
 0001:00039140       ?DebugCheckHeap@@YAXXZ     0043a140 f   debug.obj
 0001:00039160       ?InitDLlist@@YAXXZ         0043a160 f   dllist.obj
 0001:00039170       ?ResetDLlist@@YAXXZ        0043a170 f   dllist.obj
 0001:00039200       ?GetDLNodeByFilename@@YAPAUdllist_struct@@PAD@Z 0043a200 f   dllist.obj
 0001:00039250       ?CountNewDLFile@@YAHPAUsession_node@@@Z 0043a250 f   dllist.obj
 0001:000392c0       ?ForEachNewDLFile@@YAXPAUsession_node@@P6AXPADHHH@Z@Z 0043a2c0 f   dllist.obj
 0001:00039350       ?ForEachDLlist@@YAXP6AXPAUdllist_struct@@@Z@Z 0043a350 f   dllist.obj
 0001:000393a0       ?AddBuiltInDLlist@@YAXXZ   0043a3a0 f   dllist.obj
 0001:00039660       ?AddDLlist@@YAXPADHHH@Z    0043a660 f   dllist.obj
 0001:00039780       ?AddOrUpdateDLlist@@YAXPADHHH@Z 0043a780 f   dllist.obj
 0001:00039ae0       ?FindMatchingFiles@@YA_NPBDPAV?$vector@V?$basic_string@DU?$char_traits@D@std@@V?$allocator@D@2@@std@@V?$allocator@V?$basic_string@DU?$char_traits@D@std@@V?$allocator@D@2@@std@@@2@@std@@@Z 0043aae0 f   files.obj
 0001:00039c20       ?BlakMoveFile@@YA_NPBD0@Z  0043ac20 f   files.obj
 0001:00039d10       ??$?0$$V@?$_Compressed_pair@U?$_Wrap_alloc@V?$allocator@D@std@@@std@@V?$_String_val@U?$_Simple_types@D@std@@@2@$00@std@@QAE@U_Zero_then_variadic_args_t@1@@Z 0043ad10 f i files.obj
 0001:00039d50       ??$?0U?$_Wrap_alloc@V?$allocator@D@std@@@std@@$$V@?$_Compressed_pair@U?$_Wrap_alloc@V?$allocator@D@std@@@std@@V?$_String_val@U?$_Simple_types@D@std@@@2@$00@std@@QAE@U_One_then_variadic_args_t@1@$$QAU?$_Wrap_alloc@V?$allocator@D@std@@@1@@Z 0043ad50 f i files.obj
 0001:00039da0       ??$?0U?$_Wrap_alloc@V?$allocator@D@std@@@std@@X@?$_String_alloc@U?$_String_base_types@DV?$allocator@D@std@@@std@@@std@@QAE@$$QAU?$_Wrap_alloc@V?$allocator@D@std@@@1@@Z 0043ada0 f i files.obj
 0001:00039e00       ??$?0U?$integral_constant@_N$00@std@@@_Any_tag@std@@QAE@$$QAU?$integral_constant@_N$00@1@@Z 0043ae00 f i files.obj
 0001:00039e20       ??$_Destroy_range1@V?$allocator@V?$basic_string@DU?$char_traits@D@std@@V?$allocator@D@2@@std@@@std@@PAV?$basic_string@DU?$char_traits@D@std@@V?$allocator@D@2@@2@@std@@YAXPAV?$basic_string@DU?$char_traits@D@std@@V?$allocator@D@2@@0@0AAU?$_Wrap_alloc@V?$allocator@V?$basic_string@DU?$char_traits@D@std@@V?$allocator@D@2@@std@@@std@@@0@U?$integral_constant@_N$0A@@0@@Z 0043ae20 f i files.obj
 0001:00039e70       ??$_Destroy_range@V?$allocator@V?$basic_string@DU?$char_traits@D@std@@V?$allocator@D@2@@std@@@std@@PAV?$basic_string@DU?$char_traits@D@std@@V?$allocator@D@2@@2@@std@@YAXPAV?$basic_string@DU?$char_traits@D@std@@V?$allocator@D@2@@0@0AAU?$_Wrap_alloc@V?$allocator@V?$basic_string@DU?$char_traits@D@std@@V?$allocator@D@2@@std@@@std@@@0@@Z 0043ae70 f i files.obj
 0001:00039eb0       ??$_Ptr_move_cat@V?$basic_string@DU?$char_traits@D@std@@V?$allocator@D@2@@std@@V12@@std@@YA?AU_General_ptr_iterator_tag@0@ABQAV?$basic_string@DU?$char_traits@D@std@@V?$allocator@D@2@@0@0@Z 0043aeb0 f i files.obj
 0001:00039ed0       ??$_Rechecked@PAV?$basic_string@DU?$char_traits@D@std@@V?$allocator@D@2@@std@@PAV12@@std@@YAAAPAV?$basic_string@DU?$char_traits@D@std@@V?$allocator@D@2@@0@AAPAV10@PAV10@@Z 0043aed0 f i files.obj
 0001:00039ef0       ??$_Umove@PAV?$basic_string@DU?$char_traits@D@std@@V?$allocator@D@2@@std@@@?$vector@V?$basic_string@DU?$char_traits@D@std@@V?$allocator@D@2@@std@@V?$allocator@V?$basic_string@DU?$char_traits@D@std@@V?$allocator@D@2@@std@@@2@@std@@IAEPAV?$basic_string@DU?$char_traits@D@std@@V?$allocator@D@2@@1@PAV21@00@Z 0043aef0 f i files.obj
 0001:00039f40       ??$_Unchecked@PAV?$basic_string@DU?$char_traits@D@std@@V?$allocator@D@2@@std@@@std@@YAPAV?$basic_string@DU?$char_traits@D@std@@V?$allocator@D@2@@0@PAV10@@Z 0043af40 f i files.obj
 0001:00039f50       ??$_Unfancy@D@std@@YAPADPAD@Z 0043af50 f i files.obj
 0001:00039f60       ??$_Unfancy@V?$basic_string@DU?$char_traits@D@std@@V?$allocator@D@2@@std@@@std@@YAPAV?$basic_string@DU?$char_traits@D@std@@V?$allocator@D@2@@0@PAV10@@Z 0043af60 f i files.obj
 0001:00039f70       ??$_Uninitialized_move@PAV?$basic_string@DU?$char_traits@D@std@@V?$allocator@D@2@@std@@PAV12@V?$allocator@V?$basic_string@DU?$char_traits@D@std@@V?$allocator@D@2@@std@@@2@@std@@YAPAV?$basic_string@DU?$char_traits@D@std@@V?$allocator@D@2@@0@PAV10@00AAU?$_Wrap_alloc@V?$allocator@V?$basic_string@DU?$char_traits@D@std@@V?$allocator@D@2@@std@@@std@@@0@@Z 0043af70 f i files.obj
 0001:00039fe0       ??$_Uninitialized_move_al_unchecked1@PAV?$basic_string@DU?$char_traits@D@std@@V?$allocator@D@2@@std@@PAV12@V?$allocator@V?$basic_string@DU?$char_traits@D@std@@V?$allocator@D@2@@std@@@2@@std@@YAPAV?$basic_string@DU?$char_traits@D@std@@V?$allocator@D@2@@0@PAV10@00AAU?$_Wrap_alloc@V?$allocator@V?$basic_string@DU?$char_traits@D@std@@V?$allocator@D@2@@std@@@std@@@0@U_General_ptr_iterator_tag@0@U_Any_tag@0@@Z 0043afe0 f i files.obj
 0001:0003a100       ??$_Uninitialized_move_al_unchecked@PAV?$basic_string@DU?$char_traits@D@std@@V?$allocator@D@2@@std@@PAV12@V?$allocator@V?$basic_string@DU?$char_traits@D@std@@V?$allocator@D@2@@std@@@2@@std@@YAPAV?$basic_string@DU?$char_traits@D@std@@V?$allocator@D@2@@0@PAV10@00AAU?$_Wrap_alloc@V?$allocator@V?$basic_string@DU?$char_traits@D@std@@V?$allocator@D@2@@std@@@std@@@0@@Z 0043b100 f i files.obj
 0001:0003a180       ??$addressof@PAD@std@@YAPAPADAAPAD@Z 0043b180 f i files.obj
 0001:0003a190       ??$addressof@V?$basic_string@DU?$char_traits@D@std@@V?$allocator@D@2@@std@@@std@@YAPAV?$basic_string@DU?$char_traits@D@std@@V?$allocator@D@2@@0@AAV10@@Z 0043b190 f i files.obj
 0001:0003a1a0       ??$construct@PADAAPAD@?$_Wrap_alloc@V?$allocator@D@std@@@std@@QAEXPAPADAAPAD@Z 0043b1a0 f i files.obj
 0001:0003a1f0       ??$construct@PADAAPAD@?$allocator@D@std@@QAEXPAPADAAPAD@Z 0043b1f0 f i files.obj
 0001:0003a270       ??$construct@PADAAPAD@?$allocator_traits@V?$allocator@D@std@@@std@@SAXAAV?$allocator@D@1@PAPADAAPAD@Z 0043b270 f i files.obj
 0001:0003a2a0       ??$construct@V?$basic_string@DU?$char_traits@D@std@@V?$allocator@D@2@@std@@V12@@?$_Wrap_alloc@V?$allocator@V?$basic_string@DU?$char_traits@D@std@@V?$allocator@D@2@@std@@@std@@@std@@QAEXPAV?$basic_string@DU?$char_traits@D@std@@V?$allocator@D@2@@1@$$QAV21@@Z 0043b2a0 f i files.obj
 0001:0003a2f0       ??$construct@V?$basic_string@DU?$char_traits@D@std@@V?$allocator@D@2@@std@@V12@@?$allocator@V?$basic_string@DU?$char_traits@D@std@@V?$allocator@D@2@@std@@@std@@QAEXPAV?$basic_string@DU?$char_traits@D@std@@V?$allocator@D@2@@1@$$QAV21@@Z 0043b2f0 f i files.obj
 0001:0003a370       ??$construct@V?$basic_string@DU?$char_traits@D@std@@V?$allocator@D@2@@std@@V12@@?$allocator_traits@V?$allocator@V?$basic_string@DU?$char_traits@D@std@@V?$allocator@D@2@@std@@@std@@@std@@SAXAAV?$allocator@V?$basic_string@DU?$char_traits@D@std@@V?$allocator@D@2@@std@@@1@PAV?$basic_string@DU?$char_traits@D@std@@V?$allocator@D@2@@1@$$QAV31@@Z 0043b370 f i files.obj
 0001:0003a3a0       ??$destroy@PAD@?$_Wrap_alloc@V?$allocator@D@std@@@std@@QAEXPAPAD@Z 0043b3a0 f i files.obj
 0001:0003a3e0       ??$destroy@PAD@?$allocator@D@std@@QAEXPAPAD@Z 0043b3e0 f i files.obj
 0001:0003a400       ??$destroy@PAD@?$allocator_traits@V?$allocator@D@std@@@std@@SAXAAV?$allocator@D@1@PAPAD@Z 0043b400 f i files.obj
 0001:0003a420       ??$destroy@V?$basic_string@DU?$char_traits@D@std@@V?$allocator@D@2@@std@@@?$_Wrap_alloc@V?$allocator@V?$basic_string@DU?$char_traits@D@std@@V?$allocator@D@2@@std@@@std@@@std@@QAEXPAV?$basic_string@DU?$char_traits@D@std@@V?$allocator@D@2@@1@@Z 0043b420 f i files.obj
 0001:0003a460       ??$destroy@V?$basic_string@DU?$char_traits@D@std@@V?$allocator@D@2@@std@@@?$allocator@V?$basic_string@DU?$char_traits@D@std@@V?$allocator@D@2@@std@@@std@@QAEXPAV?$basic_string@DU?$char_traits@D@std@@V?$allocator@D@2@@1@@Z 0043b460 f i files.obj
 0001:0003a4a0       ??$destroy@V?$basic_string@DU?$char_traits@D@std@@V?$allocator@D@2@@std@@@?$allocator_traits@V?$allocator@V?$basic_string@DU?$char_traits@D@std@@V?$allocator@D@2@@std@@@std@@@std@@SAXAAV?$allocator@V?$basic_string@DU?$char_traits@D@std@@V?$allocator@D@2@@std@@@1@PAV?$basic_string@DU?$char_traits@D@std@@V?$allocator@D@2@@1@@Z 0043b4a0 f i files.obj
 0001:0003a4c0       ??$forward@AAPAD@std@@YAAAPADAAPAD@Z 0043b4c0 f i files.obj
 0001:0003a4d0       ??$forward@U?$_Wrap_alloc@V?$allocator@D@std@@@std@@@std@@YA$$QAU?$_Wrap_alloc@V?$allocator@D@std@@@0@AAU10@@Z 0043b4d0 f i files.obj
 0001:0003a4e0       ??$forward@V?$basic_string@DU?$char_traits@D@std@@V?$allocator@D@2@@std@@@std@@YA$$QAV?$basic_string@DU?$char_traits@D@std@@V?$allocator@D@2@@0@AAV10@@Z 0043b4e0 f i files.obj
 0001:0003a4f0       ??$move@AAU?$_Wrap_alloc@V?$allocator@D@std@@@std@@@std@@YA$$QAU?$_Wrap_alloc@V?$allocator@D@std@@@0@AAU10@@Z 0043b4f0 f i files.obj
 0001:0003a500       ??$move@AAV?$basic_string@DU?$char_traits@D@std@@V?$allocator@D@2@@std@@@std@@YA$$QAV?$basic_string@DU?$char_traits@D@std@@V?$allocator@D@2@@0@AAV10@@Z 0043b500 f i files.obj
 0001:0003a510       ??0?$_String_alloc@U?$_String_base_types@DV?$allocator@D@std@@@std@@@std@@QAE@XZ 0043b510 f i files.obj
 0001:0003a560       ??0?$_String_val@U?$_Simple_types@D@std@@@std@@QAE@XZ 0043b560 f i files.obj
 0001:0003a5b0       ??0?$_Wrap_alloc@V?$allocator@D@std@@@std@@QAE@$$QAU01@@Z 0043b5b0 f i files.obj
 0001:0003a600       ??0?$_Wrap_alloc@V?$allocator@D@std@@@std@@QAE@XZ 0043b600 f i files.obj
 0001:0003a630       ??0?$allocator@D@std@@QAE@ABV01@@Z 0043b630 f i files.obj
 0001:0003a650       ??0?$allocator@D@std@@QAE@XZ 0043b650 f i files.obj
 0001:0003a670       ??0?$basic_string@DU?$char_traits@D@std@@V?$allocator@D@2@@std@@QAE@$$QAV01@@Z 0043b670 f i files.obj
 0001:0003a720       ??0?$basic_string@DU?$char_traits@D@std@@V?$allocator@D@2@@std@@QAE@PBD@Z 0043b720 f i files.obj
 0001:0003a7c0       ??0_Bxty@?$_String_val@U?$_Simple_types@D@std@@@std@@QAE@XZ 0043b7c0 f i files.obj
 0001:0003a7e0       ??1?$_Compressed_pair@U?$_Wrap_alloc@V?$allocator@D@std@@@std@@V?$_String_val@U?$_Simple_types@D@std@@@2@$00@std@@QAE@XZ 0043b7e0 f i files.obj
 0001:0003a810       ??1?$_String_alloc@U?$_String_base_types@DV?$allocator@D@std@@@std@@@std@@QAE@XZ 0043b810 f i files.obj
 0001:0003a840       ??1?$_String_val@U?$_Simple_types@D@std@@@std@@QAE@XZ 0043b840 f i files.obj
 0001:0003a870       ??1?$basic_string@DU?$char_traits@D@std@@V?$allocator@D@2@@std@@QAE@XZ 0043b870 f i files.obj
 0001:0003a8e0       ??1_Bxty@?$_String_val@U?$_Simple_types@D@std@@@std@@QAE@XZ 0043b8e0 f i files.obj
 0001:0003a900       ??2@YAPAXIPAX@Z            0043b900 f i files.obj
 0001:0003a910       ??_G?$basic_string@DU?$char_traits@D@std@@V?$allocator@D@2@@std@@QAEPAXI@Z 0043b910 f i files.obj
 0001:0003a960       ?_Allocate@std@@YAPAXII_N@Z 0043b960 f i files.obj
 0001:0003aa70       ?_Assign_rv@?$basic_string@DU?$char_traits@D@std@@V?$allocator@D@2@@std@@QAEX$$QAV12@@Z 0043ba70 f i files.obj
 0001:0003ab70       ?_Bx@?$_String_alloc@U?$_String_base_types@DV?$allocator@D@std@@@std@@@std@@QAEAAT_Bxty@?$_String_val@U?$_Simple_types@D@std@@@2@XZ 0043bb70 f i files.obj
 0001:0003aba0       ?_Check_offset@?$basic_string@DU?$char_traits@D@std@@V?$allocator@D@2@@std@@QBEXI@Z 0043bba0 f i files.obj
 0001:0003abf0       ?_Clamp_suffix_size@?$basic_string@DU?$char_traits@D@std@@V?$allocator@D@2@@std@@QBEIII@Z 0043bbf0 f i files.obj
 0001:0003ac50       ?_Copy@?$basic_string@DU?$char_traits@D@std@@V?$allocator@D@2@@std@@QAEXII@Z 0043bc50 f i files.obj
 0001:0003af00       ?_Deallocate@std@@YAXPAXII@Z 0043bf00 f i files.obj
 0001:0003afe0       ?_Destroy@?$vector@V?$basic_string@DU?$char_traits@D@std@@V?$allocator@D@2@@std@@V?$allocator@V?$basic_string@DU?$char_traits@D@std@@V?$allocator@D@2@@std@@@2@@std@@IAEXPAV?$basic_string@DU?$char_traits@D@std@@V?$allocator@D@2@@2@0@Z 0043bfe0 f i files.obj
 0001:0003b030       ?_Eos@?$basic_string@DU?$char_traits@D@std@@V?$allocator@D@2@@std@@QAEXI@Z 0043c030 f i files.obj
 0001:0003b0b0       ?_Get_data@?$_String_alloc@U?$_String_base_types@DV?$allocator@D@std@@@std@@@std@@QAEAAV?$_String_val@U?$_Simple_types@D@std@@@2@XZ 0043c0b0 f i files.obj
 0001:0003b0e0       ?_Get_data@?$_String_alloc@U?$_String_base_types@DV?$allocator@D@std@@@std@@@std@@QBEABV?$_String_val@U?$_Simple_types@D@std@@@2@XZ 0043c0e0 f i files.obj
 0001:0003b110       ?_Get_data@?$_Vector_alloc@U?$_Vec_base_types@V?$basic_string@DU?$char_traits@D@std@@V?$allocator@D@2@@std@@V?$allocator@V?$basic_string@DU?$char_traits@D@std@@V?$allocator@D@2@@std@@@2@@std@@@std@@QAEAAV?$_Vector_val@U?$_Simple_types@V?$basic_string@DU?$char_traits@D@std@@V?$allocator@D@2@@std@@@std@@@2@XZ 0043c110 f i files.obj
 0001:0003b140       ?_Get_data@?$_Vector_alloc@U?$_Vec_base_types@V?$basic_string@DU?$char_traits@D@std@@V?$allocator@D@2@@std@@V?$allocator@V?$basic_string@DU?$char_traits@D@std@@V?$allocator@D@2@@std@@@2@@std@@@std@@QBEABV?$_Vector_val@U?$_Simple_types@V?$basic_string@DU?$char_traits@D@std@@V?$allocator@D@2@@std@@@std@@@2@XZ 0043c140 f i files.obj
 0001:0003b170       ?_Get_first@?$_Compressed_pair@U?$_Wrap_alloc@V?$allocator@D@std@@@std@@V?$_String_val@U?$_Simple_types@D@std@@@2@$00@std@@QAEAAU?$_Wrap_alloc@V?$allocator@D@std@@@2@XZ 0043c170 f i files.obj
 0001:0003b190       ?_Get_first@?$_Compressed_pair@U?$_Wrap_alloc@V?$allocator@D@std@@@std@@V?$_String_val@U?$_Simple_types@D@std@@@2@$00@std@@QBEABU?$_Wrap_alloc@V?$allocator@D@std@@@2@XZ 0043c190 f i files.obj
 0001:0003b1b0       ?_Get_first@?$_Compressed_pair@U?$_Wrap_alloc@V?$allocator@V?$basic_string@DU?$char_traits@D@std@@V?$allocator@D@2@@std@@@std@@@std@@V?$_Vector_val@U?$_Simple_types@V?$basic_string@DU?$char_traits@D@std@@V?$allocator@D@2@@std@@@std@@@2@$00@std@@QAEAAU?$_Wrap_alloc@V?$allocator@V?$basic_string@DU?$char_traits@D@std@@V?$allocator@D@2@@std@@@std@@@2@XZ 0043c1b0 f i files.obj
 0001:0003b1d0       ?_Get_first@?$_Compressed_pair@U?$_Wrap_alloc@V?$allocator@V?$basic_string@DU?$char_traits@D@std@@V?$allocator@D@2@@std@@@std@@@std@@V?$_Vector_val@U?$_Simple_types@V?$basic_string@DU?$char_traits@D@std@@V?$allocator@D@2@@std@@@std@@@2@$00@std@@QBEABU?$_Wrap_alloc@V?$allocator@V?$basic_string@DU?$char_traits@D@std@@V?$allocator@D@2@@std@@@std@@@2@XZ 0043c1d0 f i files.obj
 0001:0003b1f0       ?_Get_second@?$_Compressed_pair@U?$_Wrap_alloc@V?$allocator@D@std@@@std@@V?$_String_val@U?$_Simple_types@D@std@@@2@$00@std@@QAEAAV?$_String_val@U?$_Simple_types@D@std@@@2@XZ 0043c1f0 f i files.obj
 0001:0003b210       ?_Get_second@?$_Compressed_pair@U?$_Wrap_alloc@V?$allocator@D@std@@@std@@V?$_String_val@U?$_Simple_types@D@std@@@2@$00@std@@QBEABV?$_String_val@U?$_Simple_types@D@std@@@2@XZ 0043c210 f i files.obj
 0001:0003b230       ?_Get_second@?$_Compressed_pair@U?$_Wrap_alloc@V?$allocator@V?$basic_string@DU?$char_traits@D@std@@V?$allocator@D@2@@std@@@std@@@std@@V?$_Vector_val@U?$_Simple_types@V?$basic_string@DU?$char_traits@D@std@@V?$allocator@D@2@@std@@@std@@@2@$00@std@@QAEAAV?$_Vector_val@U?$_Simple_types@V?$basic_string@DU?$char_traits@D@std@@V?$allocator@D@2@@std@@@std@@@2@XZ 0043c230 f i files.obj
 0001:0003b250       ?_Get_second@?$_Compressed_pair@U?$_Wrap_alloc@V?$allocator@V?$basic_string@DU?$char_traits@D@std@@V?$allocator@D@2@@std@@@std@@@std@@V?$_Vector_val@U?$_Simple_types@V?$basic_string@DU?$char_traits@D@std@@V?$allocator@D@2@@std@@@std@@@2@$00@std@@QBEABV?$_Vector_val@U?$_Simple_types@V?$basic_string@DU?$char_traits@D@std@@V?$allocator@D@2@@std@@@std@@@2@XZ 0043c250 f i files.obj
 0001:0003b270       ?_Getal@?$_String_alloc@U?$_String_base_types@DV?$allocator@D@std@@@std@@@std@@QAEAAU?$_Wrap_alloc@V?$allocator@D@std@@@2@XZ 0043c270 f i files.obj
 0001:0003b2a0       ?_Getal@?$_String_alloc@U?$_String_base_types@DV?$allocator@D@std@@@std@@@std@@QBEABU?$_Wrap_alloc@V?$allocator@D@std@@@2@XZ 0043c2a0 f i files.obj
 0001:0003b2d0       ?_Getal@?$_Vector_alloc@U?$_Vec_base_types@V?$basic_string@DU?$char_traits@D@std@@V?$allocator@D@2@@std@@V?$allocator@V?$basic_string@DU?$char_traits@D@std@@V?$allocator@D@2@@std@@@2@@std@@@std@@QAEAAU?$_Wrap_alloc@V?$allocator@V?$basic_string@DU?$char_traits@D@std@@V?$allocator@D@2@@std@@@std@@@2@XZ 0043c2d0 f i files.obj
 0001:0003b300       ?_Getal@?$_Vector_alloc@U?$_Vec_base_types@V?$basic_string@DU?$char_traits@D@std@@V?$allocator@D@2@@std@@V?$allocator@V?$basic_string@DU?$char_traits@D@std@@V?$allocator@D@2@@std@@@2@@std@@@std@@QBEABU?$_Wrap_alloc@V?$allocator@V?$basic_string@DU?$char_traits@D@std@@V?$allocator@D@2@@std@@@std@@@2@XZ 0043c300 f i files.obj
 0001:0003b330       ?_Grow@?$basic_string@DU?$char_traits@D@std@@V?$allocator@D@2@@std@@QAE_NI_N@Z 0043c330 f i files.obj
 0001:0003b440       ?_Grow_to@?$vector@V?$basic_string@DU?$char_traits@D@std@@V?$allocator@D@2@@std@@V?$allocator@V?$basic_string@DU?$char_traits@D@std@@V?$allocator@D@2@@std@@@2@@std@@IBEII@Z 0043c440 f i files.obj
 0001:0003b4e0       ?_Inside@?$basic_string@DU?$char_traits@D@std@@V?$allocator@D@2@@std@@QAE_NPBD@Z 0043c4e0 f i files.obj
 0001:0003b550       ?_Inside@?$vector@V?$basic_string@DU?$char_traits@D@std@@V?$allocator@D@2@@std@@V?$allocator@V?$basic_string@DU?$char_traits@D@std@@V?$allocator@D@2@@std@@@2@@std@@IBE_NPBV?$basic_string@DU?$char_traits@D@std@@V?$allocator@D@2@@2@@Z 0043c550 f i files.obj
 0001:0003b5e0       ?_Myend@?$_Vector_alloc@U?$_Vec_base_types@V?$basic_string@DU?$char_traits@D@std@@V?$allocator@D@2@@std@@V?$allocator@V?$basic_string@DU?$char_traits@D@std@@V?$allocator@D@2@@std@@@2@@std@@@std@@QAEAAPAV?$basic_string@DU?$char_traits@D@std@@V?$allocator@D@2@@2@XZ 0043c5e0 f i files.obj
 0001:0003b610       ?_Myend@?$_Vector_alloc@U?$_Vec_base_types@V?$basic_string@DU?$char_traits@D@std@@V?$allocator@D@2@@std@@V?$allocator@V?$basic_string@DU?$char_traits@D@std@@V?$allocator@D@2@@std@@@2@@std@@@std@@QBEABQAV?$basic_string@DU?$char_traits@D@std@@V?$allocator@D@2@@2@XZ 0043c610 f i files.obj
 0001:0003b640       ?_Myfirst@?$_Vector_alloc@U?$_Vec_base_types@V?$basic_string@DU?$char_traits@D@std@@V?$allocator@D@2@@std@@V?$allocator@V?$basic_string@DU?$char_traits@D@std@@V?$allocator@D@2@@std@@@2@@std@@@std@@QAEAAPAV?$basic_string@DU?$char_traits@D@std@@V?$allocator@D@2@@2@XZ 0043c640 f i files.obj
 0001:0003b670       ?_Myfirst@?$_Vector_alloc@U?$_Vec_base_types@V?$basic_string@DU?$char_traits@D@std@@V?$allocator@D@2@@std@@V?$allocator@V?$basic_string@DU?$char_traits@D@std@@V?$allocator@D@2@@std@@@2@@std@@@std@@QBEABQAV?$basic_string@DU?$char_traits@D@std@@V?$allocator@D@2@@2@XZ 0043c670 f i files.obj
 0001:0003b6a0       ?_Mylast@?$_Vector_alloc@U?$_Vec_base_types@V?$basic_string@DU?$char_traits@D@std@@V?$allocator@D@2@@std@@V?$allocator@V?$basic_string@DU?$char_traits@D@std@@V?$allocator@D@2@@std@@@2@@std@@@std@@QAEAAPAV?$basic_string@DU?$char_traits@D@std@@V?$allocator@D@2@@2@XZ 0043c6a0 f i files.obj
 0001:0003b6d0       ?_Mylast@?$_Vector_alloc@U?$_Vec_base_types@V?$basic_string@DU?$char_traits@D@std@@V?$allocator@D@2@@std@@V?$allocator@V?$basic_string@DU?$char_traits@D@std@@V?$allocator@D@2@@std@@@2@@std@@@std@@QBEABQAV?$basic_string@DU?$char_traits@D@std@@V?$allocator@D@2@@2@XZ 0043c6d0 f i files.obj
 0001:0003b700       ?_Myptr@?$_String_alloc@U?$_String_base_types@DV?$allocator@D@std@@@std@@@std@@QAEPADXZ 0043c700 f i files.obj
 0001:0003b740       ?_Myptr@?$_String_alloc@U?$_String_base_types@DV?$allocator@D@std@@@std@@@std@@QBEPBDXZ 0043c740 f i files.obj
 0001:0003b780       ?_Myptr@?$_String_val@U?$_Simple_types@D@std@@@std@@QAEPADXZ 0043c780 f i files.obj
 0001:0003b7e0       ?_Myptr@?$_String_val@U?$_Simple_types@D@std@@@std@@QBEPBDXZ 0043c7e0 f i files.obj
 0001:0003b840       ?_Myres@?$_String_alloc@U?$_String_base_types@DV?$allocator@D@std@@@std@@@std@@QAEAAIXZ 0043c840 f i files.obj
 0001:0003b870       ?_Mysize@?$_String_alloc@U?$_String_base_types@DV?$allocator@D@std@@@std@@@std@@QAEAAIXZ 0043c870 f i files.obj
 0001:0003b8a0       ?_Mysize@?$_String_alloc@U?$_String_base_types@DV?$allocator@D@std@@@std@@@std@@QBEABIXZ 0043c8a0 f i files.obj
 0001:0003b8d0       ?_Orphan_all@?$_Vector_alloc@U?$_Vec_base_types@V?$basic_string@DU?$char_traits@D@std@@V?$allocator@D@2@@std@@V?$allocator@V?$basic_string@DU?$char_traits@D@std@@V?$allocator@D@2@@std@@@2@@std@@@std@@QAEXXZ 0043c8d0 f i files.obj
 0001:0003b910       ?_Orphan_all@_Container_base0@std@@QAEXXZ 0043c910 f i files.obj
 0001:0003b930       ?_Orphan_range@?$vector@V?$basic_string@DU?$char_traits@D@std@@V?$allocator@D@2@@std@@V?$allocator@V?$basic_string@DU?$char_traits@D@std@@V?$allocator@D@2@@std@@@2@@std@@IBEXPAV?$basic_string@DU?$char_traits@D@std@@V?$allocator@D@2@@2@0@Z 0043c930 f i files.obj
 0001:0003b950       ?_Reallocate@?$vector@V?$basic_string@DU?$char_traits@D@std@@V?$allocator@D@2@@std@@V?$allocator@V?$basic_string@DU?$char_traits@D@std@@V?$allocator@D@2@@std@@@2@@std@@IAEXI@Z 0043c950 f i files.obj
 0001:0003bb30       ?_Reserve@?$vector@V?$basic_string@DU?$char_traits@D@std@@V?$allocator@D@2@@std@@V?$allocator@V?$basic_string@DU?$char_traits@D@std@@V?$allocator@D@2@@std@@@2@@std@@IAEXI@Z 0043cb30 f i files.obj
 0001:0003bbc0       ?_Tidy@?$basic_string@DU?$char_traits@D@std@@V?$allocator@D@2@@std@@QAEX_NI@Z 0043cbc0 f i files.obj
 0001:0003bcd0       ?_Unused_capacity@?$vector@V?$basic_string@DU?$char_traits@D@std@@V?$allocator@D@2@@std@@V?$allocator@V?$basic_string@DU?$char_traits@D@std@@V?$allocator@D@2@@std@@@2@@std@@QBEIXZ 0043ccd0 f i files.obj
 0001:0003bd20       ?_Xlen@?$basic_string@DU?$char_traits@D@std@@V?$allocator@D@2@@std@@QBEXXZ 0043cd20 f i files.obj
 0001:0003bd50       ?_Xlen@?$vector@V?$basic_string@DU?$char_traits@D@std@@V?$allocator@D@2@@std@@V?$allocator@V?$basic_string@DU?$char_traits@D@std@@V?$allocator@D@2@@std@@@2@@std@@IBEXXZ 0043cd50 f i files.obj
 0001:0003bd80       ?_Xran@?$basic_string@DU?$char_traits@D@std@@V?$allocator@D@2@@std@@QBEXXZ 0043cd80 f i files.obj
 0001:0003bdb0       ?allocate@?$_Wrap_alloc@V?$allocator@D@std@@@std@@QAEPADI@Z 0043cdb0 f i files.obj
 0001:0003bdf0       ?allocate@?$_Wrap_alloc@V?$allocator@V?$basic_string@DU?$char_traits@D@std@@V?$allocator@D@2@@std@@@std@@@std@@QAEPAV?$basic_string@DU?$char_traits@D@std@@V?$allocator@D@2@@2@I@Z 0043cdf0 f i files.obj
 0001:0003be30       ?allocate@?$allocator@D@std@@QAEPADI@Z 0043ce30 f i files.obj
 0001:0003be70       ?allocate@?$allocator@V?$basic_string@DU?$char_traits@D@std@@V?$allocator@D@2@@std@@@std@@QAEPAV?$basic_string@DU?$char_traits@D@std@@V?$allocator@D@2@@2@I@Z 0043ce70 f i files.obj
 0001:0003beb0       ?assign@?$basic_string@DU?$char_traits@D@std@@V?$allocator@D@2@@std@@QAEAAV12@ABV12@II@Z 0043ceb0 f i files.obj
 0001:0003bf90       ?assign@?$basic_string@DU?$char_traits@D@std@@V?$allocator@D@2@@std@@QAEAAV12@PBD@Z 0043cf90 f i files.obj
 0001:0003bfe0       ?assign@?$basic_string@DU?$char_traits@D@std@@V?$allocator@D@2@@std@@QAEAAV12@PBDI@Z 0043cfe0 f i files.obj
 0001:0003c0a0       ?assign@?$char_traits@D@std@@SAXAADABD@Z 0043d0a0 f i files.obj
 0001:0003c0c0       ?capacity@?$vector@V?$basic_string@DU?$char_traits@D@std@@V?$allocator@D@2@@std@@V?$allocator@V?$basic_string@DU?$char_traits@D@std@@V?$allocator@D@2@@std@@@2@@std@@QBEIXZ 0043d0c0 f i files.obj
 0001:0003c110       ?clear@?$vector@V?$basic_string@DU?$char_traits@D@std@@V?$allocator@D@2@@std@@V?$allocator@V?$basic_string@DU?$char_traits@D@std@@V?$allocator@D@2@@std@@@2@@std@@QAEXXZ 0043d110 f i files.obj
 0001:0003c1c0       ?copy@?$char_traits@D@std@@SAPADPADPBDI@Z 0043d1c0 f i files.obj
 0001:0003c220       ?deallocate@?$_Wrap_alloc@V?$allocator@D@std@@@std@@QAEXPADI@Z 0043d220 f i files.obj
 0001:0003c260       ?deallocate@?$_Wrap_alloc@V?$allocator@V?$basic_string@DU?$char_traits@D@std@@V?$allocator@D@2@@std@@@std@@@std@@QAEXPAV?$basic_string@DU?$char_traits@D@std@@V?$allocator@D@2@@2@I@Z 0043d260 f i files.obj
 0001:0003c2a0       ?deallocate@?$allocator@D@std@@QAEXPADI@Z 0043d2a0 f i files.obj
 0001:0003c2e0       ?deallocate@?$allocator@V?$basic_string@DU?$char_traits@D@std@@V?$allocator@D@2@@std@@@std@@QAEXPAV?$basic_string@DU?$char_traits@D@std@@V?$allocator@D@2@@2@I@Z 0043d2e0 f i files.obj
 0001:0003c320       ?erase@?$basic_string@DU?$char_traits@D@std@@V?$allocator@D@2@@std@@QAEAAV12@I@Z 0043d320 f i files.obj
 0001:0003c370       ?erase@?$basic_string@DU?$char_traits@D@std@@V?$allocator@D@2@@std@@QAEAAV12@II@Z 0043d370 f i files.obj
 0001:0003c440       ?length@?$char_traits@D@std@@SAIPBD@Z 0043d440 f i files.obj
 0001:0003c490       ?max_size@?$_Wrap_alloc@V?$allocator@D@std@@@std@@QBEIU_Nil@2@@Z 0043d490 f i files.obj
 0001:0003c4d0       ?max_size@?$_Wrap_alloc@V?$allocator@V?$basic_string@DU?$char_traits@D@std@@V?$allocator@D@2@@std@@@std@@@std@@QBEIU_Nil@2@@Z 0043d4d0 f i files.obj
 0001:0003c510       ?max_size@?$allocator@D@std@@QBEIXZ 0043d510 f i files.obj
 0001:0003c530       ?max_size@?$allocator@V?$basic_string@DU?$char_traits@D@std@@V?$allocator@D@2@@std@@@std@@QBEIXZ 0043d530 f i files.obj
 0001:0003c550       ?max_size@?$allocator_traits@V?$allocator@D@std@@@std@@SAIABV?$allocator@D@2@@Z 0043d550 f i files.obj
 0001:0003c570       ?max_size@?$allocator_traits@V?$allocator@V?$basic_string@DU?$char_traits@D@std@@V?$allocator@D@2@@std@@@std@@@std@@SAIABV?$allocator@V?$basic_string@DU?$char_traits@D@std@@V?$allocator@D@2@@std@@@2@@Z 0043d570 f i files.obj
 0001:0003c590       ?max_size@?$basic_string@DU?$char_traits@D@std@@V?$allocator@D@2@@std@@QBEIXZ 0043d590 f i files.obj
 0001:0003c600       ?max_size@?$vector@V?$basic_string@DU?$char_traits@D@std@@V?$allocator@D@2@@std@@V?$allocator@V?$basic_string@DU?$char_traits@D@std@@V?$allocator@D@2@@std@@@2@@std@@QBEIXZ 0043d600 f i files.obj
 0001:0003c650       ?move@?$char_traits@D@std@@SAPADPADPBDI@Z 0043d650 f i files.obj
 0001:0003c6b0       ?push_back@?$vector@V?$basic_string@DU?$char_traits@D@std@@V?$allocator@D@2@@std@@V?$allocator@V?$basic_string@DU?$char_traits@D@std@@V?$allocator@D@2@@std@@@2@@std@@QAEX$$QAV?$basic_string@DU?$char_traits@D@std@@V?$allocator@D@2@@2@@Z 0043d6b0 f i files.obj
 0001:0003c8c0       ?size@?$vector@V?$basic_string@DU?$char_traits@D@std@@V?$allocator@D@2@@std@@V?$allocator@V?$basic_string@DU?$char_traits@D@std@@V?$allocator@D@2@@std@@@2@@std@@QBEIXZ 0043d8c0 f i files.obj
 0001:0003c910       ?UpdateSecurityRedbook@@YAXXZ 0043d910 f   game.obj
 0001:0003ca30       ?GetSecurityRedbook@@YAPADXZ 0043da30 f   game.obj
 0001:0003ca50       ?GetSecurityRedbookID@@YAHXZ 0043da50 f   game.obj
 0001:0003ca60       ?GameInit@@YAXPAUsession_node@@@Z 0043da60 f   game.obj
 0001:0003cae0       ?GameExit@@YAXPAUsession_node@@@Z 0043dae0 f   game.obj
 0001:0003cb30       ?GameClientExit@@YAXPAUsession_node@@@Z 0043db30 f   game.obj
 0001:0003cb60       ?GameProcessSessionTimer@@YAXPAUsession_node@@@Z 0043db60 f   game.obj
 0001:0003cc20       ?GameProcessSessionBuffer@@YAXPAUsession_node@@@Z 0043dc20 f   game.obj
 0001:0003cf80       ?GameRandomStreamsStep@@YAIPAUsession_node@@@Z 0043df80 f   game.obj
 0001:0003d010       ?GameSendResync@@YAXPAUsession_node@@@Z 0043e010 f   game.obj
 0001:0003d060       ?GameSyncInit@@YAXPAUsession_node@@@Z 0043e060 f   game.obj
 0001:0003d0a0       ?GameSyncProcessSessionBuffer@@YAXPAUsession_node@@@Z 0043e0a0 f   game.obj
 0001:0003d170       ?GameSyncInputChar@@YAXPAUsession_node@@D@Z 0043e170 f   game.obj
 0001:0003d2f0       ?GameWarnLowCredits@@YAXPAUsession_node@@@Z 0043e2f0 f   game.obj
 0001:0003d470       ?GameProtocolParse@@YAXPAUsession_node@@PAUclient_msg@@@Z 0043e470 f   game.obj
 0001:0003dba0       ?GameStartUser@@YAXPAUsession_node@@PAUuser_struct@@@Z 0043eba0 f   game.obj
 0001:0003dd30       ?GameTryGetUser@@YAXPAUsession_node@@@Z 0043ed30 f   game.obj
 0001:0003dea0       ?GameSendEachUserChoice@@YAXPAUuser_struct@@@Z 0043eea0 f   game.obj
 0001:0003e030       ?GameSendSystemEnter@@YAXPAUsession_node@@@Z 0043f030 f   game.obj
 0001:0003e110       ?GameDMCommand@@YAXPAUsession_node@@HPAD@Z 0043f110 f   game.obj
 0001:0003e400       ?GameEchoPing@@YAXPAUsession_node@@@Z 0043f400 f   game.obj
 0001:0003ebe0       ?GetCRC16@@YAIPADH@Z       0043fbe0 f i game.obj
 0001:0003ec10       ?InitGameLock@@YAXXZ       0043fc10 f   gamelock.obj
 0001:0003ec30       ?SetGameLock@@YAXPAD@Z     0043fc30 f   gamelock.obj
 0001:0003ec60       ?SetGameUnlock@@YAXXZ      0043fc60 f   gamelock.obj
 0001:0003ec70       ?IsGameLocked@@YADXZ       0043fc70 f   gamelock.obj
 0001:0003ec80       ?GetGameLockedReason@@YAPADXZ 0043fc80 f   gamelock.obj
 0001:0003ecb0       ?GarbageCollect@@YAXXZ     0043fcb0 f   garbage.obj
 0001:0003ef50       ?GarbageKickoffGamePick@@YAXPAUsession_node@@@Z 0043ff50 f   garbage.obj
 0001:0003ef90       ?GarbageWarnAdminSession@@YAXPAUsession_node@@@Z 0043ff90 f   garbage.obj
 0001:0003efe0       ?ClearListNodeGarbageRef@@YAXPAUlist_node@@H@Z 0043ffe0 f   garbage.obj
 0001:0003eff0       ?MarkObjectListNodesAndTables@@YAXPAUobject_node@@@Z 0043fff0 f   garbage.obj
 0001:0003f0a0       ?MarkTableListNode@@YAXH@Z 004400a0 f   garbage.obj
 0001:0003f1a0       ?MarkListNode@@YAXH@Z      004401a0 f   garbage.obj
 0001:0003f280       ?RenumberListNode@@YAXPAUlist_node@@H@Z 00440280 f   garbage.obj
 0001:0003f2b0       ?RenumberObjectContainerReferences@@YAXPAUobject_node@@@Z 004402b0 f   garbage.obj
 0001:0003f350       ?RenumberTableListNodeReferences@@YAXPAUtable_struct@@H@Z 00440350 f   garbage.obj
 0001:0003f3d0       ?RenumberListNodeReferences@@YAXPATval_type@@@Z 004403d0 f   garbage.obj
 0001:0003f4d0       ?CompactListNode@@YAXPAUlist_node@@H@Z 004404d0 f   garbage.obj
 0001:0003f500       ?ClearTableGarbageRef@@YAXPAUtable_struct@@H@Z 00440500 f   garbage.obj
 0001:0003f510       ?RenumberTable@@YAXPAUtable_struct@@H@Z 00440510 f   garbage.obj
 0001:0003f540       ?RenumberListNodeTableReferences@@YAXPAUlist_node@@H@Z 00440540 f   garbage.obj
 0001:0003f590       ?RenumberTableReferences@@YAXPATval_type@@@Z 00440590 f   garbage.obj
 0001:0003f6c0       ?CompactTable@@YAXPAUtable_struct@@H@Z 004406c0 f   garbage.obj
 0001:0003f6f0       ?DeleteUnreferencedTable@@YAXPAUtable_struct@@H@Z 004406f0 f   garbage.obj
 0001:0003f720       ?ClearObjectGarbageRef@@YAXPAUobject_node@@@Z 00440720 f   garbage.obj
 0001:0003f730       ?MarkUserObjectNodes@@YAXPAUuser_struct@@@Z 00440730 f   garbage.obj
 0001:0003f750       ?MarkObject@@YAXH@Z        00440750 f   garbage.obj
 0001:0003f880       ?MarkListNodeObject@@YAXH@Z 00440880 f   garbage.obj
 0001:0003f9c0       ?MarkTableObject@@YAXH@Z   004409c0 f   garbage.obj
 0001:0003faf0       ?DeleteUnreferencedObject@@YAXPAUobject_node@@@Z 00440af0 f   garbage.obj
 0001:0003fb20       ?RenumberObject@@YAXPAUobject_node@@@Z 00440b20 f   garbage.obj
 0001:0003fb40       ?RenumberBlockerObjects@@YAXPAUroom_node@@@Z 00440b40 f   garbage.obj
 0001:0003fb90       ?RenumberObjectReferences@@YAXPAUobject_node@@@Z 00440b90 f   garbage.obj
 0001:0003fc50       ?RenumberUserObjectReferences@@YAXPAUuser_struct@@@Z 00440c50 f   garbage.obj
 0001:0003fca0       ?RenumberSessionObjectReferences@@YAXPAUsession_node@@@Z 00440ca0 f   garbage.obj
 0001:0003fd20       ?RenumberTimerObjectReferences@@YAXPAUtimer_struct@@@Z 00440d20 f   garbage.obj
 0001:0003fd80       ?RenumberListNodeObjectReferences@@YAXPAUlist_node@@H@Z 00440d80 f   garbage.obj
 0001:0003fe50       ?RenumberTableObjectReferences@@YAXPAUtable_struct@@H@Z 00440e50 f   garbage.obj
 0001:0003ff20       ?ResetObjectReference@@YADPATval_type@@@Z 00440f20 f   garbage.obj
 0001:0003ff90       ?CompactObject@@YAXPAUobject_node@@@Z 00440f90 f   garbage.obj
 0001:0003ffc0       ?RenumberTimer@@YAXPAUtimer_struct@@@Z 00440fc0 f   garbage.obj
 0001:0003ffe0       ?ResetTimerReference@@YAXPATval_type@@@Z 00440fe0 f   garbage.obj
 0001:00040050       ?CompactTimer@@YAXPAUtimer_struct@@@Z 00441050 f   garbage.obj
 0001:00040070       ?ClearStringGarbageRef@@YAXPAUstring_node@@H@Z 00441070 f   garbage.obj
 0001:00040080       ?MarkObjectStrings@@YAXPAUobject_node@@@Z 00441080 f   garbage.obj
 0001:000400f0       ?MarkListNodeStrings@@YAXPAUlist_node@@H@Z 004410f0 f   garbage.obj
 0001:00040150       ?MarkTableStrings@@YAXPAUtable_struct@@H@Z 00441150 f   garbage.obj
 0001:000401e0       ?MarkString@@YAXH@Z        004411e0 f   garbage.obj
 0001:00040230       ?RenumberString@@YAXPAUstring_node@@H@Z 00441230 f   garbage.obj
 0001:00040260       ?ResetStringReference@@YAXPATval_type@@@Z 00441260 f   garbage.obj
 0001:000402f0       ?CompactString@@YAXPAUstring_node@@H@Z 004412f0 f   garbage.obj
 0001:00040330       ?RenumberObjectTimerStringReferences@@YAXPAUobject_node@@@Z 00441330 f   garbage.obj
 0001:000403d0       ?RenumberListNodeTimerStringReferences@@YAXPAUlist_node@@H@Z 004413d0 f   garbage.obj
 0001:00040460       ?RenumberTableTimerStringReferences@@YAXPAUtable_struct@@H@Z 00441460 f   garbage.obj
 0001:00040b20       ?GetUsedSessions@@YAHXZ    00441b20 f   interface_windows.obj
 0001:00040b30       ?InitInterface@@YAXXZ      00441b30 f   interface_windows.obj
 0001:00040bc0       ?StoreInstanceData@@YAXPAUHINSTANCE__@@H@Z 00441bc0 f   interface_windows.obj
 0001:00040be0       ?StartupPrintf@@YAXPBDZZ   00441be0 f   interface_windows.obj
 0001:00040d30       ?StartupComplete@@YAXXZ    00441d30 f   interface_windows.obj
 0001:00040f30       ?InterfaceUpdate@@YAXXZ    00441f30 f   interface_windows.obj
 0001:00040f70       ?InterfaceLogon@@YAXPAUsession_node@@@Z 00441f70 f   interface_windows.obj
 0001:00040fc0       ?InterfaceLogoff@@YAXPAUsession_node@@@Z 00441fc0 f   interface_windows.obj
 0001:00041010       ?InterfaceUpdateSession@@YAXPAUsession_node@@@Z 00442010 f   interface_windows.obj
 0001:00041060       ?InterfaceUpdateChannel@@YAXXZ 00442060 f   interface_windows.obj
 0001:000410a0       ?InterfaceSignalConsole@@YAXXZ 004420a0 f   interface_windows.obj
 0001:000410e0       ?InterfaceSendBufferList@@YAXPAUbuffer_struct@@@Z 004420e0 f   interface_windows.obj
 0001:00041140       ?InterfaceSendBytes@@YAXPADH@Z 00442140 f   interface_windows.obj
 0001:00041180       ?StartAsyncSocketAccept@@YAXIH@Z 00442180 f   interface_windows.obj
 0001:00041200       ?StartAsyncNameLookup@@YAPAXPAD0@Z 00442200 f   interface_windows.obj
 0001:00041270       ?StartAsyncSession@@YAXPAUsession_node@@@Z 00442270 f   interface_windows.obj
 0001:000412d0       ?FatalErrorShow@@YAXPBDH0@Z 004422d0 f   interface_windows.obj
 0001:00041390       ?InterfaceThread@@YAXPAX@Z 00442390 f   interface_windows.obj
 0001:000415a0       ?InterfaceWindowProc@@YGJPAUHWND__@@IIJ@Z 004425a0 f   interface_windows.obj
 0001:00041ac0       ?InterfaceSetTab@@YAXH@Z   00442ac0 f   interface_windows.obj
 0001:00041b60       ?InterfaceTabChange@@YAXXZ 00442b60 f   interface_windows.obj
 0001:00041c10       ?InterfaceSetup@@YAXXZ     00442c10 f   interface_windows.obj
 0001:00042120       ?InterfaceCreateListControl@@YAXXZ 00443120 f   interface_windows.obj
 0001:000422c0       ?InterfaceCreate@@YAXPAUHWND__@@IJ@Z 004432c0 f   interface_windows.obj
 0001:000422f0       ?InterfaceCreateTabControl@@YAXPAUHWND__@@@Z 004432f0 f   interface_windows.obj
 0001:000426a0       ?InterfaceCommand@@YAXPAUHWND__@@H0I@Z 004436a0 f   interface_windows.obj
 0001:000428b0       ?InterfaceDrawText@@YAXPAUHWND__@@@Z 004438b0 f   interface_windows.obj
 0001:00042bc0       ?InterfaceCheckChannels@@YAXXZ 00443bc0 f   interface_windows.obj
 0001:00042e90       ?InterfaceSave@@YAXXZ      00443e90 f   interface_windows.obj
 0001:00042f70       ?InterfaceReloadSystem@@YAXXZ 00443f70 f   interface_windows.obj
 0001:00042ff0       ?CenterWindow@@YAXPAUHWND__@@0@Z 00443ff0 f   interface_windows.obj
 0001:000431e0       ?InterfaceDialogMotd@@YGHPAUHWND__@@IIJ@Z 004441e0 f   interface_windows.obj
 0001:000433b0       ?InterfaceDialogAbout@@YGHPAUHWND__@@IIJ@Z 004443b0 f   interface_windows.obj
 0001:00043470       ?InterfaceDialogTabPage@@YGHPAUHWND__@@IIJ@Z 00444470 f   interface_windows.obj
 0001:00043500       ?InterfaceTabPageCommand@@YAXPAUHWND__@@H0I@Z 00444500 f   interface_windows.obj
 0001:00043610       ?InterfaceAdminInputProc@@YGJPAUHWND__@@IIJ@Z 00444610 f   interface_windows.obj
 0001:000437a0       ?InterfaceAdminResponseProc@@YGJPAUHWND__@@IIJ@Z 004447a0 f   interface_windows.obj
 0001:00043830       ?InterfaceAddAdminBuffer@@YAXPADH@Z 00444830 f   interface_windows.obj
 0001:000438c0       ?InterfaceAddList@@YAXH@Z  004448c0 f   interface_windows.obj
 0001:00043b80       ?InterfaceRemoveList@@YAXH@Z 00444b80 f   interface_windows.obj
 0001:00043c40       ?InterfaceUpdateList@@YAXH@Z 00444c40 f   interface_windows.obj
 0001:00043fb0       ?InterfaceUpdateAdmin@@YAXXZ 00444fb0 f   interface_windows.obj
 0001:00044dc0       ?InitInterfaceLocks@@YAXXZ 00445dc0 f   intrlock.obj
 0001:00044e00       ?EnterServerLock@@YAXXZ    00445e00 f   intrlock.obj
 0001:00044e20       ?TryEnterServerLock@@YADXZ 00445e20 f   intrlock.obj
 0001:00044e40       ?LeaveServerLock@@YAXXZ    00445e40 f   intrlock.obj
 0001:00044e60       ?SetQuit@@YAXXZ            00445e60 f   intrlock.obj
 0001:00044ec0       ?GetQuit@@YADXZ            00445ec0 f   intrlock.obj
 0001:00044f10       ?SignalSession@@YAXH@Z     00445f10 f   intrlock.obj
 0001:00044fa0       ?CreateISHash@@YAPAUishash_table@@H@Z 00445fa0 f   intstringhash.obj
 0001:00045030       ?FreeISHash@@YAXPAUishash_table@@@Z 00446030 f   intstringhash.obj
 0001:00045130       ?ISHashInsert@@YAXPAUishash_table@@HPBD@Z 00446130 f   intstringhash.obj
 0001:00045210       ?ISHashFind@@YAPBDPAUishash_table@@H@Z 00446210 f   intstringhash.obj
 0001:00045320       ?LoadKodbase@@YAXXZ        00446320 f   kodbase.obj
 0001:00045820       ?LoadKodbaseClass@@YAXPADH@Z 00446820 f   kodbase.obj
 0001:00045870       ?LoadKodbaseProperty@@YAXPADH@Z 00446870 f   kodbase.obj
 0001:000458c0       ?LoadKodbaseClassVariable@@YAXPADH@Z 004468c0 f   kodbase.obj
 0001:00045980       ?LoadKodbaseMessage@@YAXPADH@Z 00446980 f   kodbase.obj
 0001:000459a0       ?LoadKodbaseParameter@@YAXPADH@Z 004469a0 f   kodbase.obj
 0001:000459c0       ?LoadKodbaseResource@@YAXPADH@Z 004469c0 f   kodbase.obj
 0001:00045b90       ?InitList@@YAXXZ           00446b90 f   list.obj
 0001:00045bd0       ?ResetList@@YAXXZ          00446bd0 f   list.obj
 0001:00045bf0       ?ClearList@@YAXXZ          00446bf0 f   list.obj
 0001:00045c50       ?GetListNodesUsed@@YAHXZ   00446c50 f   list.obj
 0001:00045c60       ?LoadList@@YADHTval_type@@0@Z 00446c60 f   list.obj
 0001:00045cb0       ?GetListNodeByID@@YAPAUlist_node@@H@Z 00446cb0 f   list.obj
 0001:00045cf0       ?IsListNodeByID@@YADH@Z    00446cf0 f   list.obj
 0001:00045d10       ?First@@YAHH@Z             00446d10 f   list.obj
 0001:00045d60       ?Rest@@YAHH@Z              00446d60 f   list.obj
 0001:00045db0       ?AppendListElem@@YAHTval_type@@0@Z 00446db0 f   list.obj
 0001:00045f90       ?Cons@@YAHTval_type@@0@Z   00446f90 f   list.obj
 0001:000460b0       ?Length@@YAHH@Z            004470b0 f   list.obj
 0001:00046130       ?Nth@@YAHHH@Z              00447130 f   list.obj
 0001:00046210       ?IsListMatch@@YAHHH@Z      00447210 f   list.obj
 0001:000463f0       ?Last@@YAHH@Z              004473f0 f   list.obj
 0001:00046490       ?SetFirst@@YAHHTval_type@@@Z 00447490 f   list.obj
 0001:000464d0       ?SetNth@@YAHHHTval_type@@@Z 004474d0 f   list.obj
 0001:000465a0       ?SwapListElem@@YAHHHH@Z    004475a0 f   list.obj
 0001:000466f0       ?FindListElem@@YAHTval_type@@0@Z 004476f0 f   list.obj
 0001:000467b0       ?GetAllListNodesByClass@@YAHHHH@Z 004477b0 f   list.obj
 0001:00046c40       ?GetListNode@@YAHTval_type@@H0@Z 00447c40 f   list.obj
 0001:00046db0       ?GetListElemByClass@@YAHTval_type@@H@Z 00447db0 f   list.obj
 0001:00046fa0       ?ListCopy@@YAHH@Z          00447fa0 f   list.obj
 0001:000472c0       ?InsertListElem@@YAHHHTval_type@@@Z 004482c0 f   list.obj
 0001:00047540       ?DelListElem@@YAHTval_type@@0@Z 00448540 f   list.obj
 0001:00047630       ?DelLastListElem@@YAHTval_type@@@Z 00448630 f   list.obj
 0001:00047700       ?SendListMessage@@YAHH_NHHQAUparm_node@@@Z 00448700 f   list.obj
 0001:000478c0       ?SendFirstListMessage@@YAHH_NHHQAUparm_node@@@Z 004488c0 f   list.obj
 0001:00047b80       ?SendNthListMessage@@YAHHH_NHHQAUparm_node@@@Z 00448b80 f   list.obj
 0001:00047df0       ?SendListMessageByClass@@YAHHH_NHHQAUparm_node@@@Z 00448df0 f   list.obj
 0001:000480a0       ?SendFirstListMessageByClass@@YAHHH_NHHQAUparm_node@@@Z 004490a0 f   list.obj
 0001:00048450       ?SendNthListMessageByClass@@YAHHHH_NHHQAUparm_node@@@Z 00449450 f   list.obj
 0001:00048790       ?ForEachListNode@@YAXP6AXPAUlist_node@@H@Z@Z 00449790 f   list.obj
 0001:000487f0       ?MoveListNode@@YAXHH@Z     004497f0 f   list.obj
 0001:00048890       ?SetNumListNodes@@YAXH@Z   00449890 f   list.obj
 0001:000488a0       ?AllocateListNode@@YAHXZ   004498a0 f   list.obj
 0001:000494b0       ?LoadAccounts@@YADPAD@Z    0044a4b0 f   loadacco.obj
 0001:00049780       ?LoadLineAccount@@YADPAD0000000@Z 0044a780 f   loadacco.obj
 0001:00049b90       ?LoadAll@@YADXZ            0044ab90 f   loadall.obj
 0001:00049d40       ?LoadAllButAccount@@YADXZ  0044ad40 f   loadall.obj
 0001:00049e00       ?LoadFromKod@@YADH@Z       0044ae00 f   loadall.obj
 0001:00049ec0       ?LoadAllButAccountAtTime@@YADPAD@Z 0044aec0 f   loadall.obj
 0001:0004a010       ?LoadControlFile@@YADPAH@Z 0044b010 f   loadall.obj
 0001:0004a380       ?LoadGame@@YADPAD@Z        0044b380 f   loadgame.obj
 0001:0004a620       ?LoadGameOpen@@YADPAD@Z    0044b620 f   loadgame.obj
 0001:0004a670       ?LoadGameParse@@YADPAD@Z   0044b670 f   loadgame.obj
 0001:0004a860       ?LoadGameClose@@YAXXZ      0044b860 f   loadgame.obj
 0001:0004a880       ?LoadGameVersion@@YADXZ    0044b880 f   loadgame.obj
 0001:0004a920       ?LoadGameBuiltInObjects@@YADXZ 0044b920 f   loadgame.obj
 0001:0004aaf0       ?LoadGameObject@@YADXZ     0044baf0 f   loadgame.obj
 0001:0004ad60       ?LoadGameListNodes@@YADXZ  0044bd60 f   loadgame.obj
 0001:0004af00       ?LoadGameTables@@YADXZ     0044bf00 f   loadgame.obj
 0001:0004b1c0       ?LoadGameTimer@@YADXZ      0044c1c0 f   loadgame.obj
 0001:0004b450       ?LoadGameUser@@YADXZ       0044c450 f   loadgame.obj
 0001:0004b550       ?LoadGameClass@@YADXZ      0044c550 f   loadgame.obj
 0001:0004b8a0       ?LoadAddPropertyName@@YAXPAUload_game_class_struct@@HPAD@Z 0044c8a0 f   loadgame.obj
 0001:0004b930       ?LoadGameResource@@YADXZ   0044c930 f   loadgame.obj
 0001:0004baf0       ?CreateLoadGameClass@@YAPAUload_game_class_struct@@HPADH@Z 0044caf0 f   loadgame.obj
 0001:0004bbe0       ?CreateLoadGameResource@@YAXHPAD@Z 0044cbe0 f   loadgame.obj
 0001:0004bc10       ?GetLoadGameClassByID@@YAPAUload_game_class_struct@@H@Z 0044cc10 f   loadgame.obj
 0001:0004bc70       ?GetLoadGamePropertyNameByID@@YAPADPAUload_game_class_struct@@H@Z 0044cc70 f   loadgame.obj
 0001:0004bca0       ?GetLoadGameResourceByID@@YAPBDH@Z 0044cca0 f   loadgame.obj
 0001:0004bcc0       ?LoadGameTranslateVal@@YAXPATval_type@@@Z 0044ccc0 f   loadgame.obj
 0001:0004c580       ?InitLoadBof@@YAXXZ        0044d580 f   loadkod.obj
 0001:0004c590       ?ResetLoadBof@@YAXXZ       0044d590 f   loadkod.obj
 0001:0004c640       ?LoadBof@@YAXXZ            0044d640 f   loadkod.obj
 0001:0004c9c0       ?LoadBofName@@YADPAD@Z     0044d9c0 f   loadkod.obj
 0001:0004cbc0       ?AddFileMem@@YAXPAD0H@Z    0044dbc0 f   loadkod.obj
 0001:0004cc90       ?FindClasses@@YAXPAD0@Z    0044dc90 f   loadkod.obj
 0001:0004cdb0       ?FindMessages@@YAXPADHPAUbof_dispatch@@@Z 0044ddb0 f   loadkod.obj
 0001:0004d070       ??$?0$$V@?$_Compressed_pair@U?$_Wrap_alloc@V?$allocator@V?$basic_string@DU?$char_traits@D@std@@V?$allocator@D@2@@std@@@std@@@std@@V?$_Vector_val@U?$_Simple_types@V?$basic_string@DU?$char_traits@D@std@@V?$allocator@D@2@@std@@@std@@@2@$00@std@@QAE@U_Zero_then_variadic_args_t@1@@Z 0044e070 f i loadkod.obj
 0001:0004d0b0       ??0?$_Vector_alloc@U?$_Vec_base_types@V?$basic_string@DU?$char_traits@D@std@@V?$allocator@D@2@@std@@V?$allocator@V?$basic_string@DU?$char_traits@D@std@@V?$allocator@D@2@@std@@@2@@std@@@std@@QAE@XZ 0044e0b0 f i loadkod.obj
 0001:0004d100       ??0?$_Vector_const_iterator@V?$_Vector_val@U?$_Simple_types@V?$basic_string@DU?$char_traits@D@std@@V?$allocator@D@2@@std@@@std@@@std@@@std@@QAE@PAV?$basic_string@DU?$char_traits@D@std@@V?$allocator@D@2@@1@PBU_Container_base0@1@@Z 0044e100 f i loadkod.obj
 0001:0004d150       ??0?$_Vector_iterator@V?$_Vector_val@U?$_Simple_types@V?$basic_string@DU?$char_traits@D@std@@V?$allocator@D@2@@std@@@std@@@std@@@std@@QAE@PAV?$basic_string@DU?$char_traits@D@std@@V?$allocator@D@2@@1@PBU_Container_base0@1@@Z 0044e150 f i loadkod.obj
 0001:0004d190       ??0?$_Vector_val@U?$_Simple_types@V?$basic_string@DU?$char_traits@D@std@@V?$allocator@D@2@@std@@@std@@@std@@QAE@XZ 0044e190 f i loadkod.obj
 0001:0004d1d0       ??0?$_Wrap_alloc@V?$allocator@V?$basic_string@DU?$char_traits@D@std@@V?$allocator@D@2@@std@@@std@@@std@@QAE@XZ 0044e1d0 f i loadkod.obj
 0001:0004d200       ??0?$allocator@V?$basic_string@DU?$char_traits@D@std@@V?$allocator@D@2@@std@@@std@@QAE@XZ 0044e200 f i loadkod.obj
 0001:0004d220       ??0?$vector@V?$basic_string@DU?$char_traits@D@std@@V?$allocator@D@2@@std@@V?$allocator@V?$basic_string@DU?$char_traits@D@std@@V?$allocator@D@2@@std@@@2@@std@@QAE@XZ 0044e220 f i loadkod.obj
 0001:0004d290       ??1?$vector@V?$basic_string@DU?$char_traits@D@std@@V?$allocator@D@2@@std@@V?$allocator@V?$basic_string@DU?$char_traits@D@std@@V?$allocator@D@2@@std@@@2@@std@@QAE@XZ 0044e290 f i loadkod.obj
 0001:0004d300       ??8?$_Vector_const_iterator@V?$_Vector_val@U?$_Simple_types@V?$basic_string@DU?$char_traits@D@std@@V?$allocator@D@2@@std@@@std@@@std@@@std@@QBE_NABV01@@Z 0044e300 f i loadkod.obj
 0001:0004d370       ??9?$_Vector_const_iterator@V?$_Vector_val@U?$_Simple_types@V?$basic_string@DU?$char_traits@D@std@@V?$allocator@D@2@@std@@@std@@@std@@@std@@QBE_NABV01@@Z 0044e370 f i loadkod.obj
 0001:0004d3d0       ??C?$_Vector_iterator@V?$_Vector_val@U?$_Simple_types@V?$basic_string@DU?$char_traits@D@std@@V?$allocator@D@2@@std@@@std@@@std@@@std@@QBEPAV?$basic_string@DU?$char_traits@D@std@@V?$allocator@D@2@@1@XZ 0044e3d0 f i loadkod.obj
 0001:0004d410       ??D?$_Vector_const_iterator@V?$_Vector_val@U?$_Simple_types@V?$basic_string@DU?$char_traits@D@std@@V?$allocator@D@2@@std@@@std@@@std@@@std@@QBEABV?$basic_string@DU?$char_traits@D@std@@V?$allocator@D@2@@1@XZ 0044e410 f i loadkod.obj
 0001:0004d430       ??D?$_Vector_iterator@V?$_Vector_val@U?$_Simple_types@V?$basic_string@DU?$char_traits@D@std@@V?$allocator@D@2@@std@@@std@@@std@@@std@@QBEAAV?$basic_string@DU?$char_traits@D@std@@V?$allocator@D@2@@1@XZ 0044e430 f i loadkod.obj
 0001:0004d460       ??E?$_Vector_const_iterator@V?$_Vector_val@U?$_Simple_types@V?$basic_string@DU?$char_traits@D@std@@V?$allocator@D@2@@std@@@std@@@std@@@std@@QAEAAV01@XZ 0044e460 f i loadkod.obj
 0001:0004d490       ??E?$_Vector_iterator@V?$_Vector_val@U?$_Simple_types@V?$basic_string@DU?$char_traits@D@std@@V?$allocator@D@2@@std@@@std@@@std@@@std@@QAEAAV01@XZ 0044e490 f i loadkod.obj
 0001:0004d4c0       ?_Adopt@_Iterator_base0@std@@QAEXPBX@Z 0044e4c0 f i loadkod.obj
 0001:0004d4e0       ?_Compat@?$_Vector_const_iterator@V?$_Vector_val@U?$_Simple_types@V?$basic_string@DU?$char_traits@D@std@@V?$allocator@D@2@@std@@@std@@@std@@@std@@QBEXABV12@@Z 0044e4e0 f i loadkod.obj
 0001:0004d500       ?_Tidy@?$vector@V?$basic_string@DU?$char_traits@D@std@@V?$allocator@D@2@@std@@V?$allocator@V?$basic_string@DU?$char_traits@D@std@@V?$allocator@D@2@@std@@@2@@std@@IAEXXZ 0044e500 f i loadkod.obj
 0001:0004d5f0       ?begin@?$vector@V?$basic_string@DU?$char_traits@D@std@@V?$allocator@D@2@@std@@V?$allocator@V?$basic_string@DU?$char_traits@D@std@@V?$allocator@D@2@@std@@@2@@std@@QAE?AV?$_Vector_iterator@V?$_Vector_val@U?$_Simple_types@V?$basic_string@DU?$char_traits@D@std@@V?$allocator@D@2@@std@@@std@@@std@@@2@XZ 0044e5f0 f i loadkod.obj
 0001:0004d670       ?c_str@?$basic_string@DU?$char_traits@D@std@@V?$allocator@D@2@@std@@QBEPBDXZ 0044e670 f i loadkod.obj
 0001:0004d6e0       ?end@?$vector@V?$basic_string@DU?$char_traits@D@std@@V?$allocator@D@2@@std@@V?$allocator@V?$basic_string@DU?$char_traits@D@std@@V?$allocator@D@2@@std@@@2@@std@@QAE?AV?$_Vector_iterator@V?$_Vector_val@U?$_Simple_types@V?$basic_string@DU?$char_traits@D@std@@V?$allocator@D@2@@std@@@std@@@std@@@2@XZ 0044e6e0 f i loadkod.obj
 0001:0004d760       ?pointer_to@?$pointer_traits@PAV?$basic_string@DU?$char_traits@D@std@@V?$allocator@D@2@@std@@@std@@SAPAV?$basic_string@DU?$char_traits@D@std@@V?$allocator@D@2@@2@AAV32@@Z 0044e760 f i loadkod.obj
 0001:0004d780       ?strrchr@@YAPADQADH@Z      0044e780 f i loadkod.obj
 0001:0004d7d0       ?LoadRsc@@YAXXZ            0044e7d0 f   loadrsc.obj
 0001:0004da30       ?LoadDynamicRsc@@YAXPAD@Z  0044ea30 f   loadrsc.obj
 0001:0004da60       ?EachLoadRsc@@YA_NPADHH0@Z 0044ea60 f   loadrsc.obj
 0001:0004da90       ?LoadDynamicRscName@@YADPAD@Z 0044ea90 f   loadrsc.obj
 0001:0004dda0       ?LoadRSBHash@@YAXPAD@Z     0044eda0 f   loadrsc.obj
 0001:0004e0c0       ?LoadBlakodStrings@@YADPAD@Z 0044f0c0 f   loadstr.obj
 0001:0004e480       ?MainServer@@YAXXZ         0044f480 f   main_windows.obj
 0001:0004e610       ?MainExitServer@@YAXXZ     0044f610 f   main_windows.obj
 0001:0004e740       ?MaintenanceInit@@YAXPAUsession_node@@@Z 0044f740 f   maintenance.obj
 0001:0004e770       ?MaintenanceExit@@YAXPAUsession_node@@@Z 0044f770 f   maintenance.obj
 0001:0004e780       ?MaintenanceProcessSessionBuffer@@YAXPAUsession_node@@@Z 0044f780 f   maintenance.obj
 0001:0004e8a0       ?MaintenanceInputChar@@YAXPAUsession_node@@D@Z 0044f8a0 f   maintenance.obj
 0001:0004ea80       ?InitMemory@@YAXXZ         0044fa80 f   memory.obj
 0001:0004eb00       ?GetMemoryStats@@YAPAUmemory_statistics@@XZ 0044fb00 f   memory.obj
 0001:0004eb10       ?GetMemoryTotal@@YAHXZ     0044fb10 f   memory.obj
 0001:0004eb60       ?GetNumMemoryStats@@YAHXZ  0044fb60 f   memory.obj
 0001:0004eb70       ?GetMemoryStatName@@YAPBDH@Z 0044fb70 f   memory.obj
 0001:0004eb80       ?AllocateMemoryDebug@@YAPAXHHPBDH@Z 0044fb80 f   memory.obj
 0001:0004ec30       ?AllocateMemoryCallocDebug@@YAPAXHHHPBDH@Z 0044fc30 f   memory.obj
 0001:0004ecf0       ?FreeMemoryX@@YAXHPAPAXH@Z 0044fcf0 f   memory.obj
 0001:0004ed50       ?ResizeMemory@@YAPAXHPAXHH@Z 0044fd50 f   memory.obj
 0001:0004edf0       ?AllocateMemorySIMD@@YAPAXHH@Z 0044fdf0 f   memory.obj
 0001:0004ee20       ?FreeMemorySIMD@@YAXHPAXH@Z 0044fe20 f   memory.obj
 0001:0004efe0       ?ReallocCHK@@YAPAXHPAXII@Z 0044ffe0 f   memory.obj
 0001:0004f1d0       ?InitMessage@@YAXXZ        004501d0 f   message.obj
 0001:0004f1f0       ?ResetMessage@@YAXXZ       004501f0 f   message.obj
 0001:0004f220       ?SetClassNumMessages@@YAXHH@Z 00450220 f   message.obj
 0001:0004f2b0       ?AddMessage@@YAXHHHPADH@Z  004502b0 f   message.obj
 0001:0004f3c0       ?SetMessagesPropagate@@YAXXZ 004503c0 f   message.obj
 0001:0004f3e0       ?GetHighestMessageCount@@YAHXZ 004503e0 f   message.obj
 0001:0004f3f0       ?GetNumMessageHashCollisions@@YAHXZ 004503f0 f   message.obj
 0001:0004f400       ?GetMessageByID@@YAPAUmessage_struct@@HHPAPAUclass_struct@@@Z 00450400 f   message.obj
 0001:0004f4b0       ?GetMessageByName@@YAPAUmessage_struct@@HPADPAPAUclass_struct@@@Z 004504b0 f   message.obj
 0001:0004f510       ?ResetMessageClass@@YAXPAUclass_struct@@@Z 00450510 f   message.obj
 0001:0004f600       ?SetEachClassMessagesPropagate@@YAXPAUclass_struct@@@Z 00450600 f   message.obj
 0001:0004f7f0       ?InitMotd@@YAXXZ           004507f0 f   motd.obj
 0001:0004f800       ?LoadMotd@@YAXXZ           00450800 f   motd.obj
 0001:0004f960       ?ResetLoadMotd@@YAXXZ      00450960 f   motd.obj
 0001:0004f9a0       ?SetMotd@@YAXPAD@Z         004509a0 f   motd.obj
 0001:0004faf0       ?GetMotdLength@@YAHXZ      00450af0 f   motd.obj
 0001:0004fb30       ?GetMotd@@YAPADXZ          00450b30 f   motd.obj
 0001:0004fb60       ?LoadMotdName@@YADPAD@Z    00450b60 f   motd.obj
 0001:0004fdb0       ?MutexCreate@@YAPAXXZ      00450db0 f   mutex_windows.obj
 0001:0004fde0       ?MutexAcquire@@YA_NPAX@Z   00450de0 f   mutex_windows.obj
 0001:0004fe30       ?MutexAcquireWithTimeout@@YA_NPAXH@Z 00450e30 f   mutex_windows.obj
 0001:0004fe80       ?MutexRelease@@YA_NPAX@Z   00450e80 f   mutex_windows.obj
 0001:0004fed0       ?MutexClose@@YA_NPAX@Z     00450ed0 f   mutex_windows.obj
 0001:0004ff70       ?InitNameID@@YAXXZ         00450f70 f   nameid.obj
 0001:0004ffc0       ?ResetNameID@@YAXXZ        00450fc0 f   nameid.obj
 0001:000500d0       ?CreateNameID@@YAXPADH@Z   004510d0 f   nameid.obj
 0001:00050250       ?GetNameIDNode@@YAPAUnameid_struct@@H@Z 00451250 f   nameid.obj
 0001:000502a0       ?GetIDByName@@YAHPBD@Z     004512a0 f   nameid.obj
 0001:00050320       ?GetNameByID@@YAPADH@Z     00451320 f   nameid.obj
 0001:00050370       ?GetMaxNameID@@YAHXZ       00451370 f   nameid.obj
 0001:00050380       ?ForEachNameID@@YAXP6AXPAUnameid_struct@@@Z@Z 00451380 f   nameid.obj
 0001:00050520       ?InitObject@@YAXXZ         00451520 f   object.obj
 0001:00050560       ?ResetObject@@YAXXZ        00451560 f   object.obj
 0001:00050660       ?ClearObject@@YAXXZ        00451660 f   object.obj
 0001:000506c0       ?GetObjectsUsed@@YAHXZ     004516c0 f   object.obj
 0001:000506d0       ?CreateObject@@YAHHHQAUparm_node@@@Z 004516d0 f   object.obj
 0001:00050830       ?LoadObject@@YADHPAD@Z     00451830 f   object.obj
 0001:00050970       ?DeleteBlakodObject@@YAXH@Z 00451970 f   object.obj
 0001:00050a10       ?GetObjectByID@@YAPAUobject_node@@H@Z 00451a10 f   object.obj
 0001:00050ac0       ?GetObjectByIDQuietly@@YAPAUobject_node@@H@Z 00451ac0 f   object.obj
 0001:00050b30       ?IsObjectByID@@YADH@Z      00451b30 f   object.obj
 0001:00050b60       ?GetObjectByIDEvenDeleted@@YAPAUobject_node@@H@Z 00451b60 f   object.obj
 0001:00050ba0       ?SetObjectPropertyByName@@YADHPADTval_type@@@Z 00451ba0 f   object.obj
 0001:00050ce0       ?ForEachObject@@YAXP6AXPAUobject_node@@@Z@Z 00451ce0 f   object.obj
 0001:00050d50       ?MoveObject@@YAXHH@Z       00451d50 f   object.obj
 0001:00050e30       ?SetNumObjects@@YAXH@Z     00451e30 f   object.obj
 0001:00050e40       ?SetObjectProperties@@YAXHPAUclass_struct@@@Z 00451e40 f   object.obj
 0001:00050f40       ?AllocateObject@@YAHH@Z    00451f40 f   object.obj
 0001:00051370       ?InitParseClient@@YAXXZ    00452370 f   parsecli.obj
 0001:00051390       ?AllocateParseClientListNodes@@YAXXZ 00452390 f   parsecli.obj
 0001:00051480       ?GameMessageCount@@YAXE@Z  00452480 f   parsecli.obj
 0001:000514b0       ?ClientToBlakodUser@@YAXPAUsession_node@@HPAD@Z 004524b0 f   parsecli.obj
 0001:000514f0       ?LoadParseClientTables@@YAXXZ 004524f0 f   parsecli.obj
 0001:00051630       ?ResetParseClientTables@@YAXXZ 00452630 f   parsecli.obj
 0001:00051660       ?ParseClientSendBlakod@@YAXHHPAEHQAUclient_table_node@@@Z 00452660 f   parsecli.obj
 0001:00052830       ?ParseClientSendBlakodError@@YAXHHHHH@Z 00453830 f i parsecli.obj
 0001:000529b0       ?ResyncInit@@YAXPAUsession_node@@@Z 004539b0 f   resync.obj
 0001:000529f0       ?ResyncExit@@YAXPAUsession_node@@@Z 004539f0 f   resync.obj
 0001:00052a00       ?ResyncProcessSessionTimer@@YAXPAUsession_node@@@Z 00453a00 f   resync.obj
 0001:00052a20       ?ResyncProcessSessionBuffer@@YAXPAUsession_node@@@Z 00453a20 f   resync.obj
 0001:00052ac0       ?ResyncInputChar@@YAXPAUsession_node@@D@Z 00453ac0 f   resync.obj
 0001:00052b90       ?BSPGetHeight@@YA_NPAUroom_type@@PAUV2@@PAM22PAPAUBspLeaf@@@Z 00453b90 f   roofile.obj
 0001:00052e20       ?BSPCanMoveInRoom@@YA_NPAUroom_type@@PAUV2@@1H_NPAPAUWall@@@Z 00453e20 f   roofile.obj
 0001:00053110       ?BSPLineOfSightView@@YA_NPAUV2@@0H@Z 00454110 f   roofile.obj
 0001:00053300       ?BSPLineOfSight@@YA_NPAUroom_type@@PAUV3@@1@Z 00454300 f   roofile.obj
 0001:000535f0       ?BSPChangeTexture@@YAXPAUroom_type@@IGI@Z 004545f0 f   roofile.obj
 0001:00053870       ?BSPMoveSector@@YAXPAUroom_type@@I_NMM@Z 00454870 f   roofile.obj
 0001:00053920       ?BSPGetLocationInfo@@YA_NPAUroom_type@@PAUV2@@IPAIPAM33PAPAUBspLeaf@@@Z 00454920 f   roofile.obj
 0001:00053bd0       ?BSPGetRandomPoint@@YA_NPAUroom_type@@HPAUV2@@@Z 00454bd0 f   roofile.obj
 0001:00053e70       ?BSPGetStepTowards@@YA_NPAUroom_type@@PAUV2@@11PAIH@Z 00454e70 f   roofile.obj
 0001:00054880       ?BSPBlockerAdd@@YA_NPAUroom_type@@HPAUV2@@@Z 00455880 f   roofile.obj
 0001:00054940       ?BSPBlockerMove@@YA_NPAUroom_type@@HPAUV2@@@Z 00455940 f   roofile.obj
 0001:000549e0       ?BSPBlockerRemove@@YA_NPAUroom_type@@H@Z 004559e0 f   roofile.obj
 0001:00054a80       ?BSPBlockerClear@@YAXPAUroom_type@@@Z 00455a80 f   roofile.obj
 0001:00054ae0       ?BSPLoadRoom@@YA_NPADPAUroom_type@@@Z 00455ae0 f   roofile.obj
 0001:000569c0       ?BSPFreeRoom@@YAXPAUroom_type@@@Z 004579c0 f   roofile.obj
 0001:00056bd0       ?BSPLineOfSightTree@@YA_NPBUBspNode@@PBUV3@@1@Z 00457bd0 f   roofile.obj
 0001:00057a20       ?BSPCanMoveInRoomTree@@YA_NPBUBspNode@@PBUV2@@1PAPAUWall@@@Z 00458a20 f   roofile.obj
 0001:00059450       ?BSPCanMoveInRoomTreeInternal@@YA_NPBUSectorNode@@0PBUSide@@1PBUV2@@@Z 0045a450 f i roofile.obj
 0001:00059600       ?BSPGetSectorHeightFloorWithDepth@@YAMPBUSectorNode@@PBUV2@@@Z 0045a600 f i roofile.obj
 0001:00059760       ?BSPIntersectLineSplitter@@YA_NPBUBspNode@@PBUV2@@1PAU2@@Z 0045a760 f i roofile.obj
 0001:00059a90       ?BSPUpdateLeafHeights@@YAXPBUroom_type@@PBUSectorNode@@_N@Z 0045aa90 f i roofile.obj
 0001:00059d30       ?IntersectLineCircle@@YA_NPBUV2@@M00@Z 0045ad30 f i roofile.obj
 0001:0005a000       ?IntersectLineTriangle@@YA_NPBUV3@@0000@Z 0045b000 f i roofile.obj
 0001:0005a5e0       ?MinSquaredDistanceToLineSegment@@YAMPBUV2@@00@Z 0045b5e0 f i roofile.obj
 0001:0005a8f0       ?V2ROTATE@@YAXPAUV2@@M@Z   0045b8f0 f i roofile.obj
 0001:0005a9d0       ?fabs@@YAMM@Z              0045b9d0 f i roofile.obj
 0001:0005aa40       ?fmax@@YAMMM@Z             0045ba40 f i roofile.obj
 0001:0005aab0       ?fmin@@YAMMM@Z             0045bab0 f i roofile.obj
 0001:0005ab20       _atan2f                    0045bb20 f i roofile.obj
 0001:0005ab80       _cosf                      0045bb80 f i roofile.obj
 0001:0005abd0       _fabsf                     0045bbd0 f i roofile.obj
 0001:0005ac20       _sinf                      0045bc20 f i roofile.obj
 0001:0005ac70       _sqrtf                     0045bc70 f i roofile.obj
 0001:0005acc0       ?InitRooms@@YAXXZ          0045bcc0 f   roomdata.obj
 0001:0005ad00       ?ExitRooms@@YAXXZ          0045bd00 f   roomdata.obj
 0001:0005ad30       ?ResetRooms@@YAXXZ         0045bd30 f   roomdata.obj
 0001:0005adf0       ?LoadRoom@@YAHH@Z          0045bdf0 f   roomdata.obj
 0001:0005afd0       ?UnloadRoom@@YAXPAUroom_node@@@Z 0045bfd0 f   roomdata.obj
 0001:0005b120       ?GetRoomDataByID@@YAPAUroom_node@@H@Z 0045c120 f   roomdata.obj
 0001:0005b180       ?PrintRoomTable@@YAXXZ     0045c180 f   roomdata.obj
 0001:0005b220       ?ForEachRoom@@YAXP6AXPAUroom_node@@@Z@Z 0045c220 f   roomdata.obj
 0001:0005b410       ?SaveAccounts@@YADPAD@Z    0045c410 f   saveacco.obj
 0001:0005b490       ?SaveEachAccount@@YAXPAUaccount_node_struct@@@Z 0045c490 f   saveacco.obj
 0001:0005b5c0       ?SaveAll@@YAHXZ            0045c5c0 f   saveall.obj
 0001:0005b7d0       ?SaveControlFile@@YAXH@Z   0045c7d0 f   saveall.obj
 0001:0005bb30       ?SaveGame@@YADPAD@Z        0045cb30 f   savegame.obj
 0001:0005bc10       ?SaveGameVersion@@YAXXZ    0045cc10 f   savegame.obj
 0001:0005bc30       ?SaveClasses@@YAXXZ        0045cc30 f   savegame.obj
 0001:0005bc50       ?SaveEachClass@@YAXPAUclass_struct@@@Z 0045cc50 f   savegame.obj
 0001:0005bd60       ?SaveResources@@YAXXZ      0045cd60 f   savegame.obj
 0001:0005bd80       ?SaveEachResource@@YAXPAUresource_struct@@@Z 0045cd80 f   savegame.obj
 0001:0005bde0       ?SaveBuiltInObjects@@YAXXZ 0045cde0 f   savegame.obj
 0001:0005be60       ?SaveObjects@@YAXXZ        0045ce60 f   savegame.obj
 0001:0005be80       ?SaveEachObject@@YAXPAUobject_node@@@Z 0045ce80 f   savegame.obj
 0001:0005bf40       ?SaveListNodes@@YAXXZ      0045cf40 f   savegame.obj
 0001:0005bf80       ?SaveEachListNode@@YAXPAUlist_node@@H@Z 0045cf80 f   savegame.obj
 0001:0005bfb0       ?SaveTables@@YAXXZ         0045cfb0 f   savegame.obj
 0001:0005bff0       ?SaveEachTable@@YAXPAUtable_struct@@H@Z 0045cff0 f   savegame.obj
 0001:0005c090       ?SaveTimers@@YAXXZ         0045d090 f   savegame.obj
 0001:0005c0b0       ?SaveEachTimer@@YAXPAUtimer_struct@@@Z 0045d0b0 f   savegame.obj
 0001:0005c1b0       ?SaveUsers@@YAXXZ          0045d1b0 f   savegame.obj
 0001:0005c1d0       ?SaveEachUser@@YAXPAUuser_struct@@@Z 0045d1d0 f   savegame.obj
 0001:0005c210       ?SaveGameCopyByteBuffer@@YAXD@Z 0045d210 f   savegame.obj
 0001:0005c260       ?SaveGameCopyIntBuffer@@YAXH@Z 0045d260 f   savegame.obj
 0001:0005c2b0       ?SaveGameCopyStringBuffer@@YAXPBD@Z 0045d2b0 f   savegame.obj
 0001:0005c3d0       ?SaveGameFlushBuffer@@YAXXZ 0045d3d0 f   savegame.obj
 0001:0005c660       ?SaveDynamicRsc@@YADPAD@Z  0045d660 f   saversc.obj
 0001:0005c780       ?CountEachDynamicRsc@@YAXPAUresource_struct@@@Z 0045d780 f   saversc.obj
 0001:0005c7a0       ?SaveEachDynamicRsc@@YAXPAUresource_struct@@@Z 0045d7a0 f   saversc.obj
 0001:0005c7e0       ?SaveRscCopyByteBuffer@@YAXD@Z 0045d7e0 f   saversc.obj
 0001:0005c830       ?SaveRscCopyIntBuffer@@YAXH@Z 0045d830 f   saversc.obj
 0001:0005c880       ?SaveRscCopyStringBuffer@@YAXPBD@Z 0045d880 f   saversc.obj
 0001:0005c9a0       ?SaveRscFlushBuffer@@YAXXZ 0045d9a0 f   saversc.obj
 0001:0005cae0       ?SaveStrings@@YADPAD@Z     0045dae0 f   savestr.obj
 0001:0005cbc0       ?SaveEachString@@YAXPAUstring_node@@H@Z 0045dbc0 f   savestr.obj
 0001:0005cbf0       ?SaveStrCopyIntBuffer@@YAXH@Z 0045dbf0 f   savestr.obj
 0001:0005cc40       ?SaveStrCopySnodBuffer@@YAXPAUstring_node@@@Z 0045dc40 f   savestr.obj
 0001:0005cd50       ?SaveStrFlushBuffer@@YAXXZ 0045dd50 f   savestr.obj
 0001:0005ce50       ?InitProfiling@@YAXXZ      0045de50 f   sendmsg.obj
 0001:0005cf90       ?InitTimeProfiling@@YAXXZ  0045df90 f   sendmsg.obj
 0001:0005cfa0       ?EndTimeProfiling@@YAXXZ   0045dfa0 f   sendmsg.obj
 0001:0005cfb0       ?InitBkodInterpret@@YAXXZ  0045dfb0 f   sendmsg.obj
 0001:0005d6a0       ?GetKodStats@@YAPAUkod_statistics@@XZ 0045e6a0 f   sendmsg.obj
 0001:0005d6b0       ?GetBkodPtr@@YAPADXZ       0045e6b0 f   sendmsg.obj
 0001:0005d6c0       ?IsInterpreting@@YADXZ     0045e6c0 f   sendmsg.obj
 0001:0005d6f0       ?PostBlakodMessage@@YAXHHHQAUparm_node@@@Z 0045e6f0 f   sendmsg.obj
 0001:0005d7e0       ?SendTopLevelBlakodMessage@@YAHHHHQAUparm_node@@@Z 0045e7e0 f   sendmsg.obj
 0001:0005dab0       ?SendBlakodMessage@@YAHHHHQAUparm_node@@@Z 0045eab0 f   sendmsg.obj
 0001:0005dfc0       ?SendBlakodClassMessage@@YAHHHHQAUparm_node@@@Z 0045efc0 f   sendmsg.obj
 0001:0005e010       ?BlakodDebugInfo@@YAPADXZ  0045f010 f   sendmsg.obj
 0001:0005e0b0       ?BlakodStackInfo@@YAPADXZ  0045f0b0 f   sendmsg.obj
 0001:0005e490       ?CreateOpcodeTable@@YAXXZ  0045f490 f   sendmsg.obj
 0001:0005e8b0       ?InterpretAtMessage@@YAHHPAUclass_struct@@PAUmessage_struct@@HQAUparm_node@@PATval_type@@@Z 0045f8b0 f   sendmsg.obj
 0001:0005ed70       ?TraceInfo@@YAXHPADHHQAUparm_node@@@Z 0045fd70 f   sendmsg.obj
 0001:0005eff0       ?SendClassMessage@@YAXPAUobject_node@@@Z 0045fff0 f   sendmsg.obj
 0001:0005f070       ?InterpretGotoUncond@@YAXHPAUlocal_var_type@@@Z 00460070 f   sendmsg.obj
 0001:0005f0a0       ?InterpretGotoIfTrueConstant@@YAXHPAUlocal_var_type@@@Z 004600a0 f   sendmsg.obj
 0001:0005f130       ?InterpretGotoIfTrueLocal@@YAXHPAUlocal_var_type@@@Z 00460130 f   sendmsg.obj
 0001:0005f190       ?InterpretGotoIfTrueProperty@@YAXHPAUlocal_var_type@@@Z 00460190 f   sendmsg.obj
 0001:0005f200       ?InterpretGotoIfTrueClassVar@@YAXHPAUlocal_var_type@@@Z 00460200 f   sendmsg.obj
 0001:0005f2b0       ?InterpretGotoIfFalseConstant@@YAXHPAUlocal_var_type@@@Z 004602b0 f   sendmsg.obj
 0001:0005f340       ?InterpretGotoIfFalseLocal@@YAXHPAUlocal_var_type@@@Z 00460340 f   sendmsg.obj
 0001:0005f3a0       ?InterpretGotoIfFalseProperty@@YAXHPAUlocal_var_type@@@Z 004603a0 f   sendmsg.obj
 0001:0005f410       ?InterpretGotoIfFalseClassVar@@YAXHPAUlocal_var_type@@@Z 00460410 f   sendmsg.obj
 0001:0005f4c0       ?InterpretCallStoreNone@@YAXHPAUlocal_var_type@@@Z 004604c0 f   sendmsg.obj
 0001:0005f820       ?InterpretCallStoreLocal@@YAXHPAUlocal_var_type@@@Z 00460820 f   sendmsg.obj
 0001:0005fba0       ?InterpretCallStoreProperty@@YAXHPAUlocal_var_type@@@Z 00460ba0 f   sendmsg.obj
 0001:0005ff20       ?InterpretUnaryNot_L@@YAXHPAUlocal_var_type@@@Z 00460f20 f   sendmsg.obj
 0001:00060060       ?InterpretUnaryNot_P@@YAXHPAUlocal_var_type@@@Z 00461060 f   sendmsg.obj
 0001:000601a0       ?InterpretUnaryNeg_L@@YAXHPAUlocal_var_type@@@Z 004611a0 f   sendmsg.obj
 0001:000602c0       ?InterpretUnaryNeg_P@@YAXHPAUlocal_var_type@@@Z 004612c0 f   sendmsg.obj
 0001:000603e0       ?InterpretUnaryNone_L@@YAXHPAUlocal_var_type@@@Z 004613e0 f   sendmsg.obj
 0001:000604b0       ?InterpretUnaryNone_P@@YAXHPAUlocal_var_type@@@Z 004614b0 f   sendmsg.obj
 0001:00060580       ?InterpretUnaryBitNot_L@@YAXHPAUlocal_var_type@@@Z 00461580 f   sendmsg.obj
 0001:000606a0       ?InterpretUnaryBitNot_P@@YAXHPAUlocal_var_type@@@Z 004616a0 f   sendmsg.obj
 0001:000607c0       ?InterpretUnaryPostInc@@YAXHPAUlocal_var_type@@@Z 004617c0 f   sendmsg.obj
 0001:00060940       ?InterpretUnaryPostDec@@YAXHPAUlocal_var_type@@@Z 00461940 f   sendmsg.obj
 0001:00060ac0       ?InterpretUnaryPreInc@@YAXHPAUlocal_var_type@@@Z 00461ac0 f   sendmsg.obj
 0001:00060c40       ?InterpretUnaryPreDec@@YAXHPAUlocal_var_type@@@Z 00461c40 f   sendmsg.obj
 0001:00060dc0       ?InterpretBinaryAdd_L@@YAXHPAUlocal_var_type@@@Z 00461dc0 f   sendmsg.obj
 0001:00060f50       ?InterpretBinaryAdd_P@@YAXHPAUlocal_var_type@@@Z 00461f50 f   sendmsg.obj
 0001:000610e0       ?InterpretBinarySub_L@@YAXHPAUlocal_var_type@@@Z 004620e0 f   sendmsg.obj
 0001:00061270       ?InterpretBinarySub_P@@YAXHPAUlocal_var_type@@@Z 00462270 f   sendmsg.obj
 0001:00061400       ?InterpretBinaryMul_L@@YAXHPAUlocal_var_type@@@Z 00462400 f   sendmsg.obj
 0001:00061590       ?InterpretBinaryMul_P@@YAXHPAUlocal_var_type@@@Z 00462590 f   sendmsg.obj
 0001:00061720       ?InterpretBinaryDiv_L@@YAXHPAUlocal_var_type@@@Z 00462720 f   sendmsg.obj
 0001:000618d0       ?InterpretBinaryDiv_P@@YAXHPAUlocal_var_type@@@Z 004628d0 f   sendmsg.obj
 0001:00061a80       ?InterpretBinaryMod_L@@YAXHPAUlocal_var_type@@@Z 00462a80 f   sendmsg.obj
 0001:00061c40       ?InterpretBinaryMod_P@@YAXHPAUlocal_var_type@@@Z 00462c40 f   sendmsg.obj
 0001:00061e00       ?InterpretBinaryAnd_L@@YAXHPAUlocal_var_type@@@Z 00462e00 f   sendmsg.obj
 0001:00061fb0       ?InterpretBinaryAnd_P@@YAXHPAUlocal_var_type@@@Z 00462fb0 f   sendmsg.obj
 0001:00062160       ?InterpretBinaryOr_L@@YAXHPAUlocal_var_type@@@Z 00463160 f   sendmsg.obj
 0001:00062310       ?InterpretBinaryOr_P@@YAXHPAUlocal_var_type@@@Z 00463310 f   sendmsg.obj
 0001:000624c0       ?InterpretBinaryEqual_L@@YAXHPAUlocal_var_type@@@Z 004634c0 f   sendmsg.obj
 0001:00062640       ?InterpretBinaryEqual_P@@YAXHPAUlocal_var_type@@@Z 00463640 f   sendmsg.obj
 0001:000627c0       ?InterpretBinaryNEq_L@@YAXHPAUlocal_var_type@@@Z 004637c0 f   sendmsg.obj
 0001:00062950       ?InterpretBinaryNEq_P@@YAXHPAUlocal_var_type@@@Z 00463950 f   sendmsg.obj
 0001:00062ae0       ?InterpretBinaryLess_L@@YAXHPAUlocal_var_type@@@Z 00463ae0 f   sendmsg.obj
 0001:00062c80       ?InterpretBinaryLess_P@@YAXHPAUlocal_var_type@@@Z 00463c80 f   sendmsg.obj
 0001:00062e20       ?InterpretBinaryGreater_L@@YAXHPAUlocal_var_type@@@Z 00463e20 f   sendmsg.obj
 0001:00062fc0       ?InterpretBinaryGreater_P@@YAXHPAUlocal_var_type@@@Z 00463fc0 f   sendmsg.obj
 0001:00063160       ?InterpretBinaryLEq_L@@YAXHPAUlocal_var_type@@@Z 00464160 f   sendmsg.obj
 0001:00063300       ?InterpretBinaryLEq_P@@YAXHPAUlocal_var_type@@@Z 00464300 f   sendmsg.obj
 0001:000634a0       ?InterpretBinaryGEq_L@@YAXHPAUlocal_var_type@@@Z 004644a0 f   sendmsg.obj
 0001:00063640       ?InterpretBinaryGEq_P@@YAXHPAUlocal_var_type@@@Z 00464640 f   sendmsg.obj
 0001:000637e0       ?InterpretBinaryBitAnd_L@@YAXHPAUlocal_var_type@@@Z 004647e0 f   sendmsg.obj
 0001:00063970       ?InterpretBinaryBitAnd_P@@YAXHPAUlocal_var_type@@@Z 00464970 f   sendmsg.obj
 0001:00063b00       ?InterpretBinaryBitOr_L@@YAXHPAUlocal_var_type@@@Z 00464b00 f   sendmsg.obj
 0001:00063c90       ?InterpretBinaryBitOr_P@@YAXHPAUlocal_var_type@@@Z 00464c90 f   sendmsg.obj
 0001:00063e20       ?InterpretIsClass_L@@YAXHPAUlocal_var_type@@@Z 00464e20 f   sendmsg.obj
 0001:000640d0       ?InterpretIsClass_P@@YAXHPAUlocal_var_type@@@Z 004650d0 f   sendmsg.obj
 0001:00064380       ?InterpretIsClassConst_L@@YAXHPAUlocal_var_type@@@Z 00465380 f   sendmsg.obj
 0001:000645c0       ?InterpretIsClassConst_P@@YAXHPAUlocal_var_type@@@Z 004655c0 f   sendmsg.obj
 0001:00066660       ?RetrieveClassVar@@YA?ATval_type@@HH@Z 00467660 f i sendmsg.obj
 0001:00066810       ?StoreLocal@@YAXPAUlocal_var_type@@HTval_type@@@Z 00467810 f i sendmsg.obj
 0001:00066870       ?StoreProperty@@YAXHHTval_type@@@Z 00467870 f i sendmsg.obj
 0001:00066920       ?StoreValue@@YAXHPAUlocal_var_type@@HHTval_type@@@Z 00467920 f i sendmsg.obj
 0001:00066a70       ?get_int@@YAIXZ            00467a70 f i sendmsg.obj
 0001:00066aa0       ?InitSession@@YAXXZ        00467aa0 f   session.obj
 0001:00066b80       ?GetEpoch@@YAHXZ           00467b80 f   session.obj
 0001:00066b90       ?NewEpoch@@YAXXZ           00467b90 f   session.obj
 0001:00066bc0       ?GetTransmittedBytes@@YAHXZ 00467bc0 f   session.obj
 0001:00066bd0       ?ResetTransmittedBytes@@YAXXZ 00467bd0 f   session.obj
 0001:00066be0       ?EnterSessionLock@@YAXXZ   00467be0 f   session.obj
 0001:00066c10       ?LeaveSessionLock@@YAXXZ   00467c10 f   session.obj
 0001:00066c40       ?SendBytes@@YAXPAUsession_node@@PADH@Z 00467c40 f   session.obj
 0001:00066dd0       ?InitSessionState@@YAXPAUsession_node@@H@Z 00467dd0 f   session.obj
 0001:00066eb0       ?CreateSession@@YAPAUsession_node@@Uconnection_node@@@Z 00467eb0 f   session.obj
 0001:00066f60       ?GetSessionByAccount@@YAPAUsession_node@@PAUaccount_node_struct@@@Z 00467f60 f   session.obj
 0001:00066fd0       ?GetSessionBySocket@@YAPAUsession_node@@I@Z 00467fd0 f   session.obj
 0001:00067070       ?ForEachSession@@YAXP6AXPAUsession_node@@@Z@Z 00468070 f   session.obj
 0001:000670e0       ?GetStateName@@YAPBDPAUsession_node@@@Z 004680e0 f   session.obj
 0001:00067240       ?GetSessionByID@@YAPAUsession_node@@H@Z 00468240 f   session.obj
 0001:00067290       ?SetSessionState@@YAXPAUsession_node@@H@Z 00468290 f   session.obj
 0001:000672d0       ?SetSessionTimer@@YAXPAUsession_node@@H@Z 004682d0 f   session.obj
 0001:000672f0       ?ClearSessionTimer@@YAXPAUsession_node@@@Z 004682f0 f   session.obj
 0001:00067310       ?GetSessionReadBytes@@YAHPAUsession_node@@@Z 00468310 f   session.obj
 0001:00067390       ?ReadSessionBytes@@YADPAUsession_node@@HPAX@Z 00468390 f   session.obj
 0001:00067560       ?PeekSessionBytes@@YADPAUsession_node@@HPAX@Z 00468560 f   session.obj
 0001:00067690       ?SendClientStr@@YAXHPAD@Z  00468690 f   session.obj
 0001:000676c0       ?SendClient@@YAXHPADG@Z    004686c0 f   session.obj
 0001:00067780       ?SendClientBufferList@@YAXHPAUbuffer_struct@@@Z 00468780 f   session.obj
 0001:00067840       ?HangupSessionNow@@YAXPAUsession_node@@@Z 00468840 f   session.obj
 0001:00067890       ?HangupSession@@YAXPAUsession_node@@@Z 00468890 f   session.obj
 0001:000678c0       ?CloseAllSessions@@YAXXZ   004688c0 f   session.obj
 0001:00067920       ?PollSessions@@YAXXZ       00468920 f   session.obj
 0001:000679e0       ?PollSession@@YAXH@Z       004689e0 f   session.obj
 0001:00067af0       ?VerifiedLoginSession@@YAXH@Z 00468af0 f   session.obj
 0001:00067b70       ?AllocateSession@@YAPAUsession_node@@XZ 00468b70 f   session.obj
 0001:00067d70       ?CloseSession@@YAXH@Z      00468d70 f   session.obj
 0001:00067ff0       ?CloseConnection@@YAXUconnection_node@@@Z 00468ff0 f   session.obj
 0001:00068020       ?ProcessSessionTimer@@YAXPAUsession_node@@@Z 00469020 f   session.obj
 0001:000680c0       ?ProcessSessionBuffer@@YAXPAUsession_node@@@Z 004690c0 f   session.obj
 0001:000681a0       ?SendGameClient@@YAXPAUsession_node@@PADGH@Z 004691a0 f   session.obj
 0001:000682e0       ?SendGameClientBufferList@@YAXPAUsession_node@@PAUbuffer_struct@@D@Z 004692e0 f   session.obj
 0001:00068420       ?SendBufferList@@YAXPAUsession_node@@PAUbuffer_struct@@@Z 00469420 f   session.obj
 0001:000685f0       ?SessionAddBufferList@@YAXPAUsession_node@@PAUbuffer_struct@@@Z 004695f0 f   session.obj
 0001:00068710       ?ExitSessionState@@YAXPAUsession_node@@@Z 00469710 f   session.obj
 0001:00068f00       ?GetCRC16BufferList@@YAGPAUbuffer_struct@@@Z 00469f00 f i session.obj
 0001:00068f80       ?InitSprocket@@YAXXZ       00469f80 f   sprocket.obj
 0001:00069210       ?GetParseClientTable@@YAPAUclient_table_node@@H@Z 0046a210 f   sprocket.obj
 0001:00069310       ?InitString@@YAXXZ         0046a310 f   string.obj
 0001:00069390       ?ResetString@@YAXXZ        0046a390 f   string.obj
 0001:00069450       ?GetStringsUsed@@YAHXZ     0046a450 f   string.obj
 0001:00069460       ?GetStringByID@@YAPAUstring_node@@H@Z 0046a460 f   string.obj
 0001:000694a0       ?IsStringByID@@YADH@Z      0046a4a0 f   string.obj
 0001:000694c0       ?CreateString@@YAHPBD@Z    0046a4c0 f   string.obj
 0001:000694f0       ?CreateStringWithLen@@YAHPBDH@Z 0046a4f0 f   string.obj
 0001:00069580       ?LoadBlakodString@@YADPAU_iobuf@@HH@Z 0046a580 f   string.obj
 0001:00069630       ?ForEachString@@YAXP6AXPAUstring_node@@H@Z@Z 0046a630 f   string.obj
 0001:00069690       ?FreeString@@YAXH@Z        0046a690 f   string.obj
 0001:00069710       ?MoveStringNode@@YAXHH@Z   0046a710 f   string.obj
 0001:000697f0       ?SetNumStrings@@YAXH@Z     0046a7f0 f   string.obj
 0001:00069800       ?GetNumStrings@@YAHXZ      0046a800 f   string.obj
 0001:00069810       ?SetString@@YAXPAUstring_node@@PADH@Z 0046a810 f   string.obj
 0001:000698a0       ?SetTempString@@YAXPADH@Z  0046a8a0 f   string.obj
 0001:00069910       ?ClearTempString@@YAXXZ    0046a910 f   string.obj
 0001:00069930       ?AppendTempString@@YAXPBDH@Z 0046a930 f   string.obj
 0001:000699b0       ?AppendNumToTempString@@YAXH@Z 0046a9b0 f   string.obj
 0001:00069a50       ?GetTempString@@YAPAUstring_node@@XZ 0046aa50 f   string.obj
 0001:00069a60       ?AllocateString@@YAHXZ     0046aa60 f   string.obj
 0001:00069d30       ?CreateSIHash@@YAPAUsihash_table@@H@Z 0046ad30 f   stringinthash.obj
 0001:00069dc0       ?FreeSIHash@@YAXPAUsihash_table@@@Z 0046adc0 f   stringinthash.obj
 0001:00069ec0       ?SIHashInsert@@YAXPAUsihash_table@@PBDH@Z 0046aec0 f   stringinthash.obj
 0001:00069fc0       ?SIHashFind@@YADPAUsihash_table@@PBDPAH@Z 0046afc0 f   stringinthash.obj
 0001:0006a050       ?SIHashFindByValue@@YAPBDPAUsihash_table@@H@Z 0046b050 f   stringinthash.obj
 0001:0006a1a0       ?SynchedInit@@YAXPAUsession_node@@@Z 0046b1a0 f   synched.obj
 0001:0006a250       ?SynchedExit@@YAXPAUsession_node@@@Z 0046b250 f   synched.obj
 0001:0006a260       ?SynchedProcessSessionTimer@@YAXPAUsession_node@@@Z 0046b260 f   synched.obj
 0001:0006a290       ?SynchedProcessSessionBuffer@@YAXPAUsession_node@@@Z 0046b290 f   synched.obj
 0001:0006a440       ?SendSynchedMessage@@YAXPAUsession_node@@PADD@Z 0046b440 f   synched.obj
 0001:0006a490       ?VerifyLogin@@YAXPAUsession_node@@@Z 0046b490 f   synched.obj
 0001:0006a710       ?SynchedProtocolParse@@YAXPAUsession_node@@PAUclient_msg@@@Z 0046b710 f   synched.obj
 0001:0006aed0       ?SynchedAcceptLogin@@YAXPAUsession_node@@PAD1@Z 0046bed0 f   synched.obj
 0001:0006b2d0       ?SynchedSendGetClient@@YAXPAUsession_node@@@Z 0046c2d0 f   synched.obj
 0001:0006b360       ?SynchedSendClientPatchClassic@@YAXPAUsession_node@@@Z 0046c360 f   synched.obj
 0001:0006b4a0       ?SynchedSendClientPatchOgre@@YAXPAUsession_node@@@Z 0046c4a0 f   synched.obj
 0001:0006b5e0       ?SynchedSendClientPatchOldClassic@@YAXPAUsession_node@@@Z 0046c5e0 f   synched.obj
 0001:0006b700       ?LogUserData@@YAXPAUsession_node@@@Z 0046c700 f   synched.obj
 0001:0006bb30       ?SynchedSendMenuChoice@@YAXPAUsession_node@@@Z 0046cb30 f   synched.obj
 0001:0006bc20       ?SynchedDoMenu@@YAXPAUsession_node@@@Z 0046cc20 f   synched.obj
 0001:0006bc60       ?SynchedGotoGame@@YAXPAUsession_node@@H@Z 0046cc60 f   synched.obj
 0001:0006bf10       ?SynchedSendDLFileInfo@@YAXPADHHH@Z 0046cf10 f   synched.obj
 0001:0006bf60       ?SynchedAddDelFile@@YAXPAD@Z 0046cf60 f   synched.obj
 0001:0006bf90       ?CheckIPAddress@@YAXPAUsession_node@@@Z 0046cf90 f   synched.obj
 0001:0006c7a0       ?CreateBuiltInObjects@@YAXXZ 0046d7a0 f   system.obj
 0001:0006c810       ?GetBuiltInObjectID@@YAHH@Z 0046d810 f   system.obj
 0001:0006c870       ?SetBuiltInObjectID@@YAXHH@Z 0046d870 f   system.obj
 0001:0006c8c0       ?SetBuiltInObjectIDByClass@@YAXHH@Z 0046d8c0 f   system.obj
 0001:0006c910       ?GetSystemObjectID@@YAHXZ  0046d910 f   system.obj
 0001:0006c920       ?SetSystemObjectID@@YAXH@Z 0046d920 f   system.obj
 0001:0006c930       ?GetSettingsObjectID@@YAHXZ 0046d930 f   system.obj
 0001:0006c940       ?SetSettingsObjectID@@YAXH@Z 0046d940 f   system.obj
 0001:0006c950       ?GetRealTimeObjectID@@YAHXZ 0046d950 f   system.obj
 0001:0006c960       ?SetRealTimeObjectID@@YAXH@Z 0046d960 f   system.obj
 0001:0006c970       ?GetEventEngineObjectID@@YAHXZ 0046d970 f   system.obj
 0001:0006c980       ?SetEventEngineObjectID@@YAXH@Z 0046d980 f   system.obj
 0001:0006ca10       ?InitSysTimer@@YAXXZ       0046da10 f   systimer.obj
 0001:0006ca30       ?ResetSysTimer@@YAXXZ      0046da30 f   systimer.obj
 0001:0006cab0       ?CreateSysTimer@@YAXHHH@Z  0046dab0 f   systimer.obj
 0001:0006cb90       ?ProcessSysTimer@@YAXH@Z   0046db90 f   systimer.obj
 0001:0006cc00       ?ForEachSysTimer@@YAXP6AXPAUsystimer_struct@@@Z@Z 0046dc00 f   systimer.obj
 0001:0006cc50       ?DisableSysTimer@@YADH@Z   0046dc50 f   systimer.obj
 0001:0006cc90       ?EnableSysTimer@@YADH@Z    0046dc90 f   systimer.obj
 0001:0006ccd0       ?CreateInitialSysTimers@@YAXXZ 0046dcd0 f   systimer.obj
 0001:0006cd90       ?ProcessOneSysTimer@@YAXPAUsystimer_struct@@@Z 0046dd90 f   systimer.obj
 0001:0006cfe0       ?InitTables@@YAXXZ         0046dfe0 f   table.obj
 0001:0006d020       ?GetTablesUsed@@YAHXZ      0046e020 f   table.obj
 0001:0006d030       ?ResetTables@@YAXXZ        0046e030 f   table.obj
 0001:0006d0c0       ?CreateTable@@YAHH@Z       0046e0c0 f   table.obj
 0001:0006d160       ?GetTableByID@@YAPAUtable_struct@@H@Z 0046e160 f   table.obj
 0001:0006d1a0       ?DeleteTable@@YAXH@Z       0046e1a0 f   table.obj
 0001:0006d2a0       ?InsertTable@@YAXHTval_type@@0@Z 0046e2a0 f   table.obj
 0001:0006d3d0       ?GetTableEntry@@YAHHTval_type@@@Z 0046e3d0 f   table.obj
 0001:0006d480       ?DeleteTableEntry@@YAXHTval_type@@@Z 0046e480 f   table.obj
 0001:0006d660       ?GetBufferHash@@YAIPBDI@Z  0046e660 f   table.obj
 0001:0006d700       ?ForEachTable@@YAXP6AXPAUtable_struct@@H@Z@Z 0046e700 f   table.obj
 0001:0006d760       ?MoveTable@@YAXHH@Z        0046e760 f   table.obj
 0001:0006d810       ?SetNumTables@@YAXH@Z      0046e810 f   table.obj
 0001:0006d820       ?AllocateTable@@YAHXZ      0046e820 f   table.obj
 0001:0006d910       ?AllocateTableEntry@@YAPAUhash_struct@@Tval_type@@0@Z 0046e910 f   table.obj
 0001:0006d960       ?ResizeTable@@YAXH@Z       0046e960 f   table.obj
 0001:0006dad0       ?EqualTableEntry@@YADTval_type@@0@Z 0046ead0 f   table.obj
 0001:0006de60       ?GetTableHash@@YAITval_type@@@Z 0046ee60 f   table.obj
 0001:0006e430       ?cprintf@@YAXHPBDZZ        0046f430 f   term.obj
 0001:0006e4f0       ?TermConvertBuffer@@YAXPADH@Z 0046f4f0 f   term.obj
 0001:0006e5e0       ?GetTagName@@YAPBDTval_type@@@Z 0046f5e0 f   term.obj
 0001:0006e710       ?GetDataName@@YAPBDTval_type@@@Z 0046f710 f   term.obj
 0001:0006e8e0       ?GetTagNum@@YAHPBD@Z       0046f8e0 f   term.obj
 0001:0006eab0       ?GetDataNum@@YAHHPBD@Z     0046fab0 f   term.obj
 0001:0006ee30       ?WaitForAnyMessageWithTimeout@@YA_N_J@Z 0046fe30 f   thdmsgqueue_windows.obj
 0001:0006ee80       ?MessagePeek@@YAHPAUtagMSG@@PAUHWND__@@III@Z 0046fe80 f   thdmsgqueue_windows.obj
 0001:0006eec0       ?MessagePost@@YAHKIIJ@Z    0046fec0 f   thdmsgqueue_windows.obj
 0001:0006ef60       ?InitTime@@YAXXZ           0046ff60 f   time.obj
 0001:0006ef70       ?GetTime@@YAHXZ            0046ff70 f   time.obj
 0001:0006ef90       ?GetTimeZoneOffset@@YAHXZ  0046ff90 f   time.obj
 0001:0006f050       ?TimeStr@@YAPBD_J@Z        00470050 f   time.obj
 0001:0006f0e0       ?ShortTimeStr@@YAPBD_J@Z   004700e0 f   time.obj
 0001:0006f160       ?FileTimeStr@@YAPBD_J@Z    00470160 f   time.obj
 0001:0006f1c0       ?RelativeTimeStr@@YAPBDH@Z 004701c0 f   time.obj
 0001:0006f390       ?GetMilliCount@@YA_KXZ     00470390 f   time.obj
 0001:0006f460       ?GetMicroCountDouble@@YANXZ 00470460 f   time.obj
 0001:0006f6e0       ?TimerHeapCheck@@YA_NHH@Z  004706e0 f   timer.obj
 0001:0006f820       ?InitTimer@@YAXXZ          00470820 f   timer.obj
 0001:0006f8d0       ?ResetTimer@@YAXXZ         004708d0 f   timer.obj
 0001:0006f8f0       ?ClearTimer@@YAXXZ         004708f0 f   timer.obj
 0001:0006f910       ?PauseTimers@@YAXXZ        00470910 f   timer.obj
 0001:0006f950       ?UnpauseTimers@@YAXXZ      00470950 f   timer.obj
 0001:0006fa00       ?CreateTimer@@YAHHHH@Z     00470a00 f   timer.obj
 0001:0006faa0       ?LoadTimer@@YADHHPADH@Z    00470aa0 f   timer.obj
 0001:0006fbb0       ?DeleteTimer@@YADH@Z       00470bb0 f   timer.obj
 0001:0006fc10       ?ServiceTimers@@YAXXZ      00470c10 f   timer.obj
 0001:0006fe60       ?GetTimerByID@@YAPAUtimer_struct@@H@Z 00470e60 f   timer.obj
 0001:0006fec0       ?ForEachTimer@@YAXP6AXPAUtimer_struct@@@Z@Z 00470ec0 f   timer.obj
 0001:0006ff20       ?ForEachTimerMatchingMsgID@@YAXP6AXPAUtimer_struct@@@ZH@Z 00470f20 f   timer.obj
 0001:0006ffa0       ?ForEachTimerMatchingObjID@@YAXP6AXPAUtimer_struct@@@ZH@Z 00470fa0 f   timer.obj
 0001:00070020       ?SetNumTimers@@YAXH@Z      00471020 f   timer.obj
 0001:00070030       ?InMainLoop@@YADXZ         00471030 f   timer.obj
 0001:00070040       ?GetNumActiveTimers@@YAHXZ 00471040 f   timer.obj
 0001:00070050       ?ReallocTimerNodes@@YAXXZ  00471050 f   timer.obj
 0001:00070110       ?ResetLastMessageTimes@@YAXPAUsession_node@@@Z 00471110 f   timer.obj
 0001:000702b0       ?TimerHeapRemove@@YAXH@Z   004712b0 f   timer.obj
 0001:00070310       ?TimerActivate@@YAXXZ      00471310 f   timer.obj
 0001:000707f0       ?TimerAddNode@@YAXPAUtimer_struct@@@Z 004717f0 f i timer.obj
 0001:00070950       ?TimerHeapHeapify@@YAXH@Z  00471950 f i timer.obj
 0001:00070b40       ?TrySyncInit@@YAXPAUsession_node@@@Z 00471b40 f   trysync.obj
 0001:00070b90       ?TrySyncExit@@YAXPAUsession_node@@@Z 00471b90 f   trysync.obj
 0001:00070ba0       ?TrySyncProcessSessionTimer@@YAXPAUsession_node@@@Z 00471ba0 f   trysync.obj
 0001:00070bd0       ?TrySyncProcessSessionBuffer@@YAXPAUsession_node@@@Z 00471bd0 f   trysync.obj
 0001:00070c70       ?TrySyncInputChar@@YAXPAUsession_node@@D@Z 00471c70 f   trysync.obj
 0001:00070d50       ?InitUser@@YAXXZ           00471d50 f   user.obj
 0001:00070d60       ?ResetUser@@YAXXZ          00471d60 f   user.obj
 0001:00070d80       ?ClearUser@@YAXXZ          00471d80 f   user.obj
 0001:00070e10       ?CreateNewUser@@YAPAUuser_struct@@HH@Z 00471e10 f   user.obj
 0001:00071020       ?CreateUseronAccount@@YAXPAUaccount_node_struct@@@Z 00472020 f   user.obj
 0001:00071040       ?AssociateUser@@YADHH@Z    00472040 f   user.obj
 0001:000710d0       ?LoadUser@@YAXHH@Z         004720d0 f   user.obj
 0001:000710f0       ?ChangeUserObjectID@@YAXHH@Z 004720f0 f   user.obj
 0001:00071130       ?DeleteUserByAccountID@@YAHH@Z 00472130 f   user.obj
 0001:00071250       ?DeleteUserByObjectID@@YAHH@Z 00472250 f   user.obj
 0001:00071370       ?CountUserByAccountID@@YAHH@Z 00472370 f   user.obj
 0001:000713c0       ?GetUserByObjectID@@YAPAUuser_struct@@H@Z 004723c0 f   user.obj
 0001:00071400       ?ForEachUser@@YAXP6AXPAUuser_struct@@@Z@Z 00472400 f   user.obj
 0001:00071450       ?ForEachUserByAccountID@@YAXP6AXPAUuser_struct@@@ZH@Z 00472450 f   user.obj
 0001:000714b0       ?GetFirstUserByAccountID@@YAPAUuser_struct@@H@Z 004724b0 f   user.obj
 0001:000714f0       ?GetUserByName@@YAPAUuser_struct@@PAD@Z 004724f0 f   user.obj
 0001:00071620       ?ChangeUserAccountID@@YAXHH@Z 00472620 f   user.obj
 0001:00071660       ?CreateNewUserByName@@YAPAUuser_struct@@HHPAD@Z 00472660 f   user.obj
 0001:00071ab0       ?BlakServLongVersionString@@YAPBDXZ 00472ab0 f   version.obj
 0001:00071ac0       ?BlakServNameString@@YAPBDXZ 00472ac0 f   version.obj
 0001:00071ad0       _CreateFontIndirectA@4     00472ad0 f   gdi32:GDI32.dll
 0001:00071ad6       _GetStockObject@4          00472ad6 f   gdi32:GDI32.dll
 0001:00071adc       _PostThreadMessageA@16     00472adc f   user32:USER32.dll
 0001:00071ae2       _GetMessageA@16            00472ae2 f   user32:USER32.dll
 0001:00071ae8       _TranslateMessage@4        00472ae8 f   user32:USER32.dll
 0001:00071aee       _DispatchMessageA@4        00472aee f   user32:USER32.dll
 0001:00071af4       _SendMessageA@16           00472af4 f   user32:USER32.dll
 0001:00071afa       _PostMessageA@16           00472afa f   user32:USER32.dll
 0001:00071b00       _DefWindowProcA@16         00472b00 f   user32:USER32.dll
 0001:00071b06       _PostQuitMessage@4         00472b06 f   user32:USER32.dll
 0001:00071b0c       _CallWindowProcA@20        00472b0c f   user32:USER32.dll
 0001:00071b12       _RegisterClassA@4          00472b12 f   user32:USER32.dll
 0001:00071b18       _CreateWindowExA@48        00472b18 f   user32:USER32.dll
 0001:00071b1e       _DestroyWindow@4           00472b1e f   user32:USER32.dll
 0001:00071b24       _ShowWindow@8              00472b24 f   user32:USER32.dll
 0001:00071b2a       _FlashWindow@8             00472b2a f   user32:USER32.dll
 0001:00071b30       _SetWindowPos@28           00472b30 f   user32:USER32.dll
 0001:00071b36       _CreateDialogParamA@20     00472b36 f   user32:USER32.dll
 0001:00071b3c       _DialogBoxParamA@20        00472b3c f   user32:USER32.dll
 0001:00071b42       _EndDialog@8               00472b42 f   user32:USER32.dll
 0001:00071b48       _GetDlgItem@8              00472b48 f   user32:USER32.dll
 0001:00071b4e       _SetDlgItemInt@16          00472b4e f   user32:USER32.dll
 0001:00071b54       _SetDlgItemTextA@12        00472b54 f   user32:USER32.dll
 0001:00071b5a       _SendDlgItemMessageA@20    00472b5a f   user32:USER32.dll
 0001:00071b60       _SetFocus@4                00472b60 f   user32:USER32.dll
 0001:00071b66       _SetTimer@16               00472b66 f   user32:USER32.dll
 0001:00071b6c       _KillTimer@8               00472b6c f   user32:USER32.dll
 0001:00071b72       _LoadAcceleratorsA@8       00472b72 f   user32:USER32.dll
 0001:00071b78       _DestroyAcceleratorTable@4 00472b78 f   user32:USER32.dll
 0001:00071b7e       _TranslateAcceleratorA@12  00472b7e f   user32:USER32.dll
 0001:00071b84       _GetSystemMetrics@4        00472b84 f   user32:USER32.dll
 0001:00071b8a       _UpdateWindow@4            00472b8a f   user32:USER32.dll
 0001:00071b90       _InvalidateRect@12         00472b90 f   user32:USER32.dll
 0001:00071b96       _SetWindowTextA@8          00472b96 f   user32:USER32.dll
 0001:00071b9c       _GetWindowTextA@12         00472b9c f   user32:USER32.dll
 0001:00071ba2       _GetClientRect@8           00472ba2 f   user32:USER32.dll
 0001:00071ba8       _GetWindowRect@8           00472ba8 f   user32:USER32.dll
 0001:00071bae       _MessageBoxA@16            00472bae f   user32:USER32.dll
 0001:00071bb4       _MessageBeep@4             00472bb4 f   user32:USER32.dll
 0001:00071bba       _OffsetRect@12             00472bba f   user32:USER32.dll
 0001:00071bc0       _SetWindowLongA@12         00472bc0 f   user32:USER32.dll
 0001:00071bc6       _GetDesktopWindow@0        00472bc6 f   user32:USER32.dll
 0001:00071bcc       _LoadIconA@8               00472bcc f   user32:USER32.dll
 0001:00071bd2       _PeekMessageA@20           00472bd2 f   user32:USER32.dll
 0001:00071bd8       _MsgWaitForMultipleObjects@20 00472bd8 f   user32:USER32.dll
 0001:00071bde       _bind@12                   00472bde f   wsock32:WSOCK32.dll
 0001:00071be4       _closesocket@4             00472be4 f   wsock32:WSOCK32.dll
 0001:00071bea       _htons@4                   00472bea f   wsock32:WSOCK32.dll
 0001:00071bf0       _listen@8                  00472bf0 f   wsock32:WSOCK32.dll
 0001:00071bf6       _recv@16                   00472bf6 f   wsock32:WSOCK32.dll
 0001:00071bfc       _send@16                   00472bfc f   wsock32:WSOCK32.dll
 0001:00071c02       _setsockopt@20             00472c02 f   wsock32:WSOCK32.dll
 0001:00071c08       _socket@12                 00472c08 f   wsock32:WSOCK32.dll
 0001:00071c0e       _accept@12                 00472c0e f   wsock32:WSOCK32.dll
 0001:00071c14       _getpeername@12            00472c14 f   wsock32:WSOCK32.dll
 0001:00071c1a       _WSAStartup@8              00472c1a f   wsock32:WSOCK32.dll
 0001:00071c20       _WSACleanup@0              00472c20 f   wsock32:WSOCK32.dll
 0001:00071c26       _WSAAsyncGetHostByAddr@28  00472c26 f   wsock32:WSOCK32.dll
 0001:00071c2c       _WSAAsyncSelect@16         00472c2c f   wsock32:WSOCK32.dll
 0001:00071c32       _PlaySoundA@12             00472c32 f   winmm:WINMM.dll
 0001:00071c38       _InitCommonControls@0      00472c38 f   comctl32:COMCTL32.dll
 0001:00071c3e       _CreateStatusWindowA@16    00472c3e f   comctl32:COMCTL32.dll
 0001:00071c44       _mysql_init@4              00472c44 f   libmysql:LIBMYSQL.dll
 0001:00071c4a       _mysql_real_connect@32     00472c4a f   libmysql:LIBMYSQL.dll
 0001:00071c50       _mysql_query@8             00472c50 f   libmysql:LIBMYSQL.dll
 0001:00071c56       _mysql_ping@4              00472c56 f   libmysql:LIBMYSQL.dll
 0001:00071c5c       _mysql_options@12          00472c5c f   libmysql:LIBMYSQL.dll
 0001:00071c62       _mysql_stmt_init@4         00472c62 f   libmysql:LIBMYSQL.dll
 0001:00071c68       _mysql_stmt_prepare@12     00472c68 f   libmysql:LIBMYSQL.dll
 0001:00071c6e       _mysql_stmt_execute@4      00472c6e f   libmysql:LIBMYSQL.dll
 0001:00071c74       _mysql_stmt_bind_param@8   00472c74 f   libmysql:LIBMYSQL.dll
 0001:00071c7a       _mysql_stmt_close@4        00472c7a f   libmysql:LIBMYSQL.dll
 0001:00071c80       _mysql_close@4             00472c80 f   libmysql:LIBMYSQL.dll
 0001:00071c86       _inet_pton@12              00472c86 f   ws2_32:WS2_32.dll
 0001:00071c8c       _inet_ntop@16              00472c8c f   ws2_32:WS2_32.dll
 0001:00071c92       @_RTC_AllocaHelper@12      00472c92 f   LIBCMT:_stack_.obj
 0001:00071cd0       @_RTC_CheckStackVars2@12   00472cd0 f   LIBCMT:_stack_.obj
 0001:00071dc7       @_RTC_CheckStackVars@8     00472dc7 f   LIBCMT:_stack_.obj
 0001:00071e35       __RTC_CheckEsp             00472e35 f   LIBCMT:_stack_.obj
 0001:00071e6f       __CRT_RTC_INIT             00472e6f f   LIBCMT:_init_.obj
 0001:00071e72       __CRT_RTC_INITW            00472e72 f   LIBCMT:_init_.obj
 0001:00071e75       __RTC_InitBase             00472e75 f   LIBCMT:_init_.obj
 0001:00071e94       __RTC_Shutdown             00472e94 f   LIBCMT:_init_.obj
 0001:00071e95       @__security_check_cookie@4 00472e95 f   LIBCMT:_secchk_.obj
 0001:00071eb0       __chkstk                   00472eb0 f   LIBCMT:chkstk.obj
 0001:00071eb0       __alloca_probe             00472eb0 f   LIBCMT:chkstk.obj
 0001:00071ee8       ___raise_securityfailure   00472ee8 f   LIBCMT:gs_report.obj
 0001:00071f1a       ___report_gsfailure        00472f1a f   LIBCMT:gs_report.obj
 0001:00072053       ___report_rangecheckfailure 00473053 f   LIBCMT:gs_report.obj
 0001:00072062       ___report_securityfailure  00473062 f   LIBCMT:gs_report.obj
 0001:00072166       ___report_securityfailureEx 00473166 f   LIBCMT:gs_report.obj
 0001:000722c1       ??2@YAPAXI@Z               004732c1 f   LIBCMT:new_scalar.obj
 0001:00072300       ??3@YAXPAX@Z               00473300 f   LIBCMT:delete_scalar.obj
 0001:00072305       ??3@YAXPAXI@Z              00473305 f   LIBCMT:delete_scalar_size.obj
 0001:00072421       ?_RTC_AllocaFailure@@YAXPAXPAU_RTC_ALLOCA_NODE@@H@Z 00473421 f   LIBCMT:_error_.obj
 0001:0007256b       ?_RTC_Failure@@YAXPAXH@Z   0047356b f   LIBCMT:_error_.obj
 0001:000725b6       ?_RTC_StackFailure@@YAXPAXPBD@Z 004735b6 f   LIBCMT:_error_.obj
 0001:00072a06       __RTC_UninitUse            00473a06 f   LIBCMT:_error_.obj
 0001:00072b1c       __vsprintf_s_l             00473b1c f i LIBCMT:_error_.obj
 0001:00072b54       _sprintf_s                 00473b54 f i LIBCMT:_error_.obj
 0001:00072b80       __alldiv                   00473b80 f   LIBCMT:lldiv.obj
 0001:00072c60       __allmul                   00473c60 f   LIBCMT:llmul.obj
 0001:00072cb0       __ftoui3                   00473cb0 f   LIBCMT:_ftol3_.obj
 0001:00072cbf       __ftoul3                   00473cbf f   LIBCMT:_ftol3_.obj
 0001:00072cce       __ftol3                    00473cce f   LIBCMT:_ftol3_.obj
 0001:00072cdb       __ftol3_NaN                00473cdb f   LIBCMT:_ftol3_.obj
 0001:00072cf3       __ftol3_work               00473cf3 f   LIBCMT:_ftol3_.obj
 0001:00072d79       __ftol3_common             00473d79 f   LIBCMT:_ftol3_.obj
 0001:00072e3b       __ftol3_arg_error          00473e3b f   LIBCMT:_ftol3_.obj
 0001:00072e4d       __ftol3_except             00473e4d f   LIBCMT:_ftol3_.obj
 0001:00072e91       __dtoui3                   00473e91 f   LIBCMT:_ftol3_.obj
 0001:00072ea0       __dtoul3                   00473ea0 f   LIBCMT:_ftol3_.obj
 0001:00072eaf       __dtol3                    00473eaf f   LIBCMT:_ftol3_.obj
 0001:00072ebc       __dtol3_NaN                00473ebc f   LIBCMT:_ftol3_.obj
 0001:00072ed9       __dtol3_work               00473ed9 f   LIBCMT:_ftol3_.obj
 0001:00072fc0       __ultod3                   00473fc0 f   LIBCMT:_ftol3_.obj
 0001:00073000       __ltod3                    00474000 f   LIBCMT:_ftol3_.obj
 0001:00073110       __aullrem                  00474110 f   LIBCMT:ullrem.obj
 0001:0007345d       ?configure_argv@__scrt_narrow_argv_policy@@SAHXZ 0047445d f i LIBCMT:exe_winmain.obj
 0001:0007346d       ?get_app_type@__scrt_winmain_policy@@SA?AW4_crt_app_type@@XZ 0047446d f i LIBCMT:exe_winmain.obj
 0001:00073499       _WinMainCRTStartup         00474499 f   LIBCMT:exe_winmain.obj
 0001:000734a5       ?_RTC_GetErrorFunc@@YAP6AHHPBDH00ZZPBX@Z 004744a5 f   LIBCMT:_userapi_.obj
 0001:000734ab       ?_RTC_GetErrorFuncW@@YAP6AHHPB_WH00ZZPBX@Z 004744ab f   LIBCMT:_userapi_.obj
 0001:000734b1       __RTC_GetErrDesc           004744b1 f   LIBCMT:_userapi_.obj
 0001:000734cf       __RTC_NumErrors            004744cf f   LIBCMT:_userapi_.obj
 0001:000734d3       __RTC_SetErrorFunc         004744d3 f   LIBCMT:_userapi_.obj
 0001:000734f3       __RTC_SetErrorFuncW        004744f3 f   LIBCMT:_userapi_.obj
 0001:00073513       __RTC_SetErrorType         00474513 f   LIBCMT:_userapi_.obj
 0001:0007353e       ??0bad_alloc@std@@AAE@QBD@Z 0047453e f i LIBCMT:throw_bad_alloc.obj
 0001:00073562       ??0bad_alloc@std@@QAE@ABV01@@Z 00474562 f i LIBCMT:throw_bad_alloc.obj
 0001:00073583       ??0bad_alloc@std@@QAE@XZ   00474583 f i LIBCMT:throw_bad_alloc.obj
 0001:000735a1       ??0bad_array_new_length@std@@QAE@ABV01@@Z 004745a1 f i LIBCMT:throw_bad_alloc.obj
 0001:000735c2       ??0bad_array_new_length@std@@QAE@XZ 004745c2 f i LIBCMT:throw_bad_alloc.obj
 0001:000735e0       ??0exception@std@@QAE@ABV01@@Z 004745e0 f i LIBCMT:throw_bad_alloc.obj
 0001:00073617       ??0exception@std@@QAE@QBDH@Z 00474617 f i LIBCMT:throw_bad_alloc.obj
 0001:0007363b       ??1bad_alloc@std@@UAE@XZ   0047463b f i LIBCMT:throw_bad_alloc.obj
 0001:00073650       ??1bad_array_new_length@std@@UAE@XZ 00474650 f i LIBCMT:throw_bad_alloc.obj
 0001:00073665       ??1exception@std@@UAE@XZ   00474665 f i LIBCMT:throw_bad_alloc.obj
 0001:0007367a       ??_Gbad_alloc@std@@UAEPAXI@Z 0047467a f i LIBCMT:throw_bad_alloc.obj
 0001:0007367a       ??_Ebad_alloc@std@@UAEPAXI@Z 0047467a f i LIBCMT:throw_bad_alloc.obj
 0001:000736b2       ??_Ebad_array_new_length@std@@UAEPAXI@Z 004746b2 f i LIBCMT:throw_bad_alloc.obj
 0001:000736b2       ??_Gbad_array_new_length@std@@UAEPAXI@Z 004746b2 f i LIBCMT:throw_bad_alloc.obj
 0001:000736ea       ??_Eexception@std@@UAEPAXI@Z 004746ea f i LIBCMT:throw_bad_alloc.obj
 0001:000736ea       ??_Gexception@std@@UAEPAXI@Z 004746ea f i LIBCMT:throw_bad_alloc.obj
 0001:00073722       ?__scrt_throw_std_bad_alloc@@YAXXZ 00474722 f   LIBCMT:throw_bad_alloc.obj
 0001:00073746       ?__scrt_throw_std_bad_array_new_length@@YAXXZ 00474746 f   LIBCMT:throw_bad_alloc.obj
 0001:0007376a       ?what@exception@std@@UBEPBDXZ 0047476a f i LIBCMT:throw_bad_alloc.obj
 0001:00073a0f       ?_RTC_GetSrcLine@@YAHPAEPA_WKPAH1K@Z 00474a0f f   LIBCMT:_pdblkup_.obj
 0001:00073e16       @_guard_check_icall@4      00474e16 f i LIBCMT:checkcfg.obj
 0001:00073e20       __SEH_prolog4              00474e20 f   LIBCMT:_sehprolg4_.obj
 0001:00073e66       __SEH_epilog4              00474e66 f   LIBCMT:_sehprolg4_.obj
 0001:00073e91       ??$__crt_fast_decode_pointer@PAP6AXXZ@@YAPAP6AXXZQAP6AXXZ@Z 00474e91 f i LIBCMT:utility.obj
 0001:00073eaa       ??$__crt_fast_encode_pointer@PAP6AXXZ@@YAPAP6AXXZQAP6AXXZ@Z 00474eaa f i LIBCMT:utility.obj
 0001:00073ece       ?__crt_rotate_pointer_value@@YAIIH@Z 00474ece f i LIBCMT:utility.obj
 0001:00073f72       _NtCurrentTeb              00474f72 f i LIBCMT:utility.obj
 0001:00073f79       ___scrt_acquire_startup_lock 00474f79 f   LIBCMT:utility.obj
 0001:00073fbb       ___scrt_dllmain_after_initialize_c 00474fbb f   LIBCMT:utility.obj
 0001:00073ff0       ___scrt_dllmain_before_initialize_c 00474ff0 f   LIBCMT:utility.obj
 0001:00074001       ___scrt_dllmain_crt_thread_attach 00475001 f   LIBCMT:utility.obj
 0001:00074027       ___scrt_dllmain_crt_thread_detach 00475027 f   LIBCMT:utility.obj
 0001:00074037       ___scrt_dllmain_exception_filter 00475037 f   LIBCMT:utility.obj
 0001:00074076       ___scrt_dllmain_uninitialize_c 00475076 f   LIBCMT:utility.obj
 0001:000740a1       ___scrt_dllmain_uninitialize_critical 004750a1 f   LIBCMT:utility.obj
 0001:000740b1       ___scrt_initialize_crt     004750b1 f   LIBCMT:utility.obj
 0001:000740f8       ___scrt_initialize_onexit_tables 004750f8 f   LIBCMT:utility.obj
 0001:000741b4       ___scrt_is_nonwritable_in_current_image 004751b4 f   LIBCMT:utility.obj
 0001:00074260       ___scrt_release_startup_lock 00475260 f   LIBCMT:utility.obj
 0001:00074284       ___scrt_uninitialize_crt   00475284 f   LIBCMT:utility.obj
 0001:000742b6       __onexit                   004752b6 f   LIBCMT:utility.obj
 0001:000742ff       _at_quick_exit             004752ff f   LIBCMT:utility.obj
 0001:0007433c       _atexit                    0047533c f   LIBCMT:utility.obj
 0001:00074356       ___security_init_cookie    00475356 f   LIBCMT:gs_support.obj
 0001:00074419       __matherr                  00475419 f   LIBCMT:matherr.obj
 0001:0007441c       __get_startup_argv_mode    0047541c f   LIBCMT:argv_mode.obj
 0001:00074420       __get_startup_commit_mode  00475420 f   LIBCMT:commit_mode.obj
 0001:00074423       __get_startup_file_mode    00475423 f   LIBCMT:file_mode.obj
 0001:00074429       __get_startup_new_mode     00475429 f   LIBCMT:new_mode.obj
 0001:0007442c       __get_startup_thread_locale_mode 0047542c f   LIBCMT:thread_locale.obj
 0001:0007442f       ?__scrt_initialize_type_info@@YAXXZ 0047542f f   LIBCMT:tncleanup.obj
 0001:0007443e       ?__scrt_uninitialize_type_info@@YAXXZ 0047543e f   LIBCMT:tncleanup.obj
 0001:0007444d       __should_initialize_environment 0047544d f   LIBCMT:env_mode.obj
 0001:00074450       __initialize_default_precision 00475450 f   LIBCMT:default_precision.obj
 0001:00074479       __initialize_invalid_parameter_handler 00475479 f   LIBCMT:invalid_parameter_handler.obj
 0001:0007447a       __initialize_denormal_control 0047547a f   LIBCMT:denormal_control.obj
 0001:0007447b       ___scrt_initialize_default_local_stdio_options 0047547b f   LIBCMT:default_local_stdio_options.obj
 0001:0007449f       ___scrt_is_user_matherr_present 0047549f f   LIBCMT:matherr_detection.obj
 0001:000744ae       ___scrt_get_dyn_tls_init_callback 004754ae f   LIBCMT:dyn_tls_init.obj
 0001:000744b4       ___scrt_get_dyn_tls_dtor_callback 004754b4 f   LIBCMT:dyn_tls_dtor.obj
 0001:000744ba       ___scrt_fastfail           004754ba f   LIBCMT:utility_desktop.obj
 0001:0007461b       ___scrt_get_show_window_mode 0047561b f   LIBCMT:utility_desktop.obj
 0001:0007465a       ___scrt_initialize_winrt   0047565a f   LIBCMT:utility_desktop.obj
 0001:0007465d       ___scrt_is_managed_app     0047565d f   LIBCMT:utility_desktop.obj
 0001:000746b2       ___scrt_set_unhandled_exception_filter 004756b2 f   LIBCMT:utility_desktop.obj
 0001:000746c1       ___scrt_unhandled_exception_filter@4 004756c1 f   LIBCMT:utility_desktop.obj
 0001:00074712       __crt_debugger_hook        00475712 f   LIBCMT:utility_desktop.obj
 0001:0007471c       __RTC_Initialize           0047571c f   LIBCMT:_initsect_.obj
 0001:00074751       __RTC_Terminate            00475751 f   LIBCMT:_initsect_.obj
 0001:00074786       ??1type_info@@UAE@XZ       00475786 f   LIBCMT:std_type_info_static.obj
 0001:0007478d       ??_Etype_info@@UAEPAXI@Z   0047578d f i LIBCMT:std_type_info_static.obj
 0001:0007478d       ??_Gtype_info@@UAEPAXI@Z   0047578d f i LIBCMT:std_type_info_static.obj
 0001:000747b8       @_guard_check_icall_nop@4  004757b8 f i LIBCMT:guard_support.obj
 0001:000747b9       __guard_icall_checks_enforced 004757b9 f i LIBCMT:guard_support.obj
 0001:000747cf       ___isa_available_init      004757cf f   LIBCMT:_cpu_disp_.obj
 0001:000749cf       ___scrt_is_ucrt_dll_in_use 004759cf f   LIBCMT:ucrt_detection.obj
 0001:000749de       ??0bad_function_call@std@@QAE@ABV01@@Z 004759de f i libcpmt:xthrow.obj
 0001:000749ff       ??0bad_function_call@std@@QAE@XZ 004759ff f i libcpmt:xthrow.obj
 0001:00074a14       ??0exception@std@@QAE@QBD@Z 00475a14 f i libcpmt:xthrow.obj
 0001:00074a58       ??0exception@std@@QAE@XZ   00475a58 f i libcpmt:xthrow.obj
 0001:00074a6d       ??0invalid_argument@std@@QAE@ABV01@@Z 00475a6d f i libcpmt:xthrow.obj
 0001:00074a8e       ??0invalid_argument@std@@QAE@PBD@Z 00475a8e f i libcpmt:xthrow.obj
 0001:00074ab7       ??0length_error@std@@QAE@ABV01@@Z 00475ab7 f i libcpmt:xthrow.obj
 0001:00074ad8       ??0length_error@std@@QAE@PBD@Z 00475ad8 f i libcpmt:xthrow.obj
 0001:00074b01       ??0logic_error@std@@QAE@ABV01@@Z 00475b01 f i libcpmt:xthrow.obj
 0001:00074b22       ??0logic_error@std@@QAE@PBD@Z 00475b22 f i libcpmt:xthrow.obj
 0001:00074b4b       ??0out_of_range@std@@QAE@ABV01@@Z 00475b4b f i libcpmt:xthrow.obj
 0001:00074b6c       ??0out_of_range@std@@QAE@PBD@Z 00475b6c f i libcpmt:xthrow.obj
 0001:00074b95       ??0overflow_error@std@@QAE@ABV01@@Z 00475b95 f i libcpmt:xthrow.obj
 0001:00074bb6       ??0overflow_error@std@@QAE@PBD@Z 00475bb6 f i libcpmt:xthrow.obj
 0001:00074bdf       ??0regex_error@std@@QAE@ABV01@@Z 00475bdf f i libcpmt:xthrow.obj
 0001:00074c0c       ??0regex_error@std@@QAE@W4error_type@regex_constants@1@@Z 00475c0c f i libcpmt:xthrow.obj
 0001:00074c48       ??0runtime_error@std@@QAE@ABV01@@Z 00475c48 f i libcpmt:xthrow.obj
 0001:00074c69       ??0runtime_error@std@@QAE@PBD@Z 00475c69 f i libcpmt:xthrow.obj
 0001:00074c92       ??1bad_function_call@std@@UAE@XZ 00475c92 f i libcpmt:xthrow.obj
 0001:00074ca7       ??1invalid_argument@std@@UAE@XZ 00475ca7 f i libcpmt:xthrow.obj
 0001:00074cbc       ??1length_error@std@@UAE@XZ 00475cbc f i libcpmt:xthrow.obj
 0001:00074cd1       ??1logic_error@std@@UAE@XZ 00475cd1 f i libcpmt:xthrow.obj
 0001:00074ce6       ??1out_of_range@std@@UAE@XZ 00475ce6 f i libcpmt:xthrow.obj
 0001:00074cfb       ??1overflow_error@std@@UAE@XZ 00475cfb f i libcpmt:xthrow.obj
 0001:00074d10       ??1regex_error@std@@UAE@XZ 00475d10 f i libcpmt:xthrow.obj
 0001:00074d25       ??1runtime_error@std@@UAE@XZ 00475d25 f i libcpmt:xthrow.obj
 0001:00074d3a       ??_Gbad_function_call@std@@UAEPAXI@Z 00475d3a f i libcpmt:xthrow.obj
 0001:00074d3a       ??_Ebad_function_call@std@@UAEPAXI@Z 00475d3a f i libcpmt:xthrow.obj
 0001:00074d72       ??_Einvalid_argument@std@@UAEPAXI@Z 00475d72 f i libcpmt:xthrow.obj
 0001:00074d72       ??_Ginvalid_argument@std@@UAEPAXI@Z 00475d72 f i libcpmt:xthrow.obj
 0001:00074daa       ??_Elength_error@std@@UAEPAXI@Z 00475daa f i libcpmt:xthrow.obj
 0001:00074daa       ??_Glength_error@std@@UAEPAXI@Z 00475daa f i libcpmt:xthrow.obj
 0001:00074de2       ??_Elogic_error@std@@UAEPAXI@Z 00475de2 f i libcpmt:xthrow.obj
 0001:00074de2       ??_Glogic_error@std@@UAEPAXI@Z 00475de2 f i libcpmt:xthrow.obj
 0001:00074e1a       ??_Gout_of_range@std@@UAEPAXI@Z 00475e1a f i libcpmt:xthrow.obj
 0001:00074e1a       ??_Eout_of_range@std@@UAEPAXI@Z 00475e1a f i libcpmt:xthrow.obj
 0001:00074e52       ??_Eoverflow_error@std@@UAEPAXI@Z 00475e52 f i libcpmt:xthrow.obj
 0001:00074e52       ??_Goverflow_error@std@@UAEPAXI@Z 00475e52 f i libcpmt:xthrow.obj
 0001:00074e8a       ??_Gregex_error@std@@UAEPAXI@Z 00475e8a f i libcpmt:xthrow.obj
 0001:00074e8a       ??_Eregex_error@std@@UAEPAXI@Z 00475e8a f i libcpmt:xthrow.obj
 0001:00074ec2       ??_Eruntime_error@std@@UAEPAXI@Z 00475ec2 f i libcpmt:xthrow.obj
 0001:00074ec2       ??_Gruntime_error@std@@UAEPAXI@Z 00475ec2 f i libcpmt:xthrow.obj
 0001:00074efa       ?_Stringify@regex_error@std@@CAPBDW4error_type@regex_constants@2@@Z 00475efa f i libcpmt:xthrow.obj
 0001:00074fea       ?_Xbad_alloc@std@@YAXXZ    00475fea f   libcpmt:xthrow.obj
 0001:0007500e       ?_Xbad_function_call@std@@YAXXZ 0047600e f   libcpmt:xthrow.obj
 0001:00075032       ?_Xinvalid_argument@std@@YAXPBD@Z 00476032 f   libcpmt:xthrow.obj
 0001:0007505a       ?_Xlength_error@std@@YAXPBD@Z 0047605a f   libcpmt:xthrow.obj
 0001:00075082       ?_Xout_of_range@std@@YAXPBD@Z 00476082 f   libcpmt:xthrow.obj
 0001:000750aa       ?_Xoverflow_error@std@@YAXPBD@Z 004760aa f   libcpmt:xthrow.obj
 0001:000750d2       ?_Xregex_error@std@@YAXW4error_type@regex_constants@1@@Z 004760d2 f   libcpmt:xthrow.obj
 0001:000750fa       ?_Xruntime_error@std@@YAXPBD@Z 004760fa f   libcpmt:xthrow.obj
 0001:00075122       ?what@bad_function_call@std@@UBEPBDXZ 00476122 f i libcpmt:xthrow.obj
 0001:00075128       _GetLastError@0            00476128 f   kernel32:KERNEL32.dll
 0001:0007512e       _InitializeCriticalSection@4 0047612e f   kernel32:KERNEL32.dll
 0001:00075134       _EnterCriticalSection@4    00476134 f   kernel32:KERNEL32.dll
 0001:0007513a       _LeaveCriticalSection@4    0047613a f   kernel32:KERNEL32.dll
 0001:00075140       _CloseHandle@4             00476140 f   kernel32:KERNEL32.dll
 0001:00075146       _ReleaseMutex@4            00476146 f   kernel32:KERNEL32.dll
 0001:0007514c       _WaitForSingleObject@8     0047614c f   kernel32:KERNEL32.dll
 0001:00075152       _CreateMutexA@12           00476152 f   kernel32:KERNEL32.dll
 0001:00075158       _Sleep@4                   00476158 f   kernel32:KERNEL32.dll
 0001:0007515e       _DeleteFileA@4             0047615e f   kernel32:KERNEL32.dll
 0001:00075164       _FindClose@4               00476164 f   kernel32:KERNEL32.dll
 0001:0007516a       _FindFirstFileA@8          0047616a f   kernel32:KERNEL32.dll
 0001:00075170       _FindNextFileA@8           00476170 f   kernel32:KERNEL32.dll
 0001:00075176       _CopyFileA@12              00476176 f   kernel32:KERNEL32.dll
 0001:0007517c       _SetEvent@4                0047617c f   kernel32:KERNEL32.dll
 0001:00075182       _CreateEventA@16           00476182 f   kernel32:KERNEL32.dll
 0001:00075188       _LoadLibraryA@4            00476188 f   kernel32:KERNEL32.dll
 0001:0007518e       _GetCurrentThreadId@0      0047618e f   kernel32:KERNEL32.dll
 0001:00075194       _FormatMessageA@28         00476194 f   kernel32:KERNEL32.dll
 0001:0007519a       _QueryPerformanceCounter@4 0047619a f   kernel32:KERNEL32.dll
 0001:000751a0       _QueryPerformanceFrequency@4 004761a0 f   kernel32:KERNEL32.dll
 0001:000751a6       _GetTimeZoneInformation@4  004761a6 f   kernel32:KERNEL32.dll
 0001:000751ac       _UnhandledExceptionFilter@4 004761ac f   kernel32:KERNEL32.dll
 0001:000751b2       _SetUnhandledExceptionFilter@4 004761b2 f   kernel32:KERNEL32.dll
 0001:000751b8       _GetCurrentProcess@0       004761b8 f   kernel32:KERNEL32.dll
 0001:000751be       _TerminateProcess@8        004761be f   kernel32:KERNEL32.dll
 0001:000751c4       _IsProcessorFeaturePresent@4 004761c4 f   kernel32:KERNEL32.dll
 0001:000751ca       _IsDebuggerPresent@0       004761ca f   kernel32:KERNEL32.dll
 0001:000751d0       _RaiseException@16         004761d0 f   kernel32:KERNEL32.dll
 0001:000751d6       _MultiByteToWideChar@24    004761d6 f   kernel32:KERNEL32.dll
 0001:000751dc       _WideCharToMultiByte@32    004761dc f   kernel32:KERNEL32.dll
 0001:000751e2       _HeapAlloc@12              004761e2 f   kernel32:KERNEL32.dll
 0001:000751e8       _HeapFree@12               004761e8 f   kernel32:KERNEL32.dll
 0001:000751ee       _GetProcessHeap@0          004761ee f   kernel32:KERNEL32.dll
 0001:000751f4       _VirtualQuery@12           004761f4 f   kernel32:KERNEL32.dll
 0001:000751fa       _FreeLibrary@4             004761fa f   kernel32:KERNEL32.dll
 0001:00075200       _GetProcAddress@8          00476200 f   kernel32:KERNEL32.dll
 0001:00075206       _GetCurrentProcessId@0     00476206 f   kernel32:KERNEL32.dll
 0001:0007520c       _GetSystemTimeAsFileTime@4 0047620c f   kernel32:KERNEL32.dll
 0001:00075212       _InitializeSListHead@4     00476212 f   kernel32:KERNEL32.dll
 0001:00075218       _GetStartupInfoW@4         00476218 f   kernel32:KERNEL32.dll
 0001:0007521e       _GetModuleHandleW@4        0047621e f   kernel32:KERNEL32.dll
 0001:00075230       _memcpy                    00476230 f   libvcruntime:memcpy.obj
 0001:00075910       _memset                    00476910 f   libvcruntime:memset.obj
 0001:00075ac0       _strchr                    00476ac0 f   libvcruntime:strchr.obj
 0001:00075b2e       ___from_strstr_to_strchr   00476b2e     libvcruntime:strchr.obj
 0001:00075c40       _strstr                    00476c40 f   libvcruntime:strstr.obj
 0001:0007609e       _memcmp                    0047709e f   libvcruntime:_memcmp_.obj
 0001:00079b90       _memmove                   0047ab90 f   libvcruntime:memmove.obj
 0001:0007a261       __CxxThrowException@8      0047b261 f   libvcruntime:throw.obj
 0001:0007a2ea       ?_CallCatchBlock2@@YAPAXPAUEHRegistrationNode@@PBU_s_FuncInfo@@PAXHK@Z 0047b2ea f   libvcruntime:trnsctrl.obj
 0001:0007a362       ?_CallSETranslator@@YAHPAUEHExceptionRecord@@PAUEHRegistrationNode@@PAX2PBU_s_FuncInfo@@H1@Z 0047b362 f   libvcruntime:trnsctrl.obj
 0001:0007a476       ?_GetRangeOfTrysToCheck@@YAPBU_s_TryBlockMapEntry@@PBU_s_FuncInfo@@HHPAI1@Z 0047b476 f   libvcruntime:trnsctrl.obj
 0001:0007a50c       ?_JumpToContinuation@@YGXPAXPAUEHRegistrationNode@@@Z 0047b50c f   libvcruntime:trnsctrl.obj
 0001:0007a54a       ?_UnwindNestedFrames@@YGXPAUEHRegistrationNode@@PAUEHExceptionRecord@@@Z 0047b54a f   libvcruntime:trnsctrl.obj
 0001:0007a5b4       __CatchGuardHandler        0047b5b4 f   libvcruntime:trnsctrl.obj
 0001:0007a5f1       __CreateFrameInfo          0047b5f1 f   libvcruntime:trnsctrl.obj
 0001:0007a61e       __FindAndUnlinkFrame       0047b61e f   libvcruntime:trnsctrl.obj
 0001:0007a67a       __IsExceptionObjectToBeDestroyed 0047b67a f   libvcruntime:trnsctrl.obj
 0001:0007a6a9       __TranslatorGuardHandler   0047b6a9 f   libvcruntime:trnsctrl.obj
 0001:0007a76f       ___CxxFrameHandler         0047b76f f   libvcruntime:trnsctrl.obj
 0001:0007a7b2       ___CxxFrameHandler2        0047b7b2 f   libvcruntime:trnsctrl.obj
 0001:0007a7f5       ___CxxFrameHandler3        0047b7f5 f   libvcruntime:trnsctrl.obj
 0001:0007a838       ___CxxLongjmpUnwind@4      0047b838 f   libvcruntime:trnsctrl.obj
 0001:0007a870       _strrchr                   0047b870 f   libvcruntime:strrchr.obj
 0001:0007aa40       __except_handler4          0047ba40 f   libvcruntime:_chandler4_.obj
 0001:0007abff       ??$?RD@__crt_public_free_policy@@QBEXQBD@Z 0047bbff f i libvcruntime:std_exception.obj
 0001:0007ac13       ??0?$__crt_unique_heap_ptr@DU__crt_public_free_policy@@@@QAE@QAD@Z 0047bc13 f i libvcruntime:std_exception.obj
 0001:0007ac24       ??1?$__crt_unique_heap_ptr@DU__crt_public_free_policy@@@@QAE@XZ 0047bc24 f i libvcruntime:std_exception.obj
 0001:0007ac38       ??B?$__crt_unique_heap_ptr@DU__crt_public_free_policy@@@@QBE_NXZ 0047bc38 f i libvcruntime:std_exception.obj
 0001:0007ac3f       ?detach@?$__crt_unique_heap_ptr@DU__crt_public_free_policy@@@@QAEPADXZ 0047bc3f f i libvcruntime:std_exception.obj
 0001:0007ac45       ?get@?$__crt_unique_heap_ptr@DU__crt_public_free_policy@@@@QBEPADXZ 0047bc45 f i libvcruntime:std_exception.obj
 0001:0007ac48       ?is_valid@?$__crt_unique_heap_ptr@DU__crt_public_free_policy@@@@QBE_NXZ 0047bc48 f i libvcruntime:std_exception.obj
 0001:0007ac4f       ?release@?$__crt_unique_heap_ptr@DU__crt_public_free_policy@@@@QAEXXZ 0047bc4f f i libvcruntime:std_exception.obj
 0001:0007ac63       ___std_exception_copy      0047bc63 f   libvcruntime:std_exception.obj
 0001:0007acde       ___std_exception_destroy   0047bcde f   libvcruntime:std_exception.obj
 0001:0007ad04       ___vcrt_GetModuleFileNameW 0047bd04 f   libvcruntime:winapi_thunks.obj
 0001:0007ad1d       ___vcrt_GetModuleHandleW   0047bd1d f   libvcruntime:winapi_thunks.obj
 0001:0007ad2e       ___vcrt_LoadLibraryExW     0047bd2e f   libvcruntime:winapi_thunks.obj
 0001:0007ad47       ___vcrt_initialize         0047bd47 f   libvcruntime:initialization.obj
 0001:0007ad7a       ___vcrt_thread_attach      0047bd7a f   libvcruntime:initialization.obj
 0001:0007ad87       ___vcrt_thread_detach      0047bd87 f   libvcruntime:initialization.obj
 0001:0007ad94       ___vcrt_uninitialize       0047bd94 f   libvcruntime:initialization.obj
 0001:0007adba       ___vcrt_uninitialize_critical 0047bdba f   libvcruntime:initialization.obj
 0001:0007add5       ??$?RD@__crt_internal_free_policy@@QBEXQBD@Z 0047bdd5 f i libvcruntime:std_type_info.obj
 0001:0007ade9       ??$?RX@__crt_internal_free_policy@@QBEXQBX@Z 0047bde9 f i libvcruntime:std_type_info.obj
 0001:0007adfd       ??$__crt_interlocked_compare_exchange_pointer@$$CBD$$T$$T@@YAPBDPDSBD$$T1@Z 0047bdfd f i libvcruntime:std_type_info.obj
 0001:0007ae13       ??$__crt_interlocked_compare_exchange_pointer@$$CBDPAD$$T@@YAPBDPDSBDQAD$$T@Z 0047be13 f i libvcruntime:std_type_info.obj
 0001:0007ae29       ??$__crt_interlocked_read_pointer@$$CBD@@YAPBDPDSBD@Z 0047be29 f i libvcruntime:std_type_info.obj
 0001:0007ae3d       ??0?$__crt_unique_heap_ptr@DU__crt_internal_free_policy@@@@QAE@QAD@Z 0047be3d f i libvcruntime:std_type_info.obj
 0001:0007ae4e       ??0?$__crt_unique_heap_ptr@XU__crt_internal_free_policy@@@@QAE@QAX@Z 0047be4e f i libvcruntime:std_type_info.obj
 0001:0007ae5f       ??1?$__crt_unique_heap_ptr@DU__crt_internal_free_policy@@@@QAE@XZ 0047be5f f i libvcruntime:std_type_info.obj
 0001:0007ae73       ??1?$__crt_unique_heap_ptr@XU__crt_internal_free_policy@@@@QAE@XZ 0047be73 f i libvcruntime:std_type_info.obj
 0001:0007ae93       ??B?$__crt_unique_heap_ptr@DU__crt_internal_free_policy@@@@QBE_NXZ 0047be93 f i libvcruntime:std_type_info.obj
 0001:0007ae9a       ??B?$__crt_unique_heap_ptr@XU__crt_internal_free_policy@@@@QBE_NXZ 0047be9a f i libvcruntime:std_type_info.obj
 0001:0007aec9       ?detach@?$__crt_unique_heap_ptr@XU__crt_internal_free_policy@@@@QAEPAXXZ 0047bec9 f i libvcruntime:std_type_info.obj
 0001:0007aecf       ?get@?$__crt_unique_heap_ptr@DU__crt_internal_free_policy@@@@QBEPADXZ 0047becf f i libvcruntime:std_type_info.obj
 0001:0007aed2       ?get@?$__crt_unique_heap_ptr@XU__crt_internal_free_policy@@@@QBEPAXXZ 0047bed2 f i libvcruntime:std_type_info.obj
 0001:0007aed5       ?is_valid@?$__crt_unique_heap_ptr@DU__crt_internal_free_policy@@@@QBE_NXZ 0047bed5 f i libvcruntime:std_type_info.obj
 0001:0007aedc       ?is_valid@?$__crt_unique_heap_ptr@XU__crt_internal_free_policy@@@@QBE_NXZ 0047bedc f i libvcruntime:std_type_info.obj
 0001:0007aee3       ?release@?$__crt_unique_heap_ptr@DU__crt_internal_free_policy@@@@QAEXXZ 0047bee3 f i libvcruntime:std_type_info.obj
 0001:0007aef7       ?release@?$__crt_unique_heap_ptr@XU__crt_internal_free_policy@@@@QAEXXZ 0047bef7 f i libvcruntime:std_type_info.obj
 0001:0007af0b       ___std_type_info_compare   0047bf0b f   libvcruntime:std_type_info.obj
 0001:0007af56       ___std_type_info_destroy_list 0047bf56 f   libvcruntime:std_type_info.obj
 0001:0007af81       ___std_type_info_hash      0047bf81 f   libvcruntime:std_type_info.obj
 0001:0007afb0       ___std_type_info_name      0047bfb0 f   libvcruntime:std_type_info.obj
 0001:0007b0ad       ??$?RU__vcrt_ptd@@@__crt_internal_free_policy@@QBEXQBU__vcrt_ptd@@@Z 0047c0ad f i libvcruntime:per_thread_data.obj
 0001:0007b0c1       ??0?$__crt_unique_heap_ptr@U__vcrt_ptd@@U__crt_internal_free_policy@@@@QAE@QAU__vcrt_ptd@@@Z 0047c0c1 f i libvcruntime:per_thread_data.obj
 0001:0007b0e4       ??1?$__crt_unique_heap_ptr@U__vcrt_ptd@@U__crt_internal_free_policy@@@@QAE@XZ 0047c0e4 f i libvcruntime:per_thread_data.obj
 0001:0007b103       ??B?$__crt_unique_heap_ptr@U__vcrt_ptd@@U__crt_internal_free_policy@@@@QBE_NXZ 0047c103 f i libvcruntime:per_thread_data.obj
 0001:0007b10a       ?detach@?$__crt_unique_heap_ptr@U__vcrt_ptd@@U__crt_internal_free_policy@@@@QAEPAU__vcrt_ptd@@XZ 0047c10a f i libvcruntime:per_thread_data.obj
 0001:0007b110       ?get@?$__crt_unique_heap_ptr@U__vcrt_ptd@@U__crt_internal_free_policy@@@@QBEPAU__vcrt_ptd@@XZ 0047c110 f i libvcruntime:per_thread_data.obj
 0001:0007b113       ?is_valid@?$__crt_unique_heap_ptr@U__vcrt_ptd@@U__crt_internal_free_policy@@@@QBE_NXZ 0047c113 f i libvcruntime:per_thread_data.obj
 0001:0007b11a       ?release@?$__crt_unique_heap_ptr@U__vcrt_ptd@@U__crt_internal_free_policy@@@@QAEXXZ 0047c11a f i libvcruntime:per_thread_data.obj
 0001:0007b14e       ___vcrt_freefls@4          0047c14e f   libvcruntime:per_thread_data.obj
 0001:0007b171       ___vcrt_freeptd            0047c171 f   libvcruntime:per_thread_data.obj
 0001:0007b1b4       ___vcrt_getptd             0047c1b4 f   libvcruntime:per_thread_data.obj
 0001:0007b1c5       ___vcrt_getptd_noexit      0047c1c5 f   libvcruntime:per_thread_data.obj
 0001:0007b27b       ___vcrt_initialize_ptd     0047c27b f   libvcruntime:per_thread_data.obj
 0001:0007b2ba       ___vcrt_uninitialize_ptd   0047c2ba f   libvcruntime:per_thread_data.obj
 0001:0007b2e0       __CallSettingFrame@12      0047c2e0 f   libvcruntime:lowhelpr.obj
 0001:0007b307       __NLG_Return               0047c307     libvcruntime:lowhelpr.obj
 0001:0007b33f       ___DestructExceptionObject 0047c33f f   libvcruntime:frame.obj
 0001:0007b3f8       ??0bad_exception@std@@QAE@ABV01@@Z 0047c3f8 f i libvcruntime:frame.obj
 0001:0007b419       ??0bad_exception@std@@QAE@XZ 0047c419 f i libvcruntime:frame.obj
 0001:0007b437       ??1bad_exception@std@@UAE@XZ 0047c437 f i libvcruntime:frame.obj
 0001:0007b44c       ??8type_info@@QBE_NABV0@@Z 0047c44c f i libvcruntime:frame.obj
 0001:0007b471       ??_Ebad_exception@std@@UAEPAXI@Z 0047c471 f i libvcruntime:frame.obj
 0001:0007b471       ??_Gbad_exception@std@@UAEPAXI@Z 0047c471 f i libvcruntime:frame.obj
 0001:0007bec5       ?_CallMemberFunction0@@YGXQAX0@Z 0047cec5 f i libvcruntime:frame.obj
 0001:0007becc       ?_CallMemberFunction1@@YGXQAX00@Z 0047cecc f i libvcruntime:frame.obj
 0001:0007bed3       ?_CallMemberFunction2@@YGXQAX00H@Z 0047ced3 f i libvcruntime:frame.obj
 0001:0007beda       ?_ValidateExecute@@YA_NP6GHXZ@Z 0047ceda f i libvcruntime:frame.obj
 0001:0007bee9       ?_ValidateRead@@YA_NPBXI@Z 0047cee9 f i libvcruntime:frame.obj
 0001:0007bef8       ?_ValidateWrite@@YA_NPAXI@Z 0047cef8 f i libvcruntime:frame.obj
 0001:0007bf07       ?raw_name@type_info@@QBEPBDXZ 0047cf07 f i libvcruntime:frame.obj
 0001:0007bf0b       __SetWinRTOutOfMemoryExceptionCallback 0047cf0b f   libvcruntime:frame.obj
 0001:0007bf1b       ___AdjustPointer           0047cf1b f   libvcruntime:frame.obj
 0001:0007bf49       ___BuildCatchObject        0047cf49 f   libvcruntime:frame.obj
 0001:0007bffb       ___BuildCatchObjectHelper  0047cffb f   libvcruntime:frame.obj
 0001:0007c174       ___CxxDetectRethrow        0047d174 f   libvcruntime:frame.obj
 0001:0007c1d3       ___CxxExceptionFilter      0047d1d3 f   libvcruntime:frame.obj
 0001:0007c372       ___CxxQueryExceptionSize   0047d372 f   libvcruntime:frame.obj
 0001:0007c376       ___CxxRegisterExceptionObject 0047d376 f   libvcruntime:frame.obj
 0001:0007c440       ___CxxUnregisterExceptionObject 0047d440 f   libvcruntime:frame.obj
 0001:0007c594       ___FrameUnwindFilter       0047d594 f   libvcruntime:frame.obj
 0001:0007c5ea       ___FrameUnwindToState      0047d5ea f   libvcruntime:frame.obj
 0001:0007c6e4       ___GetPlatformExceptionInfo 0047d6e4 f   libvcruntime:frame.obj
 0001:0007c745       ___InternalCxxFrameHandler 0047d745 f   libvcruntime:frame.obj
 0001:0007c880       ___TypeMatch               0047d880 f   libvcruntime:frame.obj
 0001:0007c931       ___current_exception       0047d931 f   libvcruntime:frame.obj
 0001:0007c93c       ___current_exception_context 0047d93c f   libvcruntime:frame.obj
 0001:0007c947       ___processing_throw        0047d947 f   libvcruntime:frame.obj
 0001:0007c952       ___std_terminate           0047d952 f   libvcruntime:frame.obj
 0001:0007c957       ___uncaught_exception      0047d957 f   libvcruntime:frame.obj
 0001:0007c967       ___uncaught_exceptions     0047d967 f   libvcruntime:frame.obj
 0001:0007c972       __is_exception_typeof      0047d972 f   libvcruntime:frame.obj
 0001:0007ca3f       ___except_validate_context_record 0047da3f f   libvcruntime:jbcxrval.obj
 0001:0007ca40       ___except_validate_jump_buffer 0047da40 f   libvcruntime:jbcxrval.obj
 0001:0007ca50       __local_unwind4            0047da50 f   libvcruntime:_exsup4_.obj
 0001:0007cb26       __seh_longjmp_unwind4@4    0047db26 f   libvcruntime:_exsup4_.obj
 0001:0007cb4e       @_EH4_CallFilterFunc@8     0047db4e f   libvcruntime:_exsup4_.obj
 0001:0007cb65       @_EH4_TransferToHandler@8  0047db65 f   libvcruntime:_exsup4_.obj
 0001:0007cb7e       @_EH4_GlobalUnwind2@8      0047db7e f   libvcruntime:_exsup4_.obj
 0001:0007cb97       @_EH4_LocalUnwind@16       0047db97 f   libvcruntime:_exsup4_.obj
 0001:0007cc05       ___vcrt_initialize_locks   0047dc05 f   libvcruntime:locks.obj
 0001:0007cc50       ___vcrt_lock               0047dc50 f   libvcruntime:locks.obj
 0001:0007cc6a       ___vcrt_uninitialize_locks 0047dc6a f   libvcruntime:locks.obj
 0001:0007cca4       ___vcrt_unlock             0047dca4 f   libvcruntime:locks.obj
 0001:0007ccbe       ??$?BX@__crt_fast_encoded_nullptr_t@@QBEPAXXZ 0047dcbe f i libvcruntime:winapi_downlevel.obj
 0001:0007ccdc       ??$__crt_fast_decode_pointer@PAX@@YAPAXQAX@Z 0047dcdc f i libvcruntime:winapi_downlevel.obj
 0001:0007ccf5       ??$__crt_fast_encode_pointer@PAX@@YAPAXQAX@Z 0047dcf5 f i libvcruntime:winapi_downlevel.obj
 0001:0007cd19       ??$__crt_interlocked_compare_exchange_pointer@UHINSTANCE__@@$$T$$T@@YAPAUHINSTANCE__@@PDSAU0@$$T1@Z 0047dd19 f i libvcruntime:winapi_downlevel.obj
 0001:0007cd2f       ??$__crt_interlocked_compare_exchange_pointer@X$$T$$T@@YAPAXPDSAX$$T1@Z 0047dd2f f i libvcruntime:winapi_downlevel.obj
 0001:0007cd45       ??$__crt_interlocked_exchange_pointer@UHINSTANCE__@@PAU1@@@YAPAUHINSTANCE__@@PDSAU0@QAU0@@Z 0047dd45 f i libvcruntime:winapi_downlevel.obj
 0001:0007cd55       ??$__crt_interlocked_exchange_pointer@UHINSTANCE__@@PAX@@YAPAUHINSTANCE__@@PDSAU0@QAX@Z 0047dd55 f i libvcruntime:winapi_downlevel.obj
 0001:0007cd65       ??$__crt_interlocked_exchange_pointer@XPAX@@YAPAXPDSAXQAX@Z 0047dd65 f i libvcruntime:winapi_downlevel.obj
 0001:0007cd75       ??$__crt_interlocked_read_pointer@UHINSTANCE__@@@@YAPAUHINSTANCE__@@PDSAU0@@Z 0047dd75 f i libvcruntime:winapi_downlevel.obj
 0001:0007cd89       ??$__crt_interlocked_read_pointer@X@@YAPAXPDSAX@Z 0047dd89 f i libvcruntime:winapi_downlevel.obj
 0001:0007cd9d       ?__crt_fast_encode_pointer@@YA?AU__crt_fast_encoded_nullptr_t@@$$T@Z 0047dd9d f i libvcruntime:winapi_downlevel.obj
 0001:0007d0e1       ___vcrt_EventRegister      0047e0e1 f   libvcruntime:winapi_downlevel.obj
 0001:0007d131       ___vcrt_EventSetInformation 0047e131 f   libvcruntime:winapi_downlevel.obj
 0001:0007d184       ___vcrt_EventUnregister    0047e184 f   libvcruntime:winapi_downlevel.obj
 0001:0007d1cc       ___vcrt_EventWriteTransfer 0047e1cc f   libvcruntime:winapi_downlevel.obj
 0001:0007d227       ___vcrt_FlsAlloc           0047e227 f   libvcruntime:winapi_downlevel.obj
 0001:0007d26f       ___vcrt_FlsFree            0047e26f f   libvcruntime:winapi_downlevel.obj
 0001:0007d2b7       ___vcrt_FlsGetValue        0047e2b7 f   libvcruntime:winapi_downlevel.obj
 0001:0007d2ff       ___vcrt_FlsSetValue        0047e2ff f   libvcruntime:winapi_downlevel.obj
 0001:0007d34b       ___vcrt_InitializeCriticalSectionEx 0047e34b f   libvcruntime:winapi_downlevel.obj
 0001:0007d3a2       ___vcrt_initialize_winapi_thunks 0047e3a2 f   libvcruntime:winapi_downlevel.obj
 0001:0007d3ea       ___vcrt_uninitialize_winapi_thunks 0047e3ea f   libvcruntime:winapi_downlevel.obj
 0001:0007d428       ??$?B$$A6AXXZ@__crt_fast_encoded_nullptr_t@@QBEP6AXXZXZ 0047e428 f i libvcruntime:purevirt_data.obj
 0001:0007d446       ??$__crt_fast_encode_pointer@P6AXXZ@@YAP6AXXZQ6AXXZ@Z 0047e446 f i libvcruntime:purevirt_data.obj
 0001:0007d46a       ___vcrt_initialize_pure_virtual_call_handler 0047e46a f   libvcruntime:purevirt_data.obj
 0001:0007d48e       ??0Block@_HeapManager@@QAE@XZ 0047e48e f i libvcruntime:undname.obj
 0001:0007d494       ??0DName@@QAE@AAPBDD@Z     0047e494 f   libvcruntime:undname.obj
 0001:0007d57b       ??0DName@@QAE@ABV0@@Z      0047e57b f i libvcruntime:undname.obj
 0001:0007d596       ??0DName@@QAE@D@Z          0047e596 f   libvcruntime:undname.obj
 0001:0007d5cd       ??0DName@@QAE@PAV0@@Z      0047e5cd f   libvcruntime:undname.obj
 0001:0007d62d       ??0DName@@QAE@PBD@Z        0047e62d f   libvcruntime:undname.obj
 0001:0007d675       ??0DName@@QAE@W4DNameStatus@@@Z 0047e675 f   libvcruntime:undname.obj
 0001:0007d6c8       ??0DName@@QAE@XZ           0047e6c8 f i libvcruntime:undname.obj
 0001:0007d6dd       ??0DName@@QAE@_J@Z         0047e6dd f   libvcruntime:undname.obj
 0001:0007d797       ??0DName@@QAE@_K@Z         0047e797 f   libvcruntime:undname.obj
 0001:0007d821       ??0DNameNode@@IAE@XZ       0047e821 f   libvcruntime:undname.obj
 0001:0007d82c       ??0DNameStatusNode@@AAE@W4DNameStatus@@@Z 0047e82c f   libvcruntime:undname.obj
 0001:0007d857       ??0Replicator@@QAE@XZ      0047e857 f i libvcruntime:undname.obj
 0001:0007d85d       ??0UnDecorator@@QAE@PADPBDHP6APADJ@ZK@Z 0047e85d f i libvcruntime:undname.obj
 0001:0007d8e0       ??0charNode@@QAE@D@Z       0047e8e0 f   libvcruntime:undname.obj
 0001:0007d8fa       ??0pDNameNode@@QAE@PAVDName@@@Z 0047e8fa f   libvcruntime:undname.obj
 0001:0007d92c       ??0pairNode@@QAE@PAVDNameNode@@0@Z 0047e92c f   libvcruntime:undname.obj
 0001:0007d952       ??0pcharNode@@QAE@PBDH@Z   0047e952 f   libvcruntime:undname.obj
 0001:0007d9c1       ??2@YAPAXIAAV_HeapManager@@H@Z 0047e9c1 f i libvcruntime:undname.obj
 0001:0007d9db       ??4DName@@QAEAAV0@ABV0@@Z  0047e9db f   libvcruntime:undname.obj
 0001:0007d9f6       ??4DName@@QAEAAV0@D@Z      0047e9f6 f i libvcruntime:undname.obj
 0001:0007da2d       ??4DName@@QAEAAV0@PAV0@@Z  0047ea2d f   libvcruntime:undname.obj
 0001:0007da88       ??4DName@@QAEAAV0@PBD@Z    0047ea88 f   libvcruntime:undname.obj
 0001:0007dac6       ??4DName@@QAEAAV0@W4DNameStatus@@@Z 0047eac6 f   libvcruntime:undname.obj
 0001:0007db08       ??AReplicator@@QBE?AVDName@@H@Z 0047eb08 f   libvcruntime:undname.obj
 0001:0007db53       ??BUnDecorator@@QAEPADXZ   0047eb53 f i libvcruntime:undname.obj
 0001:0007dd2a       ??H@YA?AVDName@@DABV0@@Z   0047ed2a f i libvcruntime:undname.obj
 0001:0007dd57       ??H@YA?AVDName@@PBDABV0@@Z 0047ed57 f i libvcruntime:undname.obj
 0001:0007dd84       ??H@YA?AVDName@@W4DNameStatus@@ABV0@@Z 0047ed84 f i libvcruntime:undname.obj
 0001:0007ddb1       ??HDName@@QBE?AV0@ABV0@@Z  0047edb1 f   libvcruntime:undname.obj
 0001:0007dddb       ??HDName@@QBE?AV0@D@Z      0047eddb f   libvcruntime:undname.obj
 0001:0007de05       ??HDName@@QBE?AV0@PAV0@@Z  0047ee05 f   libvcruntime:undname.obj
 0001:0007de2f       ??HDName@@QBE?AV0@PBD@Z    0047ee2f f   libvcruntime:undname.obj
 0001:0007de59       ??HDName@@QBE?AV0@W4DNameStatus@@@Z 0047ee59 f   libvcruntime:undname.obj
 0001:0007de83       ??YDName@@QAEAAV0@ABV0@@Z  0047ee83 f   libvcruntime:undname.obj
 0001:0007ded6       ??YDName@@QAEAAV0@D@Z      0047eed6 f   libvcruntime:undname.obj
 0001:0007df3a       ??YDName@@QAEAAV0@PAV0@@Z  0047ef3a f   libvcruntime:undname.obj
 0001:0007dfb8       ??YDName@@QAEAAV0@PBD@Z    0047efb8 f   libvcruntime:undname.obj
 0001:0007e031       ??YDName@@QAEAAV0@W4DNameStatus@@@Z 0047f031 f   libvcruntime:undname.obj
 0001:0007e081       ??YReplicator@@QAEAAV0@ABVDName@@@Z 0047f081 f   libvcruntime:undname.obj
 0001:0007e0dd       ??_5DName@@QAEAAV0@ABV0@@Z 0047f0dd f   libvcruntime:undname.obj
 0001:0007e100       ?Constructor@_HeapManager@@QAEXP6APAXI@ZP6AXPAX@Z@Z 0047f100 f i libvcruntime:undname.obj
 0001:0007e124       ?Destructor@_HeapManager@@QAEXXZ 0047f124 f i libvcruntime:undname.obj
 0001:0007e16b       ?UScore@UnDecorator@@SAPBDW4Tokens@@@Z 0047f16b f   libvcruntime:undname.obj
 0001:0007e18f       ?append@DName@@AAEXPAVDNameNode@@@Z 0047f18f f   libvcruntime:undname.obj
 0001:0007e1e6       ?composeDeclaration@UnDecorator@@CA?AVDName@@ABV2@@Z 0047f1e6 f i libvcruntime:undname.obj
 0001:0007f221       ?doAccessSpecifiers@UnDecorator@@SAHXZ 00480221 f i libvcruntime:undname.obj
 0001:0007f232       ?doAllocationLanguage@UnDecorator@@SAHXZ 00480232 f i libvcruntime:undname.obj
 0001:0007f243       ?doAllocationModel@UnDecorator@@SAHXZ 00480243 f i libvcruntime:undname.obj
 0001:0007f254       ?doEcsu@UnDecorator@@SAHXZ 00480254 f i libvcruntime:undname.obj
 0001:0007f265       ?doEllipsis@UnDecorator@@SAHXZ 00480265 f i libvcruntime:undname.obj
 0001:0007f276       ?doFunctionReturns@UnDecorator@@SAHXZ 00480276 f i libvcruntime:undname.obj
 0001:0007f287       ?doMSKeywords@UnDecorator@@SAHXZ 00480287 f i libvcruntime:undname.obj
 0001:0007f297       ?doMemberTypes@UnDecorator@@SAHXZ 00480297 f i libvcruntime:undname.obj
 0001:0007f2a8       ?doNameOnly@UnDecorator@@SAHXZ 004802a8 f i libvcruntime:undname.obj
 0001:0007f2b5       ?doNoIdentCharCheck@UnDecorator@@SAHXZ 004802b5 f i libvcruntime:undname.obj
 0001:0007f2c2       ?doPchar@DName@@AAEXPBDH@Z 004802c2 f   libvcruntime:undname.obj
 0001:0007f36e       ?doPtr64@UnDecorator@@SAHXZ 0048036e f i libvcruntime:undname.obj
 0001:0007f37f       ?doRestrictionSpec@UnDecorator@@SAHXZ 0048037f f i libvcruntime:undname.obj
 0001:0007f390       ?doThisTypes@UnDecorator@@SAHXZ 00480390 f i libvcruntime:undname.obj
 0001:0007f3a6       ?doThrowTypes@UnDecorator@@SAHXZ 004803a6 f i libvcruntime:undname.obj
 0001:0007f3b7       ?doTypeOnly@UnDecorator@@SAHXZ 004803b7 f i libvcruntime:undname.obj
 0001:0007f3c4       ?doUnderScore@UnDecorator@@SAHXZ 004803c4 f i libvcruntime:undname.obj
 0001:0007f3d1       ?getArgumentList@UnDecorator@@CA?AVDName@@XZ 004803d1 f   libvcruntime:undname.obj
 0001:0007f520       ?getArgumentTypes@UnDecorator@@CA?AVDName@@XZ 00480520 f   libvcruntime:undname.obj
 0001:0007f638       ?getArrayType@UnDecorator@@CA?AVDName@@ABV2@@Z 00480638 f i libvcruntime:undname.obj
 0001:0007f8ba       ?getBasedType@UnDecorator@@CA?AVDName@@XZ 004808ba f   libvcruntime:undname.obj
 0001:0007f979       ?getBasicDataType@UnDecorator@@CA?AVDName@@ABV2@@Z 00480979 f   libvcruntime:undname.obj
 0001:0007fe63       ?getCallIndex@UnDecorator@@CA?AVDName@@XZ 00480e63 f i libvcruntime:undname.obj
 0001:0007fe7c       ?getCallingConvention@UnDecorator@@CA?AVDName@@XZ 00480e7c f   libvcruntime:undname.obj
 0001:0007ff6a       ?getDataIndirectType@UnDecorator@@CA?AVDName@@ABV2@PBD0H@Z 00480f6a f   libvcruntime:undname.obj
 0001:00080715       ?getDataIndirectType@UnDecorator@@CA?AVDName@@XZ 00481715 f i libvcruntime:undname.obj
 0001:0008075c       ?getDataType@UnDecorator@@CA?AVDName@@PAV2@@Z 0048175c f   libvcruntime:undname.obj
 0001:00080862       ?getDecoratedName@UnDecorator@@CA?AVDName@@XZ 00481862 f   libvcruntime:undname.obj
 0001:00080b41       ?getDimension@UnDecorator@@CA?AVDName@@_N@Z 00481b41 f   libvcruntime:undname.obj
 0001:00080cc5       ?getDispatchTarget@UnDecorator@@CA?AVDName@@XZ 00481cc5 f   libvcruntime:undname.obj
 0001:00080d36       ?getDisplacement@UnDecorator@@CA?AVDName@@XZ 00481d36 f i libvcruntime:undname.obj
 0001:00080d4f       ?getECSUDataType@UnDecorator@@CA?AVDName@@XZ 00481d4f f   libvcruntime:undname.obj
 0001:00080eb3       ?getECSUName@UnDecorator@@CA?AVDName@@XZ 00481eb3 f i libvcruntime:undname.obj
 0001:00080ec8       ?getEnumType@UnDecorator@@CA?AVDName@@XZ 00481ec8 f i libvcruntime:undname.obj
 0001:00080fef       ?getExtendedDataIndirectType@UnDecorator@@CA?AVDName@@AAPBDAA_NH@Z 00481fef f   libvcruntime:undname.obj
 0001:00081202       ?getExternalDataType@UnDecorator@@CA?AVDName@@ABV2@@Z 00482202 f i libvcruntime:undname.obj
 0001:00081299       ?getFunctionIndirectType@UnDecorator@@CA?AVDName@@ABV2@@Z 00482299 f   libvcruntime:undname.obj
 0001:000817a4       ?getGuardNumber@UnDecorator@@CA?AVDName@@XZ 004827a4 f i libvcruntime:undname.obj
 0001:000817bd       ?getLastChar@DName@@QBEDXZ 004827bd f i libvcruntime:undname.obj
 0001:000817e3       ?getLastChar@DNameStatusNode@@UBEDXZ 004827e3 f i libvcruntime:undname.obj
 0001:000817f2       ?getLastChar@charNode@@UBEDXZ 004827f2 f i libvcruntime:undname.obj
 0001:000817f6       ?getLastChar@pDNameNode@@UBEDXZ 004827f6 f i libvcruntime:undname.obj
 0001:00081807       ?getLastChar@pairNode@@UBEDXZ 00482807 f i libvcruntime:undname.obj
 0001:00081846       ?getLastChar@pcharNode@@UBEDXZ 00482846 f i libvcruntime:undname.obj
 0001:0008185c       ?getLexicalFrame@UnDecorator@@CA?AVDName@@XZ 0048285c f i libvcruntime:undname.obj
 0001:000818a8       ?getMemory@_HeapManager@@QAEPAXIH@Z 004828a8 f   libvcruntime:undname.obj
 0001:00081959       ?getNumberOfDimensions@UnDecorator@@CAHXZ 00482959 f   libvcruntime:undname.obj
 0001:000819d2       ?getOperatorName@UnDecorator@@CA?AVDName@@_NPA_N@Z 004829d2 f i libvcruntime:undname.obj
 0001:00082182       ?getPointerType@UnDecorator@@CA?AVDName@@ABV2@0@Z 00483182 f i libvcruntime:undname.obj
 0001:000821a7       ?getPointerTypeArray@UnDecorator@@CA?AVDName@@ABV2@0@Z 004831a7 f i libvcruntime:undname.obj
 0001:000821cc       ?getPrimaryDataType@UnDecorator@@CA?AVDName@@ABV2@@Z 004831cc f   libvcruntime:undname.obj
 0001:0008243d       ?getPtrRefDataType@UnDecorator@@CA?AVDName@@ABV2@H@Z 0048343d f   libvcruntime:undname.obj
 0001:0008257f       ?getPtrRefType@UnDecorator@@CA?AVDName@@ABV2@0PBD@Z 0048357f f   libvcruntime:undname.obj
 0001:000826ba       ?getReferenceType@UnDecorator@@CA?AVDName@@ABV2@0PBD@Z 004836ba f i libvcruntime:undname.obj
 0001:000826dd       ?getRestrictionSpec@UnDecorator@@CA?AVDName@@XZ 004836dd f   libvcruntime:undname.obj
 0001:0008280b       ?getReturnType@UnDecorator@@CA?AVDName@@PAV2@@Z 0048380b f   libvcruntime:undname.obj
 0001:00082845       ?getScope@UnDecorator@@CA?AVDName@@XZ 00483845 f   libvcruntime:undname.obj
 0001:00082d1a       ?getScopedName@UnDecorator@@CA?AVDName@@XZ 00483d1a f   libvcruntime:undname.obj
 0001:00082e53       ?getSignedDimension@UnDecorator@@CA?AVDName@@XZ 00483e53 f   libvcruntime:undname.obj
 0001:00082eba       ?getStorageConvention@UnDecorator@@CA?AVDName@@XZ 00483eba f i libvcruntime:undname.obj
 0001:00082ecf       ?getString@DName@@QBEPADPAD0@Z 00483ecf f i libvcruntime:undname.obj
 0001:00082f06       ?getString@DName@@QBEPADPADH@Z 00483f06 f i libvcruntime:undname.obj
 0001:00082f71       ?getString@DNameStatusNode@@UBEPADPAD0@Z 00483f71 f i libvcruntime:undname.obj
 0001:00082fa1       ?getString@charNode@@UBEPADPAD0@Z 00483fa1 f i libvcruntime:undname.obj
 0001:00082fbb       ?getString@pDNameNode@@UBEPADPAD0@Z 00483fbb f i libvcruntime:undname.obj
 0001:00082fd7       ?getString@pairNode@@UBEPADPAD0@Z 00483fd7 f i libvcruntime:undname.obj
 0001:0008302c       ?getString@pcharNode@@UBEPADPAD0@Z 0048402c f i libvcruntime:undname.obj
 0001:0008304d       ?getStringEncoding@UnDecorator@@CA?AVDName@@PADH@Z 0048404d f   libvcruntime:undname.obj
 0001:00083118       ?getStringHelper@@YAPADPAD00H@Z 00484118 f i libvcruntime:undname.obj
 0001:0008315c       ?getSymbolName@UnDecorator@@CA?AVDName@@XZ 0048415c f i libvcruntime:undname.obj
 0001:000831b6       ?getTemplateArgumentList@UnDecorator@@CA?AVDName@@XZ 004841b6 f   libvcruntime:undname.obj
 0001:00083503       ?getTemplateConstant@UnDecorator@@CA?AVDName@@XZ 00484503 f   libvcruntime:undname.obj
 0001:00083918       ?getTemplateName@UnDecorator@@CA?AVDName@@_N@Z 00484918 f   libvcruntime:undname.obj
 0001:00083ac3       ?getThisType@UnDecorator@@CA?AVDName@@XZ 00484ac3 f i libvcruntime:undname.obj
 0001:00083b0b       ?getThrowTypes@UnDecorator@@CA?AVDName@@XZ 00484b0b f   libvcruntime:undname.obj
 0001:00083bb7       ?getTypeEncoding@UnDecorator@@CAHXZ 00484bb7 f i libvcruntime:undname.obj
 0001:00083fb3       ?getVCallThunkType@UnDecorator@@CA?AVDName@@XZ 00484fb3 f i libvcruntime:undname.obj
 0001:00083ffc       ?getVbTableType@UnDecorator@@CA?AVDName@@ABV2@@Z 00484ffc f i libvcruntime:undname.obj
 0001:00084016       ?getVdispMapType@UnDecorator@@CA?AVDName@@ABV2@@Z 00485016 f i libvcruntime:undname.obj
 0001:00084081       ?getVfTableType@UnDecorator@@CA?AVDName@@ABV2@@Z 00485081 f i libvcruntime:undname.obj
 0001:0008423f       ?getZName@UnDecorator@@CA?AVDName@@_N0@Z 0048523f f   libvcruntime:undname.obj
 0001:0008450f       ?haveTemplateParameters@UnDecorator@@SAHXZ 0048550f f i libvcruntime:undname.obj
 0001:0008451c       ?isArray@DName@@QBEHXZ     0048551c f i libvcruntime:undname.obj
 0001:00084528       ?isComArray@DName@@QBEHXZ  00485528 f i libvcruntime:undname.obj
 0001:00084534       ?isEmpty@DName@@QBEHXZ     00485534 f i libvcruntime:undname.obj
 0001:0008453e       ?isFull@Replicator@@QBEHXZ 0048553e f i libvcruntime:undname.obj
 0001:00084549       ?isNoTE@DName@@QBEHXZ      00485549 f i libvcruntime:undname.obj
 0001:00084555       ?isPinPtr@DName@@QBEHXZ    00485555 f i libvcruntime:undname.obj
 0001:00084561       ?isPtrRef@DName@@QBEHXZ    00485561 f i libvcruntime:undname.obj
 0001:0008456d       ?isUDC@DName@@QBEHXZ       0048556d f i libvcruntime:undname.obj
 0001:00084582       ?isUDTThunk@DName@@QBEHXZ  00485582 f i libvcruntime:undname.obj
 0001:00084597       ?isVCallThunk@DName@@QBEHXZ 00485597 f i libvcruntime:undname.obj
 0001:000845a3       ?isValid@DName@@QBEHXZ     004855a3 f i libvcruntime:undname.obj
 0001:000845af       ?length@DName@@QBEHXZ      004855af f i libvcruntime:undname.obj
 0001:000845d4       ?length@DNameStatusNode@@UBEHXZ 004855d4 f i libvcruntime:undname.obj
 0001:000845d8       ?length@charNode@@UBEHXZ   004855d8 f i libvcruntime:undname.obj
 0001:000845dc       ?length@pDNameNode@@UBEHXZ 004855dc f i libvcruntime:undname.obj
 0001:000845ed       ?length@pairNode@@UBEHXZ   004855ed f i libvcruntime:undname.obj
 0001:00084649       ?length@pcharNode@@UBEHXZ  00485649 f i libvcruntime:undname.obj
 0001:0008464d       ?make@DNameStatusNode@@SAPAV1@W4DNameStatus@@@Z 0048564d f i libvcruntime:undname.obj
 0001:000846f4       ?setIsArray@DName@@QAEXXZ  004856f4 f i libvcruntime:undname.obj
 0001:000846fe       ?setIsComArray@DName@@QAEXXZ 004856fe f i libvcruntime:undname.obj
 0001:00084708       ?setIsNoTE@DName@@QAEXXZ   00485708 f i libvcruntime:undname.obj
 0001:00084712       ?setIsPinPtr@DName@@QAEXXZ 00485712 f i libvcruntime:undname.obj
 0001:0008471c       ?setIsUDC@DName@@QAEXXZ    0048571c f i libvcruntime:undname.obj
 0001:0008472c       ?setIsVCallThunk@DName@@QAEXXZ 0048572c f i libvcruntime:undname.obj
 0001:00084736       ?setPtrRef@DName@@QAEAAV1@XZ 00485736 f i libvcruntime:undname.obj
 0001:00084742       ?status@DName@@QBE?AW4DNameStatus@@XZ 00485742 f i libvcruntime:undname.obj
 0001:000847c7       ___unDName                 004857c7 f   libvcruntime:undname.obj
 0001:00084881       ___unDNameEx               00485881 f   libvcruntime:undname.obj
 0001:00084940       __global_unwind2           00485940 f   libvcruntime:_exsup_.obj
 0001:000849a5       __local_unwind2            004859a5 f   libvcruntime:_exsup_.obj
 0001:00084a29       __abnormal_termination     00485a29 f   libvcruntime:_exsup_.obj
 0001:00084a4c       __NLG_Notify1              00485a4c f   libvcruntime:_exsup_.obj
 0001:00084a55       __NLG_Notify               00485a55 f   libvcruntime:_exsup_.obj
 0001:00084a6c       __NLG_Dispatch             00485a6c     libvcruntime:_exsup_.obj
 0001:00084a6c       __NLG_Dispatch2            00485a6c     libvcruntime:_exsup_.obj
 0001:00084a74       __NLG_Call                 00485a74 f   libvcruntime:_exsup_.obj
 0001:00084a76       __NLG_Return2              00485a76     libvcruntime:_exsup_.obj
 0001:00084add       __get_unexpected           00485add f   libvcruntime:unexpected.obj
 0001:00084af3       _set_unexpected            00485af3 f   libvcruntime:unexpected.obj
 0001:00084b18       _unexpected                00485b18 f   libvcruntime:unexpected.obj
 0001:00084b3b       ??$__crt_fast_decode_pointer@P6AXXZ@@YAP6AXXZQ6AXXZ@Z 00485b3b f i libvcruntime:purevirt.obj
 0001:00084b54       ??$__crt_interlocked_compare_exchange_pointer@$$A6AXXZ$$T$$T@@YAP6AXXZPDS6AXXZ$$T1@Z 00485b54 f i libvcruntime:purevirt.obj
 0001:00084b6a       ??$__crt_interlocked_exchange_pointer@$$A6AXXZP6AXXZ@@YAP6AXXZPDS6AXXZQ6AXXZ@Z 00485b6a f i libvcruntime:purevirt.obj
 0001:00084b7a       ??$__crt_interlocked_read_pointer@$$A6AXXZ@@YAP6AXXZPDS6AXXZ@Z 00485b7a f i libvcruntime:purevirt.obj
 0001:00084b8e       __get_purecall_handler     00485b8e f   libvcruntime:purevirt.obj
 0001:00084bb4       __purecall                 00485bb4 f   libvcruntime:purevirt.obj
 0001:00084bd5       __set_purecall_handler     00485bd5 f   libvcruntime:purevirt.obj
 0001:00084c03       ??$?0ABV?$stream_output_adapter@D@__crt_stdio_output@@AB_KABQBDABQAU__crt_locale_pointers@@ABQAD@?$format_validation_base@DV?$stream_output_adapter@D@__crt_stdio_output@@@__crt_stdio_output@@IAE@ABV?$stream_output_adapter@D@1@AB_KABQBDABQAU__crt_locale_pointers@@ABQAD@Z 00485c03 f i libucrt:output.obj
 0001:00084c2e       ??$?0ABV?$stream_output_adapter@D@__crt_stdio_output@@AB_KABQBDABQAU__crt_locale_pointers@@ABQAD@?$positional_parameter_base@DV?$stream_output_adapter@D@__crt_stdio_output@@@__crt_stdio_output@@IAE@ABV?$stream_output_adapter@D@1@AB_KABQBDABQAU__crt_locale_pointers@@ABQAD@Z 00485c2e f i libucrt:output.obj
 0001:00084c88       ??$?0ABV?$stream_output_adapter@D@__crt_stdio_output@@AB_KABQBDABQAU__crt_locale_pointers@@ABQAD@?$standard_base@DV?$stream_output_adapter@D@__crt_stdio_output@@@__crt_stdio_output@@IAE@ABV?$stream_output_adapter@D@1@AB_KABQBDABQAU__crt_locale_pointers@@ABQAD@Z 00485c88 f i libucrt:output.obj
 0001:00084cca       ??$?0ABV?$stream_output_adapter@_W@__crt_stdio_output@@AB_KABQB_WABQAU__crt_locale_pointers@@ABQAD@?$format_validation_base@_WV?$stream_output_adapter@_W@__crt_stdio_output@@@__crt_stdio_output@@IAE@ABV?$stream_output_adapter@_W@1@AB_KABQB_WABQAU__crt_locale_pointers@@ABQAD@Z 00485cca f i libucrt:output.obj
 0001:00084cf5       ??$?0ABV?$stream_output_adapter@_W@__crt_stdio_output@@AB_KABQB_WABQAU__crt_locale_pointers@@ABQAD@?$positional_parameter_base@_WV?$stream_output_adapter@_W@__crt_stdio_output@@@__crt_stdio_output@@IAE@ABV?$stream_output_adapter@_W@1@AB_KABQB_WABQAU__crt_locale_pointers@@ABQAD@Z 00485cf5 f i libucrt:output.obj
 0001:00084d4f       ??$?0ABV?$stream_output_adapter@_W@__crt_stdio_output@@AB_KABQB_WABQAU__crt_locale_pointers@@ABQAD@?$standard_base@_WV?$stream_output_adapter@_W@__crt_stdio_output@@@__crt_stdio_output@@IAE@ABV?$stream_output_adapter@_W@1@AB_KABQB_WABQAU__crt_locale_pointers@@ABQAD@Z 00485d4f f i libucrt:output.obj
 0001:00084d91       ??$?0ABV?$string_output_adapter@D@__crt_stdio_output@@AB_KABQBDABQAU__crt_locale_pointers@@ABQAD@?$format_validation_base@DV?$string_output_adapter@D@__crt_stdio_output@@@__crt_stdio_output@@IAE@ABV?$string_output_adapter@D@1@AB_KABQBDABQAU__crt_locale_pointers@@ABQAD@Z 00485d91 f i libucrt:output.obj
 0001:00084dbc       ??$?0ABV?$string_output_adapter@D@__crt_stdio_output@@AB_KABQBDABQAU__crt_locale_pointers@@ABQAD@?$positional_parameter_base@DV?$string_output_adapter@D@__crt_stdio_output@@@__crt_stdio_output@@IAE@ABV?$string_output_adapter@D@1@AB_KABQBDABQAU__crt_locale_pointers@@ABQAD@Z 00485dbc f i libucrt:output.obj
 0001:00084e16       ??$?0ABV?$string_output_adapter@D@__crt_stdio_output@@AB_KABQBDABQAU__crt_locale_pointers@@ABQAD@?$standard_base@DV?$string_output_adapter@D@__crt_stdio_output@@@__crt_stdio_output@@IAE@ABV?$string_output_adapter@D@1@AB_KABQBDABQAU__crt_locale_pointers@@ABQAD@Z 00485e16 f i libucrt:output.obj
 0001:00084e58       ??$?0ABV?$string_output_adapter@_W@__crt_stdio_output@@AB_KABQB_WABQAU__crt_locale_pointers@@ABQAD@?$format_validation_base@_WV?$string_output_adapter@_W@__crt_stdio_output@@@__crt_stdio_output@@IAE@ABV?$string_output_adapter@_W@1@AB_KABQB_WABQAU__crt_locale_pointers@@ABQAD@Z 00485e58 f i libucrt:output.obj
 0001:00084e83       ??$?0ABV?$string_output_adapter@_W@__crt_stdio_output@@AB_KABQB_WABQAU__crt_locale_pointers@@ABQAD@?$positional_parameter_base@_WV?$string_output_adapter@_W@__crt_stdio_output@@@__crt_stdio_output@@IAE@ABV?$string_output_adapter@_W@1@AB_KABQB_WABQAU__crt_locale_pointers@@ABQAD@Z 00485e83 f i libucrt:output.obj
 0001:00084edd       ??$?0ABV?$string_output_adapter@_W@__crt_stdio_output@@AB_KABQB_WABQAU__crt_locale_pointers@@ABQAD@?$standard_base@_WV?$string_output_adapter@_W@__crt_stdio_output@@@__crt_stdio_output@@IAE@ABV?$string_output_adapter@_W@1@AB_KABQB_WABQAU__crt_locale_pointers@@ABQAD@Z 00485edd f i libucrt:output.obj
 0001:00084f1f       ??$?RV<lambda_2293f24e3ce1ad6fe22ccfb9dec07671>@@AAV<lambda_2565fc715a641e539f44ad02d6823606>@@V<lambda_d3217f279b832965d9ca670dc2993570>@@@?$__crt_seh_guarded_call@H@@QAEH$$QAV<lambda_2293f24e3ce1ad6fe22ccfb9dec07671>@@AAV<lambda_2565fc715a641e539f44ad02d6823606>@@$$QAV<lambda_d3217f279b832965d9ca670dc2993570>@@@Z 00485f1f f i libucrt:output.obj
 0001:00084f84       ??$?RV<lambda_4d4ac866be0fa3c441830420fabdd2cb>@@AAV<lambda_63a10c2dc8dbb9e4dd1890be52af7c93>@@V<lambda_002af9fa0f8fe472b648c51882d4fc32>@@@?$__crt_seh_guarded_call@H@@QAEH$$QAV<lambda_4d4ac866be0fa3c441830420fabdd2cb>@@AAV<lambda_63a10c2dc8dbb9e4dd1890be52af7c93>@@$$QAV<lambda_002af9fa0f8fe472b648c51882d4fc32>@@@Z 00485f84 f i libucrt:output.obj
 0001:00084fe9       ??$?RV<lambda_5be909dfbae0a631386585770cd7b676>@@AAV<lambda_e516058a9c289d98c8ca9fea99247804>@@V<lambda_afe2e0cdc5e0ecf6f0d6f5e2f8985e38>@@@?$__crt_seh_guarded_call@H@@QAEH$$QAV<lambda_5be909dfbae0a631386585770cd7b676>@@AAV<lambda_e516058a9c289d98c8ca9fea99247804>@@$$QAV<lambda_afe2e0cdc5e0ecf6f0d6f5e2f8985e38>@@@Z 00485fe9 f i libucrt:output.obj
 0001:0008504e       ??$?RV<lambda_823d65812123d985753d53e2a8c25d20>@@AAV<lambda_0a97c9e57da7be065955385c79108ff2>@@V<lambda_4d2973f3ad2d226f00468307185dca1b>@@@?$__crt_seh_guarded_call@H@@QAEH$$QAV<lambda_823d65812123d985753d53e2a8c25d20>@@AAV<lambda_0a97c9e57da7be065955385c79108ff2>@@$$QAV<lambda_4d2973f3ad2d226f00468307185dca1b>@@@Z 0048604e f i libucrt:output.obj
 0001:000850b3       ??$?RV<lambda_ab9923ffb5d694ec0d78876dd103e44f>@@AAV<lambda_481dd5778c961fbcd3b60b650e9b9dc4>@@V<lambda_7923d86c9e3f319b415918ec4b39749c>@@@?$__crt_seh_guarded_call@H@@QAEH$$QAV<lambda_ab9923ffb5d694ec0d78876dd103e44f>@@AAV<lambda_481dd5778c961fbcd3b60b650e9b9dc4>@@$$QAV<lambda_7923d86c9e3f319b415918ec4b39749c>@@@Z 004860b3 f i libucrt:output.obj
 0001:00085118       ??$?RV<lambda_db08b09ef7aa9d4f8620ce68402612bc>@@AAV<lambda_4f2c1eaeead2a5fc776db5b62ea0fb9b>@@V<lambda_3ae262bc35d4ba6a3825c4f6bcaaf95c>@@@?$__crt_seh_guarded_call@H@@QAEH$$QAV<lambda_db08b09ef7aa9d4f8620ce68402612bc>@@AAV<lambda_4f2c1eaeead2a5fc776db5b62ea0fb9b>@@$$QAV<lambda_3ae262bc35d4ba6a3825c4f6bcaaf95c>@@@Z 00486118 f i libucrt:output.obj
 0001:0008517d       ??$__acrt_lock_stream_and_call@V<lambda_0a97c9e57da7be065955385c79108ff2>@@@@YAHQAU_iobuf@@$$QAV<lambda_0a97c9e57da7be065955385c79108ff2>@@@Z 0048617d f i libucrt:output.obj
 0001:000851af       ??$__acrt_lock_stream_and_call@V<lambda_2565fc715a641e539f44ad02d6823606>@@@@YAHQAU_iobuf@@$$QAV<lambda_2565fc715a641e539f44ad02d6823606>@@@Z 004861af f i libucrt:output.obj
 0001:000851e1       ??$__acrt_lock_stream_and_call@V<lambda_481dd5778c961fbcd3b60b650e9b9dc4>@@@@YAHQAU_iobuf@@$$QAV<lambda_481dd5778c961fbcd3b60b650e9b9dc4>@@@Z 004861e1 f i libucrt:output.obj
 0001:00085213       ??$__acrt_lock_stream_and_call@V<lambda_4f2c1eaeead2a5fc776db5b62ea0fb9b>@@@@YAHQAU_iobuf@@$$QAV<lambda_4f2c1eaeead2a5fc776db5b62ea0fb9b>@@@Z 00486213 f i libucrt:output.obj
 0001:00085245       ??$__acrt_lock_stream_and_call@V<lambda_63a10c2dc8dbb9e4dd1890be52af7c93>@@@@YAHQAU_iobuf@@$$QAV<lambda_63a10c2dc8dbb9e4dd1890be52af7c93>@@@Z 00486245 f i libucrt:output.obj
 0001:00085277       ??$__acrt_lock_stream_and_call@V<lambda_e516058a9c289d98c8ca9fea99247804>@@@@YAHQAU_iobuf@@$$QAV<lambda_e516058a9c289d98c8ca9fea99247804>@@@Z 00486277 f i libucrt:output.obj
 0001:000852a9       ??$__crt_interlocked_read@J@@YAJPDJ@Z 004862a9 f i libucrt:output.obj
 0001:000864f4       ??$count@D@formatting_buffer@__crt_stdio_output@@QBEIXZ 004874f4 f i libucrt:output.obj
 0001:00086512       ??$data@D@formatting_buffer@__crt_stdio_output@@QAEPADXZ 00487512 f i libucrt:output.obj
 0001:00086522       ??$data@_W@formatting_buffer@__crt_stdio_output@@QAEPA_WXZ 00487522 f i libucrt:output.obj
 0001:00086532       ??$ensure_buffer_is_big_enough@D@formatting_buffer@__crt_stdio_output@@QAE_NI@Z 00487532 f i libucrt:output.obj
 0001:000865d9       ??$extract_argument_from_va_list@C_J@?$positional_parameter_base@DV?$stream_output_adapter@D@__crt_stdio_output@@@__crt_stdio_output@@IAE_NAA_J@Z 004875d9 f i libucrt:output.obj
 0001:00086677       ??$extract_argument_from_va_list@C_J@?$positional_parameter_base@DV?$string_output_adapter@D@__crt_stdio_output@@@__crt_stdio_output@@IAE_NAA_J@Z 00487677 f i libucrt:output.obj
 0001:00086715       ??$extract_argument_from_va_list@C_J@?$positional_parameter_base@_WV?$stream_output_adapter@_W@__crt_stdio_output@@@__crt_stdio_output@@IAE_NAA_J@Z 00487715 f i libucrt:output.obj
 0001:000867b3       ??$extract_argument_from_va_list@C_J@?$positional_parameter_base@_WV?$string_output_adapter@_W@__crt_stdio_output@@@__crt_stdio_output@@IAE_NAA_J@Z 004877b3 f i libucrt:output.obj
 0001:00086851       ??$extract_argument_from_va_list@C_J@?$standard_base@DV?$stream_output_adapter@D@__crt_stdio_output@@@__crt_stdio_output@@IAE_NAA_J@Z 00487851 f i libucrt:output.obj
 0001:00086877       ??$extract_argument_from_va_list@C_J@?$standard_base@DV?$string_output_adapter@D@__crt_stdio_output@@@__crt_stdio_output@@IAE_NAA_J@Z 00487877 f i libucrt:output.obj
 0001:0008689d       ??$extract_argument_from_va_list@C_J@?$standard_base@_WV?$stream_output_adapter@_W@__crt_stdio_output@@@__crt_stdio_output@@IAE_NAA_J@Z 0048789d f i libucrt:output.obj
 0001:000868c3       ??$extract_argument_from_va_list@C_J@?$standard_base@_WV?$string_output_adapter@_W@__crt_stdio_output@@@__crt_stdio_output@@IAE_NAA_J@Z 004878c3 f i libucrt:output.obj
 0001:000868e9       ??$extract_argument_from_va_list@E_J@?$positional_parameter_base@DV?$stream_output_adapter@D@__crt_stdio_output@@@__crt_stdio_output@@IAE_NAA_J@Z 004878e9 f i libucrt:output.obj
 0001:00086987       ??$extract_argument_from_va_list@E_J@?$positional_parameter_base@DV?$string_output_adapter@D@__crt_stdio_output@@@__crt_stdio_output@@IAE_NAA_J@Z 00487987 f i libucrt:output.obj
 0001:00086a25       ??$extract_argument_from_va_list@E_J@?$positional_parameter_base@_WV?$stream_output_adapter@_W@__crt_stdio_output@@@__crt_stdio_output@@IAE_NAA_J@Z 00487a25 f i libucrt:output.obj
 0001:00086ac3       ??$extract_argument_from_va_list@E_J@?$positional_parameter_base@_WV?$string_output_adapter@_W@__crt_stdio_output@@@__crt_stdio_output@@IAE_NAA_J@Z 00487ac3 f i libucrt:output.obj
 0001:00086b61       ??$extract_argument_from_va_list@E_J@?$standard_base@DV?$stream_output_adapter@D@__crt_stdio_output@@@__crt_stdio_output@@IAE_NAA_J@Z 00487b61 f i libucrt:output.obj
 0001:00086b87       ??$extract_argument_from_va_list@E_J@?$standard_base@DV?$string_output_adapter@D@__crt_stdio_output@@@__crt_stdio_output@@IAE_NAA_J@Z 00487b87 f i libucrt:output.obj
 0001:00086bad       ??$extract_argument_from_va_list@E_J@?$standard_base@_WV?$stream_output_adapter@_W@__crt_stdio_output@@@__crt_stdio_output@@IAE_NAA_J@Z 00487bad f i libucrt:output.obj
 0001:00086bd3       ??$extract_argument_from_va_list@E_J@?$standard_base@_WV?$string_output_adapter@_W@__crt_stdio_output@@@__crt_stdio_output@@IAE_NAA_J@Z 00487bd3 f i libucrt:output.obj
 0001:00086bf9       ??$extract_argument_from_va_list@F_J@?$positional_parameter_base@DV?$stream_output_adapter@D@__crt_stdio_output@@@__crt_stdio_output@@IAE_NAA_J@Z 00487bf9 f i libucrt:output.obj
 0001:00086c97       ??$extract_argument_from_va_list@F_J@?$positional_parameter_base@DV?$string_output_adapter@D@__crt_stdio_output@@@__crt_stdio_output@@IAE_NAA_J@Z 00487c97 f i libucrt:output.obj
 0001:00086d35       ??$extract_argument_from_va_list@F_J@?$positional_parameter_base@_WV?$stream_output_adapter@_W@__crt_stdio_output@@@__crt_stdio_output@@IAE_NAA_J@Z 00487d35 f i libucrt:output.obj
 0001:00086dd3       ??$extract_argument_from_va_list@F_J@?$positional_parameter_base@_WV?$string_output_adapter@_W@__crt_stdio_output@@@__crt_stdio_output@@IAE_NAA_J@Z 00487dd3 f i libucrt:output.obj
 0001:00086e71       ??$extract_argument_from_va_list@F_J@?$standard_base@DV?$stream_output_adapter@D@__crt_stdio_output@@@__crt_stdio_output@@IAE_NAA_J@Z 00487e71 f i libucrt:output.obj
 0001:00086e97       ??$extract_argument_from_va_list@F_J@?$standard_base@DV?$string_output_adapter@D@__crt_stdio_output@@@__crt_stdio_output@@IAE_NAA_J@Z 00487e97 f i libucrt:output.obj
 0001:00086ebd       ??$extract_argument_from_va_list@F_J@?$standard_base@_WV?$stream_output_adapter@_W@__crt_stdio_output@@@__crt_stdio_output@@IAE_NAA_J@Z 00487ebd f i libucrt:output.obj
 0001:00086ee3       ??$extract_argument_from_va_list@F_J@?$standard_base@_WV?$string_output_adapter@_W@__crt_stdio_output@@@__crt_stdio_output@@IAE_NAA_J@Z 00487ee3 f i libucrt:output.obj
 0001:00086f09       ??$extract_argument_from_va_list@GD@?$positional_parameter_base@DV?$stream_output_adapter@D@__crt_stdio_output@@@__crt_stdio_output@@IAE_NAAD@Z 00487f09 f i libucrt:output.obj
 0001:00086fa6       ??$extract_argument_from_va_list@GD@?$positional_parameter_base@DV?$string_output_adapter@D@__crt_stdio_output@@@__crt_stdio_output@@IAE_NAAD@Z 00487fa6 f i libucrt:output.obj
 0001:00087043       ??$extract_argument_from_va_list@GD@?$standard_base@DV?$stream_output_adapter@D@__crt_stdio_output@@@__crt_stdio_output@@IAE_NAAD@Z 00488043 f i libucrt:output.obj
 0001:00087063       ??$extract_argument_from_va_list@GD@?$standard_base@DV?$string_output_adapter@D@__crt_stdio_output@@@__crt_stdio_output@@IAE_NAAD@Z 00488063 f i libucrt:output.obj
 0001:00087083       ??$extract_argument_from_va_list@G_J@?$positional_parameter_base@DV?$stream_output_adapter@D@__crt_stdio_output@@@__crt_stdio_output@@IAE_NAA_J@Z 00488083 f i libucrt:output.obj
 0001:00087121       ??$extract_argument_from_va_list@G_J@?$positional_parameter_base@DV?$string_output_adapter@D@__crt_stdio_output@@@__crt_stdio_output@@IAE_NAA_J@Z 00488121 f i libucrt:output.obj
 0001:000871bf       ??$extract_argument_from_va_list@G_J@?$positional_parameter_base@_WV?$stream_output_adapter@_W@__crt_stdio_output@@@__crt_stdio_output@@IAE_NAA_J@Z 004881bf f i libucrt:output.obj
 0001:0008725d       ??$extract_argument_from_va_list@G_J@?$positional_parameter_base@_WV?$string_output_adapter@_W@__crt_stdio_output@@@__crt_stdio_output@@IAE_NAA_J@Z 0048825d f i libucrt:output.obj
 0001:000872fb       ??$extract_argument_from_va_list@G_J@?$standard_base@DV?$stream_output_adapter@D@__crt_stdio_output@@@__crt_stdio_output@@IAE_NAA_J@Z 004882fb f i libucrt:output.obj
 0001:00087321       ??$extract_argument_from_va_list@G_J@?$standard_base@DV?$string_output_adapter@D@__crt_stdio_output@@@__crt_stdio_output@@IAE_NAA_J@Z 00488321 f i libucrt:output.obj
 0001:00087347       ??$extract_argument_from_va_list@G_J@?$standard_base@_WV?$stream_output_adapter@_W@__crt_stdio_output@@@__crt_stdio_output@@IAE_NAA_J@Z 00488347 f i libucrt:output.obj
 0001:0008736d       ??$extract_argument_from_va_list@G_J@?$standard_base@_WV?$string_output_adapter@_W@__crt_stdio_output@@@__crt_stdio_output@@IAE_NAA_J@Z 0048836d f i libucrt:output.obj
 0001:00087393       ??$extract_argument_from_va_list@H_J@?$positional_parameter_base@DV?$stream_output_adapter@D@__crt_stdio_output@@@__crt_stdio_output@@IAE_NAA_J@Z 00488393 f i libucrt:output.obj
 0001:0008742f       ??$extract_argument_from_va_list@H_J@?$positional_parameter_base@DV?$string_output_adapter@D@__crt_stdio_output@@@__crt_stdio_output@@IAE_NAA_J@Z 0048842f f i libucrt:output.obj
 0001:000874cb       ??$extract_argument_from_va_list@H_J@?$positional_parameter_base@_WV?$stream_output_adapter@_W@__crt_stdio_output@@@__crt_stdio_output@@IAE_NAA_J@Z 004884cb f i libucrt:output.obj
 0001:00087567       ??$extract_argument_from_va_list@H_J@?$positional_parameter_base@_WV?$string_output_adapter@_W@__crt_stdio_output@@@__crt_stdio_output@@IAE_NAA_J@Z 00488567 f i libucrt:output.obj
 0001:00087603       ??$extract_argument_from_va_list@H_J@?$standard_base@DV?$stream_output_adapter@D@__crt_stdio_output@@@__crt_stdio_output@@IAE_NAA_J@Z 00488603 f i libucrt:output.obj
 0001:00087628       ??$extract_argument_from_va_list@H_J@?$standard_base@DV?$string_output_adapter@D@__crt_stdio_output@@@__crt_stdio_output@@IAE_NAA_J@Z 00488628 f i libucrt:output.obj
 0001:0008764d       ??$extract_argument_from_va_list@H_J@?$standard_base@_WV?$stream_output_adapter@_W@__crt_stdio_output@@@__crt_stdio_output@@IAE_NAA_J@Z 0048864d f i libucrt:output.obj
 0001:00087672       ??$extract_argument_from_va_list@H_J@?$standard_base@_WV?$string_output_adapter@_W@__crt_stdio_output@@@__crt_stdio_output@@IAE_NAA_J@Z 00488672 f i libucrt:output.obj
 0001:00087697       ??$extract_argument_from_va_list@I_J@?$positional_parameter_base@DV?$stream_output_adapter@D@__crt_stdio_output@@@__crt_stdio_output@@IAE_NAA_J@Z 00488697 f i libucrt:output.obj
 0001:0008773e       ??$extract_argument_from_va_list@I_J@?$positional_parameter_base@DV?$string_output_adapter@D@__crt_stdio_output@@@__crt_stdio_output@@IAE_NAA_J@Z 0048873e f i libucrt:output.obj
 0001:000877e5       ??$extract_argument_from_va_list@I_J@?$positional_parameter_base@_WV?$stream_output_adapter@_W@__crt_stdio_output@@@__crt_stdio_output@@IAE_NAA_J@Z 004887e5 f i libucrt:output.obj
 0001:0008788c       ??$extract_argument_from_va_list@I_J@?$positional_parameter_base@_WV?$string_output_adapter@_W@__crt_stdio_output@@@__crt_stdio_output@@IAE_NAA_J@Z 0048888c f i libucrt:output.obj
 0001:00087933       ??$extract_argument_from_va_list@I_J@?$standard_base@DV?$stream_output_adapter@D@__crt_stdio_output@@@__crt_stdio_output@@IAE_NAA_J@Z 00488933 f i libucrt:output.obj
 0001:00087958       ??$extract_argument_from_va_list@I_J@?$standard_base@DV?$string_output_adapter@D@__crt_stdio_output@@@__crt_stdio_output@@IAE_NAA_J@Z 00488958 f i libucrt:output.obj
 0001:0008797d       ??$extract_argument_from_va_list@I_J@?$standard_base@_WV?$stream_output_adapter@_W@__crt_stdio_output@@@__crt_stdio_output@@IAE_NAA_J@Z 0048897d f i libucrt:output.obj
 0001:000879a2       ??$extract_argument_from_va_list@I_J@?$standard_base@_WV?$string_output_adapter@_W@__crt_stdio_output@@@__crt_stdio_output@@IAE_NAA_J@Z 004889a2 f i libucrt:output.obj
 0001:000879c7       ??$extract_argument_from_va_list@PADPAD@?$positional_parameter_base@DV?$stream_output_adapter@D@__crt_stdio_output@@@__crt_stdio_output@@IAE_NAAPAD@Z 004889c7 f i libucrt:output.obj
 0001:00087a64       ??$extract_argument_from_va_list@PADPAD@?$positional_parameter_base@DV?$string_output_adapter@D@__crt_stdio_output@@@__crt_stdio_output@@IAE_NAAPAD@Z 00488a64 f i libucrt:output.obj
 0001:00087b01       ??$extract_argument_from_va_list@PADPAD@?$positional_parameter_base@_WV?$stream_output_adapter@_W@__crt_stdio_output@@@__crt_stdio_output@@IAE_NAAPAD@Z 00488b01 f i libucrt:output.obj
 0001:00087b9e       ??$extract_argument_from_va_list@PADPAD@?$positional_parameter_base@_WV?$string_output_adapter@_W@__crt_stdio_output@@@__crt_stdio_output@@IAE_NAAPAD@Z 00488b9e f i libucrt:output.obj
 0001:00087c3b       ??$extract_argument_from_va_list@PADPAD@?$standard_base@DV?$stream_output_adapter@D@__crt_stdio_output@@@__crt_stdio_output@@IAE_NAAPAD@Z 00488c3b f i libucrt:output.obj
 0001:00087c5b       ??$extract_argument_from_va_list@PADPAD@?$standard_base@DV?$string_output_adapter@D@__crt_stdio_output@@@__crt_stdio_output@@IAE_NAAPAD@Z 00488c5b f i libucrt:output.obj
 0001:00087c7b       ??$extract_argument_from_va_list@PADPAD@?$standard_base@_WV?$stream_output_adapter@_W@__crt_stdio_output@@@__crt_stdio_output@@IAE_NAAPAD@Z 00488c7b f i libucrt:output.obj
 0001:00087c9b       ??$extract_argument_from_va_list@PADPAD@?$standard_base@_WV?$string_output_adapter@_W@__crt_stdio_output@@@__crt_stdio_output@@IAE_NAAPAD@Z 00488c9b f i libucrt:output.obj
 0001:00087cbb       ??$extract_argument_from_va_list@PAUansi_string@?1??type_case_Z@?$output_processor@DV?$stream_output_adapter@D@__crt_stdio_output@@V?$format_validation_base@DV?$stream_output_adapter@D@__crt_stdio_output@@@2@@__crt_stdio_output@@AAE_NXZ@PAU1?1??234@AAE_NXZ@@?$standard_base@DV?$stream_output_adapter@D@__crt_stdio_output@@@__crt_stdio_output@@IAE_NAAPAUansi_string@?1??type_case_Z@?$output_processor@DV?$stream_output_adapter@D@__crt_stdio_output@@V?$format_validation_base@DV?$stream_output_adapter@D@__crt_stdio_output@@@2@@1@AAE_NXZ@@Z 00488cbb f i libucrt:output.obj
 0001:00087cdb       ??$extract_argument_from_va_list@PAUansi_string@?1??type_case_Z@?$output_processor@DV?$stream_output_adapter@D@__crt_stdio_output@@V?$positional_parameter_base@DV?$stream_output_adapter@D@__crt_stdio_output@@@2@@__crt_stdio_output@@AAE_NXZ@PAU1?1??234@AAE_NXZ@@?$positional_parameter_base@DV?$stream_output_adapter@D@__crt_stdio_output@@@__crt_stdio_output@@IAE_NAAPAUansi_string@?1??type_case_Z@?$output_processor@DV?$stream_output_adapter@D@__crt_stdio_output@@V?$positional_parameter_base@DV?$stream_output_adapter@D@__crt_stdio_output@@@2@@1@AAE_NXZ@@Z 00488cdb f i libucrt:output.obj
 0001:00087d78       ??$extract_argument_from_va_list@PAUansi_string@?1??type_case_Z@?$output_processor@DV?$stream_output_adapter@D@__crt_stdio_output@@V?$positional_parameter_base@DV?$stream_output_adapter@D@__crt_stdio_output@@@2@@__crt_stdio_output@@AAE_NXZ@PAU1?1??234@AAE_NXZ@@?$standard_base@DV?$stream_output_adapter@D@__crt_stdio_output@@@__crt_stdio_output@@IAE_NAAPAUansi_string@?1??type_case_Z@?$output_processor@DV?$stream_output_adapter@D@__crt_stdio_output@@V?$positional_parameter_base@DV?$stream_output_adapter@D@__crt_stdio_output@@@2@@1@AAE_NXZ@@Z 00488d78 f i libucrt:output.obj
 0001:00087d98       ??$extract_argument_from_va_list@PAUansi_string@?1??type_case_Z@?$output_processor@DV?$stream_output_adapter@D@__crt_stdio_output@@V?$standard_base@DV?$stream_output_adapter@D@__crt_stdio_output@@@2@@__crt_stdio_output@@AAE_NXZ@PAU1?1??234@AAE_NXZ@@?$standard_base@DV?$stream_output_adapter@D@__crt_stdio_output@@@__crt_stdio_output@@IAE_NAAPAUansi_string@?1??type_case_Z@?$output_processor@DV?$stream_output_adapter@D@__crt_stdio_output@@V?$standard_base@DV?$stream_output_adapter@D@__crt_stdio_output@@@2@@1@AAE_NXZ@@Z 00488d98 f i libucrt:output.obj
 0001:00087db8       ??$extract_argument_from_va_list@PAUansi_string@?1??type_case_Z@?$output_processor@DV?$string_output_adapter@D@__crt_stdio_output@@V?$format_validation_base@DV?$string_output_adapter@D@__crt_stdio_output@@@2@@__crt_stdio_output@@AAE_NXZ@PAU1?1??234@AAE_NXZ@@?$standard_base@DV?$string_output_adapter@D@__crt_stdio_output@@@__crt_stdio_output@@IAE_NAAPAUansi_string@?1??type_case_Z@?$output_processor@DV?$string_output_adapter@D@__crt_stdio_output@@V?$format_validation_base@DV?$string_output_adapter@D@__crt_stdio_output@@@2@@1@AAE_NXZ@@Z 00488db8 f i libucrt:output.obj
 0001:00087dd8       ??$extract_argument_from_va_list@PAUansi_string@?1??type_case_Z@?$output_processor@DV?$string_output_adapter@D@__crt_stdio_output@@V?$positional_parameter_base@DV?$string_output_adapter@D@__crt_stdio_output@@@2@@__crt_stdio_output@@AAE_NXZ@PAU1?1??234@AAE_NXZ@@?$positional_parameter_base@DV?$string_output_adapter@D@__crt_stdio_output@@@__crt_stdio_output@@IAE_NAAPAUansi_string@?1??type_case_Z@?$output_processor@DV?$string_output_adapter@D@__crt_stdio_output@@V?$positional_parameter_base@DV?$string_output_adapter@D@__crt_stdio_output@@@2@@1@AAE_NXZ@@Z 00488dd8 f i libucrt:output.obj
 0001:00087e75       ??$extract_argument_from_va_list@PAUansi_string@?1??type_case_Z@?$output_processor@DV?$string_output_adapter@D@__crt_stdio_output@@V?$positional_parameter_base@DV?$string_output_adapter@D@__crt_stdio_output@@@2@@__crt_stdio_output@@AAE_NXZ@PAU1?1??234@AAE_NXZ@@?$standard_base@DV?$string_output_adapter@D@__crt_stdio_output@@@__crt_stdio_output@@IAE_NAAPAUansi_string@?1??type_case_Z@?$output_processor@DV?$string_output_adapter@D@__crt_stdio_output@@V?$positional_parameter_base@DV?$string_output_adapter@D@__crt_stdio_output@@@2@@1@AAE_NXZ@@Z 00488e75 f i libucrt:output.obj
 0001:00087e95       ??$extract_argument_from_va_list@PAUansi_string@?1??type_case_Z@?$output_processor@DV?$string_output_adapter@D@__crt_stdio_output@@V?$standard_base@DV?$string_output_adapter@D@__crt_stdio_output@@@2@@__crt_stdio_output@@AAE_NXZ@PAU1?1??234@AAE_NXZ@@?$standard_base@DV?$string_output_adapter@D@__crt_stdio_output@@@__crt_stdio_output@@IAE_NAAPAUansi_string@?1??type_case_Z@?$output_processor@DV?$string_output_adapter@D@__crt_stdio_output@@V?$standard_base@DV?$string_output_adapter@D@__crt_stdio_output@@@2@@1@AAE_NXZ@@Z 00488e95 f i libucrt:output.obj
 0001:00087eb5       ??$extract_argument_from_va_list@PAUansi_string@?1??type_case_Z@?$output_processor@_WV?$stream_output_adapter@_W@__crt_stdio_output@@V?$format_validation_base@_WV?$stream_output_adapter@_W@__crt_stdio_output@@@2@@__crt_stdio_output@@AAE_NXZ@PAU1?1??234@AAE_NXZ@@?$standard_base@_WV?$stream_output_adapter@_W@__crt_stdio_output@@@__crt_stdio_output@@IAE_NAAPAUansi_string@?1??type_case_Z@?$output_processor@_WV?$stream_output_adapter@_W@__crt_stdio_output@@V?$format_validation_base@_WV?$stream_output_adapter@_W@__crt_stdio_output@@@2@@1@AAE_NXZ@@Z 00488eb5 f i libucrt:output.obj
 0001:00087ed5       ??$extract_argument_from_va_list@PAUansi_string@?1??type_case_Z@?$output_processor@_WV?$stream_output_adapter@_W@__crt_stdio_output@@V?$positional_parameter_base@_WV?$stream_output_adapter@_W@__crt_stdio_output@@@2@@__crt_stdio_output@@AAE_NXZ@PAU1?1??234@AAE_NXZ@@?$positional_parameter_base@_WV?$stream_output_adapter@_W@__crt_stdio_output@@@__crt_stdio_output@@IAE_NAAPAUansi_string@?1??type_case_Z@?$output_processor@_WV?$stream_output_adapter@_W@__crt_stdio_output@@V?$positional_parameter_base@_WV?$stream_output_adapter@_W@__crt_stdio_output@@@2@@1@AAE_NXZ@@Z 00488ed5 f i libucrt:output.obj
 0001:00087f72       ??$extract_argument_from_va_list@PAUansi_string@?1??type_case_Z@?$output_processor@_WV?$stream_output_adapter@_W@__crt_stdio_output@@V?$positional_parameter_base@_WV?$stream_output_adapter@_W@__crt_stdio_output@@@2@@__crt_stdio_output@@AAE_NXZ@PAU1?1??234@AAE_NXZ@@?$standard_base@_WV?$stream_output_adapter@_W@__crt_stdio_output@@@__crt_stdio_output@@IAE_NAAPAUansi_string@?1??type_case_Z@?$output_processor@_WV?$stream_output_adapter@_W@__crt_stdio_output@@V?$positional_parameter_base@_WV?$stream_output_adapter@_W@__crt_stdio_output@@@2@@1@AAE_NXZ@@Z 00488f72 f i libucrt:output.obj
 0001:00087f92       ??$extract_argument_from_va_list@PAUansi_string@?1??type_case_Z@?$output_processor@_WV?$stream_output_adapter@_W@__crt_stdio_output@@V?$standard_base@_WV?$stream_output_adapter@_W@__crt_stdio_output@@@2@@__crt_stdio_output@@AAE_NXZ@PAU1?1??234@AAE_NXZ@@?$standard_base@_WV?$stream_output_adapter@_W@__crt_stdio_output@@@__crt_stdio_output@@IAE_NAAPAUansi_string@?1??type_case_Z@?$output_processor@_WV?$stream_output_adapter@_W@__crt_stdio_output@@V?$standard_base@_WV?$stream_output_adapter@_W@__crt_stdio_output@@@2@@1@AAE_NXZ@@Z 00488f92 f i libucrt:output.obj
 0001:00087fb2       ??$extract_argument_from_va_list@PAUansi_string@?1??type_case_Z@?$output_processor@_WV?$string_output_adapter@_W@__crt_stdio_output@@V?$format_validation_base@_WV?$string_output_adapter@_W@__crt_stdio_output@@@2@@__crt_stdio_output@@AAE_NXZ@PAU1?1??234@AAE_NXZ@@?$standard_base@_WV?$string_output_adapter@_W@__crt_stdio_output@@@__crt_stdio_output@@IAE_NAAPAUansi_string@?1??type_case_Z@?$output_processor@_WV?$string_output_adapter@_W@__crt_stdio_output@@V?$format_validation_base@_WV?$string_output_adapter@_W@__crt_stdio_output@@@2@@1@AAE_NXZ@@Z 00488fb2 f i libucrt:output.obj
 0001:00087fd2       ??$extract_argument_from_va_list@PAUansi_string@?1??type_case_Z@?$output_processor@_WV?$string_output_adapter@_W@__crt_stdio_output@@V?$positional_parameter_base@_WV?$string_output_adapter@_W@__crt_stdio_output@@@2@@__crt_stdio_output@@AAE_NXZ@PAU1?1??234@AAE_NXZ@@?$positional_parameter_base@_WV?$string_output_adapter@_W@__crt_stdio_output@@@__crt_stdio_output@@IAE_NAAPAUansi_string@?1??type_case_Z@?$output_processor@_WV?$string_output_adapter@_W@__crt_stdio_output@@V?$positional_parameter_base@_WV?$string_output_adapter@_W@__crt_stdio_output@@@2@@1@AAE_NXZ@@Z 00488fd2 f i libucrt:output.obj
 0001:0008806f       ??$extract_argument_from_va_list@PAUansi_string@?1??type_case_Z@?$output_processor@_WV?$string_output_adapter@_W@__crt_stdio_output@@V?$positional_parameter_base@_WV?$string_output_adapter@_W@__crt_stdio_output@@@2@@__crt_stdio_output@@AAE_NXZ@PAU1?1??234@AAE_NXZ@@?$standard_base@_WV?$string_output_adapter@_W@__crt_stdio_output@@@__crt_stdio_output@@IAE_NAAPAUansi_string@?1??type_case_Z@?$output_processor@_WV?$string_output_adapter@_W@__crt_stdio_output@@V?$positional_parameter_base@_WV?$string_output_adapter@_W@__crt_stdio_output@@@2@@1@AAE_NXZ@@Z 0048906f f i libucrt:output.obj
 0001:0008808f       ??$extract_argument_from_va_list@PAUansi_string@?1??type_case_Z@?$output_processor@_WV?$string_output_adapter@_W@__crt_stdio_output@@V?$standard_base@_WV?$string_output_adapter@_W@__crt_stdio_output@@@2@@__crt_stdio_output@@AAE_NXZ@PAU1?1??234@AAE_NXZ@@?$standard_base@_WV?$string_output_adapter@_W@__crt_stdio_output@@@__crt_stdio_output@@IAE_NAAPAUansi_string@?1??type_case_Z@?$output_processor@_WV?$string_output_adapter@_W@__crt_stdio_output@@V?$standard_base@_WV?$string_output_adapter@_W@__crt_stdio_output@@@2@@1@AAE_NXZ@@Z 0048908f f i libucrt:output.obj
 0001:000880af       ??$extract_argument_from_va_list@PAXPAX@?$positional_parameter_base@DV?$stream_output_adapter@D@__crt_stdio_output@@@__crt_stdio_output@@IAE_NAAPAX@Z 004890af f i libucrt:output.obj
 0001:0008814c       ??$extract_argument_from_va_list@PAXPAX@?$positional_parameter_base@DV?$string_output_adapter@D@__crt_stdio_output@@@__crt_stdio_output@@IAE_NAAPAX@Z 0048914c f i libucrt:output.obj
 0001:000881e9       ??$extract_argument_from_va_list@PAXPAX@?$positional_parameter_base@_WV?$stream_output_adapter@_W@__crt_stdio_output@@@__crt_stdio_output@@IAE_NAAPAX@Z 004891e9 f i libucrt:output.obj
 0001:00088286       ??$extract_argument_from_va_list@PAXPAX@?$positional_parameter_base@_WV?$string_output_adapter@_W@__crt_stdio_output@@@__crt_stdio_output@@IAE_NAAPAX@Z 00489286 f i libucrt:output.obj
 0001:00088323       ??$extract_argument_from_va_list@PAXPAX@?$standard_base@DV?$stream_output_adapter@D@__crt_stdio_output@@@__crt_stdio_output@@IAE_NAAPAX@Z 00489323 f i libucrt:output.obj
 0001:00088343       ??$extract_argument_from_va_list@PAXPAX@?$standard_base@DV?$string_output_adapter@D@__crt_stdio_output@@@__crt_stdio_output@@IAE_NAAPAX@Z 00489343 f i libucrt:output.obj
 0001:00088363       ??$extract_argument_from_va_list@PAXPAX@?$standard_base@_WV?$stream_output_adapter@_W@__crt_stdio_output@@@__crt_stdio_output@@IAE_NAAPAX@Z 00489363 f i libucrt:output.obj
 0001:00088383       ??$extract_argument_from_va_list@PAXPAX@?$standard_base@_WV?$string_output_adapter@_W@__crt_stdio_output@@@__crt_stdio_output@@IAE_NAAPAX@Z 00489383 f i libucrt:output.obj
 0001:000883a3       ??$extract_argument_from_va_list@U_CRT_DOUBLE@@U1@@?$positional_parameter_base@DV?$stream_output_adapter@D@__crt_stdio_output@@@__crt_stdio_output@@IAE_NAAU_CRT_DOUBLE@@@Z 004893a3 f i libucrt:output.obj
 0001:00088454       ??$extract_argument_from_va_list@U_CRT_DOUBLE@@U1@@?$positional_parameter_base@DV?$string_output_adapter@D@__crt_stdio_output@@@__crt_stdio_output@@IAE_NAAU_CRT_DOUBLE@@@Z 00489454 f i libucrt:output.obj
 0001:00088505       ??$extract_argument_from_va_list@U_CRT_DOUBLE@@U1@@?$positional_parameter_base@_WV?$stream_output_adapter@_W@__crt_stdio_output@@@__crt_stdio_output@@IAE_NAAU_CRT_DOUBLE@@@Z 00489505 f i libucrt:output.obj
 0001:000885b6       ??$extract_argument_from_va_list@U_CRT_DOUBLE@@U1@@?$positional_parameter_base@_WV?$string_output_adapter@_W@__crt_stdio_output@@@__crt_stdio_output@@IAE_NAAU_CRT_DOUBLE@@@Z 004895b6 f i libucrt:output.obj
 0001:00088667       ??$extract_argument_from_va_list@U_CRT_DOUBLE@@U1@@?$standard_base@DV?$stream_output_adapter@D@__crt_stdio_output@@@__crt_stdio_output@@IAE_NAAU_CRT_DOUBLE@@@Z 00489667 f i libucrt:output.obj
 0001:0008868f       ??$extract_argument_from_va_list@U_CRT_DOUBLE@@U1@@?$standard_base@DV?$string_output_adapter@D@__crt_stdio_output@@@__crt_stdio_output@@IAE_NAAU_CRT_DOUBLE@@@Z 0048968f f i libucrt:output.obj
 0001:000886b7       ??$extract_argument_from_va_list@U_CRT_DOUBLE@@U1@@?$standard_base@_WV?$stream_output_adapter@_W@__crt_stdio_output@@@__crt_stdio_output@@IAE_NAAU_CRT_DOUBLE@@@Z 004896b7 f i libucrt:output.obj
 0001:000886df       ??$extract_argument_from_va_list@U_CRT_DOUBLE@@U1@@?$standard_base@_WV?$string_output_adapter@_W@__crt_stdio_output@@@__crt_stdio_output@@IAE_NAAU_CRT_DOUBLE@@@Z 004896df f i libucrt:output.obj
 0001:00088707       ??$extract_argument_from_va_list@_J_J@?$positional_parameter_base@DV?$stream_output_adapter@D@__crt_stdio_output@@@__crt_stdio_output@@IAE_NAA_J@Z 00489707 f i libucrt:output.obj
 0001:000887b8       ??$extract_argument_from_va_list@_J_J@?$positional_parameter_base@DV?$string_output_adapter@D@__crt_stdio_output@@@__crt_stdio_output@@IAE_NAA_J@Z 004897b8 f i libucrt:output.obj
 0001:00088869       ??$extract_argument_from_va_list@_J_J@?$positional_parameter_base@_WV?$stream_output_adapter@_W@__crt_stdio_output@@@__crt_stdio_output@@IAE_NAA_J@Z 00489869 f i libucrt:output.obj
 0001:0008891a       ??$extract_argument_from_va_list@_J_J@?$positional_parameter_base@_WV?$string_output_adapter@_W@__crt_stdio_output@@@__crt_stdio_output@@IAE_NAA_J@Z 0048991a f i libucrt:output.obj
 0001:000889cb       ??$extract_argument_from_va_list@_J_J@?$standard_base@DV?$stream_output_adapter@D@__crt_stdio_output@@@__crt_stdio_output@@IAE_NAA_J@Z 004899cb f i libucrt:output.obj
 0001:000889f3       ??$extract_argument_from_va_list@_J_J@?$standard_base@DV?$string_output_adapter@D@__crt_stdio_output@@@__crt_stdio_output@@IAE_NAA_J@Z 004899f3 f i libucrt:output.obj
 0001:00088a1b       ??$extract_argument_from_va_list@_J_J@?$standard_base@_WV?$stream_output_adapter@_W@__crt_stdio_output@@@__crt_stdio_output@@IAE_NAA_J@Z 00489a1b f i libucrt:output.obj
 0001:00088a43       ??$extract_argument_from_va_list@_J_J@?$standard_base@_WV?$string_output_adapter@_W@__crt_stdio_output@@@__crt_stdio_output@@IAE_NAA_J@Z 00489a43 f i libucrt:output.obj
 0001:00088a6b       ??$extract_argument_from_va_list@_K_J@?$positional_parameter_base@DV?$stream_output_adapter@D@__crt_stdio_output@@@__crt_stdio_output@@IAE_NAA_J@Z 00489a6b f i libucrt:output.obj
 0001:00088b1c       ??$extract_argument_from_va_list@_K_J@?$positional_parameter_base@DV?$string_output_adapter@D@__crt_stdio_output@@@__crt_stdio_output@@IAE_NAA_J@Z 00489b1c f i libucrt:output.obj
 0001:00088bcd       ??$extract_argument_from_va_list@_K_J@?$positional_parameter_base@_WV?$stream_output_adapter@_W@__crt_stdio_output@@@__crt_stdio_output@@IAE_NAA_J@Z 00489bcd f i libucrt:output.obj
 0001:00088c7e       ??$extract_argument_from_va_list@_K_J@?$positional_parameter_base@_WV?$string_output_adapter@_W@__crt_stdio_output@@@__crt_stdio_output@@IAE_NAA_J@Z 00489c7e f i libucrt:output.obj
 0001:00088d2f       ??$extract_argument_from_va_list@_K_J@?$standard_base@DV?$stream_output_adapter@D@__crt_stdio_output@@@__crt_stdio_output@@IAE_NAA_J@Z 00489d2f f i libucrt:output.obj
 0001:00088d57       ??$extract_argument_from_va_list@_K_J@?$standard_base@DV?$string_output_adapter@D@__crt_stdio_output@@@__crt_stdio_output@@IAE_NAA_J@Z 00489d57 f i libucrt:output.obj
 0001:00088d7f       ??$extract_argument_from_va_list@_K_J@?$standard_base@_WV?$stream_output_adapter@_W@__crt_stdio_output@@@__crt_stdio_output@@IAE_NAA_J@Z 00489d7f f i libucrt:output.obj
 0001:00088da7       ??$extract_argument_from_va_list@_K_J@?$standard_base@_WV?$string_output_adapter@_W@__crt_stdio_output@@@__crt_stdio_output@@IAE_NAA_J@Z 00489da7 f i libucrt:output.obj
 0001:00088dcf       ??$extract_argument_from_va_list@_W_W@?$positional_parameter_base@DV?$stream_output_adapter@D@__crt_stdio_output@@@__crt_stdio_output@@IAE_NAA_W@Z 00489dcf f i libucrt:output.obj
 0001:00088e71       ??$extract_argument_from_va_list@_W_W@?$positional_parameter_base@DV?$string_output_adapter@D@__crt_stdio_output@@@__crt_stdio_output@@IAE_NAA_W@Z 00489e71 f i libucrt:output.obj
 0001:00088f13       ??$extract_argument_from_va_list@_W_W@?$positional_parameter_base@_WV?$stream_output_adapter@_W@__crt_stdio_output@@@__crt_stdio_output@@IAE_NAA_W@Z 00489f13 f i libucrt:output.obj
 0001:00088fb5       ??$extract_argument_from_va_list@_W_W@?$positional_parameter_base@_WV?$string_output_adapter@_W@__crt_stdio_output@@@__crt_stdio_output@@IAE_NAA_W@Z 00489fb5 f i libucrt:output.obj
 0001:00089057       ??$extract_argument_from_va_list@_W_W@?$standard_base@DV?$stream_output_adapter@D@__crt_stdio_output@@@__crt_stdio_output@@IAE_NAA_W@Z 0048a057 f i libucrt:output.obj
 0001:0008907a       ??$extract_argument_from_va_list@_W_W@?$standard_base@DV?$string_output_adapter@D@__crt_stdio_output@@@__crt_stdio_output@@IAE_NAA_W@Z 0048a07a f i libucrt:output.obj
 0001:0008909d       ??$extract_argument_from_va_list@_W_W@?$standard_base@_WV?$stream_output_adapter@_W@__crt_stdio_output@@@__crt_stdio_output@@IAE_NAA_W@Z 0048a09d f i libucrt:output.obj
 0001:000890c0       ??$extract_argument_from_va_list@_W_W@?$standard_base@_WV?$string_output_adapter@_W@__crt_stdio_output@@@__crt_stdio_output@@IAE_NAA_W@Z 0048a0c0 f i libucrt:output.obj
 0001:000890e3       ??$get_parameter_type@D@?$positional_parameter_base@DV?$stream_output_adapter@D@__crt_stdio_output@@@__crt_stdio_output@@CA?AW4parameter_type@01@PAD@Z 0048a0e3 f i libucrt:output.obj
 0001:000890e7       ??$get_parameter_type@D@?$positional_parameter_base@DV?$string_output_adapter@D@__crt_stdio_output@@@__crt_stdio_output@@CA?AW4parameter_type@01@PAD@Z 0048a0e7 f i libucrt:output.obj
 0001:000890eb       ??$get_parameter_type@D@?$positional_parameter_base@_WV?$stream_output_adapter@_W@__crt_stdio_output@@@__crt_stdio_output@@CA?AW4parameter_type@01@PAD@Z 0048a0eb f i libucrt:output.obj
 0001:000890ef       ??$get_parameter_type@D@?$positional_parameter_base@_WV?$string_output_adapter@_W@__crt_stdio_output@@@__crt_stdio_output@@CA?AW4parameter_type@01@PAD@Z 0048a0ef f i libucrt:output.obj
 0001:000890f3       ??$get_parameter_type@Uansi_string@?1??type_case_Z@?$output_processor@DV?$stream_output_adapter@D@__crt_stdio_output@@V?$positional_parameter_base@DV?$stream_output_adapter@D@__crt_stdio_output@@@2@@__crt_stdio_output@@AAE_NXZ@@?$positional_parameter_base@DV?$stream_output_adapter@D@__crt_stdio_output@@@__crt_stdio_output@@CA?AW4parameter_type@01@PAUansi_string@?1??type_case_Z@?$output_processor@DV?$stream_output_adapter@D@__crt_stdio_output@@V?$positional_parameter_base@DV?$stream_output_adapter@D@__crt_stdio_output@@@2@@1@AAE_NXZ@@Z 0048a0f3 f i libucrt:output.obj
 0001:000890f7       ??$get_parameter_type@Uansi_string@?1??type_case_Z@?$output_processor@DV?$string_output_adapter@D@__crt_stdio_output@@V?$positional_parameter_base@DV?$string_output_adapter@D@__crt_stdio_output@@@2@@__crt_stdio_output@@AAE_NXZ@@?$positional_parameter_base@DV?$string_output_adapter@D@__crt_stdio_output@@@__crt_stdio_output@@CA?AW4parameter_type@01@PAUansi_string@?1??type_case_Z@?$output_processor@DV?$string_output_adapter@D@__crt_stdio_output@@V?$positional_parameter_base@DV?$string_output_adapter@D@__crt_stdio_output@@@2@@1@AAE_NXZ@@Z 0048a0f7 f i libucrt:output.obj
 0001:000890fb       ??$get_parameter_type@Uansi_string@?1??type_case_Z@?$output_processor@_WV?$stream_output_adapter@_W@__crt_stdio_output@@V?$positional_parameter_base@_WV?$stream_output_adapter@_W@__crt_stdio_output@@@2@@__crt_stdio_output@@AAE_NXZ@@?$positional_parameter_base@_WV?$stream_output_adapter@_W@__crt_stdio_output@@@__crt_stdio_output@@CA?AW4parameter_type@01@PAUansi_string@?1??type_case_Z@?$output_processor@_WV?$stream_output_adapter@_W@__crt_stdio_output@@V?$positional_parameter_base@_WV?$stream_output_adapter@_W@__crt_stdio_output@@@2@@1@AAE_NXZ@@Z 0048a0fb f i libucrt:output.obj
 0001:000890ff       ??$get_parameter_type@Uansi_string@?1??type_case_Z@?$output_processor@_WV?$string_output_adapter@_W@__crt_stdio_output@@V?$positional_parameter_base@_WV?$string_output_adapter@_W@__crt_stdio_output@@@2@@__crt_stdio_output@@AAE_NXZ@@?$positional_parameter_base@_WV?$string_output_adapter@_W@__crt_stdio_output@@@__crt_stdio_output@@CA?AW4parameter_type@01@PAUansi_string@?1??type_case_Z@?$output_processor@_WV?$string_output_adapter@_W@__crt_stdio_output@@V?$positional_parameter_base@_WV?$string_output_adapter@_W@__crt_stdio_output@@@2@@1@AAE_NXZ@@Z 0048a0ff f i libucrt:output.obj
 0001:00089103       ??$get_parameter_type@X@?$positional_parameter_base@DV?$stream_output_adapter@D@__crt_stdio_output@@@__crt_stdio_output@@CA?AW4parameter_type@01@PAX@Z 0048a103 f i libucrt:output.obj
 0001:00089107       ??$get_parameter_type@X@?$positional_parameter_base@DV?$string_output_adapter@D@__crt_stdio_output@@@__crt_stdio_output@@CA?AW4parameter_type@01@PAX@Z 0048a107 f i libucrt:output.obj
 0001:0008910b       ??$get_parameter_type@X@?$positional_parameter_base@_WV?$stream_output_adapter@_W@__crt_stdio_output@@@__crt_stdio_output@@CA?AW4parameter_type@01@PAX@Z 0048a10b f i libucrt:output.obj
 0001:0008910f       ??$get_parameter_type@X@?$positional_parameter_base@_WV?$string_output_adapter@_W@__crt_stdio_output@@@__crt_stdio_output@@CA?AW4parameter_type@01@PAX@Z 0048a10f f i libucrt:output.obj
 0001:00089113       ??$is_character_specifier@D@?$positional_parameter_base@DV?$stream_output_adapter@D@__crt_stdio_output@@@__crt_stdio_output@@CA_ND@Z 0048a113 f i libucrt:output.obj
 0001:00089132       ??$is_character_specifier@D@?$positional_parameter_base@DV?$string_output_adapter@D@__crt_stdio_output@@@__crt_stdio_output@@CA_ND@Z 0048a132 f i libucrt:output.obj
 0001:00089151       ??$is_character_specifier@_W@?$positional_parameter_base@_WV?$stream_output_adapter@_W@__crt_stdio_output@@@__crt_stdio_output@@CA_N_W@Z 0048a151 f i libucrt:output.obj
 0001:00089174       ??$is_character_specifier@_W@?$positional_parameter_base@_WV?$string_output_adapter@_W@__crt_stdio_output@@@__crt_stdio_output@@CA_N_W@Z 0048a174 f i libucrt:output.obj
 0001:00089197       ??$is_integral_specifier@D@?$positional_parameter_base@DV?$stream_output_adapter@D@__crt_stdio_output@@@__crt_stdio_output@@CA_ND@Z 0048a197 f i libucrt:output.obj
 0001:000891cf       ??$is_integral_specifier@D@?$positional_parameter_base@DV?$string_output_adapter@D@__crt_stdio_output@@@__crt_stdio_output@@CA_ND@Z 0048a1cf f i libucrt:output.obj
 0001:00089207       ??$is_integral_specifier@_W@?$positional_parameter_base@_WV?$stream_output_adapter@_W@__crt_stdio_output@@@__crt_stdio_output@@CA_N_W@Z 0048a207 f i libucrt:output.obj
 0001:00089252       ??$is_integral_specifier@_W@?$positional_parameter_base@_WV?$string_output_adapter@_W@__crt_stdio_output@@@__crt_stdio_output@@CA_N_W@Z 0048a252 f i libucrt:output.obj
 0001:0008929d       ??$is_pointer_specifier@D@?$positional_parameter_base@DV?$stream_output_adapter@D@__crt_stdio_output@@@__crt_stdio_output@@CA_ND@Z 0048a29d f i libucrt:output.obj
 0001:000892b1       ??$is_pointer_specifier@D@?$positional_parameter_base@DV?$string_output_adapter@D@__crt_stdio_output@@@__crt_stdio_output@@CA_ND@Z 0048a2b1 f i libucrt:output.obj
 0001:000892c5       ??$is_pointer_specifier@_W@?$positional_parameter_base@_WV?$stream_output_adapter@_W@__crt_stdio_output@@@__crt_stdio_output@@CA_N_W@Z 0048a2c5 f i libucrt:output.obj
 0001:000892da       ??$is_pointer_specifier@_W@?$positional_parameter_base@_WV?$string_output_adapter@_W@__crt_stdio_output@@@__crt_stdio_output@@CA_N_W@Z 0048a2da f i libucrt:output.obj
 0001:000892ef       ??$is_string_specifier@D@?$positional_parameter_base@DV?$stream_output_adapter@D@__crt_stdio_output@@@__crt_stdio_output@@CA_ND@Z 0048a2ef f i libucrt:output.obj
 0001:0008930e       ??$is_string_specifier@D@?$positional_parameter_base@DV?$string_output_adapter@D@__crt_stdio_output@@@__crt_stdio_output@@CA_ND@Z 0048a30e f i libucrt:output.obj
 0001:0008932d       ??$is_string_specifier@_W@?$positional_parameter_base@_WV?$stream_output_adapter@_W@__crt_stdio_output@@@__crt_stdio_output@@CA_N_W@Z 0048a32d f i libucrt:output.obj
 0001:00089350       ??$is_string_specifier@_W@?$positional_parameter_base@_WV?$string_output_adapter@_W@__crt_stdio_output@@@__crt_stdio_output@@CA_N_W@Z 0048a350 f i libucrt:output.obj
 0001:00089373       ??$is_wide_character_specifier@D@__crt_stdio_output@@YA_N_KDW4length_modifier@0@@Z 0048a373 f i libucrt:output.obj
 0001:000893c3       ??$is_wide_character_specifier@_W@__crt_stdio_output@@YA_N_K_WW4length_modifier@0@@Z 0048a3c3 f i libucrt:output.obj
 0001:00089425       ??$peek_va_arg@C@__crt_stdio_output@@YACPAD@Z 0048a425 f i libucrt:output.obj
 0001:00089434       ??$peek_va_arg@E@__crt_stdio_output@@YAEPAD@Z 0048a434 f i libucrt:output.obj
 0001:00089443       ??$peek_va_arg@F@__crt_stdio_output@@YAFPAD@Z 0048a443 f i libucrt:output.obj
 0001:00089453       ??$peek_va_arg@G@__crt_stdio_output@@YAGPAD@Z 0048a453 f i libucrt:output.obj
 0001:00089463       ??$peek_va_arg@H@__crt_stdio_output@@YAHPAD@Z 0048a463 f i libucrt:output.obj
 0001:00089472       ??$peek_va_arg@I@__crt_stdio_output@@YAIPAD@Z 0048a472 f i libucrt:output.obj
 0001:00089481       ??$peek_va_arg@PAD@__crt_stdio_output@@YAPADPAD@Z 0048a481 f i libucrt:output.obj
 0001:00089490       ??$peek_va_arg@PAUansi_string@?1??type_case_Z@?$output_processor@DV?$stream_output_adapter@D@__crt_stdio_output@@V?$positional_parameter_base@DV?$stream_output_adapter@D@__crt_stdio_output@@@2@@__crt_stdio_output@@AAE_NXZ@@__crt_stdio_output@@YAPAUansi_string@?1??type_case_Z@?$output_processor@DV?$stream_output_adapter@D@__crt_stdio_output@@V?$positional_parameter_base@DV?$stream_output_adapter@D@__crt_stdio_output@@@2@@0@AAE_NXZ@PAD@Z 0048a490 f i libucrt:output.obj
 0001:0008949f       ??$peek_va_arg@PAUansi_string@?1??type_case_Z@?$output_processor@DV?$string_output_adapter@D@__crt_stdio_output@@V?$positional_parameter_base@DV?$string_output_adapter@D@__crt_stdio_output@@@2@@__crt_stdio_output@@AAE_NXZ@@__crt_stdio_output@@YAPAUansi_string@?1??type_case_Z@?$output_processor@DV?$string_output_adapter@D@__crt_stdio_output@@V?$positional_parameter_base@DV?$string_output_adapter@D@__crt_stdio_output@@@2@@0@AAE_NXZ@PAD@Z 0048a49f f i libucrt:output.obj
 0001:000894ae       ??$peek_va_arg@PAUansi_string@?1??type_case_Z@?$output_processor@_WV?$stream_output_adapter@_W@__crt_stdio_output@@V?$positional_parameter_base@_WV?$stream_output_adapter@_W@__crt_stdio_output@@@2@@__crt_stdio_output@@AAE_NXZ@@__crt_stdio_output@@YAPAUansi_string@?1??type_case_Z@?$output_processor@_WV?$stream_output_adapter@_W@__crt_stdio_output@@V?$positional_parameter_base@_WV?$stream_output_adapter@_W@__crt_stdio_output@@@2@@0@AAE_NXZ@PAD@Z 0048a4ae f i libucrt:output.obj
 0001:000894bd       ??$peek_va_arg@PAUansi_string@?1??type_case_Z@?$output_processor@_WV?$string_output_adapter@_W@__crt_stdio_output@@V?$positional_parameter_base@_WV?$string_output_adapter@_W@__crt_stdio_output@@@2@@__crt_stdio_output@@AAE_NXZ@@__crt_stdio_output@@YAPAUansi_string@?1??type_case_Z@?$output_processor@_WV?$string_output_adapter@_W@__crt_stdio_output@@V?$positional_parameter_base@_WV?$string_output_adapter@_W@__crt_stdio_output@@@2@@0@AAE_NXZ@PAD@Z 0048a4bd f i libucrt:output.obj
 0001:000894cc       ??$peek_va_arg@PAX@__crt_stdio_output@@YAPAXPAD@Z 0048a4cc f i libucrt:output.obj
 0001:000894db       ??$peek_va_arg@U_CRT_DOUBLE@@@__crt_stdio_output@@YA?AU_CRT_DOUBLE@@PAD@Z 0048a4db f i libucrt:output.obj
 0001:000894ed       ??$peek_va_arg@_J@__crt_stdio_output@@YA_JPAD@Z 0048a4ed f i libucrt:output.obj
 0001:000894ff       ??$peek_va_arg@_K@__crt_stdio_output@@YA_KPAD@Z 0048a4ff f i libucrt:output.obj
 0001:00089511       ??$peek_va_arg@_W@__crt_stdio_output@@YA_WPAD@Z 0048a511 f i libucrt:output.obj
 0001:00089521       ??$puttc_nolock@ABDPAU_iobuf@@@?$__crt_char_traits@D@@SAHABD$$QAPAU_iobuf@@@Z 0048a521 f i libucrt:output.obj
 0001:00089541       ??$puttc_nolock@AB_WPAU_iobuf@@@?$__crt_char_traits@_W@@SAGAB_W$$QAPAU_iobuf@@@Z 0048a541 f i libucrt:output.obj
 0001:00089561       ??$read_va_arg@C@__crt_stdio_output@@YACAAPAD@Z 0048a561 f i libucrt:output.obj
 0001:00089577       ??$read_va_arg@E@__crt_stdio_output@@YAEAAPAD@Z 0048a577 f i libucrt:output.obj
 0001:0008958d       ??$read_va_arg@F@__crt_stdio_output@@YAFAAPAD@Z 0048a58d f i libucrt:output.obj
 0001:000895a4       ??$read_va_arg@G@__crt_stdio_output@@YAGAAPAD@Z 0048a5a4 f i libucrt:output.obj
 0001:000895bb       ??$read_va_arg@H@__crt_stdio_output@@YAHAAPAD@Z 0048a5bb f i libucrt:output.obj
 0001:000895d1       ??$read_va_arg@I@__crt_stdio_output@@YAIAAPAD@Z 0048a5d1 f i libucrt:output.obj
 0001:000895e7       ??$read_va_arg@PAD@__crt_stdio_output@@YAPADAAPAD@Z 0048a5e7 f i libucrt:output.obj
 0001:000895fd       ??$read_va_arg@PAUansi_string@?1??type_case_Z@?$output_processor@DV?$stream_output_adapter@D@__crt_stdio_output@@V?$format_validation_base@DV?$stream_output_adapter@D@__crt_stdio_output@@@2@@__crt_stdio_output@@AAE_NXZ@@__crt_stdio_output@@YAPAUansi_string@?1??type_case_Z@?$output_processor@DV?$stream_output_adapter@D@__crt_stdio_output@@V?$format_validation_base@DV?$stream_output_adapter@D@__crt_stdio_output@@@2@@0@AAE_NXZ@AAPAD@Z 0048a5fd f i libucrt:output.obj
 0001:00089613       ??$read_va_arg@PAUansi_string@?1??type_case_Z@?$output_processor@DV?$stream_output_adapter@D@__crt_stdio_output@@V?$positional_parameter_base@DV?$stream_output_adapter@D@__crt_stdio_output@@@2@@__crt_stdio_output@@AAE_NXZ@@__crt_stdio_output@@YAPAUansi_string@?1??type_case_Z@?$output_processor@DV?$stream_output_adapter@D@__crt_stdio_output@@V?$positional_parameter_base@DV?$stream_output_adapter@D@__crt_stdio_output@@@2@@0@AAE_NXZ@AAPAD@Z 0048a613 f i libucrt:output.obj
 0001:00089629       ??$read_va_arg@PAUansi_string@?1??type_case_Z@?$output_processor@DV?$stream_output_adapter@D@__crt_stdio_output@@V?$standard_base@DV?$stream_output_adapter@D@__crt_stdio_output@@@2@@__crt_stdio_output@@AAE_NXZ@@__crt_stdio_output@@YAPAUansi_string@?1??type_case_Z@?$output_processor@DV?$stream_output_adapter@D@__crt_stdio_output@@V?$standard_base@DV?$stream_output_adapter@D@__crt_stdio_output@@@2@@0@AAE_NXZ@AAPAD@Z 0048a629 f i libucrt:output.obj
 0001:0008963f       ??$read_va_arg@PAUansi_string@?1??type_case_Z@?$output_processor@DV?$string_output_adapter@D@__crt_stdio_output@@V?$format_validation_base@DV?$string_output_adapter@D@__crt_stdio_output@@@2@@__crt_stdio_output@@AAE_NXZ@@__crt_stdio_output@@YAPAUansi_string@?1??type_case_Z@?$output_processor@DV?$string_output_adapter@D@__crt_stdio_output@@V?$format_validation_base@DV?$string_output_adapter@D@__crt_stdio_output@@@2@@0@AAE_NXZ@AAPAD@Z 0048a63f f i libucrt:output.obj
 0001:00089655       ??$read_va_arg@PAUansi_string@?1??type_case_Z@?$output_processor@DV?$string_output_adapter@D@__crt_stdio_output@@V?$positional_parameter_base@DV?$string_output_adapter@D@__crt_stdio_output@@@2@@__crt_stdio_output@@AAE_NXZ@@__crt_stdio_output@@YAPAUansi_string@?1??type_case_Z@?$output_processor@DV?$string_output_adapter@D@__crt_stdio_output@@V?$positional_parameter_base@DV?$string_output_adapter@D@__crt_stdio_output@@@2@@0@AAE_NXZ@AAPAD@Z 0048a655 f i libucrt:output.obj
 0001:0008966b       ??$read_va_arg@PAUansi_string@?1??type_case_Z@?$output_processor@DV?$string_output_adapter@D@__crt_stdio_output@@V?$standard_base@DV?$string_output_adapter@D@__crt_stdio_output@@@2@@__crt_stdio_output@@AAE_NXZ@@__crt_stdio_output@@YAPAUansi_string@?1??type_case_Z@?$output_processor@DV?$string_output_adapter@D@__crt_stdio_output@@V?$standard_base@DV?$string_output_adapter@D@__crt_stdio_output@@@2@@0@AAE_NXZ@AAPAD@Z 0048a66b f i libucrt:output.obj
 0001:00089681       ??$read_va_arg@PAUansi_string@?1??type_case_Z@?$output_processor@_WV?$stream_output_adapter@_W@__crt_stdio_output@@V?$format_validation_base@_WV?$stream_output_adapter@_W@__crt_stdio_output@@@2@@__crt_stdio_output@@AAE_NXZ@@__crt_stdio_output@@YAPAUansi_string@?1??type_case_Z@?$output_processor@_WV?$stream_output_adapter@_W@__crt_stdio_output@@V?$format_validation_base@_WV?$stream_output_adapter@_W@__crt_stdio_output@@@2@@0@AAE_NXZ@AAPAD@Z 0048a681 f i libucrt:output.obj
 0001:00089697       ??$read_va_arg@PAUansi_string@?1??type_case_Z@?$output_processor@_WV?$stream_output_adapter@_W@__crt_stdio_output@@V?$positional_parameter_base@_WV?$stream_output_adapter@_W@__crt_stdio_output@@@2@@__crt_stdio_output@@AAE_NXZ@@__crt_stdio_output@@YAPAUansi_string@?1??type_case_Z@?$output_processor@_WV?$stream_output_adapter@_W@__crt_stdio_output@@V?$positional_parameter_base@_WV?$stream_output_adapter@_W@__crt_stdio_output@@@2@@0@AAE_NXZ@AAPAD@Z 0048a697 f i libucrt:output.obj
 0001:000896ad       ??$read_va_arg@PAUansi_string@?1??type_case_Z@?$output_processor@_WV?$stream_output_adapter@_W@__crt_stdio_output@@V?$standard_base@_WV?$stream_output_adapter@_W@__crt_stdio_output@@@2@@__crt_stdio_output@@AAE_NXZ@@__crt_stdio_output@@YAPAUansi_string@?1??type_case_Z@?$output_processor@_WV?$stream_output_adapter@_W@__crt_stdio_output@@V?$standard_base@_WV?$stream_output_adapter@_W@__crt_stdio_output@@@2@@0@AAE_NXZ@AAPAD@Z 0048a6ad f i libucrt:output.obj
 0001:000896c3       ??$read_va_arg@PAUansi_string@?1??type_case_Z@?$output_processor@_WV?$string_output_adapter@_W@__crt_stdio_output@@V?$format_validation_base@_WV?$string_output_adapter@_W@__crt_stdio_output@@@2@@__crt_stdio_output@@AAE_NXZ@@__crt_stdio_output@@YAPAUansi_string@?1??type_case_Z@?$output_processor@_WV?$string_output_adapter@_W@__crt_stdio_output@@V?$format_validation_base@_WV?$string_output_adapter@_W@__crt_stdio_output@@@2@@0@AAE_NXZ@AAPAD@Z 0048a6c3 f i libucrt:output.obj
 0001:000896d9       ??$read_va_arg@PAUansi_string@?1??type_case_Z@?$output_processor@_WV?$string_output_adapter@_W@__crt_stdio_output@@V?$positional_parameter_base@_WV?$string_output_adapter@_W@__crt_stdio_output@@@2@@__crt_stdio_output@@AAE_NXZ@@__crt_stdio_output@@YAPAUansi_string@?1??type_case_Z@?$output_processor@_WV?$string_output_adapter@_W@__crt_stdio_output@@V?$positional_parameter_base@_WV?$string_output_adapter@_W@__crt_stdio_output@@@2@@0@AAE_NXZ@AAPAD@Z 0048a6d9 f i libucrt:output.obj
 0001:000896ef       ??$read_va_arg@PAUansi_string@?1??type_case_Z@?$output_processor@_WV?$string_output_adapter@_W@__crt_stdio_output@@V?$standard_base@_WV?$string_output_adapter@_W@__crt_stdio_output@@@2@@__crt_stdio_output@@AAE_NXZ@@__crt_stdio_output@@YAPAUansi_string@?1??type_case_Z@?$output_processor@_WV?$string_output_adapter@_W@__crt_stdio_output@@V?$standard_base@_WV?$string_output_adapter@_W@__crt_stdio_output@@@2@@0@AAE_NXZ@AAPAD@Z 0048a6ef f i libucrt:output.obj
 0001:00089705       ??$read_va_arg@PAX@__crt_stdio_output@@YAPAXAAPAD@Z 0048a705 f i libucrt:output.obj
 0001:0008971b       ??$read_va_arg@U_CRT_DOUBLE@@@__crt_stdio_output@@YA?AU_CRT_DOUBLE@@AAPAD@Z 0048a71b f i libucrt:output.obj
 0001:00089735       ??$read_va_arg@_J@__crt_stdio_output@@YA_JAAPAD@Z 0048a735 f i libucrt:output.obj
 0001:0008974f       ??$read_va_arg@_K@__crt_stdio_output@@YA_KAAPAD@Z 0048a74f f i libucrt:output.obj
 0001:00089769       ??$read_va_arg@_W@__crt_stdio_output@@YA_WAAPAD@Z 0048a769 f i libucrt:output.obj
 0001:00089780       ??$scratch_count@D@formatting_buffer@__crt_stdio_output@@QBEIXZ 0048a780 f i libucrt:output.obj
 0001:00089785       ??$scratch_data@D@formatting_buffer@__crt_stdio_output@@QAEPADXZ 0048a785 f i libucrt:output.obj
 0001:000897aa       ??$tcstol@AAPBDPAPADH@?$__crt_char_traits@D@@SAJAAPBD$$QAPAPAD$$QAH@Z 0048a7aa f i libucrt:output.obj
 0001:000897cf       ??$tcstol@AAPB_WPAPA_WH@?$__crt_char_traits@_W@@SAJAAPB_W$$QAPAPA_W$$QAH@Z 0048a7cf f i libucrt:output.obj
 0001:000897f4       ??$tcstol@PBDPAPADH@?$__crt_char_traits@D@@SAJ$$QAPBD$$QAPAPAD$$QAH@Z 0048a7f4 f i libucrt:output.obj
 0001:00089819       ??$tcstol@PB_WPAPA_WH@?$__crt_char_traits@_W@@SAJ$$QAPB_W$$QAPAPA_W$$QAH@Z 0048a819 f i libucrt:output.obj
 0001:0008983e       ??$type_case_integer_parse_into_buffer@I@?$output_processor@DV?$stream_output_adapter@D@__crt_stdio_output@@V?$format_validation_base@DV?$stream_output_adapter@D@__crt_stdio_output@@@2@@__crt_stdio_output@@AAEXII_N@Z 0048a83e f i libucrt:output.obj
 0001:000898d0       ??$type_case_integer_parse_into_buffer@I@?$output_processor@DV?$stream_output_adapter@D@__crt_stdio_output@@V?$positional_parameter_base@DV?$stream_output_adapter@D@__crt_stdio_output@@@2@@__crt_stdio_output@@AAEXII_N@Z 0048a8d0 f i libucrt:output.obj
 0001:00089962       ??$type_case_integer_parse_into_buffer@I@?$output_processor@DV?$stream_output_adapter@D@__crt_stdio_output@@V?$standard_base@DV?$stream_output_adapter@D@__crt_stdio_output@@@2@@__crt_stdio_output@@AAEXII_N@Z 0048a962 f i libucrt:output.obj
 0001:000899f4       ??$type_case_integer_parse_into_buffer@I@?$output_processor@DV?$string_output_adapter@D@__crt_stdio_output@@V?$format_validation_base@DV?$string_output_adapter@D@__crt_stdio_output@@@2@@__crt_stdio_output@@AAEXII_N@Z 0048a9f4 f i libucrt:output.obj
 0001:00089a86       ??$type_case_integer_parse_into_buffer@I@?$output_processor@DV?$string_output_adapter@D@__crt_stdio_output@@V?$positional_parameter_base@DV?$string_output_adapter@D@__crt_stdio_output@@@2@@__crt_stdio_output@@AAEXII_N@Z 0048aa86 f i libucrt:output.obj
 0001:00089b18       ??$type_case_integer_parse_into_buffer@I@?$output_processor@DV?$string_output_adapter@D@__crt_stdio_output@@V?$standard_base@DV?$string_output_adapter@D@__crt_stdio_output@@@2@@__crt_stdio_output@@AAEXII_N@Z 0048ab18 f i libucrt:output.obj
 0001:00089baa       ??$type_case_integer_parse_into_buffer@I@?$output_processor@_WV?$stream_output_adapter@_W@__crt_stdio_output@@V?$format_validation_base@_WV?$stream_output_adapter@_W@__crt_stdio_output@@@2@@__crt_stdio_output@@AAEXII_N@Z 0048abaa f i libucrt:output.obj
 0001:00089c3c       ??$type_case_integer_parse_into_buffer@I@?$output_processor@_WV?$stream_output_adapter@_W@__crt_stdio_output@@V?$positional_parameter_base@_WV?$stream_output_adapter@_W@__crt_stdio_output@@@2@@__crt_stdio_output@@AAEXII_N@Z 0048ac3c f i libucrt:output.obj
 0001:00089cce       ??$type_case_integer_parse_into_buffer@I@?$output_processor@_WV?$stream_output_adapter@_W@__crt_stdio_output@@V?$standard_base@_WV?$stream_output_adapter@_W@__crt_stdio_output@@@2@@__crt_stdio_output@@AAEXII_N@Z 0048acce f i libucrt:output.obj
 0001:00089d60       ??$type_case_integer_parse_into_buffer@I@?$output_processor@_WV?$string_output_adapter@_W@__crt_stdio_output@@V?$format_validation_base@_WV?$string_output_adapter@_W@__crt_stdio_output@@@2@@__crt_stdio_output@@AAEXII_N@Z 0048ad60 f i libucrt:output.obj
 0001:00089df2       ??$type_case_integer_parse_into_buffer@I@?$output_processor@_WV?$string_output_adapter@_W@__crt_stdio_output@@V?$positional_parameter_base@_WV?$string_output_adapter@_W@__crt_stdio_output@@@2@@__crt_stdio_output@@AAEXII_N@Z 0048adf2 f i libucrt:output.obj
 0001:00089e84       ??$type_case_integer_parse_into_buffer@I@?$output_processor@_WV?$string_output_adapter@_W@__crt_stdio_output@@V?$standard_base@_WV?$string_output_adapter@_W@__crt_stdio_output@@@2@@__crt_stdio_output@@AAEXII_N@Z 0048ae84 f i libucrt:output.obj
 0001:00089f16       ??$type_case_integer_parse_into_buffer@_K@?$output_processor@DV?$stream_output_adapter@D@__crt_stdio_output@@V?$format_validation_base@DV?$stream_output_adapter@D@__crt_stdio_output@@@2@@__crt_stdio_output@@AAEX_KI_N@Z 0048af16 f i libucrt:output.obj
 0001:00089fc0       ??$type_case_integer_parse_into_buffer@_K@?$output_processor@DV?$stream_output_adapter@D@__crt_stdio_output@@V?$positional_parameter_base@DV?$stream_output_adapter@D@__crt_stdio_output@@@2@@__crt_stdio_output@@AAEX_KI_N@Z 0048afc0 f i libucrt:output.obj
 0001:0008a06a       ??$type_case_integer_parse_into_buffer@_K@?$output_processor@DV?$stream_output_adapter@D@__crt_stdio_output@@V?$standard_base@DV?$stream_output_adapter@D@__crt_stdio_output@@@2@@__crt_stdio_output@@AAEX_KI_N@Z 0048b06a f i libucrt:output.obj
 0001:0008a114       ??$type_case_integer_parse_into_buffer@_K@?$output_processor@DV?$string_output_adapter@D@__crt_stdio_output@@V?$format_validation_base@DV?$string_output_adapter@D@__crt_stdio_output@@@2@@__crt_stdio_output@@AAEX_KI_N@Z 0048b114 f i libucrt:output.obj
 0001:0008a1be       ??$type_case_integer_parse_into_buffer@_K@?$output_processor@DV?$string_output_adapter@D@__crt_stdio_output@@V?$positional_parameter_base@DV?$string_output_adapter@D@__crt_stdio_output@@@2@@__crt_stdio_output@@AAEX_KI_N@Z 0048b1be f i libucrt:output.obj
 0001:0008a268       ??$type_case_integer_parse_into_buffer@_K@?$output_processor@DV?$string_output_adapter@D@__crt_stdio_output@@V?$standard_base@DV?$string_output_adapter@D@__crt_stdio_output@@@2@@__crt_stdio_output@@AAEX_KI_N@Z 0048b268 f i libucrt:output.obj
 0001:0008a312       ??$type_case_integer_parse_into_buffer@_K@?$output_processor@_WV?$stream_output_adapter@_W@__crt_stdio_output@@V?$format_validation_base@_WV?$stream_output_adapter@_W@__crt_stdio_output@@@2@@__crt_stdio_output@@AAEX_KI_N@Z 0048b312 f i libucrt:output.obj
 0001:0008a3bc       ??$type_case_integer_parse_into_buffer@_K@?$output_processor@_WV?$stream_output_adapter@_W@__crt_stdio_output@@V?$positional_parameter_base@_WV?$stream_output_adapter@_W@__crt_stdio_output@@@2@@__crt_stdio_output@@AAEX_KI_N@Z 0048b3bc f i libucrt:output.obj
 0001:0008a466       ??$type_case_integer_parse_into_buffer@_K@?$output_processor@_WV?$stream_output_adapter@_W@__crt_stdio_output@@V?$standard_base@_WV?$stream_output_adapter@_W@__crt_stdio_output@@@2@@__crt_stdio_output@@AAEX_KI_N@Z 0048b466 f i libucrt:output.obj
 0001:0008a510       ??$type_case_integer_parse_into_buffer@_K@?$output_processor@_WV?$string_output_adapter@_W@__crt_stdio_output@@V?$format_validation_base@_WV?$string_output_adapter@_W@__crt_stdio_output@@@2@@__crt_stdio_output@@AAEX_KI_N@Z 0048b510 f i libucrt:output.obj
 0001:0008a5ba       ??$type_case_integer_parse_into_buffer@_K@?$output_processor@_WV?$string_output_adapter@_W@__crt_stdio_output@@V?$positional_parameter_base@_WV?$string_output_adapter@_W@__crt_stdio_output@@@2@@__crt_stdio_output@@AAEX_KI_N@Z 0048b5ba f i libucrt:output.obj
 0001:0008a664       ??$type_case_integer_parse_into_buffer@_K@?$output_processor@_WV?$string_output_adapter@_W@__crt_stdio_output@@V?$standard_base@_WV?$string_output_adapter@_W@__crt_stdio_output@@@2@@__crt_stdio_output@@AAEX_KI_N@Z 0048b664 f i libucrt:output.obj
 0001:0008a70e       ??$write_multiple_characters@V?$stream_output_adapter@D@__crt_stdio_output@@D@__crt_stdio_output@@YAXABV?$stream_output_adapter@D@0@DHQAH@Z 0048b70e f i libucrt:output.obj
 0001:0008a745       ??$write_multiple_characters@V?$stream_output_adapter@_W@__crt_stdio_output@@D@__crt_stdio_output@@YAXABV?$stream_output_adapter@_W@0@DHQAH@Z 0048b745 f i libucrt:output.obj
 0001:0008a782       ??$write_multiple_characters@V?$string_output_adapter@D@__crt_stdio_output@@D@__crt_stdio_output@@YAXABV?$string_output_adapter@D@0@DHQAH@Z 0048b782 f i libucrt:output.obj
 0001:0008a7b9       ??$write_multiple_characters@V?$string_output_adapter@_W@__crt_stdio_output@@D@__crt_stdio_output@@YAXABV?$string_output_adapter@_W@0@DHQAH@Z 0048b7b9 f i libucrt:output.obj
 0001:0008aa2a       ??0?$common_data@D@__crt_stdio_output@@IAE@XZ 0048ba2a f i libucrt:output.obj
 0001:0008aa82       ??0?$common_data@_W@__crt_stdio_output@@IAE@XZ 0048ba82 f i libucrt:output.obj
 0001:0008aae1       ??0?$output_adapter_data@DV?$stream_output_adapter@D@__crt_stdio_output@@@__crt_stdio_output@@IAE@ABV?$stream_output_adapter@D@1@_KQBDQAU__crt_locale_pointers@@QAD@Z 0048bae1 f i libucrt:output.obj
 0001:0008ab2c       ??0?$output_adapter_data@DV?$string_output_adapter@D@__crt_stdio_output@@@__crt_stdio_output@@IAE@ABV?$string_output_adapter@D@1@_KQBDQAU__crt_locale_pointers@@QAD@Z 0048bb2c f i libucrt:output.obj
 0001:0008ab77       ??0?$output_adapter_data@_WV?$stream_output_adapter@_W@__crt_stdio_output@@@__crt_stdio_output@@IAE@ABV?$stream_output_adapter@_W@1@_KQB_WQAU__crt_locale_pointers@@QAD@Z 0048bb77 f i libucrt:output.obj
 0001:0008abc2       ??0?$output_adapter_data@_WV?$string_output_adapter@_W@__crt_stdio_output@@@__crt_stdio_output@@IAE@ABV?$string_output_adapter@_W@1@_KQB_WQAU__crt_locale_pointers@@QAD@Z 0048bbc2 f i libucrt:output.obj
 0001:0008ac0d       ??0?$output_processor@DV?$stream_output_adapter@D@__crt_stdio_output@@V?$format_validation_base@DV?$stream_output_adapter@D@__crt_stdio_output@@@2@@__crt_stdio_output@@QAE@ABV?$stream_output_adapter@D@1@_KQBDQAU__crt_locale_pointers@@QAD@Z 0048bc0d f i libucrt:output.obj
 0001:0008ac4f       ??0?$output_processor@DV?$stream_output_adapter@D@__crt_stdio_output@@V?$positional_parameter_base@DV?$stream_output_adapter@D@__crt_stdio_output@@@2@@__crt_stdio_output@@QAE@ABV?$stream_output_adapter@D@1@_KQBDQAU__crt_locale_pointers@@QAD@Z 0048bc4f f i libucrt:output.obj
 0001:0008ac89       ??0?$output_processor@DV?$stream_output_adapter@D@__crt_stdio_output@@V?$standard_base@DV?$stream_output_adapter@D@__crt_stdio_output@@@2@@__crt_stdio_output@@QAE@ABV?$stream_output_adapter@D@1@_KQBDQAU__crt_locale_pointers@@QAD@Z 0048bc89 f i libucrt:output.obj
 0001:0008accb       ??0?$output_processor@DV?$string_output_adapter@D@__crt_stdio_output@@V?$format_validation_base@DV?$string_output_adapter@D@__crt_stdio_output@@@2@@__crt_stdio_output@@QAE@ABV?$string_output_adapter@D@1@_KQBDQAU__crt_locale_pointers@@QAD@Z 0048bccb f i libucrt:output.obj
 0001:0008ad0d       ??0?$output_processor@DV?$string_output_adapter@D@__crt_stdio_output@@V?$positional_parameter_base@DV?$string_output_adapter@D@__crt_stdio_output@@@2@@__crt_stdio_output@@QAE@ABV?$string_output_adapter@D@1@_KQBDQAU__crt_locale_pointers@@QAD@Z 0048bd0d f i libucrt:output.obj
 0001:0008ad47       ??0?$output_processor@DV?$string_output_adapter@D@__crt_stdio_output@@V?$standard_base@DV?$string_output_adapter@D@__crt_stdio_output@@@2@@__crt_stdio_output@@QAE@ABV?$string_output_adapter@D@1@_KQBDQAU__crt_locale_pointers@@QAD@Z 0048bd47 f i libucrt:output.obj
 0001:0008ad89       ??0?$output_processor@_WV?$stream_output_adapter@_W@__crt_stdio_output@@V?$format_validation_base@_WV?$stream_output_adapter@_W@__crt_stdio_output@@@2@@__crt_stdio_output@@QAE@ABV?$stream_output_adapter@_W@1@_KQB_WQAU__crt_locale_pointers@@QAD@Z 0048bd89 f i libucrt:output.obj
 0001:0008adcb       ??0?$output_processor@_WV?$stream_output_adapter@_W@__crt_stdio_output@@V?$positional_parameter_base@_WV?$stream_output_adapter@_W@__crt_stdio_output@@@2@@__crt_stdio_output@@QAE@ABV?$stream_output_adapter@_W@1@_KQB_WQAU__crt_locale_pointers@@QAD@Z 0048bdcb f i libucrt:output.obj
 0001:0008ae05       ??0?$output_processor@_WV?$stream_output_adapter@_W@__crt_stdio_output@@V?$standard_base@_WV?$stream_output_adapter@_W@__crt_stdio_output@@@2@@__crt_stdio_output@@QAE@ABV?$stream_output_adapter@_W@1@_KQB_WQAU__crt_locale_pointers@@QAD@Z 0048be05 f i libucrt:output.obj
 0001:0008ae47       ??0?$output_processor@_WV?$string_output_adapter@_W@__crt_stdio_output@@V?$format_validation_base@_WV?$string_output_adapter@_W@__crt_stdio_output@@@2@@__crt_stdio_output@@QAE@ABV?$string_output_adapter@_W@1@_KQB_WQAU__crt_locale_pointers@@QAD@Z 0048be47 f i libucrt:output.obj
 0001:0008ae89       ??0?$output_processor@_WV?$string_output_adapter@_W@__crt_stdio_output@@V?$positional_parameter_base@_WV?$string_output_adapter@_W@__crt_stdio_output@@@2@@__crt_stdio_output@@QAE@ABV?$string_output_adapter@_W@1@_KQB_WQAU__crt_locale_pointers@@QAD@Z 0048be89 f i libucrt:output.obj
 0001:0008aec3       ??0?$output_processor@_WV?$string_output_adapter@_W@__crt_stdio_output@@V?$standard_base@_WV?$string_output_adapter@_W@__crt_stdio_output@@@2@@__crt_stdio_output@@QAE@ABV?$string_output_adapter@_W@1@_KQB_WQAU__crt_locale_pointers@@QAD@Z 0048bec3 f i libucrt:output.obj
 0001:0008af05       ??0?$stream_output_adapter@D@__crt_stdio_output@@QAE@QAU_iobuf@@@Z 0048bf05 f i libucrt:output.obj
 0001:0008af19       ??0?$stream_output_adapter@_W@__crt_stdio_output@@QAE@QAU_iobuf@@@Z 0048bf19 f i libucrt:output.obj
 0001:0008af2d       ??0?$string_output_adapter@D@__crt_stdio_output@@QAE@QAU?$string_output_adapter_context@D@1@@Z 0048bf2d f i libucrt:output.obj
 0001:0008af41       ??0?$string_output_adapter@_W@__crt_stdio_output@@QAE@QAU?$string_output_adapter_context@_W@1@@Z 0048bf41 f i libucrt:output.obj
 0001:0008af55       ??0_LocaleUpdate@@QAE@QAU__crt_locale_pointers@@@Z 0048bf55 f i libucrt:output.obj
 0001:0008aff8       ??0__acrt_stdio_temporary_buffering_guard@@QAE@QAU_iobuf@@@Z 0048bff8 f i libucrt:output.obj
 0001:0008b01d       ??0__crt_errno_guard@@QAE@QAH@Z 0048c01d f i libucrt:output.obj
 0001:0008b03b       ??0__crt_stdio_stream@@QAE@QAU_iobuf@@@Z 0048c03b f i libucrt:output.obj
 0001:0008b04f       ??0formatting_buffer@__crt_stdio_output@@QAE@XZ 0048c04f f i libucrt:output.obj
 0001:0008b064       ??1?$common_data@D@__crt_stdio_output@@QAE@XZ 0048c064 f i libucrt:output.obj
 0001:0008b06e       ??1?$common_data@_W@__crt_stdio_output@@QAE@XZ 0048c06e f i libucrt:output.obj
 0001:0008b078       ??1?$format_validation_base@DV?$stream_output_adapter@D@__crt_stdio_output@@@__crt_stdio_output@@QAE@XZ 0048c078 f i libucrt:output.obj
 0001:0008b082       ??1?$format_validation_base@DV?$string_output_adapter@D@__crt_stdio_output@@@__crt_stdio_output@@QAE@XZ 0048c082 f i libucrt:output.obj
 0001:0008b08c       ??1?$format_validation_base@_WV?$stream_output_adapter@_W@__crt_stdio_output@@@__crt_stdio_output@@QAE@XZ 0048c08c f i libucrt:output.obj
 0001:0008b096       ??1?$format_validation_base@_WV?$string_output_adapter@_W@__crt_stdio_output@@@__crt_stdio_output@@QAE@XZ 0048c096 f i libucrt:output.obj
 0001:0008b0a0       ??1?$output_adapter_data@DV?$stream_output_adapter@D@__crt_stdio_output@@@__crt_stdio_output@@QAE@XZ 0048c0a0 f i libucrt:output.obj
 0001:0008b0aa       ??1?$output_adapter_data@DV?$string_output_adapter@D@__crt_stdio_output@@@__crt_stdio_output@@QAE@XZ 0048c0aa f i libucrt:output.obj
 0001:0008b0b4       ??1?$output_adapter_data@_WV?$stream_output_adapter@_W@__crt_stdio_output@@@__crt_stdio_output@@QAE@XZ 0048c0b4 f i libucrt:output.obj
 0001:0008b0be       ??1?$output_adapter_data@_WV?$string_output_adapter@_W@__crt_stdio_output@@@__crt_stdio_output@@QAE@XZ 0048c0be f i libucrt:output.obj
 0001:0008b0c8       ??1?$output_processor@DV?$stream_output_adapter@D@__crt_stdio_output@@V?$format_validation_base@DV?$stream_output_adapter@D@__crt_stdio_output@@@2@@__crt_stdio_output@@QAE@XZ 0048c0c8 f i libucrt:output.obj
 0001:0008b0d2       ??1?$output_processor@DV?$stream_output_adapter@D@__crt_stdio_output@@V?$positional_parameter_base@DV?$stream_output_adapter@D@__crt_stdio_output@@@2@@__crt_stdio_output@@QAE@XZ 0048c0d2 f i libucrt:output.obj
 0001:0008b0dc       ??1?$output_processor@DV?$stream_output_adapter@D@__crt_stdio_output@@V?$standard_base@DV?$stream_output_adapter@D@__crt_stdio_output@@@2@@__crt_stdio_output@@QAE@XZ 0048c0dc f i libucrt:output.obj
 0001:0008b0e6       ??1?$output_processor@DV?$string_output_adapter@D@__crt_stdio_output@@V?$format_validation_base@DV?$string_output_adapter@D@__crt_stdio_output@@@2@@__crt_stdio_output@@QAE@XZ 0048c0e6 f i libucrt:output.obj
 0001:0008b0f0       ??1?$output_processor@DV?$string_output_adapter@D@__crt_stdio_output@@V?$positional_parameter_base@DV?$string_output_adapter@D@__crt_stdio_output@@@2@@__crt_stdio_output@@QAE@XZ 0048c0f0 f i libucrt:output.obj
 0001:0008b0fa       ??1?$output_processor@DV?$string_output_adapter@D@__crt_stdio_output@@V?$standard_base@DV?$string_output_adapter@D@__crt_stdio_output@@@2@@__crt_stdio_output@@QAE@XZ 0048c0fa f i libucrt:output.obj
 0001:0008b104       ??1?$output_processor@_WV?$stream_output_adapter@_W@__crt_stdio_output@@V?$format_validation_base@_WV?$stream_output_adapter@_W@__crt_stdio_output@@@2@@__crt_stdio_output@@QAE@XZ 0048c104 f i libucrt:output.obj
 0001:0008b10e       ??1?$output_processor@_WV?$stream_output_adapter@_W@__crt_stdio_output@@V?$positional_parameter_base@_WV?$stream_output_adapter@_W@__crt_stdio_output@@@2@@__crt_stdio_output@@QAE@XZ 0048c10e f i libucrt:output.obj
 0001:0008b118       ??1?$output_processor@_WV?$stream_output_adapter@_W@__crt_stdio_output@@V?$standard_base@_WV?$stream_output_adapter@_W@__crt_stdio_output@@@2@@__crt_stdio_output@@QAE@XZ 0048c118 f i libucrt:output.obj
 0001:0008b122       ??1?$output_processor@_WV?$string_output_adapter@_W@__crt_stdio_output@@V?$format_validation_base@_WV?$string_output_adapter@_W@__crt_stdio_output@@@2@@__crt_stdio_output@@QAE@XZ 0048c122 f i libucrt:output.obj
 0001:0008b12c       ??1?$output_processor@_WV?$string_output_adapter@_W@__crt_stdio_output@@V?$positional_parameter_base@_WV?$string_output_adapter@_W@__crt_stdio_output@@@2@@__crt_stdio_output@@QAE@XZ 0048c12c f i libucrt:output.obj
 0001:0008b136       ??1?$output_processor@_WV?$string_output_adapter@_W@__crt_stdio_output@@V?$standard_base@_WV?$string_output_adapter@_W@__crt_stdio_output@@@2@@__crt_stdio_output@@QAE@XZ 0048c136 f i libucrt:output.obj
 0001:0008b140       ??1?$positional_parameter_base@DV?$stream_output_adapter@D@__crt_stdio_output@@@__crt_stdio_output@@QAE@XZ 0048c140 f i libucrt:output.obj
 0001:0008b14a       ??1?$positional_parameter_base@DV?$string_output_adapter@D@__crt_stdio_output@@@__crt_stdio_output@@QAE@XZ 0048c14a f i libucrt:output.obj
 0001:0008b154       ??1?$positional_parameter_base@_WV?$stream_output_adapter@_W@__crt_stdio_output@@@__crt_stdio_output@@QAE@XZ 0048c154 f i libucrt:output.obj
 0001:0008b15e       ??1?$positional_parameter_base@_WV?$string_output_adapter@_W@__crt_stdio_output@@@__crt_stdio_output@@QAE@XZ 0048c15e f i libucrt:output.obj
 0001:0008b168       ??1?$standard_base@DV?$stream_output_adapter@D@__crt_stdio_output@@@__crt_stdio_output@@QAE@XZ 0048c168 f i libucrt:output.obj
 0001:0008b172       ??1?$standard_base@DV?$string_output_adapter@D@__crt_stdio_output@@@__crt_stdio_output@@QAE@XZ 0048c172 f i libucrt:output.obj
 0001:0008b17c       ??1?$standard_base@_WV?$stream_output_adapter@_W@__crt_stdio_output@@@__crt_stdio_output@@QAE@XZ 0048c17c f i libucrt:output.obj
 0001:0008b186       ??1?$standard_base@_WV?$string_output_adapter@_W@__crt_stdio_output@@@__crt_stdio_output@@QAE@XZ 0048c186 f i libucrt:output.obj
 0001:0008b190       ??1_LocaleUpdate@@QAE@XZ   0048c190 f i libucrt:output.obj
 0001:0008b1a4       ??1__acrt_stdio_temporary_buffering_guard@@QAE@XZ 0048c1a4 f i libucrt:output.obj
 0001:0008b1b6       ??1__crt_errno_guard@@QAE@XZ 0048c1b6 f i libucrt:output.obj
 0001:0008b1cb       ??1formatting_buffer@__crt_stdio_output@@QAE@XZ 0048c1cb f i libucrt:output.obj
 0001:0008b1eb       ??4?$__crt_unique_heap_ptr@DU__crt_internal_free_policy@@@@QAEAAV0@$$QAV0@@Z 0048c1eb f i libucrt:output.obj
 0001:0008b218       ??C__crt_stdio_stream@@QBEPAU__crt_stdio_stream_data@@XZ 0048c218 f i libucrt:output.obj
 0001:0008b8d1       ?GetLocaleT@_LocaleUpdate@@QAEPAU__crt_locale_pointers@@XZ 0048c8d1 f i libucrt:output.obj
 0001:0008b8d5       ?__crt_interlocked_read_32@@YAHPDH@Z 0048c8d5 f i libucrt:output.obj
 0001:0008b8e4       ?adjust_hexit@?$output_processor@DV?$stream_output_adapter@D@__crt_stdio_output@@V?$format_validation_base@DV?$stream_output_adapter@D@__crt_stdio_output@@@2@@__crt_stdio_output@@CADH_N@Z 0048c8e4 f i libucrt:output.obj
 0001:0008b909       ?adjust_hexit@?$output_processor@DV?$stream_output_adapter@D@__crt_stdio_output@@V?$positional_parameter_base@DV?$stream_output_adapter@D@__crt_stdio_output@@@2@@__crt_stdio_output@@CADH_N@Z 0048c909 f i libucrt:output.obj
 0001:0008b92e       ?adjust_hexit@?$output_processor@DV?$stream_output_adapter@D@__crt_stdio_output@@V?$standard_base@DV?$stream_output_adapter@D@__crt_stdio_output@@@2@@__crt_stdio_output@@CADH_N@Z 0048c92e f i libucrt:output.obj
 0001:0008b953       ?adjust_hexit@?$output_processor@DV?$string_output_adapter@D@__crt_stdio_output@@V?$format_validation_base@DV?$string_output_adapter@D@__crt_stdio_output@@@2@@__crt_stdio_output@@CADH_N@Z 0048c953 f i libucrt:output.obj
 0001:0008b978       ?adjust_hexit@?$output_processor@DV?$string_output_adapter@D@__crt_stdio_output@@V?$positional_parameter_base@DV?$string_output_adapter@D@__crt_stdio_output@@@2@@__crt_stdio_output@@CADH_N@Z 0048c978 f i libucrt:output.obj
 0001:0008b99d       ?adjust_hexit@?$output_processor@DV?$string_output_adapter@D@__crt_stdio_output@@V?$standard_base@DV?$string_output_adapter@D@__crt_stdio_output@@@2@@__crt_stdio_output@@CADH_N@Z 0048c99d f i libucrt:output.obj
 0001:0008b9c2       ?adjust_hexit@?$output_processor@_WV?$stream_output_adapter@_W@__crt_stdio_output@@V?$format_validation_base@_WV?$stream_output_adapter@_W@__crt_stdio_output@@@2@@__crt_stdio_output@@CADH_N@Z 0048c9c2 f i libucrt:output.obj
 0001:0008b9e7       ?adjust_hexit@?$output_processor@_WV?$stream_output_adapter@_W@__crt_stdio_output@@V?$positional_parameter_base@_WV?$stream_output_adapter@_W@__crt_stdio_output@@@2@@__crt_stdio_output@@CADH_N@Z 0048c9e7 f i libucrt:output.obj
 0001:0008ba0c       ?adjust_hexit@?$output_processor@_WV?$stream_output_adapter@_W@__crt_stdio_output@@V?$standard_base@_WV?$stream_output_adapter@_W@__crt_stdio_output@@@2@@__crt_stdio_output@@CADH_N@Z 0048ca0c f i libucrt:output.obj
 0001:0008ba31       ?adjust_hexit@?$output_processor@_WV?$string_output_adapter@_W@__crt_stdio_output@@V?$format_validation_base@_WV?$string_output_adapter@_W@__crt_stdio_output@@@2@@__crt_stdio_output@@CADH_N@Z 0048ca31 f i libucrt:output.obj
 0001:0008ba56       ?adjust_hexit@?$output_processor@_WV?$string_output_adapter@_W@__crt_stdio_output@@V?$positional_parameter_base@_WV?$string_output_adapter@_W@__crt_stdio_output@@@2@@__crt_stdio_output@@CADH_N@Z 0048ca56 f i libucrt:output.obj
 0001:0008ba7b       ?adjust_hexit@?$output_processor@_WV?$string_output_adapter@_W@__crt_stdio_output@@V?$standard_base@_WV?$string_output_adapter@_W@__crt_stdio_output@@@2@@__crt_stdio_output@@CADH_N@Z 0048ca7b f i libucrt:output.obj
 0001:0008baa0       ?advance_to_next_pass@?$positional_parameter_base@DV?$stream_output_adapter@D@__crt_stdio_output@@@__crt_stdio_output@@IAE_NXZ 0048caa0 f i libucrt:output.obj
 0001:0008baff       ?advance_to_next_pass@?$positional_parameter_base@DV?$string_output_adapter@D@__crt_stdio_output@@@__crt_stdio_output@@IAE_NXZ 0048caff f i libucrt:output.obj
 0001:0008bb5e       ?advance_to_next_pass@?$positional_parameter_base@_WV?$stream_output_adapter@_W@__crt_stdio_output@@@__crt_stdio_output@@IAE_NXZ 0048cb5e f i libucrt:output.obj
 0001:0008bbbd       ?advance_to_next_pass@?$positional_parameter_base@_WV?$string_output_adapter@_W@__crt_stdio_output@@@__crt_stdio_output@@IAE_NXZ 0048cbbd f i libucrt:output.obj
 0001:0008bc1c       ?advance_to_next_pass@?$standard_base@DV?$stream_output_adapter@D@__crt_stdio_output@@@__crt_stdio_output@@IAE_NXZ 0048cc1c f i libucrt:output.obj
 0001:0008bc33       ?advance_to_next_pass@?$standard_base@DV?$string_output_adapter@D@__crt_stdio_output@@@__crt_stdio_output@@IAE_NXZ 0048cc33 f i libucrt:output.obj
 0001:0008bc4a       ?advance_to_next_pass@?$standard_base@_WV?$stream_output_adapter@_W@__crt_stdio_output@@@__crt_stdio_output@@IAE_NXZ 0048cc4a f i libucrt:output.obj
 0001:0008bc61       ?advance_to_next_pass@?$standard_base@_WV?$string_output_adapter@_W@__crt_stdio_output@@@__crt_stdio_output@@IAE_NXZ 0048cc61 f i libucrt:output.obj
 0001:0008bc78       ?crop_zeroes@__crt_stdio_output@@YAXPADQAU__crt_locale_pointers@@@Z 0048cc78 f i libucrt:output.obj
 0001:0008bce4       ?find_next_state@?$output_processor@DV?$stream_output_adapter@D@__crt_stdio_output@@V?$format_validation_base@DV?$stream_output_adapter@D@__crt_stdio_output@@@2@@__crt_stdio_output@@ABE?AW4state@2@DW432@@Z 0048cce4 f i libucrt:output.obj
 0001:0008bd26       ?find_next_state@?$output_processor@DV?$stream_output_adapter@D@__crt_stdio_output@@V?$positional_parameter_base@DV?$stream_output_adapter@D@__crt_stdio_output@@@2@@__crt_stdio_output@@ABE?AW4state@2@DW432@@Z 0048cd26 f i libucrt:output.obj
 0001:0008bd68       ?find_next_state@?$output_processor@DV?$stream_output_adapter@D@__crt_stdio_output@@V?$standard_base@DV?$stream_output_adapter@D@__crt_stdio_output@@@2@@__crt_stdio_output@@ABE?AW4state@2@DW432@@Z 0048cd68 f i libucrt:output.obj
 0001:0008bda6       ?find_next_state@?$output_processor@DV?$string_output_adapter@D@__crt_stdio_output@@V?$format_validation_base@DV?$string_output_adapter@D@__crt_stdio_output@@@2@@__crt_stdio_output@@ABE?AW4state@2@DW432@@Z 0048cda6 f i libucrt:output.obj
 0001:0008bde8       ?find_next_state@?$output_processor@DV?$string_output_adapter@D@__crt_stdio_output@@V?$positional_parameter_base@DV?$string_output_adapter@D@__crt_stdio_output@@@2@@__crt_stdio_output@@ABE?AW4state@2@DW432@@Z 0048cde8 f i libucrt:output.obj
 0001:0008be2a       ?find_next_state@?$output_processor@DV?$string_output_adapter@D@__crt_stdio_output@@V?$standard_base@DV?$string_output_adapter@D@__crt_stdio_output@@@2@@__crt_stdio_output@@ABE?AW4state@2@DW432@@Z 0048ce2a f i libucrt:output.obj
 0001:0008be68       ?find_next_state@?$output_processor@_WV?$stream_output_adapter@_W@__crt_stdio_output@@V?$format_validation_base@_WV?$stream_output_adapter@_W@__crt_stdio_output@@@2@@__crt_stdio_output@@ABE?AW4state@2@_WW432@@Z 0048ce68 f i libucrt:output.obj
 0001:0008beac       ?find_next_state@?$output_processor@_WV?$stream_output_adapter@_W@__crt_stdio_output@@V?$positional_parameter_base@_WV?$stream_output_adapter@_W@__crt_stdio_output@@@2@@__crt_stdio_output@@ABE?AW4state@2@_WW432@@Z 0048ceac f i libucrt:output.obj
 0001:0008bef0       ?find_next_state@?$output_processor@_WV?$stream_output_adapter@_W@__crt_stdio_output@@V?$standard_base@_WV?$stream_output_adapter@_W@__crt_stdio_output@@@2@@__crt_stdio_output@@ABE?AW4state@2@_WW432@@Z 0048cef0 f i libucrt:output.obj
 0001:0008bf31       ?find_next_state@?$output_processor@_WV?$string_output_adapter@_W@__crt_stdio_output@@V?$format_validation_base@_WV?$string_output_adapter@_W@__crt_stdio_output@@@2@@__crt_stdio_output@@ABE?AW4state@2@_WW432@@Z 0048cf31 f i libucrt:output.obj
 0001:0008bf75       ?find_next_state@?$output_processor@_WV?$string_output_adapter@_W@__crt_stdio_output@@V?$positional_parameter_base@_WV?$string_output_adapter@_W@__crt_stdio_output@@@2@@__crt_stdio_output@@ABE?AW4state@2@_WW432@@Z 0048cf75 f i libucrt:output.obj
 0001:0008bfb9       ?find_next_state@?$output_processor@_WV?$string_output_adapter@_W@__crt_stdio_output@@V?$standard_base@_WV?$string_output_adapter@_W@__crt_stdio_output@@@2@@__crt_stdio_output@@ABE?AW4state@2@_WW432@@Z 0048cfb9 f i libucrt:output.obj
 0001:0008bffa       ?force_decimal_point@__crt_stdio_output@@YAXPADQAU__crt_locale_pointers@@@Z 0048cffa f i libucrt:output.obj
 0001:0008c06d       ?get_flags@__crt_stdio_stream@@QBEJXZ 0048d06d f i libucrt:output.obj
 0001:0008c073       ?get_parameter_type@?$positional_parameter_base@DV?$stream_output_adapter@D@__crt_stdio_output@@@__crt_stdio_output@@CA?AW4parameter_type@12@F@Z 0048d073 f i libucrt:output.obj
 0001:0008c077       ?get_parameter_type@?$positional_parameter_base@DV?$stream_output_adapter@D@__crt_stdio_output@@@__crt_stdio_output@@CA?AW4parameter_type@12@G@Z 0048d077 f i libucrt:output.obj
 0001:0008c07b       ?get_parameter_type@?$positional_parameter_base@DV?$stream_output_adapter@D@__crt_stdio_output@@@__crt_stdio_output@@CA?AW4parameter_type@12@H@Z 0048d07b f i libucrt:output.obj
 0001:0008c07f       ?get_parameter_type@?$positional_parameter_base@DV?$stream_output_adapter@D@__crt_stdio_output@@@__crt_stdio_output@@CA?AW4parameter_type@12@I@Z 0048d07f f i libucrt:output.obj
 0001:0008c083       ?get_parameter_type@?$positional_parameter_base@DV?$stream_output_adapter@D@__crt_stdio_output@@@__crt_stdio_output@@CA?AW4parameter_type@12@U_CRT_DOUBLE@@@Z 0048d083 f i libucrt:output.obj
 0001:0008c087       ?get_parameter_type@?$positional_parameter_base@DV?$stream_output_adapter@D@__crt_stdio_output@@@__crt_stdio_output@@CA?AW4parameter_type@12@_J@Z 0048d087 f i libucrt:output.obj
 0001:0008c08b       ?get_parameter_type@?$positional_parameter_base@DV?$stream_output_adapter@D@__crt_stdio_output@@@__crt_stdio_output@@CA?AW4parameter_type@12@_K@Z 0048d08b f i libucrt:output.obj
 0001:0008c08f       ?get_parameter_type@?$positional_parameter_base@DV?$stream_output_adapter@D@__crt_stdio_output@@@__crt_stdio_output@@CA?AW4parameter_type@12@_W@Z 0048d08f f i libucrt:output.obj
 0001:0008c093       ?get_parameter_type@?$positional_parameter_base@DV?$string_output_adapter@D@__crt_stdio_output@@@__crt_stdio_output@@CA?AW4parameter_type@12@F@Z 0048d093 f i libucrt:output.obj
 0001:0008c097       ?get_parameter_type@?$positional_parameter_base@DV?$string_output_adapter@D@__crt_stdio_output@@@__crt_stdio_output@@CA?AW4parameter_type@12@G@Z 0048d097 f i libucrt:output.obj
 0001:0008c09b       ?get_parameter_type@?$positional_parameter_base@DV?$string_output_adapter@D@__crt_stdio_output@@@__crt_stdio_output@@CA?AW4parameter_type@12@H@Z 0048d09b f i libucrt:output.obj
 0001:0008c09f       ?get_parameter_type@?$positional_parameter_base@DV?$string_output_adapter@D@__crt_stdio_output@@@__crt_stdio_output@@CA?AW4parameter_type@12@I@Z 0048d09f f i libucrt:output.obj
 0001:0008c0a3       ?get_parameter_type@?$positional_parameter_base@DV?$string_output_adapter@D@__crt_stdio_output@@@__crt_stdio_output@@CA?AW4parameter_type@12@U_CRT_DOUBLE@@@Z 0048d0a3 f i libucrt:output.obj
 0001:0008c0a7       ?get_parameter_type@?$positional_parameter_base@DV?$string_output_adapter@D@__crt_stdio_output@@@__crt_stdio_output@@CA?AW4parameter_type@12@_J@Z 0048d0a7 f i libucrt:output.obj
 0001:0008c0ab       ?get_parameter_type@?$positional_parameter_base@DV?$string_output_adapter@D@__crt_stdio_output@@@__crt_stdio_output@@CA?AW4parameter_type@12@_K@Z 0048d0ab f i libucrt:output.obj
 0001:0008c0af       ?get_parameter_type@?$positional_parameter_base@DV?$string_output_adapter@D@__crt_stdio_output@@@__crt_stdio_output@@CA?AW4parameter_type@12@_W@Z 0048d0af f i libucrt:output.obj
 0001:0008c0b3       ?get_parameter_type@?$positional_parameter_base@_WV?$stream_output_adapter@_W@__crt_stdio_output@@@__crt_stdio_output@@CA?AW4parameter_type@12@F@Z 0048d0b3 f i libucrt:output.obj
 0001:0008c0b7       ?get_parameter_type@?$positional_parameter_base@_WV?$stream_output_adapter@_W@__crt_stdio_output@@@__crt_stdio_output@@CA?AW4parameter_type@12@G@Z 0048d0b7 f i libucrt:output.obj
 0001:0008c0bb       ?get_parameter_type@?$positional_parameter_base@_WV?$stream_output_adapter@_W@__crt_stdio_output@@@__crt_stdio_output@@CA?AW4parameter_type@12@H@Z 0048d0bb f i libucrt:output.obj
 0001:0008c0bf       ?get_parameter_type@?$positional_parameter_base@_WV?$stream_output_adapter@_W@__crt_stdio_output@@@__crt_stdio_output@@CA?AW4parameter_type@12@I@Z 0048d0bf f i libucrt:output.obj
 0001:0008c0c3       ?get_parameter_type@?$positional_parameter_base@_WV?$stream_output_adapter@_W@__crt_stdio_output@@@__crt_stdio_output@@CA?AW4parameter_type@12@U_CRT_DOUBLE@@@Z 0048d0c3 f i libucrt:output.obj
 0001:0008c0c7       ?get_parameter_type@?$positional_parameter_base@_WV?$stream_output_adapter@_W@__crt_stdio_output@@@__crt_stdio_output@@CA?AW4parameter_type@12@_J@Z 0048d0c7 f i libucrt:output.obj
 0001:0008c0cb       ?get_parameter_type@?$positional_parameter_base@_WV?$stream_output_adapter@_W@__crt_stdio_output@@@__crt_stdio_output@@CA?AW4parameter_type@12@_K@Z 0048d0cb f i libucrt:output.obj
 0001:0008c0cf       ?get_parameter_type@?$positional_parameter_base@_WV?$stream_output_adapter@_W@__crt_stdio_output@@@__crt_stdio_output@@CA?AW4parameter_type@12@_W@Z 0048d0cf f i libucrt:output.obj
 0001:0008c0d3       ?get_parameter_type@?$positional_parameter_base@_WV?$string_output_adapter@_W@__crt_stdio_output@@@__crt_stdio_output@@CA?AW4parameter_type@12@F@Z 0048d0d3 f i libucrt:output.obj
 0001:0008c0d7       ?get_parameter_type@?$positional_parameter_base@_WV?$string_output_adapter@_W@__crt_stdio_output@@@__crt_stdio_output@@CA?AW4parameter_type@12@G@Z 0048d0d7 f i libucrt:output.obj
 0001:0008c0db       ?get_parameter_type@?$positional_parameter_base@_WV?$string_output_adapter@_W@__crt_stdio_output@@@__crt_stdio_output@@CA?AW4parameter_type@12@H@Z 0048d0db f i libucrt:output.obj
 0001:0008c0df       ?get_parameter_type@?$positional_parameter_base@_WV?$string_output_adapter@_W@__crt_stdio_output@@@__crt_stdio_output@@CA?AW4parameter_type@12@I@Z 0048d0df f i libucrt:output.obj
 0001:0008c0e3       ?get_parameter_type@?$positional_parameter_base@_WV?$string_output_adapter@_W@__crt_stdio_output@@@__crt_stdio_output@@CA?AW4parameter_type@12@U_CRT_DOUBLE@@@Z 0048d0e3 f i libucrt:output.obj
 0001:0008c0e7       ?get_parameter_type@?$positional_parameter_base@_WV?$string_output_adapter@_W@__crt_stdio_output@@@__crt_stdio_output@@CA?AW4parameter_type@12@_J@Z 0048d0e7 f i libucrt:output.obj
 0001:0008c0eb       ?get_parameter_type@?$positional_parameter_base@_WV?$string_output_adapter@_W@__crt_stdio_output@@@__crt_stdio_output@@CA?AW4parameter_type@12@_K@Z 0048d0eb f i libucrt:output.obj
 0001:0008c0ef       ?get_parameter_type@?$positional_parameter_base@_WV?$string_output_adapter@_W@__crt_stdio_output@@@__crt_stdio_output@@CA?AW4parameter_type@12@_W@Z 0048d0ef f i libucrt:output.obj
 0001:0008c0f3       ?has_flag@?$output_processor@DV?$stream_output_adapter@D@__crt_stdio_output@@V?$format_validation_base@DV?$stream_output_adapter@D@__crt_stdio_output@@@2@@__crt_stdio_output@@ABE_NI@Z 0048d0f3 f i libucrt:output.obj
 0001:0008c10d       ?has_flag@?$output_processor@DV?$stream_output_adapter@D@__crt_stdio_output@@V?$positional_parameter_base@DV?$stream_output_adapter@D@__crt_stdio_output@@@2@@__crt_stdio_output@@ABE_NI@Z 0048d10d f i libucrt:output.obj
 0001:0008c127       ?has_flag@?$output_processor@DV?$stream_output_adapter@D@__crt_stdio_output@@V?$standard_base@DV?$stream_output_adapter@D@__crt_stdio_output@@@2@@__crt_stdio_output@@ABE_NI@Z 0048d127 f i libucrt:output.obj
 0001:0008c141       ?has_flag@?$output_processor@DV?$string_output_adapter@D@__crt_stdio_output@@V?$format_validation_base@DV?$string_output_adapter@D@__crt_stdio_output@@@2@@__crt_stdio_output@@ABE_NI@Z 0048d141 f i libucrt:output.obj
 0001:0008c15b       ?has_flag@?$output_processor@DV?$string_output_adapter@D@__crt_stdio_output@@V?$positional_parameter_base@DV?$string_output_adapter@D@__crt_stdio_output@@@2@@__crt_stdio_output@@ABE_NI@Z 0048d15b f i libucrt:output.obj
 0001:0008c175       ?has_flag@?$output_processor@DV?$string_output_adapter@D@__crt_stdio_output@@V?$standard_base@DV?$string_output_adapter@D@__crt_stdio_output@@@2@@__crt_stdio_output@@ABE_NI@Z 0048d175 f i libucrt:output.obj
 0001:0008c18f       ?has_flag@?$output_processor@_WV?$stream_output_adapter@_W@__crt_stdio_output@@V?$format_validation_base@_WV?$stream_output_adapter@_W@__crt_stdio_output@@@2@@__crt_stdio_output@@ABE_NI@Z 0048d18f f i libucrt:output.obj
 0001:0008c1a9       ?has_flag@?$output_processor@_WV?$stream_output_adapter@_W@__crt_stdio_output@@V?$positional_parameter_base@_WV?$stream_output_adapter@_W@__crt_stdio_output@@@2@@__crt_stdio_output@@ABE_NI@Z 0048d1a9 f i libucrt:output.obj
 0001:0008c1c3       ?has_flag@?$output_processor@_WV?$stream_output_adapter@_W@__crt_stdio_output@@V?$standard_base@_WV?$stream_output_adapter@_W@__crt_stdio_output@@@2@@__crt_stdio_output@@ABE_NI@Z 0048d1c3 f i libucrt:output.obj
 0001:0008c1dd       ?has_flag@?$output_processor@_WV?$string_output_adapter@_W@__crt_stdio_output@@V?$format_validation_base@_WV?$string_output_adapter@_W@__crt_stdio_output@@@2@@__crt_stdio_output@@ABE_NI@Z 0048d1dd f i libucrt:output.obj
 0001:0008c1f7       ?has_flag@?$output_processor@_WV?$string_output_adapter@_W@__crt_stdio_output@@V?$positional_parameter_base@_WV?$string_output_adapter@_W@__crt_stdio_output@@@2@@__crt_stdio_output@@ABE_NI@Z 0048d1f7 f i libucrt:output.obj
 0001:0008c211       ?has_flag@?$output_processor@_WV?$string_output_adapter@_W@__crt_stdio_output@@V?$standard_base@_WV?$string_output_adapter@_W@__crt_stdio_output@@@2@@__crt_stdio_output@@ABE_NI@Z 0048d211 f i libucrt:output.obj
 0001:0008c22b       ?is_positional_parameter_reappearance_consistent@?$positional_parameter_base@DV?$stream_output_adapter@D@__crt_stdio_output@@@__crt_stdio_output@@AAE_NABUparameter_data@12@W4parameter_type@12@DW4length_modifier@2@@Z 0048d22b f i libucrt:output.obj
 0001:0008c3a4       ?is_positional_parameter_reappearance_consistent@?$positional_parameter_base@DV?$string_output_adapter@D@__crt_stdio_output@@@__crt_stdio_output@@AAE_NABUparameter_data@12@W4parameter_type@12@DW4length_modifier@2@@Z 0048d3a4 f i libucrt:output.obj
 0001:0008c51d       ?is_positional_parameter_reappearance_consistent@?$positional_parameter_base@_WV?$stream_output_adapter@_W@__crt_stdio_output@@@__crt_stdio_output@@AAE_NABUparameter_data@12@W4parameter_type@12@_WW4length_modifier@2@@Z 0048d51d f i libucrt:output.obj
 0001:0008c688       ?is_positional_parameter_reappearance_consistent@?$positional_parameter_base@_WV?$string_output_adapter@_W@__crt_stdio_output@@@__crt_stdio_output@@AAE_NABUparameter_data@12@W4parameter_type@12@_WW4length_modifier@2@@Z 0048d688 f i libucrt:output.obj
 0001:0008c7f3       ?is_string_backed@__crt_stdio_stream@@QBE_NXZ 0048d7f3 f i libucrt:output.obj
 0001:0008c802       ?narrow_null_string@?$output_processor@DV?$stream_output_adapter@D@__crt_stdio_output@@V?$format_validation_base@DV?$stream_output_adapter@D@__crt_stdio_output@@@2@@__crt_stdio_output@@CAPADXZ 0048d802 f i libucrt:output.obj
 0001:0008c808       ?narrow_null_string@?$output_processor@DV?$stream_output_adapter@D@__crt_stdio_output@@V?$positional_parameter_base@DV?$stream_output_adapter@D@__crt_stdio_output@@@2@@__crt_stdio_output@@CAPADXZ 0048d808 f i libucrt:output.obj
 0001:0008c80e       ?narrow_null_string@?$output_processor@DV?$stream_output_adapter@D@__crt_stdio_output@@V?$standard_base@DV?$stream_output_adapter@D@__crt_stdio_output@@@2@@__crt_stdio_output@@CAPADXZ 0048d80e f i libucrt:output.obj
 0001:0008c814       ?narrow_null_string@?$output_processor@DV?$string_output_adapter@D@__crt_stdio_output@@V?$format_validation_base@DV?$string_output_adapter@D@__crt_stdio_output@@@2@@__crt_stdio_output@@CAPADXZ 0048d814 f i libucrt:output.obj
 0001:0008c81a       ?narrow_null_string@?$output_processor@DV?$string_output_adapter@D@__crt_stdio_output@@V?$positional_parameter_base@DV?$string_output_adapter@D@__crt_stdio_output@@@2@@__crt_stdio_output@@CAPADXZ 0048d81a f i libucrt:output.obj
 0001:0008c820       ?narrow_null_string@?$output_processor@DV?$string_output_adapter@D@__crt_stdio_output@@V?$standard_base@DV?$string_output_adapter@D@__crt_stdio_output@@@2@@__crt_stdio_output@@CAPADXZ 0048d820 f i libucrt:output.obj
 0001:0008c826       ?narrow_null_string@?$output_processor@_WV?$stream_output_adapter@_W@__crt_stdio_output@@V?$format_validation_base@_WV?$stream_output_adapter@_W@__crt_stdio_output@@@2@@__crt_stdio_output@@CAPADXZ 0048d826 f i libucrt:output.obj
 0001:0008c82c       ?narrow_null_string@?$output_processor@_WV?$stream_output_adapter@_W@__crt_stdio_output@@V?$positional_parameter_base@_WV?$stream_output_adapter@_W@__crt_stdio_output@@@2@@__crt_stdio_output@@CAPADXZ 0048d82c f i libucrt:output.obj
 0001:0008c832       ?narrow_null_string@?$output_processor@_WV?$stream_output_adapter@_W@__crt_stdio_output@@V?$standard_base@_WV?$stream_output_adapter@_W@__crt_stdio_output@@@2@@__crt_stdio_output@@CAPADXZ 0048d832 f i libucrt:output.obj
 0001:0008c838       ?narrow_null_string@?$output_processor@_WV?$string_output_adapter@_W@__crt_stdio_output@@V?$format_validation_base@_WV?$string_output_adapter@_W@__crt_stdio_output@@@2@@__crt_stdio_output@@CAPADXZ 0048d838 f i libucrt:output.obj
 0001:0008c83e       ?narrow_null_string@?$output_processor@_WV?$string_output_adapter@_W@__crt_stdio_output@@V?$positional_parameter_base@_WV?$string_output_adapter@_W@__crt_stdio_output@@@2@@__crt_stdio_output@@CAPADXZ 0048d83e f i libucrt:output.obj
 0001:0008c844       ?narrow_null_string@?$output_processor@_WV?$string_output_adapter@_W@__crt_stdio_output@@V?$standard_base@_WV?$string_output_adapter@_W@__crt_stdio_output@@@2@@__crt_stdio_output@@CAPADXZ 0048d844 f i libucrt:output.obj
 0001:0008c84a       ?parse_int_from_format_string@?$output_processor@DV?$stream_output_adapter@D@__crt_stdio_output@@V?$format_validation_base@DV?$stream_output_adapter@D@__crt_stdio_output@@@2@@__crt_stdio_output@@AAE_NQAH@Z 0048d84a f i libucrt:output.obj
 0001:0008c8bd       ?parse_int_from_format_string@?$output_processor@DV?$stream_output_adapter@D@__crt_stdio_output@@V?$positional_parameter_base@DV?$stream_output_adapter@D@__crt_stdio_output@@@2@@__crt_stdio_output@@AAE_NQAH@Z 0048d8bd f i libucrt:output.obj
 0001:0008c930       ?parse_int_from_format_string@?$output_processor@DV?$stream_output_adapter@D@__crt_stdio_output@@V?$standard_base@DV?$stream_output_adapter@D@__crt_stdio_output@@@2@@__crt_stdio_output@@AAE_NQAH@Z 0048d930 f i libucrt:output.obj
 0001:0008c9a3       ?parse_int_from_format_string@?$output_processor@DV?$string_output_adapter@D@__crt_stdio_output@@V?$format_validation_base@DV?$string_output_adapter@D@__crt_stdio_output@@@2@@__crt_stdio_output@@AAE_NQAH@Z 0048d9a3 f i libucrt:output.obj
 0001:0008ca16       ?parse_int_from_format_string@?$output_processor@DV?$string_output_adapter@D@__crt_stdio_output@@V?$positional_parameter_base@DV?$string_output_adapter@D@__crt_stdio_output@@@2@@__crt_stdio_output@@AAE_NQAH@Z 0048da16 f i libucrt:output.obj
 0001:0008ca89       ?parse_int_from_format_string@?$output_processor@DV?$string_output_adapter@D@__crt_stdio_output@@V?$standard_base@DV?$string_output_adapter@D@__crt_stdio_output@@@2@@__crt_stdio_output@@AAE_NQAH@Z 0048da89 f i libucrt:output.obj
 0001:0008cafc       ?parse_int_from_format_string@?$output_processor@_WV?$stream_output_adapter@_W@__crt_stdio_output@@V?$format_validation_base@_WV?$stream_output_adapter@_W@__crt_stdio_output@@@2@@__crt_stdio_output@@AAE_NQAH@Z 0048dafc f i libucrt:output.obj
 0001:0008cb71       ?parse_int_from_format_string@?$output_processor@_WV?$stream_output_adapter@_W@__crt_stdio_output@@V?$positional_parameter_base@_WV?$stream_output_adapter@_W@__crt_stdio_output@@@2@@__crt_stdio_output@@AAE_NQAH@Z 0048db71 f i libucrt:output.obj
 0001:0008cbe6       ?parse_int_from_format_string@?$output_processor@_WV?$stream_output_adapter@_W@__crt_stdio_output@@V?$standard_base@_WV?$stream_output_adapter@_W@__crt_stdio_output@@@2@@__crt_stdio_output@@AAE_NQAH@Z 0048dbe6 f i libucrt:output.obj
 0001:0008cc5b       ?parse_int_from_format_string@?$output_processor@_WV?$string_output_adapter@_W@__crt_stdio_output@@V?$format_validation_base@_WV?$string_output_adapter@_W@__crt_stdio_output@@@2@@__crt_stdio_output@@AAE_NQAH@Z 0048dc5b f i libucrt:output.obj
 0001:0008ccd0       ?parse_int_from_format_string@?$output_processor@_WV?$string_output_adapter@_W@__crt_stdio_output@@V?$positional_parameter_base@_WV?$string_output_adapter@_W@__crt_stdio_output@@@2@@__crt_stdio_output@@AAE_NQAH@Z 0048dcd0 f i libucrt:output.obj
 0001:0008cd45       ?parse_int_from_format_string@?$output_processor@_WV?$string_output_adapter@_W@__crt_stdio_output@@V?$standard_base@_WV?$string_output_adapter@_W@__crt_stdio_output@@@2@@__crt_stdio_output@@AAE_NQAH@Z 0048dd45 f i libucrt:output.obj
 0001:0008cdba       ?process@?$output_processor@DV?$stream_output_adapter@D@__crt_stdio_output@@V?$format_validation_base@DV?$stream_output_adapter@D@__crt_stdio_output@@@2@@__crt_stdio_output@@QAEHXZ 0048ddba f i libucrt:output.obj
 0001:0008cf2c       ?process@?$output_processor@DV?$stream_output_adapter@D@__crt_stdio_output@@V?$positional_parameter_base@DV?$stream_output_adapter@D@__crt_stdio_output@@@2@@__crt_stdio_output@@QAEHXZ 0048df2c f i libucrt:output.obj
 0001:0008d0df       ?process@?$output_processor@DV?$stream_output_adapter@D@__crt_stdio_output@@V?$standard_base@DV?$stream_output_adapter@D@__crt_stdio_output@@@2@@__crt_stdio_output@@QAEHXZ 0048e0df f i libucrt:output.obj
 0001:0008d242       ?process@?$output_processor@DV?$string_output_adapter@D@__crt_stdio_output@@V?$format_validation_base@DV?$string_output_adapter@D@__crt_stdio_output@@@2@@__crt_stdio_output@@QAEHXZ 0048e242 f i libucrt:output.obj
 0001:0008d3b4       ?process@?$output_processor@DV?$string_output_adapter@D@__crt_stdio_output@@V?$positional_parameter_base@DV?$string_output_adapter@D@__crt_stdio_output@@@2@@__crt_stdio_output@@QAEHXZ 0048e3b4 f i libucrt:output.obj
 0001:0008d567       ?process@?$output_processor@DV?$string_output_adapter@D@__crt_stdio_output@@V?$standard_base@DV?$string_output_adapter@D@__crt_stdio_output@@@2@@__crt_stdio_output@@QAEHXZ 0048e567 f i libucrt:output.obj
 0001:0008d6ca       ?process@?$output_processor@_WV?$stream_output_adapter@_W@__crt_stdio_output@@V?$format_validation_base@_WV?$stream_output_adapter@_W@__crt_stdio_output@@@2@@__crt_stdio_output@@QAEHXZ 0048e6ca f i libucrt:output.obj
 0001:0008d846       ?process@?$output_processor@_WV?$stream_output_adapter@_W@__crt_stdio_output@@V?$positional_parameter_base@_WV?$stream_output_adapter@_W@__crt_stdio_output@@@2@@__crt_stdio_output@@QAEHXZ 0048e846 f i libucrt:output.obj
 0001:0008d9fe       ?process@?$output_processor@_WV?$stream_output_adapter@_W@__crt_stdio_output@@V?$standard_base@_WV?$stream_output_adapter@_W@__crt_stdio_output@@@2@@__crt_stdio_output@@QAEHXZ 0048e9fe f i libucrt:output.obj
 0001:0008db66       ?process@?$output_processor@_WV?$string_output_adapter@_W@__crt_stdio_output@@V?$format_validation_base@_WV?$string_output_adapter@_W@__crt_stdio_output@@@2@@__crt_stdio_output@@QAEHXZ 0048eb66 f i libucrt:output.obj
 0001:0008dce2       ?process@?$output_processor@_WV?$string_output_adapter@_W@__crt_stdio_output@@V?$positional_parameter_base@_WV?$string_output_adapter@_W@__crt_stdio_output@@@2@@__crt_stdio_output@@QAEHXZ 0048ece2 f i libucrt:output.obj
 0001:0008de9a       ?process@?$output_processor@_WV?$string_output_adapter@_W@__crt_stdio_output@@V?$standard_base@_WV?$string_output_adapter@_W@__crt_stdio_output@@@2@@__crt_stdio_output@@QAEHXZ 0048ee9a f i libucrt:output.obj
 0001:0008e002       ?public_stream@__crt_stdio_stream@@QBEPAU_iobuf@@XZ 0048f002 f i libucrt:output.obj
 0001:0008e005       ?set_flag@?$output_processor@DV?$stream_output_adapter@D@__crt_stdio_output@@V?$format_validation_base@DV?$stream_output_adapter@D@__crt_stdio_output@@@2@@__crt_stdio_output@@AAEXI@Z 0048f005 f i libucrt:output.obj
 0001:0008e017       ?set_flag@?$output_processor@DV?$stream_output_adapter@D@__crt_stdio_output@@V?$positional_parameter_base@DV?$stream_output_adapter@D@__crt_stdio_output@@@2@@__crt_stdio_output@@AAEXI@Z 0048f017 f i libucrt:output.obj
 0001:0008e029       ?set_flag@?$output_processor@DV?$stream_output_adapter@D@__crt_stdio_output@@V?$standard_base@DV?$stream_output_adapter@D@__crt_stdio_output@@@2@@__crt_stdio_output@@AAEXI@Z 0048f029 f i libucrt:output.obj
 0001:0008e03b       ?set_flag@?$output_processor@DV?$string_output_adapter@D@__crt_stdio_output@@V?$format_validation_base@DV?$string_output_adapter@D@__crt_stdio_output@@@2@@__crt_stdio_output@@AAEXI@Z 0048f03b f i libucrt:output.obj
 0001:0008e04d       ?set_flag@?$output_processor@DV?$string_output_adapter@D@__crt_stdio_output@@V?$positional_parameter_base@DV?$string_output_adapter@D@__crt_stdio_output@@@2@@__crt_stdio_output@@AAEXI@Z 0048f04d f i libucrt:output.obj
 0001:0008e05f       ?set_flag@?$output_processor@DV?$string_output_adapter@D@__crt_stdio_output@@V?$standard_base@DV?$string_output_adapter@D@__crt_stdio_output@@@2@@__crt_stdio_output@@AAEXI@Z 0048f05f f i libucrt:output.obj
 0001:0008e071       ?set_flag@?$output_processor@_WV?$stream_output_adapter@_W@__crt_stdio_output@@V?$format_validation_base@_WV?$stream_output_adapter@_W@__crt_stdio_output@@@2@@__crt_stdio_output@@AAEXI@Z 0048f071 f i libucrt:output.obj
 0001:0008e083       ?set_flag@?$output_processor@_WV?$stream_output_adapter@_W@__crt_stdio_output@@V?$positional_parameter_base@_WV?$stream_output_adapter@_W@__crt_stdio_output@@@2@@__crt_stdio_output@@AAEXI@Z 0048f083 f i libucrt:output.obj
 0001:0008e095       ?set_flag@?$output_processor@_WV?$stream_output_adapter@_W@__crt_stdio_output@@V?$standard_base@_WV?$stream_output_adapter@_W@__crt_stdio_output@@@2@@__crt_stdio_output@@AAEXI@Z 0048f095 f i libucrt:output.obj
 0001:0008e0a7       ?set_flag@?$output_processor@_WV?$string_output_adapter@_W@__crt_stdio_output@@V?$format_validation_base@_WV?$string_output_adapter@_W@__crt_stdio_output@@@2@@__crt_stdio_output@@AAEXI@Z 0048f0a7 f i libucrt:output.obj
 0001:0008e0b9       ?set_flag@?$output_processor@_WV?$string_output_adapter@_W@__crt_stdio_output@@V?$positional_parameter_base@_WV?$string_output_adapter@_W@__crt_stdio_output@@@2@@__crt_stdio_output@@AAEXI@Z 0048f0b9 f i libucrt:output.obj
 0001:0008e0cb       ?set_flag@?$output_processor@_WV?$string_output_adapter@_W@__crt_stdio_output@@V?$standard_base@_WV?$string_output_adapter@_W@__crt_stdio_output@@@2@@__crt_stdio_output@@AAEXI@Z 0048f0cb f i libucrt:output.obj
 0001:0008e0dd       ?should_format@?$positional_parameter_base@DV?$stream_output_adapter@D@__crt_stdio_output@@@__crt_stdio_output@@IAE_NXZ 0048f0dd f i libucrt:output.obj
 0001:0008e0f8       ?should_format@?$positional_parameter_base@DV?$string_output_adapter@D@__crt_stdio_output@@@__crt_stdio_output@@IAE_NXZ 0048f0f8 f i libucrt:output.obj
 0001:0008e113       ?should_format@?$positional_parameter_base@_WV?$stream_output_adapter@_W@__crt_stdio_output@@@__crt_stdio_output@@IAE_NXZ 0048f113 f i libucrt:output.obj
 0001:0008e12e       ?should_format@?$positional_parameter_base@_WV?$string_output_adapter@_W@__crt_stdio_output@@@__crt_stdio_output@@IAE_NXZ 0048f12e f i libucrt:output.obj
 0001:0008e149       ?should_format@?$standard_base@DV?$stream_output_adapter@D@__crt_stdio_output@@@__crt_stdio_output@@IAE_NXZ 0048f149 f i libucrt:output.obj
 0001:0008e14c       ?should_format@?$standard_base@DV?$string_output_adapter@D@__crt_stdio_output@@@__crt_stdio_output@@IAE_NXZ 0048f14c f i libucrt:output.obj
 0001:0008e14f       ?should_format@?$standard_base@_WV?$stream_output_adapter@_W@__crt_stdio_output@@@__crt_stdio_output@@IAE_NXZ 0048f14f f i libucrt:output.obj
 0001:0008e152       ?should_format@?$standard_base@_WV?$string_output_adapter@_W@__crt_stdio_output@@@__crt_stdio_output@@IAE_NXZ 0048f152 f i libucrt:output.obj
 0001:0008e155       ?should_skip_normal_state_processing@?$positional_parameter_base@DV?$stream_output_adapter@D@__crt_stdio_output@@@__crt_stdio_output@@IAE_NXZ 0048f155 f i libucrt:output.obj
 0001:0008e187       ?should_skip_normal_state_processing@?$positional_parameter_base@DV?$string_output_adapter@D@__crt_stdio_output@@@__crt_stdio_output@@IAE_NXZ 0048f187 f i libucrt:output.obj
 0001:0008e1b9       ?should_skip_normal_state_processing@?$positional_parameter_base@_WV?$stream_output_adapter@_W@__crt_stdio_output@@@__crt_stdio_output@@IAE_NXZ 0048f1b9 f i libucrt:output.obj
 0001:0008e1eb       ?should_skip_normal_state_processing@?$positional_parameter_base@_WV?$string_output_adapter@_W@__crt_stdio_output@@@__crt_stdio_output@@IAE_NXZ 0048f1eb f i libucrt:output.obj
 0001:0008e21d       ?should_skip_normal_state_processing@?$standard_base@DV?$stream_output_adapter@D@__crt_stdio_output@@@__crt_stdio_output@@IAE_NXZ 0048f21d f i libucrt:output.obj
 0001:0008e220       ?should_skip_normal_state_processing@?$standard_base@DV?$string_output_adapter@D@__crt_stdio_output@@@__crt_stdio_output@@IAE_NXZ 0048f220 f i libucrt:output.obj
 0001:0008e223       ?should_skip_normal_state_processing@?$standard_base@_WV?$stream_output_adapter@_W@__crt_stdio_output@@@__crt_stdio_output@@IAE_NXZ 0048f223 f i libucrt:output.obj
 0001:0008e226       ?should_skip_normal_state_processing@?$standard_base@_WV?$string_output_adapter@_W@__crt_stdio_output@@@__crt_stdio_output@@IAE_NXZ 0048f226 f i libucrt:output.obj
 0001:0008e229       ?should_skip_type_state_output@?$positional_parameter_base@DV?$stream_output_adapter@D@__crt_stdio_output@@@__crt_stdio_output@@IBE_NXZ 0048f229 f i libucrt:output.obj
 0001:0008e245       ?should_skip_type_state_output@?$positional_parameter_base@DV?$string_output_adapter@D@__crt_stdio_output@@@__crt_stdio_output@@IBE_NXZ 0048f245 f i libucrt:output.obj
 0001:0008e261       ?should_skip_type_state_output@?$positional_parameter_base@_WV?$stream_output_adapter@_W@__crt_stdio_output@@@__crt_stdio_output@@IBE_NXZ 0048f261 f i libucrt:output.obj
 0001:0008e27d       ?should_skip_type_state_output@?$positional_parameter_base@_WV?$string_output_adapter@_W@__crt_stdio_output@@@__crt_stdio_output@@IBE_NXZ 0048f27d f i libucrt:output.obj
 0001:0008e299       ?should_skip_type_state_output@?$standard_base@DV?$stream_output_adapter@D@__crt_stdio_output@@@__crt_stdio_output@@IBE_NXZ 0048f299 f i libucrt:output.obj
 0001:0008e29c       ?should_skip_type_state_output@?$standard_base@DV?$string_output_adapter@D@__crt_stdio_output@@@__crt_stdio_output@@IBE_NXZ 0048f29c f i libucrt:output.obj
 0001:0008e29f       ?should_skip_type_state_output@?$standard_base@_WV?$stream_output_adapter@_W@__crt_stdio_output@@@__crt_stdio_output@@IBE_NXZ 0048f29f f i libucrt:output.obj
 0001:0008e2a2       ?should_skip_type_state_output@?$standard_base@_WV?$string_output_adapter@_W@__crt_stdio_output@@@__crt_stdio_output@@IBE_NXZ 0048f2a2 f i libucrt:output.obj
 0001:0008e2a5       ?state_case_dot@?$output_processor@DV?$stream_output_adapter@D@__crt_stdio_output@@V?$format_validation_base@DV?$stream_output_adapter@D@__crt_stdio_output@@@2@@__crt_stdio_output@@AAE_NXZ 0048f2a5 f i libucrt:output.obj
 0001:0008e2ac       ?state_case_dot@?$output_processor@DV?$stream_output_adapter@D@__crt_stdio_output@@V?$positional_parameter_base@DV?$stream_output_adapter@D@__crt_stdio_output@@@2@@__crt_stdio_output@@AAE_NXZ 0048f2ac f i libucrt:output.obj
 0001:0008e2b3       ?state_case_dot@?$output_processor@DV?$stream_output_adapter@D@__crt_stdio_output@@V?$standard_base@DV?$stream_output_adapter@D@__crt_stdio_output@@@2@@__crt_stdio_output@@AAE_NXZ 0048f2b3 f i libucrt:output.obj
 0001:0008e2ba       ?state_case_dot@?$output_processor@DV?$string_output_adapter@D@__crt_stdio_output@@V?$format_validation_base@DV?$string_output_adapter@D@__crt_stdio_output@@@2@@__crt_stdio_output@@AAE_NXZ 0048f2ba f i libucrt:output.obj
 0001:0008e2c1       ?state_case_dot@?$output_processor@DV?$string_output_adapter@D@__crt_stdio_output@@V?$positional_parameter_base@DV?$string_output_adapter@D@__crt_stdio_output@@@2@@__crt_stdio_output@@AAE_NXZ 0048f2c1 f i libucrt:output.obj
 0001:0008e2c8       ?state_case_dot@?$output_processor@DV?$string_output_adapter@D@__crt_stdio_output@@V?$standard_base@DV?$string_output_adapter@D@__crt_stdio_output@@@2@@__crt_stdio_output@@AAE_NXZ 0048f2c8 f i libucrt:output.obj
 0001:0008e2cf       ?state_case_dot@?$output_processor@_WV?$stream_output_adapter@_W@__crt_stdio_output@@V?$format_validation_base@_WV?$stream_output_adapter@_W@__crt_stdio_output@@@2@@__crt_stdio_output@@AAE_NXZ 0048f2cf f i libucrt:output.obj
 0001:0008e2d6       ?state_case_dot@?$output_processor@_WV?$stream_output_adapter@_W@__crt_stdio_output@@V?$positional_parameter_base@_WV?$stream_output_adapter@_W@__crt_stdio_output@@@2@@__crt_stdio_output@@AAE_NXZ 0048f2d6 f i libucrt:output.obj
 0001:0008e2dd       ?state_case_dot@?$output_processor@_WV?$stream_output_adapter@_W@__crt_stdio_output@@V?$standard_base@_WV?$stream_output_adapter@_W@__crt_stdio_output@@@2@@__crt_stdio_output@@AAE_NXZ 0048f2dd f i libucrt:output.obj
 0001:0008e2e4       ?state_case_dot@?$output_processor@_WV?$string_output_adapter@_W@__crt_stdio_output@@V?$format_validation_base@_WV?$string_output_adapter@_W@__crt_stdio_output@@@2@@__crt_stdio_output@@AAE_NXZ 0048f2e4 f i libucrt:output.obj
 0001:0008e2eb       ?state_case_dot@?$output_processor@_WV?$string_output_adapter@_W@__crt_stdio_output@@V?$positional_parameter_base@_WV?$string_output_adapter@_W@__crt_stdio_output@@@2@@__crt_stdio_output@@AAE_NXZ 0048f2eb f i libucrt:output.obj
 0001:0008e2f2       ?state_case_dot@?$output_processor@_WV?$string_output_adapter@_W@__crt_stdio_output@@V?$standard_base@_WV?$string_output_adapter@_W@__crt_stdio_output@@@2@@__crt_stdio_output@@AAE_NXZ 0048f2f2 f i libucrt:output.obj
 0001:0008e2f9       ?state_case_flag@?$output_processor@DV?$stream_output_adapter@D@__crt_stdio_output@@V?$format_validation_base@DV?$stream_output_adapter@D@__crt_stdio_output@@@2@@__crt_stdio_output@@AAE_NXZ 0048f2f9 f i libucrt:output.obj
 0001:0008e345       ?state_case_flag@?$output_processor@DV?$stream_output_adapter@D@__crt_stdio_output@@V?$positional_parameter_base@DV?$stream_output_adapter@D@__crt_stdio_output@@@2@@__crt_stdio_output@@AAE_NXZ 0048f345 f i libucrt:output.obj
 0001:0008e391       ?state_case_flag@?$output_processor@DV?$stream_output_adapter@D@__crt_stdio_output@@V?$standard_base@DV?$stream_output_adapter@D@__crt_stdio_output@@@2@@__crt_stdio_output@@AAE_NXZ 0048f391 f i libucrt:output.obj
 0001:0008e3dd       ?state_case_flag@?$output_processor@DV?$string_output_adapter@D@__crt_stdio_output@@V?$format_validation_base@DV?$string_output_adapter@D@__crt_stdio_output@@@2@@__crt_stdio_output@@AAE_NXZ 0048f3dd f i libucrt:output.obj
 0001:0008e429       ?state_case_flag@?$output_processor@DV?$string_output_adapter@D@__crt_stdio_output@@V?$positional_parameter_base@DV?$string_output_adapter@D@__crt_stdio_output@@@2@@__crt_stdio_output@@AAE_NXZ 0048f429 f i libucrt:output.obj
 0001:0008e475       ?state_case_flag@?$output_processor@DV?$string_output_adapter@D@__crt_stdio_output@@V?$standard_base@DV?$string_output_adapter@D@__crt_stdio_output@@@2@@__crt_stdio_output@@AAE_NXZ 0048f475 f i libucrt:output.obj
 0001:0008e4c1       ?state_case_flag@?$output_processor@_WV?$stream_output_adapter@_W@__crt_stdio_output@@V?$format_validation_base@_WV?$stream_output_adapter@_W@__crt_stdio_output@@@2@@__crt_stdio_output@@AAE_NXZ 0048f4c1 f i libucrt:output.obj
 0001:0008e50d       ?state_case_flag@?$output_processor@_WV?$stream_output_adapter@_W@__crt_stdio_output@@V?$positional_parameter_base@_WV?$stream_output_adapter@_W@__crt_stdio_output@@@2@@__crt_stdio_output@@AAE_NXZ 0048f50d f i libucrt:output.obj
 0001:0008e559       ?state_case_flag@?$output_processor@_WV?$stream_output_adapter@_W@__crt_stdio_output@@V?$standard_base@_WV?$stream_output_adapter@_W@__crt_stdio_output@@@2@@__crt_stdio_output@@AAE_NXZ 0048f559 f i libucrt:output.obj
 0001:0008e5a5       ?state_case_flag@?$output_processor@_WV?$string_output_adapter@_W@__crt_stdio_output@@V?$format_validation_base@_WV?$string_output_adapter@_W@__crt_stdio_output@@@2@@__crt_stdio_output@@AAE_NXZ 0048f5a5 f i libucrt:output.obj
 0001:0008e5f1       ?state_case_flag@?$output_processor@_WV?$string_output_adapter@_W@__crt_stdio_output@@V?$positional_parameter_base@_WV?$string_output_adapter@_W@__crt_stdio_output@@@2@@__crt_stdio_output@@AAE_NXZ 0048f5f1 f i libucrt:output.obj
 0001:0008e63d       ?state_case_flag@?$output_processor@_WV?$string_output_adapter@_W@__crt_stdio_output@@V?$standard_base@_WV?$string_output_adapter@_W@__crt_stdio_output@@@2@@__crt_stdio_output@@AAE_NXZ 0048f63d f i libucrt:output.obj
 0001:0008e689       ?state_case_normal@?$output_processor@DV?$stream_output_adapter@D@__crt_stdio_output@@V?$format_validation_base@DV?$stream_output_adapter@D@__crt_stdio_output@@@2@@__crt_stdio_output@@AAE_NXZ 0048f689 f i libucrt:output.obj
 0001:0008e6af       ?state_case_normal@?$output_processor@DV?$stream_output_adapter@D@__crt_stdio_output@@V?$positional_parameter_base@DV?$stream_output_adapter@D@__crt_stdio_output@@@2@@__crt_stdio_output@@AAE_NXZ 0048f6af f i libucrt:output.obj
 0001:0008e6ec       ?state_case_normal@?$output_processor@DV?$stream_output_adapter@D@__crt_stdio_output@@V?$standard_base@DV?$stream_output_adapter@D@__crt_stdio_output@@@2@@__crt_stdio_output@@AAE_NXZ 0048f6ec f i libucrt:output.obj
 0001:0008e712       ?state_case_normal@?$output_processor@DV?$string_output_adapter@D@__crt_stdio_output@@V?$format_validation_base@DV?$string_output_adapter@D@__crt_stdio_output@@@2@@__crt_stdio_output@@AAE_NXZ 0048f712 f i libucrt:output.obj
 0001:0008e738       ?state_case_normal@?$output_processor@DV?$string_output_adapter@D@__crt_stdio_output@@V?$positional_parameter_base@DV?$string_output_adapter@D@__crt_stdio_output@@@2@@__crt_stdio_output@@AAE_NXZ 0048f738 f i libucrt:output.obj
 0001:0008e775       ?state_case_normal@?$output_processor@DV?$string_output_adapter@D@__crt_stdio_output@@V?$standard_base@DV?$string_output_adapter@D@__crt_stdio_output@@@2@@__crt_stdio_output@@AAE_NXZ 0048f775 f i libucrt:output.obj
 0001:0008e79b       ?state_case_normal@?$output_processor@_WV?$stream_output_adapter@_W@__crt_stdio_output@@V?$format_validation_base@_WV?$stream_output_adapter@_W@__crt_stdio_output@@@2@@__crt_stdio_output@@AAE_NXZ 0048f79b f i libucrt:output.obj
 0001:0008e7c1       ?state_case_normal@?$output_processor@_WV?$stream_output_adapter@_W@__crt_stdio_output@@V?$positional_parameter_base@_WV?$stream_output_adapter@_W@__crt_stdio_output@@@2@@__crt_stdio_output@@AAE_NXZ 0048f7c1 f i libucrt:output.obj
 0001:0008e7fe       ?state_case_normal@?$output_processor@_WV?$stream_output_adapter@_W@__crt_stdio_output@@V?$standard_base@_WV?$stream_output_adapter@_W@__crt_stdio_output@@@2@@__crt_stdio_output@@AAE_NXZ 0048f7fe f i libucrt:output.obj
 0001:0008e824       ?state_case_normal@?$output_processor@_WV?$string_output_adapter@_W@__crt_stdio_output@@V?$format_validation_base@_WV?$string_output_adapter@_W@__crt_stdio_output@@@2@@__crt_stdio_output@@AAE_NXZ 0048f824 f i libucrt:output.obj
 0001:0008e84a       ?state_case_normal@?$output_processor@_WV?$string_output_adapter@_W@__crt_stdio_output@@V?$positional_parameter_base@_WV?$string_output_adapter@_W@__crt_stdio_output@@@2@@__crt_stdio_output@@AAE_NXZ 0048f84a f i libucrt:output.obj
 0001:0008e887       ?state_case_normal@?$output_processor@_WV?$string_output_adapter@_W@__crt_stdio_output@@V?$standard_base@_WV?$string_output_adapter@_W@__crt_stdio_output@@@2@@__crt_stdio_output@@AAE_NXZ 0048f887 f i libucrt:output.obj
 0001:0008e8ad       ?state_case_normal_common@?$output_processor@DV?$stream_output_adapter@D@__crt_stdio_output@@V?$format_validation_base@DV?$stream_output_adapter@D@__crt_stdio_output@@@2@@__crt_stdio_output@@AAE_NXZ 0048f8ad f i libucrt:output.obj
 0001:0008e8e1       ?state_case_normal_common@?$output_processor@DV?$stream_output_adapter@D@__crt_stdio_output@@V?$positional_parameter_base@DV?$stream_output_adapter@D@__crt_stdio_output@@@2@@__crt_stdio_output@@AAE_NXZ 0048f8e1 f i libucrt:output.obj
 0001:0008e915       ?state_case_normal_common@?$output_processor@DV?$stream_output_adapter@D@__crt_stdio_output@@V?$standard_base@DV?$stream_output_adapter@D@__crt_stdio_output@@@2@@__crt_stdio_output@@AAE_NXZ 0048f915 f i libucrt:output.obj
 0001:0008e949       ?state_case_normal_common@?$output_processor@DV?$string_output_adapter@D@__crt_stdio_output@@V?$format_validation_base@DV?$string_output_adapter@D@__crt_stdio_output@@@2@@__crt_stdio_output@@AAE_NXZ 0048f949 f i libucrt:output.obj
 0001:0008e97d       ?state_case_normal_common@?$output_processor@DV?$string_output_adapter@D@__crt_stdio_output@@V?$positional_parameter_base@DV?$string_output_adapter@D@__crt_stdio_output@@@2@@__crt_stdio_output@@AAE_NXZ 0048f97d f i libucrt:output.obj
 0001:0008e9b1       ?state_case_normal_common@?$output_processor@DV?$string_output_adapter@D@__crt_stdio_output@@V?$standard_base@DV?$string_output_adapter@D@__crt_stdio_output@@@2@@__crt_stdio_output@@AAE_NXZ 0048f9b1 f i libucrt:output.obj
 0001:0008e9e5       ?state_case_normal_common@?$output_processor@_WV?$stream_output_adapter@_W@__crt_stdio_output@@V?$format_validation_base@_WV?$stream_output_adapter@_W@__crt_stdio_output@@@2@@__crt_stdio_output@@AAE_NXZ 0048f9e5 f i libucrt:output.obj
 0001:0008ea06       ?state_case_normal_common@?$output_processor@_WV?$stream_output_adapter@_W@__crt_stdio_output@@V?$positional_parameter_base@_WV?$stream_output_adapter@_W@__crt_stdio_output@@@2@@__crt_stdio_output@@AAE_NXZ 0048fa06 f i libucrt:output.obj
 0001:0008ea27       ?state_case_normal_common@?$output_processor@_WV?$stream_output_adapter@_W@__crt_stdio_output@@V?$standard_base@_WV?$stream_output_adapter@_W@__crt_stdio_output@@@2@@__crt_stdio_output@@AAE_NXZ 0048fa27 f i libucrt:output.obj
 0001:0008ea48       ?state_case_normal_common@?$output_processor@_WV?$string_output_adapter@_W@__crt_stdio_output@@V?$format_validation_base@_WV?$string_output_adapter@_W@__crt_stdio_output@@@2@@__crt_stdio_output@@AAE_NXZ 0048fa48 f i libucrt:output.obj
 0001:0008ea69       ?state_case_normal_common@?$output_processor@_WV?$string_output_adapter@_W@__crt_stdio_output@@V?$positional_parameter_base@_WV?$string_output_adapter@_W@__crt_stdio_output@@@2@@__crt_stdio_output@@AAE_NXZ 0048fa69 f i libucrt:output.obj
 0001:0008ea8a       ?state_case_normal_common@?$output_processor@_WV?$string_output_adapter@_W@__crt_stdio_output@@V?$standard_base@_WV?$string_output_adapter@_W@__crt_stdio_output@@@2@@__crt_stdio_output@@AAE_NXZ 0048fa8a f i libucrt:output.obj
 0001:0008eaab       ?state_case_normal_tchar@?$output_processor@DV?$stream_output_adapter@D@__crt_stdio_output@@V?$format_validation_base@DV?$stream_output_adapter@D@__crt_stdio_output@@@2@@__crt_stdio_output@@AAE_ND@Z 0048faab f i libucrt:output.obj
 0001:0008eb24       ?state_case_normal_tchar@?$output_processor@DV?$stream_output_adapter@D@__crt_stdio_output@@V?$positional_parameter_base@DV?$stream_output_adapter@D@__crt_stdio_output@@@2@@__crt_stdio_output@@AAE_ND@Z 0048fb24 f i libucrt:output.obj
 0001:0008eb9d       ?state_case_normal_tchar@?$output_processor@DV?$stream_output_adapter@D@__crt_stdio_output@@V?$standard_base@DV?$stream_output_adapter@D@__crt_stdio_output@@@2@@__crt_stdio_output@@AAE_ND@Z 0048fb9d f i libucrt:output.obj
 0001:0008ec16       ?state_case_normal_tchar@?$output_processor@DV?$string_output_adapter@D@__crt_stdio_output@@V?$format_validation_base@DV?$string_output_adapter@D@__crt_stdio_output@@@2@@__crt_stdio_output@@AAE_ND@Z 0048fc16 f i libucrt:output.obj
 0001:0008ec8f       ?state_case_normal_tchar@?$output_processor@DV?$string_output_adapter@D@__crt_stdio_output@@V?$positional_parameter_base@DV?$string_output_adapter@D@__crt_stdio_output@@@2@@__crt_stdio_output@@AAE_ND@Z 0048fc8f f i libucrt:output.obj
 0001:0008ed08       ?state_case_normal_tchar@?$output_processor@DV?$string_output_adapter@D@__crt_stdio_output@@V?$standard_base@DV?$string_output_adapter@D@__crt_stdio_output@@@2@@__crt_stdio_output@@AAE_ND@Z 0048fd08 f i libucrt:output.obj
 0001:0008ed81       ?state_case_normal_tchar@?$output_processor@_WV?$stream_output_adapter@_W@__crt_stdio_output@@V?$format_validation_base@_WV?$stream_output_adapter@_W@__crt_stdio_output@@@2@@__crt_stdio_output@@AAE_N_W@Z 0048fd81 f i libucrt:output.obj
 0001:0008ed8c       ?state_case_normal_tchar@?$output_processor@_WV?$stream_output_adapter@_W@__crt_stdio_output@@V?$positional_parameter_base@_WV?$stream_output_adapter@_W@__crt_stdio_output@@@2@@__crt_stdio_output@@AAE_N_W@Z 0048fd8c f i libucrt:output.obj
 0001:0008ed97       ?state_case_normal_tchar@?$output_processor@_WV?$stream_output_adapter@_W@__crt_stdio_output@@V?$standard_base@_WV?$stream_output_adapter@_W@__crt_stdio_output@@@2@@__crt_stdio_output@@AAE_N_W@Z 0048fd97 f i libucrt:output.obj
 0001:0008eda2       ?state_case_normal_tchar@?$output_processor@_WV?$string_output_adapter@_W@__crt_stdio_output@@V?$format_validation_base@_WV?$string_output_adapter@_W@__crt_stdio_output@@@2@@__crt_stdio_output@@AAE_N_W@Z 0048fda2 f i libucrt:output.obj
 0001:0008edad       ?state_case_normal_tchar@?$output_processor@_WV?$string_output_adapter@_W@__crt_stdio_output@@V?$positional_parameter_base@_WV?$string_output_adapter@_W@__crt_stdio_output@@@2@@__crt_stdio_output@@AAE_N_W@Z 0048fdad f i libucrt:output.obj
 0001:0008edb8       ?state_case_normal_tchar@?$output_processor@_WV?$string_output_adapter@_W@__crt_stdio_output@@V?$standard_base@_WV?$string_output_adapter@_W@__crt_stdio_output@@@2@@__crt_stdio_output@@AAE_N_W@Z 0048fdb8 f i libucrt:output.obj
 0001:0008edc3       ?state_case_percent@?$output_processor@DV?$stream_output_adapter@D@__crt_stdio_output@@V?$format_validation_base@DV?$stream_output_adapter@D@__crt_stdio_output@@@2@@__crt_stdio_output@@AAE_NXZ 0048fdc3 f i libucrt:output.obj
 0001:0008ede1       ?state_case_percent@?$output_processor@DV?$stream_output_adapter@D@__crt_stdio_output@@V?$positional_parameter_base@DV?$stream_output_adapter@D@__crt_stdio_output@@@2@@__crt_stdio_output@@AAE_NXZ 0048fde1 f i libucrt:output.obj
 0001:0008edff       ?state_case_percent@?$output_processor@DV?$stream_output_adapter@D@__crt_stdio_output@@V?$standard_base@DV?$stream_output_adapter@D@__crt_stdio_output@@@2@@__crt_stdio_output@@AAE_NXZ 0048fdff f i libucrt:output.obj
 0001:0008ee1d       ?state_case_percent@?$output_processor@DV?$string_output_adapter@D@__crt_stdio_output@@V?$format_validation_base@DV?$string_output_adapter@D@__crt_stdio_output@@@2@@__crt_stdio_output@@AAE_NXZ 0048fe1d f i libucrt:output.obj
 0001:0008ee3b       ?state_case_percent@?$output_processor@DV?$string_output_adapter@D@__crt_stdio_output@@V?$positional_parameter_base@DV?$string_output_adapter@D@__crt_stdio_output@@@2@@__crt_stdio_output@@AAE_NXZ 0048fe3b f i libucrt:output.obj
 0001:0008ee59       ?state_case_percent@?$output_processor@DV?$string_output_adapter@D@__crt_stdio_output@@V?$standard_base@DV?$string_output_adapter@D@__crt_stdio_output@@@2@@__crt_stdio_output@@AAE_NXZ 0048fe59 f i libucrt:output.obj
 0001:0008ee77       ?state_case_percent@?$output_processor@_WV?$stream_output_adapter@_W@__crt_stdio_output@@V?$format_validation_base@_WV?$stream_output_adapter@_W@__crt_stdio_output@@@2@@__crt_stdio_output@@AAE_NXZ 0048fe77 f i libucrt:output.obj
 0001:0008ee95       ?state_case_percent@?$output_processor@_WV?$stream_output_adapter@_W@__crt_stdio_output@@V?$positional_parameter_base@_WV?$stream_output_adapter@_W@__crt_stdio_output@@@2@@__crt_stdio_output@@AAE_NXZ 0048fe95 f i libucrt:output.obj
 0001:0008eeb3       ?state_case_percent@?$output_processor@_WV?$stream_output_adapter@_W@__crt_stdio_output@@V?$standard_base@_WV?$stream_output_adapter@_W@__crt_stdio_output@@@2@@__crt_stdio_output@@AAE_NXZ 0048feb3 f i libucrt:output.obj
 0001:0008eed1       ?state_case_percent@?$output_processor@_WV?$string_output_adapter@_W@__crt_stdio_output@@V?$format_validation_base@_WV?$string_output_adapter@_W@__crt_stdio_output@@@2@@__crt_stdio_output@@AAE_NXZ 0048fed1 f i libucrt:output.obj
 0001:0008eeef       ?state_case_percent@?$output_processor@_WV?$string_output_adapter@_W@__crt_stdio_output@@V?$positional_parameter_base@_WV?$string_output_adapter@_W@__crt_stdio_output@@@2@@__crt_stdio_output@@AAE_NXZ 0048feef f i libucrt:output.obj
 0001:0008ef0d       ?state_case_percent@?$output_processor@_WV?$string_output_adapter@_W@__crt_stdio_output@@V?$standard_base@_WV?$string_output_adapter@_W@__crt_stdio_output@@@2@@__crt_stdio_output@@AAE_NXZ 0048ff0d f i libucrt:output.obj
 0001:0008ef2b       ?state_case_precision@?$output_processor@DV?$stream_output_adapter@D@__crt_stdio_output@@V?$format_validation_base@DV?$stream_output_adapter@D@__crt_stdio_output@@@2@@__crt_stdio_output@@AAE_NXZ 0048ff2b f i libucrt:output.obj
 0001:0008ef5d       ?state_case_precision@?$output_processor@DV?$stream_output_adapter@D@__crt_stdio_output@@V?$positional_parameter_base@DV?$stream_output_adapter@D@__crt_stdio_output@@@2@@__crt_stdio_output@@AAE_NXZ 0048ff5d f i libucrt:output.obj
 0001:0008efa5       ?state_case_precision@?$output_processor@DV?$stream_output_adapter@D@__crt_stdio_output@@V?$standard_base@DV?$stream_output_adapter@D@__crt_stdio_output@@@2@@__crt_stdio_output@@AAE_NXZ 0048ffa5 f i libucrt:output.obj
 0001:0008efd7       ?state_case_precision@?$output_processor@DV?$string_output_adapter@D@__crt_stdio_output@@V?$format_validation_base@DV?$string_output_adapter@D@__crt_stdio_output@@@2@@__crt_stdio_output@@AAE_NXZ 0048ffd7 f i libucrt:output.obj
 0001:0008f009       ?state_case_precision@?$output_processor@DV?$string_output_adapter@D@__crt_stdio_output@@V?$positional_parameter_base@DV?$string_output_adapter@D@__crt_stdio_output@@@2@@__crt_stdio_output@@AAE_NXZ 00490009 f i libucrt:output.obj
 0001:0008f051       ?state_case_precision@?$output_processor@DV?$string_output_adapter@D@__crt_stdio_output@@V?$standard_base@DV?$string_output_adapter@D@__crt_stdio_output@@@2@@__crt_stdio_output@@AAE_NXZ 00490051 f i libucrt:output.obj
 0001:0008f083       ?state_case_precision@?$output_processor@_WV?$stream_output_adapter@_W@__crt_stdio_output@@V?$format_validation_base@_WV?$stream_output_adapter@_W@__crt_stdio_output@@@2@@__crt_stdio_output@@AAE_NXZ 00490083 f i libucrt:output.obj
 0001:0008f0b6       ?state_case_precision@?$output_processor@_WV?$stream_output_adapter@_W@__crt_stdio_output@@V?$positional_parameter_base@_WV?$stream_output_adapter@_W@__crt_stdio_output@@@2@@__crt_stdio_output@@AAE_NXZ 004900b6 f i libucrt:output.obj
 0001:0008f0ff       ?state_case_precision@?$output_processor@_WV?$stream_output_adapter@_W@__crt_stdio_output@@V?$standard_base@_WV?$stream_output_adapter@_W@__crt_stdio_output@@@2@@__crt_stdio_output@@AAE_NXZ 004900ff f i libucrt:output.obj
 0001:0008f132       ?state_case_precision@?$output_processor@_WV?$string_output_adapter@_W@__crt_stdio_output@@V?$format_validation_base@_WV?$string_output_adapter@_W@__crt_stdio_output@@@2@@__crt_stdio_output@@AAE_NXZ 00490132 f i libucrt:output.obj
 0001:0008f165       ?state_case_precision@?$output_processor@_WV?$string_output_adapter@_W@__crt_stdio_output@@V?$positional_parameter_base@_WV?$string_output_adapter@_W@__crt_stdio_output@@@2@@__crt_stdio_output@@AAE_NXZ 00490165 f i libucrt:output.obj
 0001:0008f1ae       ?state_case_precision@?$output_processor@_WV?$string_output_adapter@_W@__crt_stdio_output@@V?$standard_base@_WV?$string_output_adapter@_W@__crt_stdio_output@@@2@@__crt_stdio_output@@AAE_NXZ 004901ae f i libucrt:output.obj
 0001:0008f1e1       ?state_case_size@?$output_processor@DV?$stream_output_adapter@D@__crt_stdio_output@@V?$format_validation_base@DV?$stream_output_adapter@D@__crt_stdio_output@@@2@@__crt_stdio_output@@AAE_NXZ 004901e1 f i libucrt:output.obj
 0001:0008f3a4       ?state_case_size@?$output_processor@DV?$stream_output_adapter@D@__crt_stdio_output@@V?$positional_parameter_base@DV?$stream_output_adapter@D@__crt_stdio_output@@@2@@__crt_stdio_output@@AAE_NXZ 004903a4 f i libucrt:output.obj
 0001:0008f567       ?state_case_size@?$output_processor@DV?$stream_output_adapter@D@__crt_stdio_output@@V?$standard_base@DV?$stream_output_adapter@D@__crt_stdio_output@@@2@@__crt_stdio_output@@AAE_NXZ 00490567 f i libucrt:output.obj
 0001:0008f72a       ?state_case_size@?$output_processor@DV?$string_output_adapter@D@__crt_stdio_output@@V?$format_validation_base@DV?$string_output_adapter@D@__crt_stdio_output@@@2@@__crt_stdio_output@@AAE_NXZ 0049072a f i libucrt:output.obj
 0001:0008f8ed       ?state_case_size@?$output_processor@DV?$string_output_adapter@D@__crt_stdio_output@@V?$positional_parameter_base@DV?$string_output_adapter@D@__crt_stdio_output@@@2@@__crt_stdio_output@@AAE_NXZ 004908ed f i libucrt:output.obj
 0001:0008fab0       ?state_case_size@?$output_processor@DV?$string_output_adapter@D@__crt_stdio_output@@V?$standard_base@DV?$string_output_adapter@D@__crt_stdio_output@@@2@@__crt_stdio_output@@AAE_NXZ 00490ab0 f i libucrt:output.obj
 0001:0008fc73       ?state_case_size@?$output_processor@_WV?$stream_output_adapter@_W@__crt_stdio_output@@V?$format_validation_base@_WV?$stream_output_adapter@_W@__crt_stdio_output@@@2@@__crt_stdio_output@@AAE_NXZ 00490c73 f i libucrt:output.obj
 0001:0008fe4e       ?state_case_size@?$output_processor@_WV?$stream_output_adapter@_W@__crt_stdio_output@@V?$positional_parameter_base@_WV?$stream_output_adapter@_W@__crt_stdio_output@@@2@@__crt_stdio_output@@AAE_NXZ 00490e4e f i libucrt:output.obj
 0001:00090029       ?state_case_size@?$output_processor@_WV?$stream_output_adapter@_W@__crt_stdio_output@@V?$standard_base@_WV?$stream_output_adapter@_W@__crt_stdio_output@@@2@@__crt_stdio_output@@AAE_NXZ 00491029 f i libucrt:output.obj
 0001:00090204       ?state_case_size@?$output_processor@_WV?$string_output_adapter@_W@__crt_stdio_output@@V?$format_validation_base@_WV?$string_output_adapter@_W@__crt_stdio_output@@@2@@__crt_stdio_output@@AAE_NXZ 00491204 f i libucrt:output.obj
 0001:000903df       ?state_case_size@?$output_processor@_WV?$string_output_adapter@_W@__crt_stdio_output@@V?$positional_parameter_base@_WV?$string_output_adapter@_W@__crt_stdio_output@@@2@@__crt_stdio_output@@AAE_NXZ 004913df f i libucrt:output.obj
 0001:000905ba       ?state_case_size@?$output_processor@_WV?$string_output_adapter@_W@__crt_stdio_output@@V?$standard_base@_WV?$string_output_adapter@_W@__crt_stdio_output@@@2@@__crt_stdio_output@@AAE_NXZ 004915ba f i libucrt:output.obj
 0001:00090795       ?state_case_type@?$output_processor@DV?$stream_output_adapter@D@__crt_stdio_output@@V?$format_validation_base@DV?$stream_output_adapter@D@__crt_stdio_output@@@2@@__crt_stdio_output@@AAE_NXZ 00491795 f i libucrt:output.obj
 0001:00090a4f       ?state_case_type@?$output_processor@DV?$stream_output_adapter@D@__crt_stdio_output@@V?$positional_parameter_base@DV?$stream_output_adapter@D@__crt_stdio_output@@@2@@__crt_stdio_output@@AAE_NXZ 00491a4f f i libucrt:output.obj
 0001:00090d17       ?state_case_type@?$output_processor@DV?$stream_output_adapter@D@__crt_stdio_output@@V?$standard_base@DV?$stream_output_adapter@D@__crt_stdio_output@@@2@@__crt_stdio_output@@AAE_NXZ 00491d17 f i libucrt:output.obj
 0001:00090fd1       ?state_case_type@?$output_processor@DV?$string_output_adapter@D@__crt_stdio_output@@V?$format_validation_base@DV?$string_output_adapter@D@__crt_stdio_output@@@2@@__crt_stdio_output@@AAE_NXZ 00491fd1 f i libucrt:output.obj
 0001:0009128b       ?state_case_type@?$output_processor@DV?$string_output_adapter@D@__crt_stdio_output@@V?$positional_parameter_base@DV?$string_output_adapter@D@__crt_stdio_output@@@2@@__crt_stdio_output@@AAE_NXZ 0049228b f i libucrt:output.obj
 0001:00091553       ?state_case_type@?$output_processor@DV?$string_output_adapter@D@__crt_stdio_output@@V?$standard_base@DV?$string_output_adapter@D@__crt_stdio_output@@@2@@__crt_stdio_output@@AAE_NXZ 00492553 f i libucrt:output.obj
 0001:0009180d       ?state_case_type@?$output_processor@_WV?$stream_output_adapter@_W@__crt_stdio_output@@V?$format_validation_base@_WV?$stream_output_adapter@_W@__crt_stdio_output@@@2@@__crt_stdio_output@@AAE_NXZ 0049280d f i libucrt:output.obj
 0001:00091b01       ?state_case_type@?$output_processor@_WV?$stream_output_adapter@_W@__crt_stdio_output@@V?$positional_parameter_base@_WV?$stream_output_adapter@_W@__crt_stdio_output@@@2@@__crt_stdio_output@@AAE_NXZ 00492b01 f i libucrt:output.obj
 0001:00091e08       ?state_case_type@?$output_processor@_WV?$stream_output_adapter@_W@__crt_stdio_output@@V?$standard_base@_WV?$stream_output_adapter@_W@__crt_stdio_output@@@2@@__crt_stdio_output@@AAE_NXZ 00492e08 f i libucrt:output.obj
 0001:000920fc       ?state_case_type@?$output_processor@_WV?$string_output_adapter@_W@__crt_stdio_output@@V?$format_validation_base@_WV?$string_output_adapter@_W@__crt_stdio_output@@@2@@__crt_stdio_output@@AAE_NXZ 004930fc f i libucrt:output.obj
 0001:000923f0       ?state_case_type@?$output_processor@_WV?$string_output_adapter@_W@__crt_stdio_output@@V?$positional_parameter_base@_WV?$string_output_adapter@_W@__crt_stdio_output@@@2@@__crt_stdio_output@@AAE_NXZ 004933f0 f i libucrt:output.obj
 0001:000926f7       ?state_case_type@?$output_processor@_WV?$string_output_adapter@_W@__crt_stdio_output@@V?$standard_base@_WV?$string_output_adapter@_W@__crt_stdio_output@@@2@@__crt_stdio_output@@AAE_NXZ 004936f7 f i libucrt:output.obj
 0001:000929eb       ?state_case_width@?$output_processor@DV?$stream_output_adapter@D@__crt_stdio_output@@V?$format_validation_base@DV?$stream_output_adapter@D@__crt_stdio_output@@@2@@__crt_stdio_output@@AAE_NXZ 004939eb f i libucrt:output.obj
 0001:00092a20       ?state_case_width@?$output_processor@DV?$stream_output_adapter@D@__crt_stdio_output@@V?$positional_parameter_base@DV?$stream_output_adapter@D@__crt_stdio_output@@@2@@__crt_stdio_output@@AAE_NXZ 00493a20 f i libucrt:output.obj
 0001:00092a70       ?state_case_width@?$output_processor@DV?$stream_output_adapter@D@__crt_stdio_output@@V?$standard_base@DV?$stream_output_adapter@D@__crt_stdio_output@@@2@@__crt_stdio_output@@AAE_NXZ 00493a70 f i libucrt:output.obj
 0001:00092aa5       ?state_case_width@?$output_processor@DV?$string_output_adapter@D@__crt_stdio_output@@V?$format_validation_base@DV?$string_output_adapter@D@__crt_stdio_output@@@2@@__crt_stdio_output@@AAE_NXZ 00493aa5 f i libucrt:output.obj
 0001:00092ada       ?state_case_width@?$output_processor@DV?$string_output_adapter@D@__crt_stdio_output@@V?$positional_parameter_base@DV?$string_output_adapter@D@__crt_stdio_output@@@2@@__crt_stdio_output@@AAE_NXZ 00493ada f i libucrt:output.obj
 0001:00092b2a       ?state_case_width@?$output_processor@DV?$string_output_adapter@D@__crt_stdio_output@@V?$standard_base@DV?$string_output_adapter@D@__crt_stdio_output@@@2@@__crt_stdio_output@@AAE_NXZ 00493b2a f i libucrt:output.obj
 0001:00092b5f       ?state_case_width@?$output_processor@_WV?$stream_output_adapter@_W@__crt_stdio_output@@V?$format_validation_base@_WV?$stream_output_adapter@_W@__crt_stdio_output@@@2@@__crt_stdio_output@@AAE_NXZ 00493b5f f i libucrt:output.obj
 0001:00092b96       ?state_case_width@?$output_processor@_WV?$stream_output_adapter@_W@__crt_stdio_output@@V?$positional_parameter_base@_WV?$stream_output_adapter@_W@__crt_stdio_output@@@2@@__crt_stdio_output@@AAE_NXZ 00493b96 f i libucrt:output.obj
 0001:00092be7       ?state_case_width@?$output_processor@_WV?$stream_output_adapter@_W@__crt_stdio_output@@V?$standard_base@_WV?$stream_output_adapter@_W@__crt_stdio_output@@@2@@__crt_stdio_output@@AAE_NXZ 00493be7 f i libucrt:output.obj
 0001:00092c1e       ?state_case_width@?$output_processor@_WV?$string_output_adapter@_W@__crt_stdio_output@@V?$format_validation_base@_WV?$string_output_adapter@_W@__crt_stdio_output@@@2@@__crt_stdio_output@@AAE_NXZ 00493c1e f i libucrt:output.obj
 0001:00092c55       ?state_case_width@?$output_processor@_WV?$string_output_adapter@_W@__crt_stdio_output@@V?$positional_parameter_base@_WV?$string_output_adapter@_W@__crt_stdio_output@@@2@@__crt_stdio_output@@AAE_NXZ 00493c55 f i libucrt:output.obj
 0001:00092ca6       ?state_case_width@?$output_processor@_WV?$string_output_adapter@_W@__crt_stdio_output@@V?$standard_base@_WV?$string_output_adapter@_W@__crt_stdio_output@@@2@@__crt_stdio_output@@AAE_NXZ 00493ca6 f i libucrt:output.obj
 0001:00092cdd       ?state_count@?$format_validation_base@DV?$stream_output_adapter@D@__crt_stdio_output@@@__crt_stdio_output@@KAIXZ 00493cdd f i libucrt:output.obj
 0001:00092ce1       ?state_count@?$format_validation_base@DV?$string_output_adapter@D@__crt_stdio_output@@@__crt_stdio_output@@KAIXZ 00493ce1 f i libucrt:output.obj
 0001:00092ce5       ?state_count@?$format_validation_base@_WV?$stream_output_adapter@_W@__crt_stdio_output@@@__crt_stdio_output@@KAIXZ 00493ce5 f i libucrt:output.obj
 0001:00092ce9       ?state_count@?$format_validation_base@_WV?$string_output_adapter@_W@__crt_stdio_output@@@__crt_stdio_output@@KAIXZ 00493ce9 f i libucrt:output.obj
 0001:00092ced       ?state_count@?$standard_base@DV?$stream_output_adapter@D@__crt_stdio_output@@@__crt_stdio_output@@KAIXZ 00493ced f i libucrt:output.obj
 0001:00092cf1       ?state_count@?$standard_base@DV?$string_output_adapter@D@__crt_stdio_output@@@__crt_stdio_output@@KAIXZ 00493cf1 f i libucrt:output.obj
 0001:00092cf5       ?state_count@?$standard_base@_WV?$stream_output_adapter@_W@__crt_stdio_output@@@__crt_stdio_output@@KAIXZ 00493cf5 f i libucrt:output.obj
 0001:00092cf9       ?state_count@?$standard_base@_WV?$string_output_adapter@_W@__crt_stdio_output@@@__crt_stdio_output@@KAIXZ 00493cf9 f i libucrt:output.obj
 0001:00092cfd       ?state_transition_table@?$format_validation_base@DV?$stream_output_adapter@D@__crt_stdio_output@@@__crt_stdio_output@@KAPBEXZ 00493cfd f i libucrt:output.obj
 0001:00092d03       ?state_transition_table@?$format_validation_base@DV?$string_output_adapter@D@__crt_stdio_output@@@__crt_stdio_output@@KAPBEXZ 00493d03 f i libucrt:output.obj
 0001:00092d09       ?state_transition_table@?$format_validation_base@_WV?$stream_output_adapter@_W@__crt_stdio_output@@@__crt_stdio_output@@KAPBEXZ 00493d09 f i libucrt:output.obj
 0001:00092d0f       ?state_transition_table@?$format_validation_base@_WV?$string_output_adapter@_W@__crt_stdio_output@@@__crt_stdio_output@@KAPBEXZ 00493d0f f i libucrt:output.obj
 0001:00092d15       ?state_transition_table@?$standard_base@DV?$stream_output_adapter@D@__crt_stdio_output@@@__crt_stdio_output@@KAPBEXZ 00493d15 f i libucrt:output.obj
 0001:00092d1b       ?state_transition_table@?$standard_base@DV?$string_output_adapter@D@__crt_stdio_output@@@__crt_stdio_output@@KAPBEXZ 00493d1b f i libucrt:output.obj
 0001:00092d21       ?state_transition_table@?$standard_base@_WV?$stream_output_adapter@_W@__crt_stdio_output@@@__crt_stdio_output@@KAPBEXZ 00493d21 f i libucrt:output.obj
 0001:00092d27       ?state_transition_table@?$standard_base@_WV?$string_output_adapter@_W@__crt_stdio_output@@@__crt_stdio_output@@KAPBEXZ 00493d27 f i libucrt:output.obj
 0001:00092d2d       ?to_integer_size@__crt_stdio_output@@YAIW4length_modifier@1@@Z 00493d2d f i libucrt:output.obj
 0001:00092da0       ?type_case_X@?$output_processor@DV?$stream_output_adapter@D@__crt_stdio_output@@V?$format_validation_base@DV?$stream_output_adapter@D@__crt_stdio_output@@@2@@__crt_stdio_output@@AAE_NXZ 00493da0 f i libucrt:output.obj
 0001:00092dac       ?type_case_X@?$output_processor@DV?$stream_output_adapter@D@__crt_stdio_output@@V?$positional_parameter_base@DV?$stream_output_adapter@D@__crt_stdio_output@@@2@@__crt_stdio_output@@AAE_NXZ 00493dac f i libucrt:output.obj
 0001:00092db8       ?type_case_X@?$output_processor@DV?$stream_output_adapter@D@__crt_stdio_output@@V?$standard_base@DV?$stream_output_adapter@D@__crt_stdio_output@@@2@@__crt_stdio_output@@AAE_NXZ 00493db8 f i libucrt:output.obj
 0001:00092dc4       ?type_case_X@?$output_processor@DV?$string_output_adapter@D@__crt_stdio_output@@V?$format_validation_base@DV?$string_output_adapter@D@__crt_stdio_output@@@2@@__crt_stdio_output@@AAE_NXZ 00493dc4 f i libucrt:output.obj
 0001:00092dd0       ?type_case_X@?$output_processor@DV?$string_output_adapter@D@__crt_stdio_output@@V?$positional_parameter_base@DV?$string_output_adapter@D@__crt_stdio_output@@@2@@__crt_stdio_output@@AAE_NXZ 00493dd0 f i libucrt:output.obj
 0001:00092ddc       ?type_case_X@?$output_processor@DV?$string_output_adapter@D@__crt_stdio_output@@V?$standard_base@DV?$string_output_adapter@D@__crt_stdio_output@@@2@@__crt_stdio_output@@AAE_NXZ 00493ddc f i libucrt:output.obj
 0001:00092de8       ?type_case_X@?$output_processor@_WV?$stream_output_adapter@_W@__crt_stdio_output@@V?$format_validation_base@_WV?$stream_output_adapter@_W@__crt_stdio_output@@@2@@__crt_stdio_output@@AAE_NXZ 00493de8 f i libucrt:output.obj
 0001:00092df4       ?type_case_X@?$output_processor@_WV?$stream_output_adapter@_W@__crt_stdio_output@@V?$positional_parameter_base@_WV?$stream_output_adapter@_W@__crt_stdio_output@@@2@@__crt_stdio_output@@AAE_NXZ 00493df4 f i libucrt:output.obj
 0001:00092e00       ?type_case_X@?$output_processor@_WV?$stream_output_adapter@_W@__crt_stdio_output@@V?$standard_base@_WV?$stream_output_adapter@_W@__crt_stdio_output@@@2@@__crt_stdio_output@@AAE_NXZ 00493e00 f i libucrt:output.obj
 0001:00092e0c       ?type_case_X@?$output_processor@_WV?$string_output_adapter@_W@__crt_stdio_output@@V?$format_validation_base@_WV?$string_output_adapter@_W@__crt_stdio_output@@@2@@__crt_stdio_output@@AAE_NXZ 00493e0c f i libucrt:output.obj
 0001:00092e18       ?type_case_X@?$output_processor@_WV?$string_output_adapter@_W@__crt_stdio_output@@V?$positional_parameter_base@_WV?$string_output_adapter@_W@__crt_stdio_output@@@2@@__crt_stdio_output@@AAE_NXZ 00493e18 f i libucrt:output.obj
 0001:00092e24       ?type_case_X@?$output_processor@_WV?$string_output_adapter@_W@__crt_stdio_output@@V?$standard_base@_WV?$string_output_adapter@_W@__crt_stdio_output@@@2@@__crt_stdio_output@@AAE_NXZ 00493e24 f i libucrt:output.obj
 0001:00092e30       ?type_case_Z@?$output_processor@DV?$stream_output_adapter@D@__crt_stdio_output@@V?$format_validation_base@DV?$stream_output_adapter@D@__crt_stdio_output@@@2@@__crt_stdio_output@@AAE_NXZ 00493e30 f i libucrt:output.obj
 0001:00092eab       ?type_case_Z@?$output_processor@DV?$stream_output_adapter@D@__crt_stdio_output@@V?$positional_parameter_base@DV?$stream_output_adapter@D@__crt_stdio_output@@@2@@__crt_stdio_output@@AAE_NXZ 00493eab f i libucrt:output.obj
 0001:00092f49       ?type_case_Z@?$output_processor@DV?$stream_output_adapter@D@__crt_stdio_output@@V?$standard_base@DV?$stream_output_adapter@D@__crt_stdio_output@@@2@@__crt_stdio_output@@AAE_NXZ 00493f49 f i libucrt:output.obj
 0001:00092fc4       ?type_case_Z@?$output_processor@DV?$string_output_adapter@D@__crt_stdio_output@@V?$format_validation_base@DV?$string_output_adapter@D@__crt_stdio_output@@@2@@__crt_stdio_output@@AAE_NXZ 00493fc4 f i libucrt:output.obj
 0001:0009303f       ?type_case_Z@?$output_processor@DV?$string_output_adapter@D@__crt_stdio_output@@V?$positional_parameter_base@DV?$string_output_adapter@D@__crt_stdio_output@@@2@@__crt_stdio_output@@AAE_NXZ 0049403f f i libucrt:output.obj
 0001:000930dd       ?type_case_Z@?$output_processor@DV?$string_output_adapter@D@__crt_stdio_output@@V?$standard_base@DV?$string_output_adapter@D@__crt_stdio_output@@@2@@__crt_stdio_output@@AAE_NXZ 004940dd f i libucrt:output.obj
 0001:00093158       ?type_case_Z@?$output_processor@_WV?$stream_output_adapter@_W@__crt_stdio_output@@V?$format_validation_base@_WV?$stream_output_adapter@_W@__crt_stdio_output@@@2@@__crt_stdio_output@@AAE_NXZ 00494158 f i libucrt:output.obj
 0001:000931d3       ?type_case_Z@?$output_processor@_WV?$stream_output_adapter@_W@__crt_stdio_output@@V?$positional_parameter_base@_WV?$stream_output_adapter@_W@__crt_stdio_output@@@2@@__crt_stdio_output@@AAE_NXZ 004941d3 f i libucrt:output.obj
 0001:00093271       ?type_case_Z@?$output_processor@_WV?$stream_output_adapter@_W@__crt_stdio_output@@V?$standard_base@_WV?$stream_output_adapter@_W@__crt_stdio_output@@@2@@__crt_stdio_output@@AAE_NXZ 00494271 f i libucrt:output.obj
 0001:000932ec       ?type_case_Z@?$output_processor@_WV?$string_output_adapter@_W@__crt_stdio_output@@V?$format_validation_base@_WV?$string_output_adapter@_W@__crt_stdio_output@@@2@@__crt_stdio_output@@AAE_NXZ 004942ec f i libucrt:output.obj
 0001:00093367       ?type_case_Z@?$output_processor@_WV?$string_output_adapter@_W@__crt_stdio_output@@V?$positional_parameter_base@_WV?$string_output_adapter@_W@__crt_stdio_output@@@2@@__crt_stdio_output@@AAE_NXZ 00494367 f i libucrt:output.obj
 0001:00093405       ?type_case_Z@?$output_processor@_WV?$string_output_adapter@_W@__crt_stdio_output@@V?$standard_base@_WV?$string_output_adapter@_W@__crt_stdio_output@@@2@@__crt_stdio_output@@AAE_NXZ 00494405 f i libucrt:output.obj
 0001:00093480       ?type_case_a@?$output_processor@DV?$stream_output_adapter@D@__crt_stdio_output@@V?$format_validation_base@DV?$stream_output_adapter@D@__crt_stdio_output@@@2@@__crt_stdio_output@@AAE_NXZ 00494480 f i libucrt:output.obj
 0001:00093630       ?type_case_a@?$output_processor@DV?$stream_output_adapter@D@__crt_stdio_output@@V?$positional_parameter_base@DV?$stream_output_adapter@D@__crt_stdio_output@@@2@@__crt_stdio_output@@AAE_NXZ 00494630 f i libucrt:output.obj
 0001:00093807       ?type_case_a@?$output_processor@DV?$stream_output_adapter@D@__crt_stdio_output@@V?$standard_base@DV?$stream_output_adapter@D@__crt_stdio_output@@@2@@__crt_stdio_output@@AAE_NXZ 00494807 f i libucrt:output.obj
 0001:000939b7       ?type_case_a@?$output_processor@DV?$string_output_adapter@D@__crt_stdio_output@@V?$format_validation_base@DV?$string_output_adapter@D@__crt_stdio_output@@@2@@__crt_stdio_output@@AAE_NXZ 004949b7 f i libucrt:output.obj
 0001:00093b67       ?type_case_a@?$output_processor@DV?$string_output_adapter@D@__crt_stdio_output@@V?$positional_parameter_base@DV?$string_output_adapter@D@__crt_stdio_output@@@2@@__crt_stdio_output@@AAE_NXZ 00494b67 f i libucrt:output.obj
 0001:00093d3e       ?type_case_a@?$output_processor@DV?$string_output_adapter@D@__crt_stdio_output@@V?$standard_base@DV?$string_output_adapter@D@__crt_stdio_output@@@2@@__crt_stdio_output@@AAE_NXZ 00494d3e f i libucrt:output.obj
 0001:00093eee       ?type_case_a@?$output_processor@_WV?$stream_output_adapter@_W@__crt_stdio_output@@V?$format_validation_base@_WV?$stream_output_adapter@_W@__crt_stdio_output@@@2@@__crt_stdio_output@@AAE_NXZ 00494eee f i libucrt:output.obj
 0001:000940bc       ?type_case_a@?$output_processor@_WV?$stream_output_adapter@_W@__crt_stdio_output@@V?$positional_parameter_base@_WV?$stream_output_adapter@_W@__crt_stdio_output@@@2@@__crt_stdio_output@@AAE_NXZ 004950bc f i libucrt:output.obj
 0001:000942b1       ?type_case_a@?$output_processor@_WV?$stream_output_adapter@_W@__crt_stdio_output@@V?$standard_base@_WV?$stream_output_adapter@_W@__crt_stdio_output@@@2@@__crt_stdio_output@@AAE_NXZ 004952b1 f i libucrt:output.obj
 0001:0009447f       ?type_case_a@?$output_processor@_WV?$string_output_adapter@_W@__crt_stdio_output@@V?$format_validation_base@_WV?$string_output_adapter@_W@__crt_stdio_output@@@2@@__crt_stdio_output@@AAE_NXZ 0049547f f i libucrt:output.obj
 0001:0009464d       ?type_case_a@?$output_processor@_WV?$string_output_adapter@_W@__crt_stdio_output@@V?$positional_parameter_base@_WV?$string_output_adapter@_W@__crt_stdio_output@@@2@@__crt_stdio_output@@AAE_NXZ 0049564d f i libucrt:output.obj
 0001:00094842       ?type_case_a@?$output_processor@_WV?$string_output_adapter@_W@__crt_stdio_output@@V?$standard_base@_WV?$string_output_adapter@_W@__crt_stdio_output@@@2@@__crt_stdio_output@@AAE_NXZ 00495842 f i libucrt:output.obj
 0001:00094a10       ?type_case_c@?$output_processor@DV?$stream_output_adapter@D@__crt_stdio_output@@V?$format_validation_base@DV?$stream_output_adapter@D@__crt_stdio_output@@@2@@__crt_stdio_output@@AAE_NXZ 00495a10 f i libucrt:output.obj
 0001:00094a1a       ?type_case_c@?$output_processor@DV?$stream_output_adapter@D@__crt_stdio_output@@V?$positional_parameter_base@DV?$stream_output_adapter@D@__crt_stdio_output@@@2@@__crt_stdio_output@@AAE_NXZ 00495a1a f i libucrt:output.obj
 0001:00094a24       ?type_case_c@?$output_processor@DV?$stream_output_adapter@D@__crt_stdio_output@@V?$standard_base@DV?$stream_output_adapter@D@__crt_stdio_output@@@2@@__crt_stdio_output@@AAE_NXZ 00495a24 f i libucrt:output.obj
 0001:00094a2e       ?type_case_c@?$output_processor@DV?$string_output_adapter@D@__crt_stdio_output@@V?$format_validation_base@DV?$string_output_adapter@D@__crt_stdio_output@@@2@@__crt_stdio_output@@AAE_NXZ 00495a2e f i libucrt:output.obj
 0001:00094a38       ?type_case_c@?$output_processor@DV?$string_output_adapter@D@__crt_stdio_output@@V?$positional_parameter_base@DV?$string_output_adapter@D@__crt_stdio_output@@@2@@__crt_stdio_output@@AAE_NXZ 00495a38 f i libucrt:output.obj
 0001:00094a42       ?type_case_c@?$output_processor@DV?$string_output_adapter@D@__crt_stdio_output@@V?$standard_base@DV?$string_output_adapter@D@__crt_stdio_output@@@2@@__crt_stdio_output@@AAE_NXZ 00495a42 f i libucrt:output.obj
 0001:00094a4c       ?type_case_c@?$output_processor@_WV?$stream_output_adapter@_W@__crt_stdio_output@@V?$format_validation_base@_WV?$stream_output_adapter@_W@__crt_stdio_output@@@2@@__crt_stdio_output@@AAE_NXZ 00495a4c f i libucrt:output.obj
 0001:00094a56       ?type_case_c@?$output_processor@_WV?$stream_output_adapter@_W@__crt_stdio_output@@V?$positional_parameter_base@_WV?$stream_output_adapter@_W@__crt_stdio_output@@@2@@__crt_stdio_output@@AAE_NXZ 00495a56 f i libucrt:output.obj
 0001:00094a60       ?type_case_c@?$output_processor@_WV?$stream_output_adapter@_W@__crt_stdio_output@@V?$standard_base@_WV?$stream_output_adapter@_W@__crt_stdio_output@@@2@@__crt_stdio_output@@AAE_NXZ 00495a60 f i libucrt:output.obj
 0001:00094a6a       ?type_case_c@?$output_processor@_WV?$string_output_adapter@_W@__crt_stdio_output@@V?$format_validation_base@_WV?$string_output_adapter@_W@__crt_stdio_output@@@2@@__crt_stdio_output@@AAE_NXZ 00495a6a f i libucrt:output.obj
 0001:00094a74       ?type_case_c@?$output_processor@_WV?$string_output_adapter@_W@__crt_stdio_output@@V?$positional_parameter_base@_WV?$string_output_adapter@_W@__crt_stdio_output@@@2@@__crt_stdio_output@@AAE_NXZ 00495a74 f i libucrt:output.obj
 0001:00094a7e       ?type_case_c@?$output_processor@_WV?$string_output_adapter@_W@__crt_stdio_output@@V?$standard_base@_WV?$string_output_adapter@_W@__crt_stdio_output@@@2@@__crt_stdio_output@@AAE_NXZ 00495a7e f i libucrt:output.obj
 0001:00094a88       ?type_case_c_tchar@?$output_processor@DV?$stream_output_adapter@D@__crt_stdio_output@@V?$format_validation_base@DV?$stream_output_adapter@D@__crt_stdio_output@@@2@@__crt_stdio_output@@AAE_ND@Z 00495a88 f i libucrt:output.obj
 0001:00094b3c       ?type_case_c_tchar@?$output_processor@DV?$stream_output_adapter@D@__crt_stdio_output@@V?$positional_parameter_base@DV?$stream_output_adapter@D@__crt_stdio_output@@@2@@__crt_stdio_output@@AAE_ND@Z 00495b3c f i libucrt:output.obj
 0001:00094c2c       ?type_case_c_tchar@?$output_processor@DV?$stream_output_adapter@D@__crt_stdio_output@@V?$standard_base@DV?$stream_output_adapter@D@__crt_stdio_output@@@2@@__crt_stdio_output@@AAE_ND@Z 00495c2c f i libucrt:output.obj
 0001:00094ce0       ?type_case_c_tchar@?$output_processor@DV?$string_output_adapter@D@__crt_stdio_output@@V?$format_validation_base@DV?$string_output_adapter@D@__crt_stdio_output@@@2@@__crt_stdio_output@@AAE_ND@Z 00495ce0 f i libucrt:output.obj
 0001:00094d94       ?type_case_c_tchar@?$output_processor@DV?$string_output_adapter@D@__crt_stdio_output@@V?$positional_parameter_base@DV?$string_output_adapter@D@__crt_stdio_output@@@2@@__crt_stdio_output@@AAE_ND@Z 00495d94 f i libucrt:output.obj
 0001:00094e84       ?type_case_c_tchar@?$output_processor@DV?$string_output_adapter@D@__crt_stdio_output@@V?$standard_base@DV?$string_output_adapter@D@__crt_stdio_output@@@2@@__crt_stdio_output@@AAE_ND@Z 00495e84 f i libucrt:output.obj
 0001:00094f38       ?type_case_c_tchar@?$output_processor@_WV?$stream_output_adapter@_W@__crt_stdio_output@@V?$format_validation_base@_WV?$stream_output_adapter@_W@__crt_stdio_output@@@2@@__crt_stdio_output@@AAE_N_W@Z 00495f38 f i libucrt:output.obj
 0001:00094ff6       ?type_case_c_tchar@?$output_processor@_WV?$stream_output_adapter@_W@__crt_stdio_output@@V?$positional_parameter_base@_WV?$stream_output_adapter@_W@__crt_stdio_output@@@2@@__crt_stdio_output@@AAE_N_W@Z 00495ff6 f i libucrt:output.obj
 0001:000950d0       ?type_case_c_tchar@?$output_processor@_WV?$stream_output_adapter@_W@__crt_stdio_output@@V?$standard_base@_WV?$stream_output_adapter@_W@__crt_stdio_output@@@2@@__crt_stdio_output@@AAE_N_W@Z 004960d0 f i libucrt:output.obj
 0001:0009518e       ?type_case_c_tchar@?$output_processor@_WV?$string_output_adapter@_W@__crt_stdio_output@@V?$format_validation_base@_WV?$string_output_adapter@_W@__crt_stdio_output@@@2@@__crt_stdio_output@@AAE_N_W@Z 0049618e f i libucrt:output.obj
 0001:0009524c       ?type_case_c_tchar@?$output_processor@_WV?$string_output_adapter@_W@__crt_stdio_output@@V?$positional_parameter_base@_WV?$string_output_adapter@_W@__crt_stdio_output@@@2@@__crt_stdio_output@@AAE_N_W@Z 0049624c f i libucrt:output.obj
 0001:00095326       ?type_case_c_tchar@?$output_processor@_WV?$string_output_adapter@_W@__crt_stdio_output@@V?$standard_base@_WV?$string_output_adapter@_W@__crt_stdio_output@@@2@@__crt_stdio_output@@AAE_N_W@Z 00496326 f i libucrt:output.obj
 0001:000953e4       ?type_case_d@?$output_processor@DV?$stream_output_adapter@D@__crt_stdio_output@@V?$format_validation_base@DV?$stream_output_adapter@D@__crt_stdio_output@@@2@@__crt_stdio_output@@AAE_NXZ 004963e4 f i libucrt:output.obj
 0001:000953f5       ?type_case_d@?$output_processor@DV?$stream_output_adapter@D@__crt_stdio_output@@V?$positional_parameter_base@DV?$stream_output_adapter@D@__crt_stdio_output@@@2@@__crt_stdio_output@@AAE_NXZ 004963f5 f i libucrt:output.obj
 0001:00095406       ?type_case_d@?$output_processor@DV?$stream_output_adapter@D@__crt_stdio_output@@V?$standard_base@DV?$stream_output_adapter@D@__crt_stdio_output@@@2@@__crt_stdio_output@@AAE_NXZ 00496406 f i libucrt:output.obj
 0001:00095417       ?type_case_d@?$output_processor@DV?$string_output_adapter@D@__crt_stdio_output@@V?$format_validation_base@DV?$string_output_adapter@D@__crt_stdio_output@@@2@@__crt_stdio_output@@AAE_NXZ 00496417 f i libucrt:output.obj
 0001:00095428       ?type_case_d@?$output_processor@DV?$string_output_adapter@D@__crt_stdio_output@@V?$positional_parameter_base@DV?$string_output_adapter@D@__crt_stdio_output@@@2@@__crt_stdio_output@@AAE_NXZ 00496428 f i libucrt:output.obj
 0001:00095439       ?type_case_d@?$output_processor@DV?$string_output_adapter@D@__crt_stdio_output@@V?$standard_base@DV?$string_output_adapter@D@__crt_stdio_output@@@2@@__crt_stdio_output@@AAE_NXZ 00496439 f i libucrt:output.obj
 0001:0009544a       ?type_case_d@?$output_processor@_WV?$stream_output_adapter@_W@__crt_stdio_output@@V?$format_validation_base@_WV?$stream_output_adapter@_W@__crt_stdio_output@@@2@@__crt_stdio_output@@AAE_NXZ 0049644a f i libucrt:output.obj
 0001:0009545b       ?type_case_d@?$output_processor@_WV?$stream_output_adapter@_W@__crt_stdio_output@@V?$positional_parameter_base@_WV?$stream_output_adapter@_W@__crt_stdio_output@@@2@@__crt_stdio_output@@AAE_NXZ 0049645b f i libucrt:output.obj
 0001:0009546c       ?type_case_d@?$output_processor@_WV?$stream_output_adapter@_W@__crt_stdio_output@@V?$standard_base@_WV?$stream_output_adapter@_W@__crt_stdio_output@@@2@@__crt_stdio_output@@AAE_NXZ 0049646c f i libucrt:output.obj
 0001:0009547d       ?type_case_d@?$output_processor@_WV?$string_output_adapter@_W@__crt_stdio_output@@V?$format_validation_base@_WV?$string_output_adapter@_W@__crt_stdio_output@@@2@@__crt_stdio_output@@AAE_NXZ 0049647d f i libucrt:output.obj
 0001:0009548e       ?type_case_d@?$output_processor@_WV?$string_output_adapter@_W@__crt_stdio_output@@V?$positional_parameter_base@_WV?$string_output_adapter@_W@__crt_stdio_output@@@2@@__crt_stdio_output@@AAE_NXZ 0049648e f i libucrt:output.obj
 0001:0009549f       ?type_case_d@?$output_processor@_WV?$string_output_adapter@_W@__crt_stdio_output@@V?$standard_base@_WV?$string_output_adapter@_W@__crt_stdio_output@@@2@@__crt_stdio_output@@AAE_NXZ 0049649f f i libucrt:output.obj
 0001:000954b0       ?type_case_integer@?$output_processor@DV?$stream_output_adapter@D@__crt_stdio_output@@V?$format_validation_base@DV?$stream_output_adapter@D@__crt_stdio_output@@@2@@__crt_stdio_output@@AAE_NI_N@Z 004964b0 f i libucrt:output.obj
 0001:0009564c       ?type_case_integer@?$output_processor@DV?$stream_output_adapter@D@__crt_stdio_output@@V?$positional_parameter_base@DV?$stream_output_adapter@D@__crt_stdio_output@@@2@@__crt_stdio_output@@AAE_NI_N@Z 0049664c f i libucrt:output.obj
 0001:00095829       ?type_case_integer@?$output_processor@DV?$stream_output_adapter@D@__crt_stdio_output@@V?$standard_base@DV?$stream_output_adapter@D@__crt_stdio_output@@@2@@__crt_stdio_output@@AAE_NI_N@Z 00496829 f i libucrt:output.obj
 0001:000959c5       ?type_case_integer@?$output_processor@DV?$string_output_adapter@D@__crt_stdio_output@@V?$format_validation_base@DV?$string_output_adapter@D@__crt_stdio_output@@@2@@__crt_stdio_output@@AAE_NI_N@Z 004969c5 f i libucrt:output.obj
 0001:00095b61       ?type_case_integer@?$output_processor@DV?$string_output_adapter@D@__crt_stdio_output@@V?$positional_parameter_base@DV?$string_output_adapter@D@__crt_stdio_output@@@2@@__crt_stdio_output@@AAE_NI_N@Z 00496b61 f i libucrt:output.obj
 0001:00095d3e       ?type_case_integer@?$output_processor@DV?$string_output_adapter@D@__crt_stdio_output@@V?$standard_base@DV?$string_output_adapter@D@__crt_stdio_output@@@2@@__crt_stdio_output@@AAE_NI_N@Z 00496d3e f i libucrt:output.obj
 0001:00095eda       ?type_case_integer@?$output_processor@_WV?$stream_output_adapter@_W@__crt_stdio_output@@V?$format_validation_base@_WV?$stream_output_adapter@_W@__crt_stdio_output@@@2@@__crt_stdio_output@@AAE_NI_N@Z 00496eda f i libucrt:output.obj
 0001:00096076       ?type_case_integer@?$output_processor@_WV?$stream_output_adapter@_W@__crt_stdio_output@@V?$positional_parameter_base@_WV?$stream_output_adapter@_W@__crt_stdio_output@@@2@@__crt_stdio_output@@AAE_NI_N@Z 00497076 f i libucrt:output.obj
 0001:00096253       ?type_case_integer@?$output_processor@_WV?$stream_output_adapter@_W@__crt_stdio_output@@V?$standard_base@_WV?$stream_output_adapter@_W@__crt_stdio_output@@@2@@__crt_stdio_output@@AAE_NI_N@Z 00497253 f i libucrt:output.obj
 0001:000963ef       ?type_case_integer@?$output_processor@_WV?$string_output_adapter@_W@__crt_stdio_output@@V?$format_validation_base@_WV?$string_output_adapter@_W@__crt_stdio_output@@@2@@__crt_stdio_output@@AAE_NI_N@Z 004973ef f i libucrt:output.obj
 0001:0009658b       ?type_case_integer@?$output_processor@_WV?$string_output_adapter@_W@__crt_stdio_output@@V?$positional_parameter_base@_WV?$string_output_adapter@_W@__crt_stdio_output@@@2@@__crt_stdio_output@@AAE_NI_N@Z 0049758b f i libucrt:output.obj
 0001:00096768       ?type_case_integer@?$output_processor@_WV?$string_output_adapter@_W@__crt_stdio_output@@V?$standard_base@_WV?$string_output_adapter@_W@__crt_stdio_output@@@2@@__crt_stdio_output@@AAE_NI_N@Z 00497768 f i libucrt:output.obj
 0001:00096904       ?type_case_n@?$output_processor@DV?$stream_output_adapter@D@__crt_stdio_output@@V?$format_validation_base@DV?$stream_output_adapter@D@__crt_stdio_output@@@2@@__crt_stdio_output@@AAE_NXZ 00497904 f i libucrt:output.obj
 0001:00096995       ?type_case_n@?$output_processor@DV?$stream_output_adapter@D@__crt_stdio_output@@V?$positional_parameter_base@DV?$stream_output_adapter@D@__crt_stdio_output@@@2@@__crt_stdio_output@@AAE_NXZ 00497995 f i libucrt:output.obj
 0001:00096a54       ?type_case_n@?$output_processor@DV?$stream_output_adapter@D@__crt_stdio_output@@V?$standard_base@DV?$stream_output_adapter@D@__crt_stdio_output@@@2@@__crt_stdio_output@@AAE_NXZ 00497a54 f i libucrt:output.obj
 0001:00096ae5       ?type_case_n@?$output_processor@DV?$string_output_adapter@D@__crt_stdio_output@@V?$format_validation_base@DV?$string_output_adapter@D@__crt_stdio_output@@@2@@__crt_stdio_output@@AAE_NXZ 00497ae5 f i libucrt:output.obj
 0001:00096b76       ?type_case_n@?$output_processor@DV?$string_output_adapter@D@__crt_stdio_output@@V?$positional_parameter_base@DV?$string_output_adapter@D@__crt_stdio_output@@@2@@__crt_stdio_output@@AAE_NXZ 00497b76 f i libucrt:output.obj
 0001:00096c35       ?type_case_n@?$output_processor@DV?$string_output_adapter@D@__crt_stdio_output@@V?$standard_base@DV?$string_output_adapter@D@__crt_stdio_output@@@2@@__crt_stdio_output@@AAE_NXZ 00497c35 f i libucrt:output.obj
 0001:00096cc6       ?type_case_n@?$output_processor@_WV?$stream_output_adapter@_W@__crt_stdio_output@@V?$format_validation_base@_WV?$stream_output_adapter@_W@__crt_stdio_output@@@2@@__crt_stdio_output@@AAE_NXZ 00497cc6 f i libucrt:output.obj
 0001:00096d57       ?type_case_n@?$output_processor@_WV?$stream_output_adapter@_W@__crt_stdio_output@@V?$positional_parameter_base@_WV?$stream_output_adapter@_W@__crt_stdio_output@@@2@@__crt_stdio_output@@AAE_NXZ 00497d57 f i libucrt:output.obj
 0001:00096e16       ?type_case_n@?$output_processor@_WV?$stream_output_adapter@_W@__crt_stdio_output@@V?$standard_base@_WV?$stream_output_adapter@_W@__crt_stdio_output@@@2@@__crt_stdio_output@@AAE_NXZ 00497e16 f i libucrt:output.obj
 0001:00096ea7       ?type_case_n@?$output_processor@_WV?$string_output_adapter@_W@__crt_stdio_output@@V?$format_validation_base@_WV?$string_output_adapter@_W@__crt_stdio_output@@@2@@__crt_stdio_output@@AAE_NXZ 00497ea7 f i libucrt:output.obj
 0001:00096f38       ?type_case_n@?$output_processor@_WV?$string_output_adapter@_W@__crt_stdio_output@@V?$positional_parameter_base@_WV?$string_output_adapter@_W@__crt_stdio_output@@@2@@__crt_stdio_output@@AAE_NXZ 00497f38 f i libucrt:output.obj
 0001:00096ff7       ?type_case_n@?$output_processor@_WV?$string_output_adapter@_W@__crt_stdio_output@@V?$standard_base@_WV?$string_output_adapter@_W@__crt_stdio_output@@@2@@__crt_stdio_output@@AAE_NXZ 00497ff7 f i libucrt:output.obj
 0001:00097088       ?type_case_o@?$output_processor@DV?$stream_output_adapter@D@__crt_stdio_output@@V?$format_validation_base@DV?$stream_output_adapter@D@__crt_stdio_output@@@2@@__crt_stdio_output@@AAE_NXZ 00498088 f i libucrt:output.obj
 0001:000970ae       ?type_case_o@?$output_processor@DV?$stream_output_adapter@D@__crt_stdio_output@@V?$positional_parameter_base@DV?$stream_output_adapter@D@__crt_stdio_output@@@2@@__crt_stdio_output@@AAE_NXZ 004980ae f i libucrt:output.obj
 0001:000970d4       ?type_case_o@?$output_processor@DV?$stream_output_adapter@D@__crt_stdio_output@@V?$standard_base@DV?$stream_output_adapter@D@__crt_stdio_output@@@2@@__crt_stdio_output@@AAE_NXZ 004980d4 f i libucrt:output.obj
 0001:000970fa       ?type_case_o@?$output_processor@DV?$string_output_adapter@D@__crt_stdio_output@@V?$format_validation_base@DV?$string_output_adapter@D@__crt_stdio_output@@@2@@__crt_stdio_output@@AAE_NXZ 004980fa f i libucrt:output.obj
 0001:00097120       ?type_case_o@?$output_processor@DV?$string_output_adapter@D@__crt_stdio_output@@V?$positional_parameter_base@DV?$string_output_adapter@D@__crt_stdio_output@@@2@@__crt_stdio_output@@AAE_NXZ 00498120 f i libucrt:output.obj
 0001:00097146       ?type_case_o@?$output_processor@DV?$string_output_adapter@D@__crt_stdio_output@@V?$standard_base@DV?$string_output_adapter@D@__crt_stdio_output@@@2@@__crt_stdio_output@@AAE_NXZ 00498146 f i libucrt:output.obj
 0001:0009716c       ?type_case_o@?$output_processor@_WV?$stream_output_adapter@_W@__crt_stdio_output@@V?$format_validation_base@_WV?$stream_output_adapter@_W@__crt_stdio_output@@@2@@__crt_stdio_output@@AAE_NXZ 0049816c f i libucrt:output.obj
 0001:00097192       ?type_case_o@?$output_processor@_WV?$stream_output_adapter@_W@__crt_stdio_output@@V?$positional_parameter_base@_WV?$stream_output_adapter@_W@__crt_stdio_output@@@2@@__crt_stdio_output@@AAE_NXZ 00498192 f i libucrt:output.obj
 0001:000971b8       ?type_case_o@?$output_processor@_WV?$stream_output_adapter@_W@__crt_stdio_output@@V?$standard_base@_WV?$stream_output_adapter@_W@__crt_stdio_output@@@2@@__crt_stdio_output@@AAE_NXZ 004981b8 f i libucrt:output.obj
 0001:000971de       ?type_case_o@?$output_processor@_WV?$string_output_adapter@_W@__crt_stdio_output@@V?$format_validation_base@_WV?$string_output_adapter@_W@__crt_stdio_output@@@2@@__crt_stdio_output@@AAE_NXZ 004981de f i libucrt:output.obj
 0001:00097204       ?type_case_o@?$output_processor@_WV?$string_output_adapter@_W@__crt_stdio_output@@V?$positional_parameter_base@_WV?$string_output_adapter@_W@__crt_stdio_output@@@2@@__crt_stdio_output@@AAE_NXZ 00498204 f i libucrt:output.obj
 0001:0009722a       ?type_case_o@?$output_processor@_WV?$string_output_adapter@_W@__crt_stdio_output@@V?$standard_base@_WV?$string_output_adapter@_W@__crt_stdio_output@@@2@@__crt_stdio_output@@AAE_NXZ 0049822a f i libucrt:output.obj
 0001:00097250       ?type_case_p@?$output_processor@DV?$stream_output_adapter@D@__crt_stdio_output@@V?$format_validation_base@DV?$stream_output_adapter@D@__crt_stdio_output@@@2@@__crt_stdio_output@@AAE_NXZ 00498250 f i libucrt:output.obj
 0001:0009726e       ?type_case_p@?$output_processor@DV?$stream_output_adapter@D@__crt_stdio_output@@V?$positional_parameter_base@DV?$stream_output_adapter@D@__crt_stdio_output@@@2@@__crt_stdio_output@@AAE_NXZ 0049826e f i libucrt:output.obj
 0001:0009728c       ?type_case_p@?$output_processor@DV?$stream_output_adapter@D@__crt_stdio_output@@V?$standard_base@DV?$stream_output_adapter@D@__crt_stdio_output@@@2@@__crt_stdio_output@@AAE_NXZ 0049828c f i libucrt:output.obj
 0001:000972aa       ?type_case_p@?$output_processor@DV?$string_output_adapter@D@__crt_stdio_output@@V?$format_validation_base@DV?$string_output_adapter@D@__crt_stdio_output@@@2@@__crt_stdio_output@@AAE_NXZ 004982aa f i libucrt:output.obj
 0001:000972c8       ?type_case_p@?$output_processor@DV?$string_output_adapter@D@__crt_stdio_output@@V?$positional_parameter_base@DV?$string_output_adapter@D@__crt_stdio_output@@@2@@__crt_stdio_output@@AAE_NXZ 004982c8 f i libucrt:output.obj
 0001:000972e6       ?type_case_p@?$output_processor@DV?$string_output_adapter@D@__crt_stdio_output@@V?$standard_base@DV?$string_output_adapter@D@__crt_stdio_output@@@2@@__crt_stdio_output@@AAE_NXZ 004982e6 f i libucrt:output.obj
 0001:00097304       ?type_case_p@?$output_processor@_WV?$stream_output_adapter@_W@__crt_stdio_output@@V?$format_validation_base@_WV?$stream_output_adapter@_W@__crt_stdio_output@@@2@@__crt_stdio_output@@AAE_NXZ 00498304 f i libucrt:output.obj
 0001:00097322       ?type_case_p@?$output_processor@_WV?$stream_output_adapter@_W@__crt_stdio_output@@V?$positional_parameter_base@_WV?$stream_output_adapter@_W@__crt_stdio_output@@@2@@__crt_stdio_output@@AAE_NXZ 00498322 f i libucrt:output.obj
 0001:00097340       ?type_case_p@?$output_processor@_WV?$stream_output_adapter@_W@__crt_stdio_output@@V?$standard_base@_WV?$stream_output_adapter@_W@__crt_stdio_output@@@2@@__crt_stdio_output@@AAE_NXZ 00498340 f i libucrt:output.obj
 0001:0009735e       ?type_case_p@?$output_processor@_WV?$string_output_adapter@_W@__crt_stdio_output@@V?$format_validation_base@_WV?$string_output_adapter@_W@__crt_stdio_output@@@2@@__crt_stdio_output@@AAE_NXZ 0049835e f i libucrt:output.obj
 0001:0009737c       ?type_case_p@?$output_processor@_WV?$string_output_adapter@_W@__crt_stdio_output@@V?$positional_parameter_base@_WV?$string_output_adapter@_W@__crt_stdio_output@@@2@@__crt_stdio_output@@AAE_NXZ 0049837c f i libucrt:output.obj
 0001:0009739a       ?type_case_p@?$output_processor@_WV?$string_output_adapter@_W@__crt_stdio_output@@V?$standard_base@_WV?$string_output_adapter@_W@__crt_stdio_output@@@2@@__crt_stdio_output@@AAE_NXZ 0049839a f i libucrt:output.obj
 0001:000973b8       ?type_case_s@?$output_processor@DV?$stream_output_adapter@D@__crt_stdio_output@@V?$format_validation_base@DV?$stream_output_adapter@D@__crt_stdio_output@@@2@@__crt_stdio_output@@AAE_NXZ 004983b8 f i libucrt:output.obj
 0001:00097447       ?type_case_s@?$output_processor@DV?$stream_output_adapter@D@__crt_stdio_output@@V?$positional_parameter_base@DV?$stream_output_adapter@D@__crt_stdio_output@@@2@@__crt_stdio_output@@AAE_NXZ 00498447 f i libucrt:output.obj
 0001:000974e2       ?type_case_s@?$output_processor@DV?$stream_output_adapter@D@__crt_stdio_output@@V?$standard_base@DV?$stream_output_adapter@D@__crt_stdio_output@@@2@@__crt_stdio_output@@AAE_NXZ 004984e2 f i libucrt:output.obj
 0001:00097571       ?type_case_s@?$output_processor@DV?$string_output_adapter@D@__crt_stdio_output@@V?$format_validation_base@DV?$string_output_adapter@D@__crt_stdio_output@@@2@@__crt_stdio_output@@AAE_NXZ 00498571 f i libucrt:output.obj
 0001:00097600       ?type_case_s@?$output_processor@DV?$string_output_adapter@D@__crt_stdio_output@@V?$positional_parameter_base@DV?$string_output_adapter@D@__crt_stdio_output@@@2@@__crt_stdio_output@@AAE_NXZ 00498600 f i libucrt:output.obj
 0001:0009769b       ?type_case_s@?$output_processor@DV?$string_output_adapter@D@__crt_stdio_output@@V?$standard_base@DV?$string_output_adapter@D@__crt_stdio_output@@@2@@__crt_stdio_output@@AAE_NXZ 0049869b f i libucrt:output.obj
 0001:0009772a       ?type_case_s@?$output_processor@_WV?$stream_output_adapter@_W@__crt_stdio_output@@V?$format_validation_base@_WV?$stream_output_adapter@_W@__crt_stdio_output@@@2@@__crt_stdio_output@@AAE_NXZ 0049872a f i libucrt:output.obj
 0001:000977bb       ?type_case_s@?$output_processor@_WV?$stream_output_adapter@_W@__crt_stdio_output@@V?$positional_parameter_base@_WV?$stream_output_adapter@_W@__crt_stdio_output@@@2@@__crt_stdio_output@@AAE_NXZ 004987bb f i libucrt:output.obj
 0001:00097858       ?type_case_s@?$output_processor@_WV?$stream_output_adapter@_W@__crt_stdio_output@@V?$standard_base@_WV?$stream_output_adapter@_W@__crt_stdio_output@@@2@@__crt_stdio_output@@AAE_NXZ 00498858 f i libucrt:output.obj
 0001:000978e9       ?type_case_s@?$output_processor@_WV?$string_output_adapter@_W@__crt_stdio_output@@V?$format_validation_base@_WV?$string_output_adapter@_W@__crt_stdio_output@@@2@@__crt_stdio_output@@AAE_NXZ 004988e9 f i libucrt:output.obj
 0001:0009797a       ?type_case_s@?$output_processor@_WV?$string_output_adapter@_W@__crt_stdio_output@@V?$positional_parameter_base@_WV?$string_output_adapter@_W@__crt_stdio_output@@@2@@__crt_stdio_output@@AAE_NXZ 0049897a f i libucrt:output.obj
 0001:00097a17       ?type_case_s@?$output_processor@_WV?$string_output_adapter@_W@__crt_stdio_output@@V?$standard_base@_WV?$string_output_adapter@_W@__crt_stdio_output@@@2@@__crt_stdio_output@@AAE_NXZ 00498a17 f i libucrt:output.obj
 0001:00097aa8       ?type_case_s_compute_narrow_string_length@?$output_processor@DV?$stream_output_adapter@D@__crt_stdio_output@@V?$format_validation_base@DV?$stream_output_adapter@D@__crt_stdio_output@@@2@@__crt_stdio_output@@ABEHHD@Z 00498aa8 f i libucrt:output.obj
 0001:00097ac3       ?type_case_s_compute_narrow_string_length@?$output_processor@DV?$stream_output_adapter@D@__crt_stdio_output@@V?$positional_parameter_base@DV?$stream_output_adapter@D@__crt_stdio_output@@@2@@__crt_stdio_output@@ABEHHD@Z 00498ac3 f i libucrt:output.obj
 0001:00097ade       ?type_case_s_compute_narrow_string_length@?$output_processor@DV?$stream_output_adapter@D@__crt_stdio_output@@V?$standard_base@DV?$stream_output_adapter@D@__crt_stdio_output@@@2@@__crt_stdio_output@@ABEHHD@Z 00498ade f i libucrt:output.obj
 0001:00097af9       ?type_case_s_compute_narrow_string_length@?$output_processor@DV?$string_output_adapter@D@__crt_stdio_output@@V?$format_validation_base@DV?$string_output_adapter@D@__crt_stdio_output@@@2@@__crt_stdio_output@@ABEHHD@Z 00498af9 f i libucrt:output.obj
 0001:00097b14       ?type_case_s_compute_narrow_string_length@?$output_processor@DV?$string_output_adapter@D@__crt_stdio_output@@V?$positional_parameter_base@DV?$string_output_adapter@D@__crt_stdio_output@@@2@@__crt_stdio_output@@ABEHHD@Z 00498b14 f i libucrt:output.obj
 0001:00097b2f       ?type_case_s_compute_narrow_string_length@?$output_processor@DV?$string_output_adapter@D@__crt_stdio_output@@V?$standard_base@DV?$string_output_adapter@D@__crt_stdio_output@@@2@@__crt_stdio_output@@ABEHHD@Z 00498b2f f i libucrt:output.obj
 0001:00097b4a       ?type_case_s_compute_narrow_string_length@?$output_processor@_WV?$stream_output_adapter@_W@__crt_stdio_output@@V?$format_validation_base@_WV?$stream_output_adapter@_W@__crt_stdio_output@@@2@@__crt_stdio_output@@ABEHH_W@Z 00498b4a f i libucrt:output.obj
 0001:00097b9a       ?type_case_s_compute_narrow_string_length@?$output_processor@_WV?$stream_output_adapter@_W@__crt_stdio_output@@V?$positional_parameter_base@_WV?$stream_output_adapter@_W@__crt_stdio_output@@@2@@__crt_stdio_output@@ABEHH_W@Z 00498b9a f i libucrt:output.obj
 0001:00097bea       ?type_case_s_compute_narrow_string_length@?$output_processor@_WV?$stream_output_adapter@_W@__crt_stdio_output@@V?$standard_base@_WV?$stream_output_adapter@_W@__crt_stdio_output@@@2@@__crt_stdio_output@@ABEHH_W@Z 00498bea f i libucrt:output.obj
 0001:00097c3a       ?type_case_s_compute_narrow_string_length@?$output_processor@_WV?$string_output_adapter@_W@__crt_stdio_output@@V?$format_validation_base@_WV?$string_output_adapter@_W@__crt_stdio_output@@@2@@__crt_stdio_output@@ABEHH_W@Z 00498c3a f i libucrt:output.obj
 0001:00097c8a       ?type_case_s_compute_narrow_string_length@?$output_processor@_WV?$string_output_adapter@_W@__crt_stdio_output@@V?$positional_parameter_base@_WV?$string_output_adapter@_W@__crt_stdio_output@@@2@@__crt_stdio_output@@ABEHH_W@Z 00498c8a f i libucrt:output.obj
 0001:00097cda       ?type_case_s_compute_narrow_string_length@?$output_processor@_WV?$string_output_adapter@_W@__crt_stdio_output@@V?$standard_base@_WV?$string_output_adapter@_W@__crt_stdio_output@@@2@@__crt_stdio_output@@ABEHH_W@Z 00498cda f i libucrt:output.obj
 0001:00097d2a       ?type_case_u@?$output_processor@DV?$stream_output_adapter@D@__crt_stdio_output@@V?$format_validation_base@DV?$stream_output_adapter@D@__crt_stdio_output@@@2@@__crt_stdio_output@@AAE_NXZ 00498d2a f i libucrt:output.obj
 0001:00097d36       ?type_case_u@?$output_processor@DV?$stream_output_adapter@D@__crt_stdio_output@@V?$positional_parameter_base@DV?$stream_output_adapter@D@__crt_stdio_output@@@2@@__crt_stdio_output@@AAE_NXZ 00498d36 f i libucrt:output.obj
 0001:00097d42       ?type_case_u@?$output_processor@DV?$stream_output_adapter@D@__crt_stdio_output@@V?$standard_base@DV?$stream_output_adapter@D@__crt_stdio_output@@@2@@__crt_stdio_output@@AAE_NXZ 00498d42 f i libucrt:output.obj
 0001:00097d4e       ?type_case_u@?$output_processor@DV?$string_output_adapter@D@__crt_stdio_output@@V?$format_validation_base@DV?$string_output_adapter@D@__crt_stdio_output@@@2@@__crt_stdio_output@@AAE_NXZ 00498d4e f i libucrt:output.obj
 0001:00097d5a       ?type_case_u@?$output_processor@DV?$string_output_adapter@D@__crt_stdio_output@@V?$positional_parameter_base@DV?$string_output_adapter@D@__crt_stdio_output@@@2@@__crt_stdio_output@@AAE_NXZ 00498d5a f i libucrt:output.obj
 0001:00097d66       ?type_case_u@?$output_processor@DV?$string_output_adapter@D@__crt_stdio_output@@V?$standard_base@DV?$string_output_adapter@D@__crt_stdio_output@@@2@@__crt_stdio_output@@AAE_NXZ 00498d66 f i libucrt:output.obj
 0001:00097d72       ?type_case_u@?$output_processor@_WV?$stream_output_adapter@_W@__crt_stdio_output@@V?$format_validation_base@_WV?$stream_output_adapter@_W@__crt_stdio_output@@@2@@__crt_stdio_output@@AAE_NXZ 00498d72 f i libucrt:output.obj
 0001:00097d7e       ?type_case_u@?$output_processor@_WV?$stream_output_adapter@_W@__crt_stdio_output@@V?$positional_parameter_base@_WV?$stream_output_adapter@_W@__crt_stdio_output@@@2@@__crt_stdio_output@@AAE_NXZ 00498d7e f i libucrt:output.obj
 0001:00097d8a       ?type_case_u@?$output_processor@_WV?$stream_output_adapter@_W@__crt_stdio_output@@V?$standard_base@_WV?$stream_output_adapter@_W@__crt_stdio_output@@@2@@__crt_stdio_output@@AAE_NXZ 00498d8a f i libucrt:output.obj
 0001:00097d96       ?type_case_u@?$output_processor@_WV?$string_output_adapter@_W@__crt_stdio_output@@V?$format_validation_base@_WV?$string_output_adapter@_W@__crt_stdio_output@@@2@@__crt_stdio_output@@AAE_NXZ 00498d96 f i libucrt:output.obj
 0001:00097da2       ?type_case_u@?$output_processor@_WV?$string_output_adapter@_W@__crt_stdio_output@@V?$positional_parameter_base@_WV?$string_output_adapter@_W@__crt_stdio_output@@@2@@__crt_stdio_output@@AAE_NXZ 00498da2 f i libucrt:output.obj
 0001:00097dae       ?type_case_u@?$output_processor@_WV?$string_output_adapter@_W@__crt_stdio_output@@V?$standard_base@_WV?$string_output_adapter@_W@__crt_stdio_output@@@2@@__crt_stdio_output@@AAE_NXZ 00498dae f i libucrt:output.obj
 0001:00097dba       ?type_case_x@?$output_processor@DV?$stream_output_adapter@D@__crt_stdio_output@@V?$format_validation_base@DV?$stream_output_adapter@D@__crt_stdio_output@@@2@@__crt_stdio_output@@AAE_NXZ 00498dba f i libucrt:output.obj
 0001:00097dc6       ?type_case_x@?$output_processor@DV?$stream_output_adapter@D@__crt_stdio_output@@V?$positional_parameter_base@DV?$stream_output_adapter@D@__crt_stdio_output@@@2@@__crt_stdio_output@@AAE_NXZ 00498dc6 f i libucrt:output.obj
 0001:00097dd2       ?type_case_x@?$output_processor@DV?$stream_output_adapter@D@__crt_stdio_output@@V?$standard_base@DV?$stream_output_adapter@D@__crt_stdio_output@@@2@@__crt_stdio_output@@AAE_NXZ 00498dd2 f i libucrt:output.obj
 0001:00097dde       ?type_case_x@?$output_processor@DV?$string_output_adapter@D@__crt_stdio_output@@V?$format_validation_base@DV?$string_output_adapter@D@__crt_stdio_output@@@2@@__crt_stdio_output@@AAE_NXZ 00498dde f i libucrt:output.obj
 0001:00097dea       ?type_case_x@?$output_processor@DV?$string_output_adapter@D@__crt_stdio_output@@V?$positional_parameter_base@DV?$string_output_adapter@D@__crt_stdio_output@@@2@@__crt_stdio_output@@AAE_NXZ 00498dea f i libucrt:output.obj
 0001:00097df6       ?type_case_x@?$output_processor@DV?$string_output_adapter@D@__crt_stdio_output@@V?$standard_base@DV?$string_output_adapter@D@__crt_stdio_output@@@2@@__crt_stdio_output@@AAE_NXZ 00498df6 f i libucrt:output.obj
 0001:00097e02       ?type_case_x@?$output_processor@_WV?$stream_output_adapter@_W@__crt_stdio_output@@V?$format_validation_base@_WV?$stream_output_adapter@_W@__crt_stdio_output@@@2@@__crt_stdio_output@@AAE_NXZ 00498e02 f i libucrt:output.obj
 0001:00097e0e       ?type_case_x@?$output_processor@_WV?$stream_output_adapter@_W@__crt_stdio_output@@V?$positional_parameter_base@_WV?$stream_output_adapter@_W@__crt_stdio_output@@@2@@__crt_stdio_output@@AAE_NXZ 00498e0e f i libucrt:output.obj
 0001:00097e1a       ?type_case_x@?$output_processor@_WV?$stream_output_adapter@_W@__crt_stdio_output@@V?$standard_base@_WV?$stream_output_adapter@_W@__crt_stdio_output@@@2@@__crt_stdio_output@@AAE_NXZ 00498e1a f i libucrt:output.obj
 0001:00097e26       ?type_case_x@?$output_processor@_WV?$string_output_adapter@_W@__crt_stdio_output@@V?$format_validation_base@_WV?$string_output_adapter@_W@__crt_stdio_output@@@2@@__crt_stdio_output@@AAE_NXZ 00498e26 f i libucrt:output.obj
 0001:00097e32       ?type_case_x@?$output_processor@_WV?$string_output_adapter@_W@__crt_stdio_output@@V?$positional_parameter_base@_WV?$string_output_adapter@_W@__crt_stdio_output@@@2@@__crt_stdio_output@@AAE_NXZ 00498e32 f i libucrt:output.obj
 0001:00097e3e       ?type_case_x@?$output_processor@_WV?$string_output_adapter@_W@__crt_stdio_output@@V?$standard_base@_WV?$string_output_adapter@_W@__crt_stdio_output@@@2@@__crt_stdio_output@@AAE_NXZ 00498e3e f i libucrt:output.obj
 0001:00097e4a       ?unset_flag@?$output_processor@DV?$stream_output_adapter@D@__crt_stdio_output@@V?$format_validation_base@DV?$stream_output_adapter@D@__crt_stdio_output@@@2@@__crt_stdio_output@@AAEXI@Z 00498e4a f i libucrt:output.obj
 0001:00097e5f       ?unset_flag@?$output_processor@DV?$stream_output_adapter@D@__crt_stdio_output@@V?$positional_parameter_base@DV?$stream_output_adapter@D@__crt_stdio_output@@@2@@__crt_stdio_output@@AAEXI@Z 00498e5f f i libucrt:output.obj
 0001:00097e74       ?unset_flag@?$output_processor@DV?$stream_output_adapter@D@__crt_stdio_output@@V?$standard_base@DV?$stream_output_adapter@D@__crt_stdio_output@@@2@@__crt_stdio_output@@AAEXI@Z 00498e74 f i libucrt:output.obj
 0001:00097e89       ?unset_flag@?$output_processor@DV?$string_output_adapter@D@__crt_stdio_output@@V?$format_validation_base@DV?$string_output_adapter@D@__crt_stdio_output@@@2@@__crt_stdio_output@@AAEXI@Z 00498e89 f i libucrt:output.obj
 0001:00097e9e       ?unset_flag@?$output_processor@DV?$string_output_adapter@D@__crt_stdio_output@@V?$positional_parameter_base@DV?$string_output_adapter@D@__crt_stdio_output@@@2@@__crt_stdio_output@@AAEXI@Z 00498e9e f i libucrt:output.obj
 0001:00097eb3       ?unset_flag@?$output_processor@DV?$string_output_adapter@D@__crt_stdio_output@@V?$standard_base@DV?$string_output_adapter@D@__crt_stdio_output@@@2@@__crt_stdio_output@@AAEXI@Z 00498eb3 f i libucrt:output.obj
 0001:00097ec8       ?unset_flag@?$output_processor@_WV?$stream_output_adapter@_W@__crt_stdio_output@@V?$format_validation_base@_WV?$stream_output_adapter@_W@__crt_stdio_output@@@2@@__crt_stdio_output@@AAEXI@Z 00498ec8 f i libucrt:output.obj
 0001:00097edd       ?unset_flag@?$output_processor@_WV?$stream_output_adapter@_W@__crt_stdio_output@@V?$positional_parameter_base@_WV?$stream_output_adapter@_W@__crt_stdio_output@@@2@@__crt_stdio_output@@AAEXI@Z 00498edd f i libucrt:output.obj
 0001:00097ef2       ?unset_flag@?$output_processor@_WV?$stream_output_adapter@_W@__crt_stdio_output@@V?$standard_base@_WV?$stream_output_adapter@_W@__crt_stdio_output@@@2@@__crt_stdio_output@@AAEXI@Z 00498ef2 f i libucrt:output.obj
 0001:00097f07       ?unset_flag@?$output_processor@_WV?$string_output_adapter@_W@__crt_stdio_output@@V?$format_validation_base@_WV?$string_output_adapter@_W@__crt_stdio_output@@@2@@__crt_stdio_output@@AAEXI@Z 00498f07 f i libucrt:output.obj
 0001:00097f1c       ?unset_flag@?$output_processor@_WV?$string_output_adapter@_W@__crt_stdio_output@@V?$positional_parameter_base@_WV?$string_output_adapter@_W@__crt_stdio_output@@@2@@__crt_stdio_output@@AAEXI@Z 00498f1c f i libucrt:output.obj
 0001:00097f31       ?unset_flag@?$output_processor@_WV?$string_output_adapter@_W@__crt_stdio_output@@V?$standard_base@_WV?$string_output_adapter@_W@__crt_stdio_output@@@2@@__crt_stdio_output@@AAEXI@Z 00498f31 f i libucrt:output.obj
 0001:00097f46       ?update_field_width@?$positional_parameter_base@DV?$stream_output_adapter@D@__crt_stdio_output@@@__crt_stdio_output@@IAE_NXZ 00498f46 f i libucrt:output.obj
 0001:00098029       ?update_field_width@?$positional_parameter_base@DV?$string_output_adapter@D@__crt_stdio_output@@@__crt_stdio_output@@IAE_NXZ 00499029 f i libucrt:output.obj
 0001:0009810c       ?update_field_width@?$positional_parameter_base@_WV?$stream_output_adapter@_W@__crt_stdio_output@@@__crt_stdio_output@@IAE_NXZ 0049910c f i libucrt:output.obj
 0001:000981f0       ?update_field_width@?$positional_parameter_base@_WV?$string_output_adapter@_W@__crt_stdio_output@@@__crt_stdio_output@@IAE_NXZ 004991f0 f i libucrt:output.obj
 0001:000982d4       ?update_field_width@?$standard_base@DV?$stream_output_adapter@D@__crt_stdio_output@@@__crt_stdio_output@@IAE_NXZ 004992d4 f i libucrt:output.obj
 0001:000982e8       ?update_field_width@?$standard_base@DV?$string_output_adapter@D@__crt_stdio_output@@@__crt_stdio_output@@IAE_NXZ 004992e8 f i libucrt:output.obj
 0001:000982fc       ?update_field_width@?$standard_base@_WV?$stream_output_adapter@_W@__crt_stdio_output@@@__crt_stdio_output@@IAE_NXZ 004992fc f i libucrt:output.obj
 0001:00098310       ?update_field_width@?$standard_base@_WV?$string_output_adapter@_W@__crt_stdio_output@@@__crt_stdio_output@@IAE_NXZ 00499310 f i libucrt:output.obj
 0001:00098324       ?update_precision@?$positional_parameter_base@DV?$stream_output_adapter@D@__crt_stdio_output@@@__crt_stdio_output@@IAE_NXZ 00499324 f i libucrt:output.obj
 0001:00098407       ?update_precision@?$positional_parameter_base@DV?$string_output_adapter@D@__crt_stdio_output@@@__crt_stdio_output@@IAE_NXZ 00499407 f i libucrt:output.obj
 0001:000984ea       ?update_precision@?$positional_parameter_base@_WV?$stream_output_adapter@_W@__crt_stdio_output@@@__crt_stdio_output@@IAE_NXZ 004994ea f i libucrt:output.obj
 0001:000985ce       ?update_precision@?$positional_parameter_base@_WV?$string_output_adapter@_W@__crt_stdio_output@@@__crt_stdio_output@@IAE_NXZ 004995ce f i libucrt:output.obj
 0001:000986b2       ?update_precision@?$standard_base@DV?$stream_output_adapter@D@__crt_stdio_output@@@__crt_stdio_output@@IAE_NXZ 004996b2 f i libucrt:output.obj
 0001:000986c6       ?update_precision@?$standard_base@DV?$string_output_adapter@D@__crt_stdio_output@@@__crt_stdio_output@@IAE_NXZ 004996c6 f i libucrt:output.obj
 0001:000986da       ?update_precision@?$standard_base@_WV?$stream_output_adapter@_W@__crt_stdio_output@@@__crt_stdio_output@@IAE_NXZ 004996da f i libucrt:output.obj
 0001:000986ee       ?update_precision@?$standard_base@_WV?$string_output_adapter@_W@__crt_stdio_output@@@__crt_stdio_output@@IAE_NXZ 004996ee f i libucrt:output.obj
 0001:00098702       ?valid@__crt_stdio_stream@@QBE_NXZ 00499702 f i libucrt:output.obj
 0001:0009870c       ?validate@?$stream_output_adapter@D@__crt_stdio_output@@QBE_NXZ 0049970c f i libucrt:output.obj
 0001:00098735       ?validate@?$stream_output_adapter@_W@__crt_stdio_output@@QBE_NXZ 00499735 f i libucrt:output.obj
 0001:00098756       ?validate@?$string_output_adapter@D@__crt_stdio_output@@QBE_NXZ 00499756 f i libucrt:output.obj
 0001:00098777       ?validate@?$string_output_adapter@_W@__crt_stdio_output@@QBE_NXZ 00499777 f i libucrt:output.obj
 0001:00098798       ?validate_and_store_parameter_data@?$positional_parameter_base@DV?$stream_output_adapter@D@__crt_stdio_output@@@__crt_stdio_output@@AAE_NAAUparameter_data@12@W4parameter_type@12@DW4length_modifier@2@@Z 00499798 f i libucrt:output.obj
 0001:000987f5       ?validate_and_store_parameter_data@?$positional_parameter_base@DV?$string_output_adapter@D@__crt_stdio_output@@@__crt_stdio_output@@AAE_NAAUparameter_data@12@W4parameter_type@12@DW4length_modifier@2@@Z 004997f5 f i libucrt:output.obj
 0001:00098852       ?validate_and_store_parameter_data@?$positional_parameter_base@_WV?$stream_output_adapter@_W@__crt_stdio_output@@@__crt_stdio_output@@AAE_NAAUparameter_data@12@W4parameter_type@12@_WW4length_modifier@2@@Z 00499852 f i libucrt:output.obj
 0001:000988b2       ?validate_and_store_parameter_data@?$positional_parameter_base@_WV?$string_output_adapter@_W@__crt_stdio_output@@@__crt_stdio_output@@AAE_NAAUparameter_data@12@W4parameter_type@12@_WW4length_modifier@2@@Z 004998b2 f i libucrt:output.obj
 0001:00098912       ?validate_and_update_state_at_beginning_of_format_character@?$positional_parameter_base@DV?$stream_output_adapter@D@__crt_stdio_output@@@__crt_stdio_output@@IAE_NXZ 00499912 f i libucrt:output.obj
 0001:00098a48       ?validate_and_update_state_at_beginning_of_format_character@?$positional_parameter_base@DV?$string_output_adapter@D@__crt_stdio_output@@@__crt_stdio_output@@IAE_NXZ 00499a48 f i libucrt:output.obj
 0001:00098b7e       ?validate_and_update_state_at_beginning_of_format_character@?$positional_parameter_base@_WV?$stream_output_adapter@_W@__crt_stdio_output@@@__crt_stdio_output@@IAE_NXZ 00499b7e f i libucrt:output.obj
 0001:00098cc0       ?validate_and_update_state_at_beginning_of_format_character@?$positional_parameter_base@_WV?$string_output_adapter@_W@__crt_stdio_output@@@__crt_stdio_output@@IAE_NXZ 00499cc0 f i libucrt:output.obj
 0001:00098e02       ?validate_and_update_state_at_beginning_of_format_character@?$standard_base@DV?$stream_output_adapter@D@__crt_stdio_output@@@__crt_stdio_output@@IAE_NXZ 00499e02 f i libucrt:output.obj
 0001:00098e05       ?validate_and_update_state_at_beginning_of_format_character@?$standard_base@DV?$string_output_adapter@D@__crt_stdio_output@@@__crt_stdio_output@@IAE_NXZ 00499e05 f i libucrt:output.obj
 0001:00098e08       ?validate_and_update_state_at_beginning_of_format_character@?$standard_base@_WV?$stream_output_adapter@_W@__crt_stdio_output@@@__crt_stdio_output@@IAE_NXZ 00499e08 f i libucrt:output.obj
 0001:00098e0b       ?validate_and_update_state_at_beginning_of_format_character@?$standard_base@_WV?$string_output_adapter@_W@__crt_stdio_output@@@__crt_stdio_output@@IAE_NXZ 00499e0b f i libucrt:output.obj
 0001:00098e0e       ?validate_and_update_state_at_end_of_format_string@?$format_validation_base@DV?$stream_output_adapter@D@__crt_stdio_output@@@__crt_stdio_output@@IBE_NXZ 00499e0e f i libucrt:output.obj
 0001:00098e38       ?validate_and_update_state_at_end_of_format_string@?$format_validation_base@DV?$string_output_adapter@D@__crt_stdio_output@@@__crt_stdio_output@@IBE_NXZ 00499e38 f i libucrt:output.obj
 0001:00098e62       ?validate_and_update_state_at_end_of_format_string@?$format_validation_base@_WV?$stream_output_adapter@_W@__crt_stdio_output@@@__crt_stdio_output@@IBE_NXZ 00499e62 f i libucrt:output.obj
 0001:00098e8c       ?validate_and_update_state_at_end_of_format_string@?$format_validation_base@_WV?$string_output_adapter@_W@__crt_stdio_output@@@__crt_stdio_output@@IBE_NXZ 00499e8c f i libucrt:output.obj
 0001:00098eb6       ?validate_and_update_state_at_end_of_format_string@?$positional_parameter_base@DV?$stream_output_adapter@D@__crt_stdio_output@@@__crt_stdio_output@@IAE_NXZ 00499eb6 f i libucrt:output.obj
 0001:00098f56       ?validate_and_update_state_at_end_of_format_string@?$positional_parameter_base@DV?$string_output_adapter@D@__crt_stdio_output@@@__crt_stdio_output@@IAE_NXZ 00499f56 f i libucrt:output.obj
 0001:00098ff6       ?validate_and_update_state_at_end_of_format_string@?$positional_parameter_base@_WV?$stream_output_adapter@_W@__crt_stdio_output@@@__crt_stdio_output@@IAE_NXZ 00499ff6 f i libucrt:output.obj
 0001:00099096       ?validate_and_update_state_at_end_of_format_string@?$positional_parameter_base@_WV?$string_output_adapter@_W@__crt_stdio_output@@@__crt_stdio_output@@IAE_NXZ 0049a096 f i libucrt:output.obj
 0001:00099136       ?validate_and_update_state_at_end_of_format_string@?$standard_base@DV?$stream_output_adapter@D@__crt_stdio_output@@@__crt_stdio_output@@IBE_NXZ 0049a136 f i libucrt:output.obj
 0001:00099139       ?validate_and_update_state_at_end_of_format_string@?$standard_base@DV?$string_output_adapter@D@__crt_stdio_output@@@__crt_stdio_output@@IBE_NXZ 0049a139 f i libucrt:output.obj
 0001:0009913c       ?validate_and_update_state_at_end_of_format_string@?$standard_base@_WV?$stream_output_adapter@_W@__crt_stdio_output@@@__crt_stdio_output@@IBE_NXZ 0049a13c f i libucrt:output.obj
 0001:0009913f       ?validate_and_update_state_at_end_of_format_string@?$standard_base@_WV?$string_output_adapter@_W@__crt_stdio_output@@@__crt_stdio_output@@IBE_NXZ 0049a13f f i libucrt:output.obj
 0001:00099142       ?validate_state_for_type_case_a@?$positional_parameter_base@DV?$stream_output_adapter@D@__crt_stdio_output@@@__crt_stdio_output@@IAE_NXZ 0049a142 f i libucrt:output.obj
 0001:000991a9       ?validate_state_for_type_case_a@?$positional_parameter_base@DV?$string_output_adapter@D@__crt_stdio_output@@@__crt_stdio_output@@IAE_NXZ 0049a1a9 f i libucrt:output.obj
 0001:00099210       ?validate_state_for_type_case_a@?$positional_parameter_base@_WV?$stream_output_adapter@_W@__crt_stdio_output@@@__crt_stdio_output@@IAE_NXZ 0049a210 f i libucrt:output.obj
 0001:00099277       ?validate_state_for_type_case_a@?$positional_parameter_base@_WV?$string_output_adapter@_W@__crt_stdio_output@@@__crt_stdio_output@@IAE_NXZ 0049a277 f i libucrt:output.obj
 0001:000992de       ?validate_state_for_type_case_a@?$standard_base@DV?$stream_output_adapter@D@__crt_stdio_output@@@__crt_stdio_output@@IBE_NXZ 0049a2de f i libucrt:output.obj
 0001:000992e1       ?validate_state_for_type_case_a@?$standard_base@DV?$string_output_adapter@D@__crt_stdio_output@@@__crt_stdio_output@@IBE_NXZ 0049a2e1 f i libucrt:output.obj
 0001:000992e4       ?validate_state_for_type_case_a@?$standard_base@_WV?$stream_output_adapter@_W@__crt_stdio_output@@@__crt_stdio_output@@IBE_NXZ 0049a2e4 f i libucrt:output.obj
 0001:000992e7       ?validate_state_for_type_case_a@?$standard_base@_WV?$string_output_adapter@_W@__crt_stdio_output@@@__crt_stdio_output@@IBE_NXZ 0049a2e7 f i libucrt:output.obj
 0001:000992ea       ?validate_stream_is_ansi_if_required@?$__acrt_stdio_char_traits@D@@SA_NQAU_iobuf@@@Z 0049a2ea f i libucrt:output.obj
 0001:0009938c       ?validate_stream_is_ansi_if_required@?$__acrt_stdio_char_traits@_W@@SA_NQAU_iobuf@@@Z 0049a38c f i libucrt:output.obj
 0001:0009938f       ?wide_null_string@?$output_processor@DV?$stream_output_adapter@D@__crt_stdio_output@@V?$format_validation_base@DV?$stream_output_adapter@D@__crt_stdio_output@@@2@@__crt_stdio_output@@CAPA_WXZ 0049a38f f i libucrt:output.obj
 0001:00099395       ?wide_null_string@?$output_processor@DV?$stream_output_adapter@D@__crt_stdio_output@@V?$positional_parameter_base@DV?$stream_output_adapter@D@__crt_stdio_output@@@2@@__crt_stdio_output@@CAPA_WXZ 0049a395 f i libucrt:output.obj
 0001:0009939b       ?wide_null_string@?$output_processor@DV?$stream_output_adapter@D@__crt_stdio_output@@V?$standard_base@DV?$stream_output_adapter@D@__crt_stdio_output@@@2@@__crt_stdio_output@@CAPA_WXZ 0049a39b f i libucrt:output.obj
 0001:000993a1       ?wide_null_string@?$output_processor@DV?$string_output_adapter@D@__crt_stdio_output@@V?$format_validation_base@DV?$string_output_adapter@D@__crt_stdio_output@@@2@@__crt_stdio_output@@CAPA_WXZ 0049a3a1 f i libucrt:output.obj
 0001:000993a7       ?wide_null_string@?$output_processor@DV?$string_output_adapter@D@__crt_stdio_output@@V?$positional_parameter_base@DV?$string_output_adapter@D@__crt_stdio_output@@@2@@__crt_stdio_output@@CAPA_WXZ 0049a3a7 f i libucrt:output.obj
 0001:000993ad       ?wide_null_string@?$output_processor@DV?$string_output_adapter@D@__crt_stdio_output@@V?$standard_base@DV?$string_output_adapter@D@__crt_stdio_output@@@2@@__crt_stdio_output@@CAPA_WXZ 0049a3ad f i libucrt:output.obj
 0001:000993b3       ?wide_null_string@?$output_processor@_WV?$stream_output_adapter@_W@__crt_stdio_output@@V?$format_validation_base@_WV?$stream_output_adapter@_W@__crt_stdio_output@@@2@@__crt_stdio_output@@CAPA_WXZ 0049a3b3 f i libucrt:output.obj
 0001:000993b9       ?wide_null_string@?$output_processor@_WV?$stream_output_adapter@_W@__crt_stdio_output@@V?$positional_parameter_base@_WV?$stream_output_adapter@_W@__crt_stdio_output@@@2@@__crt_stdio_output@@CAPA_WXZ 0049a3b9 f i libucrt:output.obj
 0001:000993bf       ?wide_null_string@?$output_processor@_WV?$stream_output_adapter@_W@__crt_stdio_output@@V?$standard_base@_WV?$stream_output_adapter@_W@__crt_stdio_output@@@2@@__crt_stdio_output@@CAPA_WXZ 0049a3bf f i libucrt:output.obj
 0001:000993c5       ?wide_null_string@?$output_processor@_WV?$string_output_adapter@_W@__crt_stdio_output@@V?$format_validation_base@_WV?$string_output_adapter@_W@__crt_stdio_output@@@2@@__crt_stdio_output@@CAPA_WXZ 0049a3c5 f i libucrt:output.obj
 0001:000993cb       ?wide_null_string@?$output_processor@_WV?$string_output_adapter@_W@__crt_stdio_output@@V?$positional_parameter_base@_WV?$string_output_adapter@_W@__crt_stdio_output@@@2@@__crt_stdio_output@@CAPA_WXZ 0049a3cb f i libucrt:output.obj
 0001:000993d1       ?wide_null_string@?$output_processor@_WV?$string_output_adapter@_W@__crt_stdio_output@@V?$standard_base@_WV?$string_output_adapter@_W@__crt_stdio_output@@@2@@__crt_stdio_output@@CAPA_WXZ 0049a3d1 f i libucrt:output.obj
 0001:000993d7       ?write_character@?$stream_output_adapter@D@__crt_stdio_output@@QBEXDQAH@Z 0049a3d7 f i libucrt:output.obj
 0001:00099423       ?write_character@?$stream_output_adapter@_W@__crt_stdio_output@@QBEX_WQAH@Z 0049a423 f i libucrt:output.obj
 0001:00099473       ?write_character@?$string_output_adapter@D@__crt_stdio_output@@QBE_NDQAH@Z 0049a473 f i libucrt:output.obj
 0001:000994c5       ?write_character@?$string_output_adapter@_W@__crt_stdio_output@@QBE_N_WQAH@Z 0049a4c5 f i libucrt:output.obj
 0001:0009951b       ?write_stored_string_tchar@?$output_processor@DV?$stream_output_adapter@D@__crt_stdio_output@@V?$format_validation_base@DV?$stream_output_adapter@D@__crt_stdio_output@@@2@@__crt_stdio_output@@AAE_ND@Z 0049a51b f i libucrt:output.obj
 0001:000995eb       ?write_stored_string_tchar@?$output_processor@DV?$stream_output_adapter@D@__crt_stdio_output@@V?$positional_parameter_base@DV?$stream_output_adapter@D@__crt_stdio_output@@@2@@__crt_stdio_output@@AAE_ND@Z 0049a5eb f i libucrt:output.obj
 0001:000996bb       ?write_stored_string_tchar@?$output_processor@DV?$stream_output_adapter@D@__crt_stdio_output@@V?$standard_base@DV?$stream_output_adapter@D@__crt_stdio_output@@@2@@__crt_stdio_output@@AAE_ND@Z 0049a6bb f i libucrt:output.obj
 0001:0009978b       ?write_stored_string_tchar@?$output_processor@DV?$string_output_adapter@D@__crt_stdio_output@@V?$format_validation_base@DV?$string_output_adapter@D@__crt_stdio_output@@@2@@__crt_stdio_output@@AAE_ND@Z 0049a78b f i libucrt:output.obj
 0001:0009985b       ?write_stored_string_tchar@?$output_processor@DV?$string_output_adapter@D@__crt_stdio_output@@V?$positional_parameter_base@DV?$string_output_adapter@D@__crt_stdio_output@@@2@@__crt_stdio_output@@AAE_ND@Z 0049a85b f i libucrt:output.obj
 0001:0009992b       ?write_stored_string_tchar@?$output_processor@DV?$string_output_adapter@D@__crt_stdio_output@@V?$standard_base@DV?$string_output_adapter@D@__crt_stdio_output@@@2@@__crt_stdio_output@@AAE_ND@Z 0049a92b f i libucrt:output.obj
 0001:000999fb       ?write_stored_string_tchar@?$output_processor@_WV?$stream_output_adapter@_W@__crt_stdio_output@@V?$format_validation_base@_WV?$stream_output_adapter@_W@__crt_stdio_output@@@2@@__crt_stdio_output@@AAE_N_W@Z 0049a9fb f i libucrt:output.obj
 0001:00099aa8       ?write_stored_string_tchar@?$output_processor@_WV?$stream_output_adapter@_W@__crt_stdio_output@@V?$positional_parameter_base@_WV?$stream_output_adapter@_W@__crt_stdio_output@@@2@@__crt_stdio_output@@AAE_N_W@Z 0049aaa8 f i libucrt:output.obj
 0001:00099b55       ?write_stored_string_tchar@?$output_processor@_WV?$stream_output_adapter@_W@__crt_stdio_output@@V?$standard_base@_WV?$stream_output_adapter@_W@__crt_stdio_output@@@2@@__crt_stdio_output@@AAE_N_W@Z 0049ab55 f i libucrt:output.obj
 0001:00099c02       ?write_stored_string_tchar@?$output_processor@_WV?$string_output_adapter@_W@__crt_stdio_output@@V?$format_validation_base@_WV?$string_output_adapter@_W@__crt_stdio_output@@@2@@__crt_stdio_output@@AAE_N_W@Z 0049ac02 f i libucrt:output.obj
 0001:00099caf       ?write_stored_string_tchar@?$output_processor@_WV?$string_output_adapter@_W@__crt_stdio_output@@V?$positional_parameter_base@_WV?$string_output_adapter@_W@__crt_stdio_output@@@2@@__crt_stdio_output@@AAE_N_W@Z 0049acaf f i libucrt:output.obj
 0001:00099d5c       ?write_stored_string_tchar@?$output_processor@_WV?$string_output_adapter@_W@__crt_stdio_output@@V?$standard_base@_WV?$string_output_adapter@_W@__crt_stdio_output@@@2@@__crt_stdio_output@@AAE_N_W@Z 0049ad5c f i libucrt:output.obj
 0001:00099e09       ?write_string@?$stream_output_adapter@D@__crt_stdio_output@@QBEXQBDHQAH1@Z 0049ae09 f i libucrt:output.obj
 0001:00099eb5       ?write_string@?$stream_output_adapter@_W@__crt_stdio_output@@QBEXQB_WHQAH1@Z 0049aeb5 f i libucrt:output.obj
 0001:00099f65       ?write_string@?$string_output_adapter@D@__crt_stdio_output@@QBEXQBDHQAH1@Z 0049af65 f i libucrt:output.obj
 0001:0009a01c       ?write_string@?$string_output_adapter@_W@__crt_stdio_output@@QBEXQB_WHQAH1@Z 0049b01c f i libucrt:output.obj
 0001:0009a0dc       ___acrt_isleadbyte_l_noupdate 0049b0dc f i libucrt:output.obj
 0001:0009a0fd       ___acrt_locale_changed     0049b0fd f i libucrt:output.obj
 0001:0009a10e       ___stdio_common_vfprintf   0049b10e f   libucrt:output.obj
 0001:0009a1a2       ___stdio_common_vfprintf_p 0049b1a2 f   libucrt:output.obj
 0001:0009a236       ___stdio_common_vfprintf_s 0049b236 f   libucrt:output.obj
 0001:0009a2ca       ___stdio_common_vfwprintf  0049b2ca f   libucrt:output.obj
 0001:0009a35e       ___stdio_common_vfwprintf_p 0049b35e f   libucrt:output.obj
 0001:0009a3f2       ___stdio_common_vfwprintf_s 0049b3f2 f   libucrt:output.obj
 0001:0009a486       ___stdio_common_vsnprintf_s 0049b486 f   libucrt:output.obj
 0001:0009a4b6       ___stdio_common_vsnwprintf_s 0049b4b6 f   libucrt:output.obj
 0001:0009a4e6       ___stdio_common_vsprintf   0049b4e6 f   libucrt:output.obj
 0001:0009a513       ___stdio_common_vsprintf_p 0049b513 f   libucrt:output.obj
 0001:0009a540       ___stdio_common_vsprintf_s 0049b540 f   libucrt:output.obj
 0001:0009a56d       ___stdio_common_vswprintf  0049b56d f   libucrt:output.obj
 0001:0009a59a       ___stdio_common_vswprintf_p 0049b59a f   libucrt:output.obj
 0001:0009a5c7       ___stdio_common_vswprintf_s 0049b5c7 f   libucrt:output.obj
 0001:0009a600       _strlen                    0049b600 f   libucrt:strlen.obj
 0001:0009a6ad       ?is_in_use@__crt_stdio_stream@@QBE_NXZ 0049b6ad f i libucrt:fclose.obj
 0001:0009a6bc       __fclose_nolock            0049b6bc f   libucrt:fclose.obj
 0001:0009a74f       _fclose                    0049b74f f   libucrt:fclose.obj
 0001:0009a7ef       ?eof@__crt_stdio_stream@@QBE_NXZ 0049b7ef f i libucrt:feoferr.obj
 0001:0009a7fe       ?error@__crt_stdio_stream@@QBE_NXZ 0049b7fe f i libucrt:feoferr.obj
 0001:0009a80d       ?has_any_of@__crt_stdio_stream@@QBE_NJ@Z 0049b80d f i libucrt:feoferr.obj
 0001:0009a829       _feof                      0049b829 f   libucrt:feoferr.obj
 0001:0009a85e       _ferror                    0049b85e f   libucrt:feoferr.obj
 0001:0009ab25       ??$open_file@ABQBDABQBDABHPAU_iobuf@@@?$__crt_char_traits@D@@SAPAU_iobuf@@ABQBD0ABH$$QAPAU1@@Z 0049bb25 f i libucrt:fopen.obj
 0001:0009ab50       ??$open_file@ABQB_WABQB_WABHPAU_iobuf@@@?$__crt_char_traits@_W@@SAPAU_iobuf@@ABQB_W0ABH$$QAPAU1@@Z 0049bb50 f i libucrt:fopen.obj
 0001:0009ab7b       ?unlock@__crt_stdio_stream@@QBEXXZ 0049bb7b f i libucrt:fopen.obj
 0001:0009ab86       __fsopen                   0049bb86 f   libucrt:fopen.obj
 0001:0009ab93       __wfopen                   0049bb93 f   libucrt:fopen.obj
 0001:0009abaf       __wfopen_s                 0049bbaf f   libucrt:fopen.obj
 0001:0009ac07       __wfsopen                  0049bc07 f   libucrt:fopen.obj
 0001:0009ac14       _fopen                     0049bc14 f   libucrt:fopen.obj
 0001:0009ac30       _fopen_s                   0049bc30 f   libucrt:fopen.obj
 0001:0009ac88       ?has_any_buffer@__crt_stdio_stream@@QBE_NXZ 0049bc88 f i libucrt:fread.obj
 0001:0009ac9d       ?set_flags@__crt_stdio_stream@@QBE_NJ@Z 0049bc9d f i libucrt:fread.obj
 0001:0009accd       __fread_nolock             0049bccd f   libucrt:fread.obj
 0001:0009acf1       __fread_nolock_s           0049bcf1 f   libucrt:fread.obj
 0001:0009af30       _fread                     0049bf30 f   libucrt:fread.obj
 0001:0009af54       _fread_s                   0049bf54 f   libucrt:fread.obj
 0001:0009b0b0       _strcpy                    0049c0b0 f   libucrt:strcat.obj
 0001:0009b0c0       _strcat                    0049c0c0 f   libucrt:strcat.obj
 0001:0009b1e6       ??$?RE@__crt_internal_free_policy@@QBEXQBE@Z 0049c1e6 f i libucrt:input.obj
 0001:0009b1fc       ??$?RV<lambda_948e0c831b1eafdf53315a00da3ad7eb>@@AAV<lambda_d82aded7e80d0a2836af81596bef263e>@@V<lambda_9cb36f98846f17dfe48cc7d4c6a6fede>@@@?$__crt_seh_guarded_call@H@@QAEH$$QAV<lambda_948e0c831b1eafdf53315a00da3ad7eb>@@AAV<lambda_d82aded7e80d0a2836af81596bef263e>@@$$QAV<lambda_9cb36f98846f17dfe48cc7d4c6a6fede>@@@Z 0049c1fc f i libucrt:input.obj
 0001:0009b261       ??$?RV<lambda_b2dcf338b0e219a5074585f260684782>@@AAV<lambda_6fdb08bd0ff691e43d1ecc2572ab5652>@@V<lambda_fd2d199f52d43ed278b48825f4913de8>@@@?$__crt_seh_guarded_call@H@@QAEH$$QAV<lambda_b2dcf338b0e219a5074585f260684782>@@AAV<lambda_6fdb08bd0ff691e43d1ecc2572ab5652>@@$$QAV<lambda_fd2d199f52d43ed278b48825f4913de8>@@@Z 0049c261 f i libucrt:input.obj
 0001:0009b2c6       ??$__acrt_lock_stream_and_call@V<lambda_6fdb08bd0ff691e43d1ecc2572ab5652>@@@@YAHQAU_iobuf@@$$QAV<lambda_6fdb08bd0ff691e43d1ecc2572ab5652>@@@Z 0049c2c6 f i libucrt:input.obj
 0001:0009b2f8       ??$__acrt_lock_stream_and_call@V<lambda_d82aded7e80d0a2836af81596bef263e>@@@@YAHQAU_iobuf@@$$QAV<lambda_d82aded7e80d0a2836af81596bef263e>@@@Z 0049c2f8 f i libucrt:input.obj
 0001:0009b32a       ??$assemble_floating_point_ind@M@__crt_strtox@@YAXAAM@Z 0049c32a f i libucrt:input.obj
 0001:0009b33e       ??$assemble_floating_point_ind@N@__crt_strtox@@YAXAAN@Z 0049c33e f i libucrt:input.obj
 0001:0009b378       ??$assemble_floating_point_infinity@M@__crt_strtox@@YAX_NAAM@Z 0049c378 f i libucrt:input.obj
 0001:0009b39c       ??$assemble_floating_point_infinity@N@__crt_strtox@@YAX_NAAN@Z 0049c39c f i libucrt:input.obj
 0001:0009b3ea       ??$assemble_floating_point_qnan@M@__crt_strtox@@YAX_NAAM@Z 0049c3ea f i libucrt:input.obj
 0001:0009b40e       ??$assemble_floating_point_qnan@N@__crt_strtox@@YAX_NAAN@Z 0049c40e f i libucrt:input.obj
 0001:0009b45c       ??$assemble_floating_point_snan@M@__crt_strtox@@YAX_NAAM@Z 0049c45c f i libucrt:input.obj
 0001:0009b480       ??$assemble_floating_point_snan@N@__crt_strtox@@YAX_NAAN@Z 0049c480 f i libucrt:input.obj
 0001:0009b4d5       ??$assemble_floating_point_value_t@M@__crt_strtox@@YA?AW4SLD_STATUS@@_NH_KAAM@Z 0049c4d5 f i libucrt:input.obj
 0001:0009b511       ??$assemble_floating_point_value_t@N@__crt_strtox@@YA?AW4SLD_STATUS@@_NH_KAAN@Z 0049c511 f i libucrt:input.obj
 0001:0009b587       ??$assemble_floating_point_zero@M@__crt_strtox@@YAX_NAAM@Z 0049c587 f i libucrt:input.obj
 0001:0009b5a3       ??$assemble_floating_point_zero@N@__crt_strtox@@YAX_NAAN@Z 0049c5a3 f i libucrt:input.obj
 0001:0009b897       ??$convert_decimal_string_to_floating_type@M@__crt_strtox@@YA?AW4SLD_STATUS@@ABUfloating_point_string@0@AAM@Z 0049c897 f i libucrt:input.obj
 0001:0009b8c2       ??$convert_decimal_string_to_floating_type@N@__crt_strtox@@YA?AW4SLD_STATUS@@ABUfloating_point_string@0@AAN@Z 0049c8c2 f i libucrt:input.obj
 0001:0009b8ed       ??$convert_hexadecimal_string_to_floating_type@M@__crt_strtox@@YA?AW4SLD_STATUS@@ABUfloating_point_string@0@AAM@Z 0049c8ed f i libucrt:input.obj
 0001:0009b918       ??$convert_hexadecimal_string_to_floating_type@N@__crt_strtox@@YA?AW4SLD_STATUS@@ABUfloating_point_string@0@AAN@Z 0049c918 f i libucrt:input.obj
 0001:0009b943       ??$fill_buffer@D@?$input_processor@DV?$stream_input_adapter@D@__crt_stdio_input@@@__crt_stdio_input@@CAXQADII@Z 0049c943 f i libucrt:input.obj
 0001:0009b944       ??$fill_buffer@D@?$input_processor@DV?$string_input_adapter@D@__crt_stdio_input@@@__crt_stdio_input@@CAXQADII@Z 0049c944 f i libucrt:input.obj
 0001:0009b945       ??$fill_buffer@D@?$input_processor@_WV?$stream_input_adapter@_W@__crt_stdio_input@@@__crt_stdio_input@@CAXQADII@Z 0049c945 f i libucrt:input.obj
 0001:0009b946       ??$fill_buffer@D@?$input_processor@_WV?$string_input_adapter@_W@__crt_stdio_input@@@__crt_stdio_input@@CAXQADII@Z 0049c946 f i libucrt:input.obj
 0001:0009b947       ??$fill_buffer@_W@?$input_processor@DV?$stream_input_adapter@D@__crt_stdio_input@@@__crt_stdio_input@@CAXQA_WII@Z 0049c947 f i libucrt:input.obj
 0001:0009b948       ??$fill_buffer@_W@?$input_processor@DV?$string_input_adapter@D@__crt_stdio_input@@@__crt_stdio_input@@CAXQA_WII@Z 0049c948 f i libucrt:input.obj
 0001:0009b949       ??$fill_buffer@_W@?$input_processor@_WV?$stream_input_adapter@_W@__crt_stdio_input@@@__crt_stdio_input@@CAXQA_WII@Z 0049c949 f i libucrt:input.obj
 0001:0009b94a       ??$fill_buffer@_W@?$input_processor@_WV?$string_input_adapter@_W@__crt_stdio_input@@@__crt_stdio_input@@CAXQA_WII@Z 0049c94a f i libucrt:input.obj
 0001:0009b94b       ??$getc_nolock@PAU_iobuf@@@?$__crt_char_traits@D@@SAH$$QAPAU_iobuf@@@Z 0049c94b f i libucrt:input.obj
 0001:0009b961       ??$getc_nolock@PAU_iobuf@@@?$__crt_char_traits@_W@@SAG$$QAPAU_iobuf@@@Z 0049c961 f i libucrt:input.obj
 0001:0009b977       ??$is_overflow_condition@_K@__crt_strtox@@YA_NI_K@Z 0049c977 f i libucrt:input.obj
 0001:0009b9ca       ??$istspace@ABE@?$__crt_char_traits@D@@SAHABE@Z 0049c9ca f i libucrt:input.obj
 0001:0009b9e3       ??$istspace@AB_W@?$__crt_char_traits@_W@@SAHAB_W@Z 0049c9e3 f i libucrt:input.obj
 0001:0009b9ff       ??$make_input_adapter_character_source@V?$stream_input_adapter@D@__crt_stdio_input@@@__crt_strtox@@YA?AV?$input_adapter_character_source@V?$stream_input_adapter@D@__crt_stdio_input@@@0@QAV?$stream_input_adapter@D@__crt_stdio_input@@_KQA_N@Z 0049c9ff f i libucrt:input.obj
 0001:0009ba24       ??$make_input_adapter_character_source@V?$stream_input_adapter@_W@__crt_stdio_input@@@__crt_strtox@@YA?AV?$input_adapter_character_source@V?$stream_input_adapter@_W@__crt_stdio_input@@@0@QAV?$stream_input_adapter@_W@__crt_stdio_input@@_KQA_N@Z 0049ca24 f i libucrt:input.obj
 0001:0009ba49       ??$make_input_adapter_character_source@V?$string_input_adapter@D@__crt_stdio_input@@@__crt_strtox@@YA?AV?$input_adapter_character_source@V?$string_input_adapter@D@__crt_stdio_input@@@0@QAV?$string_input_adapter@D@__crt_stdio_input@@_KQA_N@Z 0049ca49 f i libucrt:input.obj
 0001:0009ba6e       ??$make_input_adapter_character_source@V?$string_input_adapter@_W@__crt_stdio_input@@@__crt_strtox@@YA?AV?$input_adapter_character_source@V?$string_input_adapter@_W@__crt_stdio_input@@@0@QAV?$string_input_adapter@_W@__crt_stdio_input@@_KQA_N@Z 0049ca6e f i libucrt:input.obj
 0001:0009ba93       ??$parse_floating_point@V?$input_adapter_character_source@V?$stream_input_adapter@D@__crt_stdio_input@@@__crt_strtox@@M@__crt_strtox@@YA?AW4SLD_STATUS@@QAU__crt_locale_pointers@@V?$input_adapter_character_source@V?$stream_input_adapter@D@__crt_stdio_input@@@0@QAM@Z 0049ca93 f i libucrt:input.obj
 0001:0009bb2c       ??$parse_floating_point@V?$input_adapter_character_source@V?$stream_input_adapter@D@__crt_stdio_input@@@__crt_strtox@@N@__crt_strtox@@YA?AW4SLD_STATUS@@QAU__crt_locale_pointers@@V?$input_adapter_character_source@V?$stream_input_adapter@D@__crt_stdio_input@@@0@QAN@Z 0049cb2c f i libucrt:input.obj
 0001:0009bbc5       ??$parse_floating_point@V?$input_adapter_character_source@V?$stream_input_adapter@_W@__crt_stdio_input@@@__crt_strtox@@M@__crt_strtox@@YA?AW4SLD_STATUS@@QAU__crt_locale_pointers@@V?$input_adapter_character_source@V?$stream_input_adapter@_W@__crt_stdio_input@@@0@QAM@Z 0049cbc5 f i libucrt:input.obj
 0001:0009bc5e       ??$parse_floating_point@V?$input_adapter_character_source@V?$stream_input_adapter@_W@__crt_stdio_input@@@__crt_strtox@@N@__crt_strtox@@YA?AW4SLD_STATUS@@QAU__crt_locale_pointers@@V?$input_adapter_character_source@V?$stream_input_adapter@_W@__crt_stdio_input@@@0@QAN@Z 0049cc5e f i libucrt:input.obj
 0001:0009bcf7       ??$parse_floating_point@V?$input_adapter_character_source@V?$string_input_adapter@D@__crt_stdio_input@@@__crt_strtox@@M@__crt_strtox@@YA?AW4SLD_STATUS@@QAU__crt_locale_pointers@@V?$input_adapter_character_source@V?$string_input_adapter@D@__crt_stdio_input@@@0@QAM@Z 0049ccf7 f i libucrt:input.obj
 0001:0009bd90       ??$parse_floating_point@V?$input_adapter_character_source@V?$string_input_adapter@D@__crt_stdio_input@@@__crt_strtox@@N@__crt_strtox@@YA?AW4SLD_STATUS@@QAU__crt_locale_pointers@@V?$input_adapter_character_source@V?$string_input_adapter@D@__crt_stdio_input@@@0@QAN@Z 0049cd90 f i libucrt:input.obj
 0001:0009be29       ??$parse_floating_point@V?$input_adapter_character_source@V?$string_input_adapter@_W@__crt_stdio_input@@@__crt_strtox@@M@__crt_strtox@@YA?AW4SLD_STATUS@@QAU__crt_locale_pointers@@V?$input_adapter_character_source@V?$string_input_adapter@_W@__crt_stdio_input@@@0@QAM@Z 0049ce29 f i libucrt:input.obj
 0001:0009bec2       ??$parse_floating_point@V?$input_adapter_character_source@V?$string_input_adapter@_W@__crt_stdio_input@@@__crt_strtox@@N@__crt_strtox@@YA?AW4SLD_STATUS@@QAU__crt_locale_pointers@@V?$input_adapter_character_source@V?$string_input_adapter@_W@__crt_stdio_input@@@0@QAN@Z 0049cec2 f i libucrt:input.obj
 0001:0009bf5b       ??$parse_floating_point_from_source@V?$input_adapter_character_source@V?$stream_input_adapter@D@__crt_stdio_input@@@__crt_strtox@@@__crt_strtox@@YA?AW4floating_point_parse_result@0@QAU__crt_locale_pointers@@AAV?$input_adapter_character_source@V?$stream_input_adapter@D@__crt_stdio_input@@@0@AAUfloating_point_string@0@@Z 0049cf5b f i libucrt:input.obj
 0001:0009c4db       ??$parse_floating_point_from_source@V?$input_adapter_character_source@V?$stream_input_adapter@_W@__crt_stdio_input@@@__crt_strtox@@@__crt_strtox@@YA?AW4floating_point_parse_result@0@QAU__crt_locale_pointers@@AAV?$input_adapter_character_source@V?$stream_input_adapter@_W@__crt_stdio_input@@@0@AAUfloating_point_string@0@@Z 0049d4db f i libucrt:input.obj
 0001:0009d694       ??$parse_floating_point_from_source@V?$input_adapter_character_source@V?$string_input_adapter@D@__crt_stdio_input@@@__crt_strtox@@@__crt_strtox@@YA?AW4floating_point_parse_result@0@QAU__crt_locale_pointers@@AAV?$input_adapter_character_source@V?$string_input_adapter@D@__crt_stdio_input@@@0@AAUfloating_point_string@0@@Z 0049e694 f i libucrt:input.obj
 0001:0009dc14       ??$parse_floating_point_from_source@V?$input_adapter_character_source@V?$string_input_adapter@_W@__crt_stdio_input@@@__crt_strtox@@@__crt_strtox@@YA?AW4floating_point_parse_result@0@QAU__crt_locale_pointers@@AAV?$input_adapter_character_source@V?$string_input_adapter@_W@__crt_stdio_input@@@0@AAUfloating_point_string@0@@Z 0049ec14 f i libucrt:input.obj
 0001:0009edcd       ??$parse_floating_point_possible_infinity@DV?$input_adapter_character_source@V?$stream_input_adapter@D@__crt_stdio_input@@@__crt_strtox@@_K@__crt_strtox@@YA?AW4floating_point_parse_result@0@AADAAV?$input_adapter_character_source@V?$stream_input_adapter@D@__crt_stdio_input@@@0@_K@Z 0049fdcd f i libucrt:input.obj
 0001:0009eebe       ??$parse_floating_point_possible_infinity@DV?$input_adapter_character_source@V?$string_input_adapter@D@__crt_stdio_input@@@__crt_strtox@@_K@__crt_strtox@@YA?AW4floating_point_parse_result@0@AADAAV?$input_adapter_character_source@V?$string_input_adapter@D@__crt_stdio_input@@@0@_K@Z 0049febe f i libucrt:input.obj
 0001:0009efaf       ??$parse_floating_point_possible_infinity@_WV?$input_adapter_character_source@V?$stream_input_adapter@_W@__crt_stdio_input@@@__crt_strtox@@_K@__crt_strtox@@YA?AW4floating_point_parse_result@0@AA_WAAV?$input_adapter_character_source@V?$stream_input_adapter@_W@__crt_stdio_input@@@0@_K@Z 0049ffaf f i libucrt:input.obj
 0001:0009f0b1       ??$parse_floating_point_possible_infinity@_WV?$input_adapter_character_source@V?$string_input_adapter@_W@__crt_stdio_input@@@__crt_strtox@@_K@__crt_strtox@@YA?AW4floating_point_parse_result@0@AA_WAAV?$input_adapter_character_source@V?$string_input_adapter@_W@__crt_stdio_input@@@0@_K@Z 004a00b1 f i libucrt:input.obj
 0001:0009f1b3       ??$parse_floating_point_possible_nan@DV?$input_adapter_character_source@V?$stream_input_adapter@D@__crt_stdio_input@@@__crt_strtox@@_K@__crt_strtox@@YA?AW4floating_point_parse_result@0@AADAAV?$input_adapter_character_source@V?$stream_input_adapter@D@__crt_stdio_input@@@0@_K@Z 004a01b3 f i libucrt:input.obj
 0001:0009f309       ??$parse_floating_point_possible_nan@DV?$input_adapter_character_source@V?$string_input_adapter@D@__crt_stdio_input@@@__crt_strtox@@_K@__crt_strtox@@YA?AW4floating_point_parse_result@0@AADAAV?$input_adapter_character_source@V?$string_input_adapter@D@__crt_stdio_input@@@0@_K@Z 004a0309 f i libucrt:input.obj
 0001:0009f45f       ??$parse_floating_point_possible_nan@_WV?$input_adapter_character_source@V?$stream_input_adapter@_W@__crt_stdio_input@@@__crt_strtox@@_K@__crt_strtox@@YA?AW4floating_point_parse_result@0@AA_WAAV?$input_adapter_character_source@V?$stream_input_adapter@_W@__crt_stdio_input@@@0@_K@Z 004a045f f i libucrt:input.obj
 0001:0009f5d6       ??$parse_floating_point_possible_nan@_WV?$input_adapter_character_source@V?$string_input_adapter@_W@__crt_stdio_input@@@__crt_strtox@@_K@__crt_strtox@@YA?AW4floating_point_parse_result@0@AA_WAAV?$input_adapter_character_source@V?$string_input_adapter@_W@__crt_stdio_input@@@0@_K@Z 004a05d6 f i libucrt:input.obj
 0001:0009f74d       ??$parse_floating_point_possible_nan_is_ind@DV?$input_adapter_character_source@V?$stream_input_adapter@D@__crt_stdio_input@@@__crt_strtox@@@__crt_strtox@@YA_NAADAAV?$input_adapter_character_source@V?$stream_input_adapter@D@__crt_stdio_input@@@0@@Z 004a074d f i libucrt:input.obj
 0001:0009f795       ??$parse_floating_point_possible_nan_is_ind@DV?$input_adapter_character_source@V?$string_input_adapter@D@__crt_stdio_input@@@__crt_strtox@@@__crt_strtox@@YA_NAADAAV?$input_adapter_character_source@V?$string_input_adapter@D@__crt_stdio_input@@@0@@Z 004a0795 f i libucrt:input.obj
 0001:0009f7dd       ??$parse_floating_point_possible_nan_is_ind@_WV?$input_adapter_character_source@V?$stream_input_adapter@_W@__crt_stdio_input@@@__crt_strtox@@@__crt_strtox@@YA_NAA_WAAV?$input_adapter_character_source@V?$stream_input_adapter@_W@__crt_stdio_input@@@0@@Z 004a07dd f i libucrt:input.obj
 0001:0009f82d       ??$parse_floating_point_possible_nan_is_ind@_WV?$input_adapter_character_source@V?$string_input_adapter@_W@__crt_stdio_input@@@__crt_strtox@@@__crt_strtox@@YA_NAA_WAAV?$input_adapter_character_source@V?$string_input_adapter@_W@__crt_stdio_input@@@0@@Z 004a082d f i libucrt:input.obj
 0001:0009f87d       ??$parse_floating_point_possible_nan_is_snan@DV?$input_adapter_character_source@V?$stream_input_adapter@D@__crt_stdio_input@@@__crt_strtox@@@__crt_strtox@@YA_NAADAAV?$input_adapter_character_source@V?$stream_input_adapter@D@__crt_stdio_input@@@0@@Z 004a087d f i libucrt:input.obj
 0001:0009f8c5       ??$parse_floating_point_possible_nan_is_snan@DV?$input_adapter_character_source@V?$string_input_adapter@D@__crt_stdio_input@@@__crt_strtox@@@__crt_strtox@@YA_NAADAAV?$input_adapter_character_source@V?$string_input_adapter@D@__crt_stdio_input@@@0@@Z 004a08c5 f i libucrt:input.obj
 0001:0009f90d       ??$parse_floating_point_possible_nan_is_snan@_WV?$input_adapter_character_source@V?$stream_input_adapter@_W@__crt_stdio_input@@@__crt_strtox@@@__crt_strtox@@YA_NAA_WAAV?$input_adapter_character_source@V?$stream_input_adapter@_W@__crt_stdio_input@@@0@@Z 004a090d f i libucrt:input.obj
 0001:0009f95d       ??$parse_floating_point_possible_nan_is_snan@_WV?$input_adapter_character_source@V?$string_input_adapter@_W@__crt_stdio_input@@@__crt_strtox@@@__crt_strtox@@YA_NAA_WAAV?$input_adapter_character_source@V?$string_input_adapter@_W@__crt_stdio_input@@@0@@Z 004a095d f i libucrt:input.obj
 0001:0009f9ad       ??$parse_floating_point_write_result@M@__crt_strtox@@YA?AW4SLD_STATUS@@W4floating_point_parse_result@0@ABUfloating_point_string@0@QAM@Z 004a09ad f i libucrt:input.obj
 0001:0009fb01       ??$parse_floating_point_write_result@N@__crt_strtox@@YA?AW4SLD_STATUS@@W4floating_point_parse_result@0@ABUfloating_point_string@0@QAN@Z 004a0b01 f i libucrt:input.obj
 0001:0009fc46       ??$parse_integer@_KV?$input_adapter_character_source@V?$stream_input_adapter@D@__crt_stdio_input@@@__crt_strtox@@@__crt_strtox@@YA_KQAU__crt_locale_pointers@@V?$input_adapter_character_source@V?$stream_input_adapter@D@__crt_stdio_input@@@0@H_N@Z 004a0c46 f i libucrt:input.obj
 0001:0009ffa3       ??$parse_integer@_KV?$input_adapter_character_source@V?$stream_input_adapter@_W@__crt_stdio_input@@@__crt_strtox@@@__crt_strtox@@YA_KQAU__crt_locale_pointers@@V?$input_adapter_character_source@V?$stream_input_adapter@_W@__crt_stdio_input@@@0@H_N@Z 004a0fa3 f i libucrt:input.obj
 0001:000a0721       ??$parse_integer@_KV?$input_adapter_character_source@V?$string_input_adapter@D@__crt_stdio_input@@@__crt_strtox@@@__crt_strtox@@YA_KQAU__crt_locale_pointers@@V?$input_adapter_character_source@V?$string_input_adapter@D@__crt_stdio_input@@@0@H_N@Z 004a1721 f i libucrt:input.obj
 0001:000a0a7e       ??$parse_integer@_KV?$input_adapter_character_source@V?$string_input_adapter@_W@__crt_stdio_input@@@__crt_strtox@@@__crt_strtox@@YA_KQAU__crt_locale_pointers@@V?$input_adapter_character_source@V?$string_input_adapter@_W@__crt_stdio_input@@@0@H_N@Z 004a1a7e f i libucrt:input.obj
 0001:000a11fc       ??$parse_next_characters_from_source@DV?$input_adapter_character_source@V?$stream_input_adapter@D@__crt_stdio_input@@@__crt_strtox@@@__crt_strtox@@YA_NQBD0IAADAAV?$input_adapter_character_source@V?$stream_input_adapter@D@__crt_stdio_input@@@0@@Z 004a21fc f i libucrt:input.obj
 0001:000a1251       ??$parse_next_characters_from_source@DV?$input_adapter_character_source@V?$string_input_adapter@D@__crt_stdio_input@@@__crt_strtox@@@__crt_strtox@@YA_NQBD0IAADAAV?$input_adapter_character_source@V?$string_input_adapter@D@__crt_stdio_input@@@0@@Z 004a2251 f i libucrt:input.obj
 0001:000a12a6       ??$parse_next_characters_from_source@_WV?$input_adapter_character_source@V?$stream_input_adapter@_W@__crt_stdio_input@@@__crt_strtox@@@__crt_strtox@@YA_NQB_W0IAA_WAAV?$input_adapter_character_source@V?$stream_input_adapter@_W@__crt_stdio_input@@@0@@Z 004a22a6 f i libucrt:input.obj
 0001:000a1302       ??$parse_next_characters_from_source@_WV?$input_adapter_character_source@V?$string_input_adapter@_W@__crt_stdio_input@@@__crt_strtox@@@__crt_strtox@@YA_NQB_W0IAA_WAAV?$input_adapter_character_source@V?$string_input_adapter@_W@__crt_stdio_input@@@0@@Z 004a2302 f i libucrt:input.obj
 0001:000a135e       ??$process_floating_point_specifier_t@M@?$input_processor@DV?$stream_input_adapter@D@__crt_stdio_input@@@__crt_stdio_input@@AAE_NXZ 004a235e f i libucrt:input.obj
 0001:000a13e0       ??$process_floating_point_specifier_t@M@?$input_processor@DV?$string_input_adapter@D@__crt_stdio_input@@@__crt_stdio_input@@AAE_NXZ 004a23e0 f i libucrt:input.obj
 0001:000a1462       ??$process_floating_point_specifier_t@M@?$input_processor@_WV?$stream_input_adapter@_W@__crt_stdio_input@@@__crt_stdio_input@@AAE_NXZ 004a2462 f i libucrt:input.obj
 0001:000a14e4       ??$process_floating_point_specifier_t@M@?$input_processor@_WV?$string_input_adapter@_W@__crt_stdio_input@@@__crt_stdio_input@@AAE_NXZ 004a24e4 f i libucrt:input.obj
 0001:000a1566       ??$process_floating_point_specifier_t@N@?$input_processor@DV?$stream_input_adapter@D@__crt_stdio_input@@@__crt_stdio_input@@AAE_NXZ 004a2566 f i libucrt:input.obj
 0001:000a15e8       ??$process_floating_point_specifier_t@N@?$input_processor@DV?$string_input_adapter@D@__crt_stdio_input@@@__crt_stdio_input@@AAE_NXZ 004a25e8 f i libucrt:input.obj
 0001:000a166a       ??$process_floating_point_specifier_t@N@?$input_processor@_WV?$stream_input_adapter@_W@__crt_stdio_input@@@__crt_stdio_input@@AAE_NXZ 004a266a f i libucrt:input.obj
 0001:000a16ec       ??$process_floating_point_specifier_t@N@?$input_processor@_WV?$string_input_adapter@_W@__crt_stdio_input@@@__crt_stdio_input@@AAE_NXZ 004a26ec f i libucrt:input.obj
 0001:000a176e       ??$process_string_specifier_tchar@D@?$input_processor@DV?$stream_input_adapter@D@__crt_stdio_input@@@__crt_stdio_input@@AAE_NW4conversion_mode@1@D@Z 004a276e f i libucrt:input.obj
 0001:000a193f       ??$process_string_specifier_tchar@D@?$input_processor@DV?$string_input_adapter@D@__crt_stdio_input@@@__crt_stdio_input@@AAE_NW4conversion_mode@1@D@Z 004a293f f i libucrt:input.obj
 0001:000a1af9       ??$process_string_specifier_tchar@D@?$input_processor@_WV?$stream_input_adapter@_W@__crt_stdio_input@@@__crt_stdio_input@@AAE_NW4conversion_mode@1@D@Z 004a2af9 f i libucrt:input.obj
 0001:000a1cbe       ??$process_string_specifier_tchar@D@?$input_processor@_WV?$string_input_adapter@_W@__crt_stdio_input@@@__crt_stdio_input@@AAE_NW4conversion_mode@1@D@Z 004a2cbe f i libucrt:input.obj
 0001:000a1e83       ??$process_string_specifier_tchar@_W@?$input_processor@DV?$stream_input_adapter@D@__crt_stdio_input@@@__crt_stdio_input@@AAE_NW4conversion_mode@1@_W@Z 004a2e83 f i libucrt:input.obj
 0001:000a2060       ??$process_string_specifier_tchar@_W@?$input_processor@DV?$string_input_adapter@D@__crt_stdio_input@@@__crt_stdio_input@@AAE_NW4conversion_mode@1@_W@Z 004a3060 f i libucrt:input.obj
 0001:000a2227       ??$process_string_specifier_tchar@_W@?$input_processor@_WV?$stream_input_adapter@_W@__crt_stdio_input@@@__crt_stdio_input@@AAE_NW4conversion_mode@1@_W@Z 004a3227 f i libucrt:input.obj
 0001:000a23ee       ??$process_string_specifier_tchar@_W@?$input_processor@_WV?$string_input_adapter@_W@__crt_stdio_input@@@__crt_stdio_input@@AAE_NW4conversion_mode@1@_W@Z 004a33ee f i libucrt:input.obj
 0001:000a25b5       ??$reset_buffer@D@?$input_processor@DV?$stream_input_adapter@D@__crt_stdio_input@@@__crt_stdio_input@@CAXQADI@Z 004a35b5 f i libucrt:input.obj
 0001:000a25cc       ??$reset_buffer@D@?$input_processor@DV?$string_input_adapter@D@__crt_stdio_input@@@__crt_stdio_input@@CAXQADI@Z 004a35cc f i libucrt:input.obj
 0001:000a25e3       ??$reset_buffer@D@?$input_processor@_WV?$stream_input_adapter@_W@__crt_stdio_input@@@__crt_stdio_input@@CAXQADI@Z 004a35e3 f i libucrt:input.obj
 0001:000a25fa       ??$reset_buffer@D@?$input_processor@_WV?$string_input_adapter@_W@__crt_stdio_input@@@__crt_stdio_input@@CAXQADI@Z 004a35fa f i libucrt:input.obj
 0001:000a2611       ??$reset_buffer@_W@?$input_processor@DV?$stream_input_adapter@D@__crt_stdio_input@@@__crt_stdio_input@@CAXQA_WI@Z 004a3611 f i libucrt:input.obj
 0001:000a262b       ??$reset_buffer@_W@?$input_processor@DV?$string_input_adapter@D@__crt_stdio_input@@@__crt_stdio_input@@CAXQA_WI@Z 004a362b f i libucrt:input.obj
 0001:000a2645       ??$reset_buffer@_W@?$input_processor@_WV?$stream_input_adapter@_W@__crt_stdio_input@@@__crt_stdio_input@@CAXQA_WI@Z 004a3645 f i libucrt:input.obj
 0001:000a265f       ??$reset_buffer@_W@?$input_processor@_WV?$string_input_adapter@_W@__crt_stdio_input@@@__crt_stdio_input@@CAXQA_WI@Z 004a365f f i libucrt:input.obj
 0001:000a2679       ??$skip_whitespace@Vstream_input_adapter@__crt_stdio_input@@D@__crt_stdio_input@@YAHAAV?$stream_input_adapter@D@0@QAU__crt_locale_pointers@@@Z 004a3679 f i libucrt:input.obj
 0001:000a26bd       ??$skip_whitespace@Vstream_input_adapter@__crt_stdio_input@@_W@__crt_stdio_input@@YAGAAV?$stream_input_adapter@_W@0@QAU__crt_locale_pointers@@@Z 004a36bd f i libucrt:input.obj
 0001:000a26f7       ??$skip_whitespace@Vstring_input_adapter@__crt_stdio_input@@D@__crt_stdio_input@@YAHAAV?$string_input_adapter@D@0@QAU__crt_locale_pointers@@@Z 004a36f7 f i libucrt:input.obj
 0001:000a2731       ??$skip_whitespace@Vstring_input_adapter@__crt_stdio_input@@_W@__crt_stdio_input@@YAGAAV?$string_input_adapter@_W@0@QAU__crt_locale_pointers@@@Z 004a3731 f i libucrt:input.obj
 0001:000a276b       ??$tcslen@ABQBD@?$__crt_char_traits@D@@SAIABQBD@Z 004a376b f i libucrt:input.obj
 0001:000a2789       ??$tcslen@ABQB_W@?$__crt_char_traits@_W@@SAIABQB_W@Z 004a3789 f i libucrt:input.obj
 0001:000a27ae       ??$tcstoull@AAPB_WPAPA_WH@?$__crt_char_traits@_W@@SA_KAAPB_W$$QAPAPA_W$$QAH@Z 004a37ae f i libucrt:input.obj
 0001:000a27d3       ??$tcstoull@PBDPAPADH@?$__crt_char_traits@D@@SA_K$$QAPBD$$QAPAPAD$$QAH@Z 004a37d3 f i libucrt:input.obj
 0001:000a27f8       ??$ungettc_nolock@ABGPAU_iobuf@@@?$__crt_char_traits@_W@@SAGABG$$QAPAU_iobuf@@@Z 004a37f8 f i libucrt:input.obj
 0001:000a2818       ??$ungettc_nolock@ABHPAU_iobuf@@@?$__crt_char_traits@D@@SAHABH$$QAPAU_iobuf@@@Z 004a3818 f i libucrt:input.obj
 0001:000a2836       ??$write_floating_point@M@?$input_processor@DV?$stream_input_adapter@D@__crt_stdio_input@@@__crt_stdio_input@@AAE_NABM@Z 004a3836 f i libucrt:input.obj
 0001:000a287a       ??$write_floating_point@M@?$input_processor@DV?$string_input_adapter@D@__crt_stdio_input@@@__crt_stdio_input@@AAE_NABM@Z 004a387a f i libucrt:input.obj
 0001:000a28be       ??$write_floating_point@M@?$input_processor@_WV?$stream_input_adapter@_W@__crt_stdio_input@@@__crt_stdio_input@@AAE_NABM@Z 004a38be f i libucrt:input.obj
 0001:000a2902       ??$write_floating_point@M@?$input_processor@_WV?$string_input_adapter@_W@__crt_stdio_input@@@__crt_stdio_input@@AAE_NABM@Z 004a3902 f i libucrt:input.obj
 0001:000a2946       ??$write_floating_point@N@?$input_processor@DV?$stream_input_adapter@D@__crt_stdio_input@@@__crt_stdio_input@@AAE_NABN@Z 004a3946 f i libucrt:input.obj
 0001:000a2992       ??$write_floating_point@N@?$input_processor@DV?$string_input_adapter@D@__crt_stdio_input@@@__crt_stdio_input@@AAE_NABN@Z 004a3992 f i libucrt:input.obj
 0001:000a29de       ??$write_floating_point@N@?$input_processor@_WV?$stream_input_adapter@_W@__crt_stdio_input@@@__crt_stdio_input@@AAE_NABN@Z 004a39de f i libucrt:input.obj
 0001:000a2a2a       ??$write_floating_point@N@?$input_processor@_WV?$string_input_adapter@_W@__crt_stdio_input@@@__crt_stdio_input@@AAE_NABN@Z 004a3a2a f i libucrt:input.obj
 0001:000a2cd6       ??0?$__crt_unique_heap_ptr@EU__crt_internal_free_policy@@@@QAE@QAE@Z 004a3cd6 f i libucrt:input.obj
 0001:000a2cea       ??0?$format_string_parser@D@__crt_stdio_input@@QAE@_KQBE@Z 004a3cea f i libucrt:input.obj
 0001:000a2d46       ??0?$format_string_parser@_W@__crt_stdio_input@@QAE@_KQB_W@Z 004a3d46 f i libucrt:input.obj
 0001:000a2d93       ??0?$input_adapter_character_source@V?$stream_input_adapter@D@__crt_stdio_input@@@__crt_strtox@@QAE@QAV?$stream_input_adapter@D@__crt_stdio_input@@_KQA_N@Z 004a3d93 f i libucrt:input.obj
 0001:000a2dd0       ??0?$input_adapter_character_source@V?$stream_input_adapter@_W@__crt_stdio_input@@@__crt_strtox@@QAE@QAV?$stream_input_adapter@_W@__crt_stdio_input@@_KQA_N@Z 004a3dd0 f i libucrt:input.obj
 0001:000a2e0d       ??0?$input_adapter_character_source@V?$string_input_adapter@D@__crt_stdio_input@@@__crt_strtox@@QAE@QAV?$string_input_adapter@D@__crt_stdio_input@@_KQA_N@Z 004a3e0d f i libucrt:input.obj
 0001:000a2e4a       ??0?$input_adapter_character_source@V?$string_input_adapter@_W@__crt_stdio_input@@@__crt_strtox@@QAE@QAV?$string_input_adapter@_W@__crt_stdio_input@@_KQA_N@Z 004a3e4a f i libucrt:input.obj
 0001:000a2e87       ??0?$input_processor@DV?$stream_input_adapter@D@__crt_stdio_input@@@__crt_stdio_input@@QAE@ABV?$stream_input_adapter@D@1@_KQBDQAU__crt_locale_pointers@@QAD@Z 004a3e87 f i libucrt:input.obj
 0001:000a2ee7       ??0?$input_processor@DV?$string_input_adapter@D@__crt_stdio_input@@@__crt_stdio_input@@QAE@ABV?$string_input_adapter@D@1@_KQBDQAU__crt_locale_pointers@@QAD@Z 004a3ee7 f i libucrt:input.obj
 0001:000a2f41       ??0?$input_processor@_WV?$stream_input_adapter@_W@__crt_stdio_input@@@__crt_stdio_input@@QAE@ABV?$stream_input_adapter@_W@1@_KQB_WQAU__crt_locale_pointers@@QAD@Z 004a3f41 f i libucrt:input.obj
 0001:000a2fa1       ??0?$input_processor@_WV?$string_input_adapter@_W@__crt_stdio_input@@@__crt_stdio_input@@QAE@ABV?$string_input_adapter@_W@1@_KQB_WQAU__crt_locale_pointers@@QAD@Z 004a3fa1 f i libucrt:input.obj
 0001:000a2ffb       ??0?$scanset_buffer@E@__crt_stdio_input@@QAE@XZ 004a3ffb f i libucrt:input.obj
 0001:000a3011       ??0?$scanset_buffer@_W@__crt_stdio_input@@QAE@XZ 004a4011 f i libucrt:input.obj
 0001:000a3017       ??0?$scanset_storage@$00@__crt_stdio_input@@QAE@XZ 004a4017 f i libucrt:input.obj
 0001:000a302d       ??0?$scanset_storage@$01@__crt_stdio_input@@QAE@XZ 004a402d f i libucrt:input.obj
 0001:000a3033       ??0?$stream_input_adapter@D@__crt_stdio_input@@QAE@QAU_iobuf@@@Z 004a4033 f i libucrt:input.obj
 0001:000a304c       ??0?$stream_input_adapter@_W@__crt_stdio_input@@QAE@QAU_iobuf@@@Z 004a404c f i libucrt:input.obj
 0001:000a3065       ??0?$string_input_adapter@D@__crt_stdio_input@@QAE@QBDI@Z 004a4065 f i libucrt:input.obj
 0001:000a3086       ??0?$string_input_adapter@_W@__crt_stdio_input@@QAE@QB_WI@Z 004a4086 f i libucrt:input.obj
 0001:000a30b0       ??0big_integer@__crt_strtox@@QAE@ABU01@@Z 004a40b0 f i libucrt:input.obj
 0001:000a30f0       ??0big_integer@__crt_strtox@@QAE@XZ 004a40f0 f i libucrt:input.obj
 0001:000a30fb       ??0floating_point_value@__crt_strtox@@QAE@QAM@Z 004a40fb f i libucrt:input.obj
 0001:000a3114       ??0floating_point_value@__crt_strtox@@QAE@QAN@Z 004a4114 f i libucrt:input.obj
 0001:000a312d       ??1?$__crt_unique_heap_ptr@EU__crt_internal_free_policy@@@@QAE@XZ 004a412d f i libucrt:input.obj
 0001:000a3143       ??1?$format_string_parser@_W@__crt_stdio_input@@QAE@XZ 004a4143 f i libucrt:input.obj
 0001:000a315c       ??1?$input_adapter_character_source@V?$stream_input_adapter@D@__crt_stdio_input@@@__crt_strtox@@QAE@XZ 004a415c f i libucrt:input.obj
 0001:000a3172       ??1?$input_adapter_character_source@V?$stream_input_adapter@_W@__crt_stdio_input@@@__crt_strtox@@QAE@XZ 004a4172 f i libucrt:input.obj
 0001:000a3188       ??1?$input_adapter_character_source@V?$string_input_adapter@D@__crt_stdio_input@@@__crt_strtox@@QAE@XZ 004a4188 f i libucrt:input.obj
 0001:000a319e       ??1?$input_adapter_character_source@V?$string_input_adapter@_W@__crt_stdio_input@@@__crt_strtox@@QAE@XZ 004a419e f i libucrt:input.obj
 0001:000a31b4       ??1?$input_processor@_WV?$stream_input_adapter@_W@__crt_stdio_input@@@__crt_stdio_input@@QAE@XZ 004a41b4 f i libucrt:input.obj
 0001:000a31cd       ??1?$input_processor@_WV?$string_input_adapter@_W@__crt_stdio_input@@@__crt_stdio_input@@QAE@XZ 004a41cd f i libucrt:input.obj
 0001:000a31e6       ??1?$scanset_buffer@_W@__crt_stdio_input@@QAE@XZ 004a41e6 f i libucrt:input.obj
 0001:000a31fc       ??1?$scanset_storage@$01@__crt_stdio_input@@QAE@XZ 004a41fc f i libucrt:input.obj
 0001:000a3212       ??4?$__crt_unique_heap_ptr@EU__crt_internal_free_policy@@@@QAEAAV0@$$QAV0@@Z 004a4212 f i libucrt:input.obj
 0001:000a3240       ??4big_integer@__crt_strtox@@QAEAAU01@ABU01@@Z 004a4240 f i libucrt:input.obj
 0001:000a327d       ??B?$__crt_unique_heap_ptr@EU__crt_internal_free_policy@@@@QBE_NXZ 004a427d f i libucrt:input.obj
 0001:000a3290       ??M__crt_strtox@@YA_NABUbig_integer@0@0@Z 004a4290 f i libucrt:input.obj
 0001:000a36e7       ?accumulate_decimal_digits_into_big_integer@__crt_strtox@@YAXQBE0AAUbig_integer@1@@Z 004a46e7 f i libucrt:input.obj
 0001:000a3ea0       ?add@__crt_strtox@@YA_NAAUbig_integer@1@I@Z 004a4ea0 f i libucrt:input.obj
 0001:000a3f40       ?add_carry@__crt_strtox@@YAIAAIII@Z 004a4f40 f i libucrt:input.obj
 0001:000a3f70       ?add_multiply_carry@__crt_strtox@@YAIAAIIII@Z 004a4f70 f i libucrt:input.obj
 0001:000a3f96       ?advance@?$format_string_parser@D@__crt_stdio_input@@QAE_NXZ 004a4f96 f i libucrt:input.obj
 0001:000a40fe       ?advance@?$format_string_parser@_W@__crt_stdio_input@@QAE_NXZ 004a50fe f i libucrt:input.obj
 0001:000a4240       ?as_double@floating_point_value@__crt_strtox@@QBEAANXZ 004a5240 f i libucrt:input.obj
 0001:000a426e       ?as_float@floating_point_value@__crt_strtox@@QBEAAMXZ 004a526e f i libucrt:input.obj
 0001:000a429c       ?assemble_floating_point_infinity@__crt_strtox@@YAX_NABVfloating_point_value@1@@Z 004a529c f i libucrt:input.obj
 0001:000a42e4       ?assemble_floating_point_value@__crt_strtox@@YA?AW4SLD_STATUS@@_KH_N1ABVfloating_point_value@1@@Z 004a52e4 f i libucrt:input.obj
 0001:000a4703       ?assemble_floating_point_value_from_big_integer@__crt_strtox@@YA?AW4SLD_STATUS@@ABUbig_integer@1@I_N1ABVfloating_point_value@1@@Z 004a5703 f i libucrt:input.obj
 0001:000a48f4       ?assemble_floating_point_zero@__crt_strtox@@YAX_NABVfloating_point_value@1@@Z 004a58f4 f i libucrt:input.obj
 0001:000a4940       ?bit_scan_reverse@__crt_strtox@@YAIABUbig_integer@1@@Z 004a5940 f i libucrt:input.obj
 0001:000a49a0       ?bit_scan_reverse@__crt_strtox@@YAII@Z 004a59a0 f i libucrt:input.obj
 0001:000a49d0       ?bit_scan_reverse@__crt_strtox@@YAI_K@Z 004a59d0 f i libucrt:input.obj
 0001:000a4a28       ?characters_read@?$stream_input_adapter@D@__crt_stdio_input@@QBEIXZ 004a5a28 f i libucrt:input.obj
 0001:000a4a2c       ?characters_read@?$stream_input_adapter@_W@__crt_stdio_input@@QBEIXZ 004a5a2c f i libucrt:input.obj
 0001:000a4a30       ?characters_read@?$string_input_adapter@D@__crt_stdio_input@@QBEIXZ 004a5a30 f i libucrt:input.obj
 0001:000a4a36       ?characters_read@?$string_input_adapter@_W@__crt_stdio_input@@QBEIXZ 004a5a36 f i libucrt:input.obj
 0001:000a4a40       ?convert_decimal_string_to_floating_type_common@__crt_strtox@@YA?AW4SLD_STATUS@@ABUfloating_point_string@1@ABVfloating_point_value@1@@Z 004a5a40 f i libucrt:input.obj
 0001:000a6f73       ?convert_hexadecimal_string_to_floating_type_common@__crt_strtox@@YA?AW4SLD_STATUS@@ABUfloating_point_string@1@ABVfloating_point_value@1@@Z 004a7f73 f i libucrt:input.obj
 0001:000a7050       ?count_sequential_high_zeroes@__crt_strtox@@YAII@Z 004a8050 f i libucrt:input.obj
 0001:000a7071       ?data@?$scanset_storage@$00@__crt_stdio_input@@QBEPAEXZ 004a8071 f i libucrt:input.obj
 0001:000a7074       ?data@?$scanset_storage@$01@__crt_stdio_input@@QBEPAEXZ 004a8074 f i libucrt:input.obj
 0001:000a70bc       ?denormal_mantissa_mask@floating_point_value@__crt_strtox@@QBE_KXZ 004a80bc f i libucrt:input.obj
 0001:000a70e0       ?divide@__crt_strtox@@YA_KAAUbig_integer@1@ABU21@@Z 004a80e0 f i libucrt:input.obj
 0001:000a76b9       ?error_code@?$format_string_parser@D@__crt_stdio_input@@QBEHXZ 004a86b9 f i libucrt:input.obj
 0001:000a76bd       ?error_code@?$format_string_parser@_W@__crt_stdio_input@@QBEHXZ 004a86bd f i libucrt:input.obj
 0001:000a76c1       ?exponent_bias@floating_point_value@__crt_strtox@@QBEHXZ 004a86c1 f i libucrt:input.obj
 0001:000a76d7       ?get@?$__crt_unique_heap_ptr@EU__crt_internal_free_policy@@@@QBEPAEXZ 004a86d7 f i libucrt:input.obj
 0001:000a76da       ?get@?$input_adapter_character_source@V?$stream_input_adapter@D@__crt_stdio_input@@@__crt_strtox@@QAEDXZ 004a86da f i libucrt:input.obj
 0001:000a7721       ?get@?$input_adapter_character_source@V?$stream_input_adapter@_W@__crt_stdio_input@@@__crt_strtox@@QAE_WXZ 004a8721 f i libucrt:input.obj
 0001:000a7768       ?get@?$input_adapter_character_source@V?$string_input_adapter@D@__crt_stdio_input@@@__crt_strtox@@QAEDXZ 004a8768 f i libucrt:input.obj
 0001:000a77b0       ?get@?$input_adapter_character_source@V?$string_input_adapter@_W@__crt_stdio_input@@@__crt_strtox@@QAE_WXZ 004a87b0 f i libucrt:input.obj
 0001:000a77f7       ?get@?$stream_input_adapter@D@__crt_stdio_input@@QAEHXZ 004a87f7 f i libucrt:input.obj
 0001:000a7813       ?get@?$stream_input_adapter@_W@__crt_stdio_input@@QAEGXZ 004a8813 f i libucrt:input.obj
 0001:000a7839       ?get@?$string_input_adapter@D@__crt_stdio_input@@QAEHXZ 004a8839 f i libucrt:input.obj
 0001:000a7854       ?get@?$string_input_adapter@_W@__crt_stdio_input@@QAEGXZ 004a8854 f i libucrt:input.obj
 0001:000a7874       ?invert@?$scanset_buffer@E@__crt_stdio_input@@QAEXXZ 004a8874 f i libucrt:input.obj
 0001:000a7899       ?invert@?$scanset_buffer@_W@__crt_stdio_input@@QAEXXZ 004a8899 f i libucrt:input.obj
 0001:000a78cb       ?is_character_allowed_in_string@?$input_processor@DV?$stream_input_adapter@D@__crt_stdio_input@@@__crt_stdio_input@@ABE_NW4conversion_mode@2@H@Z 004a88cb f i libucrt:input.obj
 0001:000a7922       ?is_character_allowed_in_string@?$input_processor@DV?$string_input_adapter@D@__crt_stdio_input@@@__crt_stdio_input@@ABE_NW4conversion_mode@2@H@Z 004a8922 f i libucrt:input.obj
 0001:000a7979       ?is_character_allowed_in_string@?$input_processor@_WV?$stream_input_adapter@_W@__crt_stdio_input@@@__crt_stdio_input@@ABE_NW4conversion_mode@2@G@Z 004a8979 f i libucrt:input.obj
 0001:000a79d9       ?is_character_allowed_in_string@?$input_processor@_WV?$string_input_adapter@_W@__crt_stdio_input@@@__crt_stdio_input@@ABE_NW4conversion_mode@2@G@Z 004a89d9 f i libucrt:input.obj
 0001:000a7a39       ?is_digit_or_nondigit@__crt_strtox@@YA_NH@Z 004a8a39 f i libucrt:input.obj
 0001:000a7a70       ?is_double@floating_point_value@__crt_strtox@@QBE_NXZ 004a8a70 f i libucrt:input.obj
 0001:000a7a74       ?is_length_valid@__crt_stdio_input@@YA_NW4conversion_mode@1@W4length_modifier@1@@Z 004a8a74 f i libucrt:input.obj
 0001:000a7a94       ?is_space@__crt_strtox@@YA_NDQAU__crt_locale_pointers@@@Z 004a8a94 f i libucrt:input.obj
 0001:000a7aba       ?is_space@__crt_strtox@@YA_N_WPAU__crt_locale_pointers@@@Z 004a8aba f i libucrt:input.obj
 0001:000a7ad9       ?is_usable@?$scanset_buffer@E@__crt_stdio_input@@QAE_NXZ 004a8ad9 f i libucrt:input.obj
 0001:000a7ae3       ?is_usable@?$scanset_buffer@_W@__crt_stdio_input@@QAE_NXZ 004a8ae3 f i libucrt:input.obj
 0001:000a7af2       ?is_valid@?$__crt_unique_heap_ptr@EU__crt_internal_free_policy@@@@QBE_NXZ 004a8af2 f i libucrt:input.obj
 0001:000a7afc       ?kind@?$format_string_parser@D@__crt_stdio_input@@QBE?AW4format_directive_kind@2@XZ 004a8afc f i libucrt:input.obj
 0001:000a7b00       ?kind@?$format_string_parser@_W@__crt_stdio_input@@QBE?AW4format_directive_kind@2@XZ 004a8b00 f i libucrt:input.obj
 0001:000a7b04       ?length@?$format_string_parser@D@__crt_stdio_input@@QBEIXZ 004a8b04 f i libucrt:input.obj
 0001:000a7b55       ?length@?$format_string_parser@_W@__crt_stdio_input@@QBEIXZ 004a8b55 f i libucrt:input.obj
 0001:000a7ba6       ?literal_character_lead@?$format_string_parser@D@__crt_stdio_input@@QBEEXZ 004a8ba6 f i libucrt:input.obj
 0001:000a7baa       ?literal_character_lead@?$format_string_parser@_W@__crt_stdio_input@@QBE_WXZ 004a8baa f i libucrt:input.obj
 0001:000a7baf       ?literal_character_trail@?$format_string_parser@D@__crt_stdio_input@@QBEEXZ 004a8baf f i libucrt:input.obj
 0001:000a7bc0       ?make_big_integer@__crt_strtox@@YA?AUbig_integer@1@_K@Z 004a8bc0 f i libucrt:input.obj
 0001:000a7be8       ?mantissa_bits@floating_point_value@__crt_strtox@@QBEHXZ 004a8be8 f i libucrt:input.obj
 0001:000a7bfc       ?maximum_binary_exponent@floating_point_value@__crt_strtox@@QBEHXZ 004a8bfc f i libucrt:input.obj
 0001:000a7c12       ?maximum_signed_value@__crt_strtox@@YA_J_K@Z 004a8c12 f i libucrt:input.obj
 0001:000a7c1d       ?minimum_binary_exponent@floating_point_value@__crt_strtox@@QBEHXZ 004a8c1d f i libucrt:input.obj
 0001:000a7c33       ?minimum_signed_value@__crt_strtox@@YA_J_K@Z 004a8c33 f i libucrt:input.obj
 0001:000a7c3d       ?mode@?$format_string_parser@D@__crt_stdio_input@@QBE?AW4conversion_mode@2@XZ 004a8c3d f i libucrt:input.obj
 0001:000a7c41       ?mode@?$format_string_parser@_W@__crt_stdio_input@@QBE?AW4conversion_mode@2@XZ 004a8c41 f i libucrt:input.obj
 0001:000a7c50       ?multiply@__crt_strtox@@YA_NAAUbig_integer@1@ABU21@@Z 004a8c50 f i libucrt:input.obj
 0001:000a8100       ?multiply@__crt_strtox@@YA_NAAUbig_integer@1@I@Z 004a9100 f i libucrt:input.obj
 0001:000a8200       ?multiply_64_32@__crt_strtox@@YA_K_KI@Z 004a9200 f i libucrt:input.obj
 0001:000a8220       ?multiply_by_power_of_ten@__crt_strtox@@YA_NAAUbig_integer@1@I@Z 004a9220 f i libucrt:input.obj
 0001:000a8920       ?multiply_core@__crt_strtox@@YAIQAIII@Z 004a9920 f i libucrt:input.obj
 0001:000a896d       ?normal_mantissa_mask@floating_point_value@__crt_strtox@@QBE_KXZ 004a996d f i libucrt:input.obj
 0001:000a8989       ?parse_digit@__crt_strtox@@YAID@Z 004a9989 f i libucrt:input.obj
 0001:000a89d1       ?parse_digit@__crt_strtox@@YAI_W@Z 004a99d1 f i libucrt:input.obj
 0001:000a8c2e       ?process@?$input_processor@DV?$stream_input_adapter@D@__crt_stdio_input@@@__crt_stdio_input@@QAEHXZ 004a9c2e f i libucrt:input.obj
 0001:000a8cdd       ?process@?$input_processor@DV?$string_input_adapter@D@__crt_stdio_input@@@__crt_stdio_input@@QAEHXZ 004a9cdd f i libucrt:input.obj
 0001:000a8d83       ?process@?$input_processor@_WV?$stream_input_adapter@_W@__crt_stdio_input@@@__crt_stdio_input@@QAEHXZ 004a9d83 f i libucrt:input.obj
 0001:000a8e34       ?process@?$input_processor@_WV?$string_input_adapter@_W@__crt_stdio_input@@@__crt_stdio_input@@QAEHXZ 004a9e34 f i libucrt:input.obj
 0001:000a8ee5       ?process_character_count_specifier@?$input_processor@DV?$stream_input_adapter@D@__crt_stdio_input@@@__crt_stdio_input@@AAE_NXZ 004a9ee5 f i libucrt:input.obj
 0001:000a8f00       ?process_character_count_specifier@?$input_processor@DV?$string_input_adapter@D@__crt_stdio_input@@@__crt_stdio_input@@AAE_NXZ 004a9f00 f i libucrt:input.obj
 0001:000a8f20       ?process_character_count_specifier@?$input_processor@_WV?$stream_input_adapter@_W@__crt_stdio_input@@@__crt_stdio_input@@AAE_NXZ 004a9f20 f i libucrt:input.obj
 0001:000a8f3b       ?process_character_count_specifier@?$input_processor@_WV?$string_input_adapter@_W@__crt_stdio_input@@@__crt_stdio_input@@AAE_NXZ 004a9f3b f i libucrt:input.obj
 0001:000a8f5e       ?process_conversion_specifier@?$input_processor@DV?$stream_input_adapter@D@__crt_stdio_input@@@__crt_stdio_input@@AAE_NXZ 004a9f5e f i libucrt:input.obj
 0001:000a8fef       ?process_conversion_specifier@?$input_processor@DV?$string_input_adapter@D@__crt_stdio_input@@@__crt_stdio_input@@AAE_NXZ 004a9fef f i libucrt:input.obj
 0001:000a9080       ?process_conversion_specifier@?$input_processor@_WV?$stream_input_adapter@_W@__crt_stdio_input@@@__crt_stdio_input@@AAE_NXZ 004aa080 f i libucrt:input.obj
 0001:000a9111       ?process_conversion_specifier@?$input_processor@_WV?$string_input_adapter@_W@__crt_stdio_input@@@__crt_stdio_input@@AAE_NXZ 004aa111 f i libucrt:input.obj
 0001:000a91a2       ?process_floating_point_specifier@?$input_processor@DV?$stream_input_adapter@D@__crt_stdio_input@@@__crt_stdio_input@@AAE_NXZ 004aa1a2 f i libucrt:input.obj
 0001:000a91de       ?process_floating_point_specifier@?$input_processor@DV?$string_input_adapter@D@__crt_stdio_input@@@__crt_stdio_input@@AAE_NXZ 004aa1de f i libucrt:input.obj
 0001:000a921a       ?process_floating_point_specifier@?$input_processor@_WV?$stream_input_adapter@_W@__crt_stdio_input@@@__crt_stdio_input@@AAE_NXZ 004aa21a f i libucrt:input.obj
 0001:000a9256       ?process_floating_point_specifier@?$input_processor@_WV?$string_input_adapter@_W@__crt_stdio_input@@@__crt_stdio_input@@AAE_NXZ 004aa256 f i libucrt:input.obj
 0001:000a9292       ?process_integer_specifier@?$input_processor@DV?$stream_input_adapter@D@__crt_stdio_input@@@__crt_stdio_input@@AAE_NI_N@Z 004aa292 f i libucrt:input.obj
 0001:000a9311       ?process_integer_specifier@?$input_processor@DV?$string_input_adapter@D@__crt_stdio_input@@@__crt_stdio_input@@AAE_NI_N@Z 004aa311 f i libucrt:input.obj
 0001:000a9390       ?process_integer_specifier@?$input_processor@_WV?$stream_input_adapter@_W@__crt_stdio_input@@@__crt_stdio_input@@AAE_NI_N@Z 004aa390 f i libucrt:input.obj
 0001:000a940f       ?process_integer_specifier@?$input_processor@_WV?$string_input_adapter@_W@__crt_stdio_input@@@__crt_stdio_input@@AAE_NI_N@Z 004aa40f f i libucrt:input.obj
 0001:000a948e       ?process_literal_character@?$input_processor@DV?$stream_input_adapter@D@__crt_stdio_input@@@__crt_stdio_input@@AAE_NXZ 004aa48e f i libucrt:input.obj
 0001:000a94d1       ?process_literal_character@?$input_processor@DV?$string_input_adapter@D@__crt_stdio_input@@@__crt_stdio_input@@AAE_NXZ 004aa4d1 f i libucrt:input.obj
 0001:000a9514       ?process_literal_character@?$input_processor@_WV?$stream_input_adapter@_W@__crt_stdio_input@@@__crt_stdio_input@@AAE_NXZ 004aa514 f i libucrt:input.obj
 0001:000a9556       ?process_literal_character@?$input_processor@_WV?$string_input_adapter@_W@__crt_stdio_input@@@__crt_stdio_input@@AAE_NXZ 004aa556 f i libucrt:input.obj
 0001:000a9598       ?process_literal_character_tchar@?$input_processor@DV?$stream_input_adapter@D@__crt_stdio_input@@@__crt_stdio_input@@AAE_ND@Z 004aa598 f i libucrt:input.obj
 0001:000a960e       ?process_literal_character_tchar@?$input_processor@DV?$string_input_adapter@D@__crt_stdio_input@@@__crt_stdio_input@@AAE_ND@Z 004aa60e f i libucrt:input.obj
 0001:000a9679       ?process_literal_character_tchar@?$input_processor@_WV?$stream_input_adapter@_W@__crt_stdio_input@@@__crt_stdio_input@@AAE_N_W@Z 004aa679 f i libucrt:input.obj
 0001:000a967e       ?process_literal_character_tchar@?$input_processor@_WV?$string_input_adapter@_W@__crt_stdio_input@@@__crt_stdio_input@@AAE_N_W@Z 004aa67e f i libucrt:input.obj
 0001:000a9683       ?process_state@?$input_processor@DV?$stream_input_adapter@D@__crt_stdio_input@@@__crt_stdio_input@@AAE_NXZ 004aa683 f i libucrt:input.obj
 0001:000a96c6       ?process_state@?$input_processor@DV?$string_input_adapter@D@__crt_stdio_input@@@__crt_stdio_input@@AAE_NXZ 004aa6c6 f i libucrt:input.obj
 0001:000a9709       ?process_state@?$input_processor@_WV?$stream_input_adapter@_W@__crt_stdio_input@@@__crt_stdio_input@@AAE_NXZ 004aa709 f i libucrt:input.obj
 0001:000a974c       ?process_state@?$input_processor@_WV?$string_input_adapter@_W@__crt_stdio_input@@@__crt_stdio_input@@AAE_NXZ 004aa74c f i libucrt:input.obj
 0001:000a978f       ?process_string_specifier@?$input_processor@DV?$stream_input_adapter@D@__crt_stdio_input@@@__crt_stdio_input@@AAE_NW4conversion_mode@2@@Z 004aa78f f i libucrt:input.obj
 0001:000a97e9       ?process_string_specifier@?$input_processor@DV?$string_input_adapter@D@__crt_stdio_input@@@__crt_stdio_input@@AAE_NW4conversion_mode@2@@Z 004aa7e9 f i libucrt:input.obj
 0001:000a9843       ?process_string_specifier@?$input_processor@_WV?$stream_input_adapter@_W@__crt_stdio_input@@@__crt_stdio_input@@AAE_NW4conversion_mode@2@@Z 004aa843 f i libucrt:input.obj
 0001:000a989d       ?process_string_specifier@?$input_processor@_WV?$string_input_adapter@_W@__crt_stdio_input@@@__crt_stdio_input@@AAE_NW4conversion_mode@2@@Z 004aa89d f i libucrt:input.obj
 0001:000a98f7       ?process_whitespace@?$input_processor@DV?$stream_input_adapter@D@__crt_stdio_input@@@__crt_stdio_input@@AAE_NXZ 004aa8f7 f i libucrt:input.obj
 0001:000a991b       ?process_whitespace@?$input_processor@DV?$string_input_adapter@D@__crt_stdio_input@@@__crt_stdio_input@@AAE_NXZ 004aa91b f i libucrt:input.obj
 0001:000a993f       ?process_whitespace@?$input_processor@_WV?$stream_input_adapter@_W@__crt_stdio_input@@@__crt_stdio_input@@AAE_NXZ 004aa93f f i libucrt:input.obj
 0001:000a9967       ?process_whitespace@?$input_processor@_WV?$string_input_adapter@_W@__crt_stdio_input@@@__crt_stdio_input@@AAE_NXZ 004aa967 f i libucrt:input.obj
 0001:000a998f       ?release@?$__crt_unique_heap_ptr@EU__crt_internal_free_policy@@@@QAEXXZ 004aa98f f i libucrt:input.obj
 0001:000a99a5       ?reset@?$scanset_buffer@E@__crt_stdio_input@@QAEXXZ 004aa9a5 f i libucrt:input.obj
 0001:000a99bb       ?reset@?$scanset_buffer@_W@__crt_stdio_input@@QAEXXZ 004aa9bb f i libucrt:input.obj
 0001:000a99db       ?reset_token_state@?$format_string_parser@D@__crt_stdio_input@@AAEXXZ 004aa9db f i libucrt:input.obj
 0001:000a99fe       ?reset_token_state@?$format_string_parser@_W@__crt_stdio_input@@AAEXXZ 004aa9fe f i libucrt:input.obj
 0001:000a9a22       ?reset_token_state_for_error@?$format_string_parser@D@__crt_stdio_input@@AAEXH@Z 004aaa22 f i libucrt:input.obj
 0001:000a9a56       ?reset_token_state_for_error@?$format_string_parser@_W@__crt_stdio_input@@AAEXH@Z 004aaa56 f i libucrt:input.obj
 0001:000a9a8b       ?restore_state@?$input_adapter_character_source@V?$stream_input_adapter@D@__crt_stdio_input@@@__crt_strtox@@QAE_N_K@Z 004aaa8b f i libucrt:input.obj
 0001:000a9ab9       ?restore_state@?$input_adapter_character_source@V?$stream_input_adapter@_W@__crt_stdio_input@@@__crt_strtox@@QAE_N_K@Z 004aaab9 f i libucrt:input.obj
 0001:000a9ae7       ?restore_state@?$input_adapter_character_source@V?$string_input_adapter@D@__crt_stdio_input@@@__crt_strtox@@QAE_N_K@Z 004aaae7 f i libucrt:input.obj
 0001:000a9b15       ?restore_state@?$input_adapter_character_source@V?$string_input_adapter@_W@__crt_stdio_input@@@__crt_strtox@@QAE_N_K@Z 004aab15 f i libucrt:input.obj
 0001:000a9b43       ?right_shift_with_rounding@__crt_strtox@@YA_K_N_KI0@Z 004aab43 f i libucrt:input.obj
 0001:000a9c62       ?save_state@?$input_adapter_character_source@V?$stream_input_adapter@D@__crt_stdio_input@@@__crt_strtox@@QBE_KXZ 004aac62 f i libucrt:input.obj
 0001:000a9c69       ?save_state@?$input_adapter_character_source@V?$stream_input_adapter@_W@__crt_stdio_input@@@__crt_strtox@@QBE_KXZ 004aac69 f i libucrt:input.obj
 0001:000a9c70       ?save_state@?$input_adapter_character_source@V?$string_input_adapter@D@__crt_stdio_input@@@__crt_strtox@@QBE_KXZ 004aac70 f i libucrt:input.obj
 0001:000a9c77       ?save_state@?$input_adapter_character_source@V?$string_input_adapter@_W@__crt_stdio_input@@@__crt_strtox@@QBE_KXZ 004aac77 f i libucrt:input.obj
 0001:000a9c7e       ?scan_conversion_specifier@?$format_string_parser@D@__crt_stdio_input@@AAE_NXZ 004aac7e f i libucrt:input.obj
 0001:000a9e43       ?scan_conversion_specifier@?$format_string_parser@_W@__crt_stdio_input@@AAE_NXZ 004aae43 f i libucrt:input.obj
 0001:000a9fe2       ?scan_optional_assignment_suppressor@?$format_string_parser@D@__crt_stdio_input@@AAEXXZ 004aafe2 f i libucrt:input.obj
 0001:000a9ff7       ?scan_optional_assignment_suppressor@?$format_string_parser@_W@__crt_stdio_input@@AAEXXZ 004aaff7 f i libucrt:input.obj
 0001:000aa010       ?scan_optional_field_width@?$format_string_parser@D@__crt_stdio_input@@AAE_NXZ 004ab010 f i libucrt:input.obj
 0001:000aa0d6       ?scan_optional_field_width@?$format_string_parser@_W@__crt_stdio_input@@AAE_NXZ 004ab0d6 f i libucrt:input.obj
 0001:000aa38d       ?scan_optional_length_modifier@?$format_string_parser@D@__crt_stdio_input@@AAEXXZ 004ab38d f i libucrt:input.obj
 0001:000aa4f5       ?scan_optional_length_modifier@?$format_string_parser@_W@__crt_stdio_input@@AAEXXZ 004ab4f5 f i libucrt:input.obj
 0001:000aa672       ?scan_optional_literal_character_trail_bytes_tchar@?$format_string_parser@D@__crt_stdio_input@@AAE_ND@Z 004ab672 f i libucrt:input.obj
 0001:000aa6dc       ?scan_optional_literal_character_trail_bytes_tchar@?$format_string_parser@_W@__crt_stdio_input@@AAE_N_W@Z 004ab6dc f i libucrt:input.obj
 0001:000aa6e1       ?scan_optional_wide_modifier@?$format_string_parser@D@__crt_stdio_input@@AAEXXZ 004ab6e1 f i libucrt:input.obj
 0001:000aa706       ?scan_optional_wide_modifier@?$format_string_parser@_W@__crt_stdio_input@@AAEXXZ 004ab706 f i libucrt:input.obj
 0001:000aa73a       ?scan_scanset_range@?$format_string_parser@D@__crt_stdio_input@@AAE_NXZ 004ab73a f i libucrt:input.obj
 0001:000aa882       ?scan_scanset_range@?$format_string_parser@_W@__crt_stdio_input@@AAE_NXZ 004ab882 f i libucrt:input.obj
 0001:000aa9d6       ?scanset@?$format_string_parser@D@__crt_stdio_input@@QBEABV?$scanset_buffer@E@2@XZ 004ab9d6 f i libucrt:input.obj
 0001:000aa9da       ?scanset@?$format_string_parser@_W@__crt_stdio_input@@QBEABV?$scanset_buffer@_W@2@XZ 004ab9da f i libucrt:input.obj
 0001:000aa9de       ?secure_buffers@?$input_processor@DV?$stream_input_adapter@D@__crt_stdio_input@@@__crt_stdio_input@@ABE_NXZ 004ab9de f i libucrt:input.obj
 0001:000aa9f3       ?secure_buffers@?$input_processor@DV?$string_input_adapter@D@__crt_stdio_input@@@__crt_stdio_input@@ABE_NXZ 004ab9f3 f i libucrt:input.obj
 0001:000aaa08       ?secure_buffers@?$input_processor@_WV?$stream_input_adapter@_W@__crt_stdio_input@@@__crt_stdio_input@@ABE_NXZ 004aba08 f i libucrt:input.obj
 0001:000aaa1d       ?secure_buffers@?$input_processor@_WV?$string_input_adapter@_W@__crt_stdio_input@@@__crt_stdio_input@@ABE_NXZ 004aba1d f i libucrt:input.obj
 0001:000aaa32       ?set@?$scanset_buffer@E@__crt_stdio_input@@QAEXE@Z 004aba32 f i libucrt:input.obj
 0001:000aaa67       ?set@?$scanset_buffer@_W@__crt_stdio_input@@QAEX_W@Z 004aba67 f i libucrt:input.obj
 0001:000aaaa3       ?set_wide_for_c_s_or_scanset@?$format_string_parser@D@__crt_stdio_input@@AAEXXZ 004abaa3 f i libucrt:input.obj
 0001:000aaacb       ?set_wide_for_c_s_or_scanset@?$format_string_parser@_W@__crt_stdio_input@@AAEXXZ 004abacb f i libucrt:input.obj
 0001:000aab00       ?shift_left@__crt_strtox@@YA_NAAUbig_integer@1@I@Z 004abb00 f i libucrt:input.obj
 0001:000aaca2       ?should_default_to_wide@?$format_string_parser@D@__crt_stdio_input@@AAE_NE@Z 004abca2 f i libucrt:input.obj
 0001:000aacc3       ?should_default_to_wide@?$format_string_parser@_W@__crt_stdio_input@@AAE_N_W@Z 004abcc3 f i libucrt:input.obj
 0001:000aad02       ?should_round_up@__crt_strtox@@YA_N_N000@Z 004abd02 f i libucrt:input.obj
 0001:000aad6c       ?size@?$scanset_storage@$00@__crt_stdio_input@@QBEIXZ 004abd6c f i libucrt:input.obj
 0001:000aad70       ?size@?$scanset_storage@$01@__crt_stdio_input@@QBEIXZ 004abd70 f i libucrt:input.obj
 0001:000aad76       ?suppress_assignment@?$format_string_parser@D@__crt_stdio_input@@QBE_NXZ 004abd76 f i libucrt:input.obj
 0001:000aad7a       ?suppress_assignment@?$format_string_parser@_W@__crt_stdio_input@@QBE_NXZ 004abd7a f i libucrt:input.obj
 0001:000aad7e       ?test@?$scanset_buffer@E@__crt_stdio_input@@QBE_NE@Z 004abd7e f i libucrt:input.obj
 0001:000aadbb       ?test@?$scanset_buffer@_W@__crt_stdio_input@@QBE_N_W@Z 004abdbb f i libucrt:input.obj
 0001:000aae01       ?to_floating_point_length@__crt_stdio_input@@YAIW4length_modifier@1@@Z 004abe01 f i libucrt:input.obj
 0001:000aae2c       ?to_integer_length@__crt_stdio_input@@YAIW4length_modifier@1@@Z 004abe2c f i libucrt:input.obj
 0001:000aae9a       ?unget@?$input_adapter_character_source@V?$stream_input_adapter@D@__crt_stdio_input@@@__crt_strtox@@QAEXD@Z 004abe9a f i libucrt:input.obj
 0001:000aaeeb       ?unget@?$input_adapter_character_source@V?$stream_input_adapter@_W@__crt_stdio_input@@@__crt_strtox@@QAEX_W@Z 004abeeb f i libucrt:input.obj
 0001:000aaf41       ?unget@?$input_adapter_character_source@V?$string_input_adapter@D@__crt_stdio_input@@@__crt_strtox@@QAEXD@Z 004abf41 f i libucrt:input.obj
 0001:000aaf92       ?unget@?$input_adapter_character_source@V?$string_input_adapter@_W@__crt_stdio_input@@@__crt_strtox@@QAEX_W@Z 004abf92 f i libucrt:input.obj
 0001:000aafe8       ?unget@?$stream_input_adapter@D@__crt_stdio_input@@QAEXH@Z 004abfe8 f i libucrt:input.obj
 0001:000ab00d       ?unget@?$stream_input_adapter@_W@__crt_stdio_input@@QAEXG@Z 004ac00d f i libucrt:input.obj
 0001:000ab038       ?unget@?$string_input_adapter@D@__crt_stdio_input@@QAEXH@Z 004ac038 f i libucrt:input.obj
 0001:000ab05e       ?unget@?$string_input_adapter@_W@__crt_stdio_input@@QAEXG@Z 004ac05e f i libucrt:input.obj
 0001:000ab08d       ?validate@?$format_string_parser@D@__crt_stdio_input@@QBE_NXZ 004ac08d f i libucrt:input.obj
 0001:000ab0b0       ?validate@?$format_string_parser@_W@__crt_stdio_input@@QBE_NXZ 004ac0b0 f i libucrt:input.obj
 0001:000ab0d3       ?validate@?$input_adapter_character_source@V?$stream_input_adapter@D@__crt_stdio_input@@@__crt_strtox@@QBE_NXZ 004ac0d3 f i libucrt:input.obj
 0001:000ab0fc       ?validate@?$input_adapter_character_source@V?$stream_input_adapter@_W@__crt_stdio_input@@@__crt_strtox@@QBE_NXZ 004ac0fc f i libucrt:input.obj
 0001:000ab125       ?validate@?$input_adapter_character_source@V?$string_input_adapter@D@__crt_stdio_input@@@__crt_strtox@@QBE_NXZ 004ac125 f i libucrt:input.obj
 0001:000ab14e       ?validate@?$input_adapter_character_source@V?$string_input_adapter@_W@__crt_stdio_input@@@__crt_strtox@@QBE_NXZ 004ac14e f i libucrt:input.obj
 0001:000ab177       ?validate@?$stream_input_adapter@D@__crt_stdio_input@@QBE_NXZ 004ac177 f i libucrt:input.obj
 0001:000ab1a0       ?validate@?$stream_input_adapter@_W@__crt_stdio_input@@QBE_NXZ 004ac1a0 f i libucrt:input.obj
 0001:000ab1c1       ?validate@?$string_input_adapter@D@__crt_stdio_input@@QAE_NXZ 004ac1c1 f i libucrt:input.obj
 0001:000ab1eb       ?validate@?$string_input_adapter@_W@__crt_stdio_input@@QAE_NXZ 004ac1eb f i libucrt:input.obj
 0001:000ab215       ?wide_character_to_digit@__crt_strtox@@YAH_W@Z 004ac215 f i libucrt:input.obj
 0001:000ab41e       ?width@?$format_string_parser@D@__crt_stdio_input@@QBE_KXZ 004ac41e f i libucrt:input.obj
 0001:000ab425       ?width@?$format_string_parser@_W@__crt_stdio_input@@QBE_KXZ 004ac425 f i libucrt:input.obj
 0001:000ab42c       ?write_character@?$input_processor@DV?$stream_input_adapter@D@__crt_stdio_input@@@__crt_stdio_input@@AAE_NQADIAAPADAAID@Z 004ac42c f i libucrt:input.obj
 0001:000ab44f       ?write_character@?$input_processor@DV?$stream_input_adapter@D@__crt_stdio_input@@@__crt_stdio_input@@AAE_NQA_WIAAPA_WAAID@Z 004ac44f f i libucrt:input.obj
 0001:000ab4e7       ?write_character@?$input_processor@DV?$string_input_adapter@D@__crt_stdio_input@@@__crt_stdio_input@@AAE_NQADIAAPADAAID@Z 004ac4e7 f i libucrt:input.obj
 0001:000ab50a       ?write_character@?$input_processor@DV?$string_input_adapter@D@__crt_stdio_input@@@__crt_stdio_input@@AAE_NQA_WIAAPA_WAAID@Z 004ac50a f i libucrt:input.obj
 0001:000ab597       ?write_character@?$input_processor@_WV?$stream_input_adapter@_W@__crt_stdio_input@@@__crt_stdio_input@@AAE_NQADIAAPADAAI_W@Z 004ac597 f i libucrt:input.obj
 0001:000ab641       ?write_character@?$input_processor@_WV?$stream_input_adapter@_W@__crt_stdio_input@@@__crt_stdio_input@@AAE_NQA_WIAAPA_WAAI_W@Z 004ac641 f i libucrt:input.obj
 0001:000ab667       ?write_character@?$input_processor@_WV?$string_input_adapter@_W@__crt_stdio_input@@@__crt_stdio_input@@AAE_NQADIAAPADAAI_W@Z 004ac667 f i libucrt:input.obj
 0001:000ab711       ?write_character@?$input_processor@_WV?$string_input_adapter@_W@__crt_stdio_input@@@__crt_stdio_input@@AAE_NQA_WIAAPA_WAAI_W@Z 004ac711 f i libucrt:input.obj
 0001:000ab737       ?write_integer@?$input_processor@DV?$stream_input_adapter@D@__crt_stdio_input@@@__crt_stdio_input@@AAE_N_K_N@Z 004ac737 f i libucrt:input.obj
 0001:000ab7cb       ?write_integer@?$input_processor@DV?$string_input_adapter@D@__crt_stdio_input@@@__crt_stdio_input@@AAE_N_K_N@Z 004ac7cb f i libucrt:input.obj
 0001:000ab85f       ?write_integer@?$input_processor@_WV?$stream_input_adapter@_W@__crt_stdio_input@@@__crt_stdio_input@@AAE_N_K_N@Z 004ac85f f i libucrt:input.obj
 0001:000ab8f3       ?write_integer@?$input_processor@_WV?$string_input_adapter@_W@__crt_stdio_input@@@__crt_stdio_input@@AAE_N_K_N@Z 004ac8f3 f i libucrt:input.obj
 0001:000ab987       ___acrt_get_locale_data_prefix 004ac987 f i libucrt:input.obj
 0001:000ab996       ___stdio_common_vfscanf    004ac996 f   libucrt:input.obj
 0001:000aba2a       ___stdio_common_vfwscanf   004aca2a f   libucrt:input.obj
 0001:000ababe       ___stdio_common_vsscanf    004acabe f   libucrt:input.obj
 0001:000abaeb       ___stdio_common_vswscanf   004acaeb f   libucrt:input.obj
 0001:000abb18       __chvalidchk_l             004acb18 f i libucrt:input.obj
 0001:000abb4c       __invoke_watson_if_oneof   004acb4c f i libucrt:input.obj
 0001:000abb84       __ischartype_l             004acb84 f i libucrt:input.obj
 0001:000abc64       _strtok                    004acc64 f   libucrt:strtok.obj
 0001:000abe74       _fgets                     004ace74 f   libucrt:fgets.obj
 0001:000abe81       _fgetws                    004ace81 f   libucrt:fgets.obj
 0001:000ac24c       __tolower                  004ad24c f   libucrt:tolower_toupper.obj
 0001:000ac25c       __tolower_l                004ad25c f   libucrt:tolower_toupper.obj
 0001:000ac27c       __toupper                  004ad27c f   libucrt:tolower_toupper.obj
 0001:000ac28c       __toupper_l                004ad28c f   libucrt:tolower_toupper.obj
 0001:000ac2ac       _tolower                   004ad2ac f   libucrt:tolower_toupper.obj
 0001:000ac2e8       _toupper                   004ad2e8 f   libucrt:tolower_toupper.obj
 0001:000ac330       _strcmp                    004ad330 f   libucrt:strcmp.obj
 0001:000ac3df       ??$is_overflow_condition@K@__crt_strtox@@YA_NIK@Z 004ad3df f i libucrt:atox.obj
 0001:000ac41e       ??$make_c_string_character_source@D$$T@__crt_strtox@@YA?AV?$c_string_character_source@D@0@QBD$$T@Z 004ad41e f i libucrt:atox.obj
 0001:000ac43f       ??$make_c_string_character_source@_W$$T@__crt_strtox@@YA?AV?$c_string_character_source@_W@0@QB_W$$T@Z 004ad43f f i libucrt:atox.obj
 0001:000ac460       ??$parse_integer@KV?$c_string_character_source@D@__crt_strtox@@@__crt_strtox@@YAKQAU__crt_locale_pointers@@V?$c_string_character_source@D@0@H_N@Z 004ad460 f i libucrt:atox.obj
 0001:000ac712       ??$parse_integer@KV?$c_string_character_source@_W@__crt_strtox@@@__crt_strtox@@YAKQAU__crt_locale_pointers@@V?$c_string_character_source@_W@0@H_N@Z 004ad712 f i libucrt:atox.obj
 0001:000acfb0       ??$parse_integer@_KV?$c_string_character_source@D@__crt_strtox@@@__crt_strtox@@YA_KQAU__crt_locale_pointers@@V?$c_string_character_source@D@0@H_N@Z 004adfb0 f i libucrt:atox.obj
 0001:000ad2ff       ??$parse_integer@_KV?$c_string_character_source@_W@__crt_strtox@@@__crt_strtox@@YA_KQAU__crt_locale_pointers@@V?$c_string_character_source@_W@0@H_N@Z 004ae2ff f i libucrt:atox.obj
 0001:000ada71       ??$parse_integer_from_string@JD$$T@__crt_strtox@@YAJQBD$$THQAU__crt_locale_pointers@@@Z 004aea71 f i libucrt:atox.obj
 0001:000adaa9       ??$parse_integer_from_string@J_W$$T@__crt_strtox@@YAJQB_W$$THQAU__crt_locale_pointers@@@Z 004aeaa9 f i libucrt:atox.obj
 0001:000adae1       ??$parse_integer_from_string@_JD$$T@__crt_strtox@@YA_JQBD$$THQAU__crt_locale_pointers@@@Z 004aeae1 f i libucrt:atox.obj
 0001:000adb19       ??$parse_integer_from_string@_J_W$$T@__crt_strtox@@YA_JQB_W$$THQAU__crt_locale_pointers@@@Z 004aeb19 f i libucrt:atox.obj
 0001:000adb51       ??0?$c_string_character_source@D@__crt_strtox@@QAE@QBDQAPBD@Z 004aeb51 f i libucrt:atox.obj
 0001:000adb74       ??0?$c_string_character_source@_W@__crt_strtox@@QAE@QB_WQAPB_W@Z 004aeb74 f i libucrt:atox.obj
 0001:000adb97       ??1?$c_string_character_source@D@__crt_strtox@@QAE@XZ 004aeb97 f i libucrt:atox.obj
 0001:000adba6       ??1?$c_string_character_source@_W@__crt_strtox@@QAE@XZ 004aeba6 f i libucrt:atox.obj
 0001:000adbb5       ?get@?$c_string_character_source@D@__crt_strtox@@QAEDXZ 004aebb5 f i libucrt:atox.obj
 0001:000adbbf       ?get@?$c_string_character_source@_W@__crt_strtox@@QAE_WXZ 004aebbf f i libucrt:atox.obj
 0001:000adbcc       ?maximum_signed_value@__crt_strtox@@YAJK@Z 004aebcc f i libucrt:atox.obj
 0001:000adbd2       ?minimum_signed_value@__crt_strtox@@YAJK@Z 004aebd2 f i libucrt:atox.obj
 0001:000adbd8       ?restore_state@?$c_string_character_source@D@__crt_strtox@@QAE_NQBD@Z 004aebd8 f i libucrt:atox.obj
 0001:000adbec       ?restore_state@?$c_string_character_source@_W@__crt_strtox@@QAE_NQB_W@Z 004aebec f i libucrt:atox.obj
 0001:000adc00       ?save_state@?$c_string_character_source@D@__crt_strtox@@QBEPBDXZ 004aec00 f i libucrt:atox.obj
 0001:000adc03       ?save_state@?$c_string_character_source@_W@__crt_strtox@@QBEPB_WXZ 004aec03 f i libucrt:atox.obj
 0001:000adc06       ?unget@?$c_string_character_source@D@__crt_strtox@@QAEXD@Z 004aec06 f i libucrt:atox.obj
 0001:000adc38       ?unget@?$c_string_character_source@_W@__crt_strtox@@QAEX_W@Z 004aec38 f i libucrt:atox.obj
 0001:000adc6f       ?validate@?$c_string_character_source@D@__crt_strtox@@QBE_NXZ 004aec6f f i libucrt:atox.obj
 0001:000adc90       ?validate@?$c_string_character_source@_W@__crt_strtox@@QBE_NXZ 004aec90 f i libucrt:atox.obj
 0001:000adcb1       __atoi64                   004aecb1 f   libucrt:atox.obj
 0001:000adce5       __atoi64_l                 004aece5 f   libucrt:atox.obj
 0001:000add1a       __atoi_l                   004aed1a f   libucrt:atox.obj
 0001:000add4f       __atol_l                   004aed4f f   libucrt:atox.obj
 0001:000add84       __atoll_l                  004aed84 f   libucrt:atox.obj
 0001:000addb9       __wtoi                     004aedb9 f   libucrt:atox.obj
 0001:000added       __wtoi64                   004aeded f   libucrt:atox.obj
 0001:000ade21       __wtoi64_l                 004aee21 f   libucrt:atox.obj
 0001:000ade56       __wtoi_l                   004aee56 f   libucrt:atox.obj
 0001:000ade8b       __wtol                     004aee8b f   libucrt:atox.obj
 0001:000adebf       __wtol_l                   004aeebf f   libucrt:atox.obj
 0001:000adef4       __wtoll                    004aeef4 f   libucrt:atox.obj
 0001:000adf28       __wtoll_l                  004aef28 f   libucrt:atox.obj
 0001:000adf5d       _atoi                      004aef5d f   libucrt:atox.obj
 0001:000adf91       _atol                      004aef91 f   libucrt:atox.obj
 0001:000adfc5       _atoll                     004aefc5 f   libucrt:atox.obj
 0001:000adff9       _malloc                    004aeff9 f   libucrt:malloc.obj
 0001:000ae010       __CIsqrt                   004af010 f   libucrt:sqrt.obj
 0001:000ae024       _sqrt                      004af024     libucrt:sqrt.obj
 0001:000ae0f8       _rand                      004af0f8 f   libucrt:rand.obj
 0001:000ae121       _srand                     004af121 f   libucrt:rand.obj
 0001:000ae137       ??$make_c_string_character_source@DPAPAD@__crt_strtox@@YA?AV?$c_string_character_source@D@0@QBDQAPAD@Z 004af137 f i libucrt:strtox.obj
 0001:000ae158       ??$make_c_string_character_source@_WPAPA_W@__crt_strtox@@YA?AV?$c_string_character_source@_W@0@QB_WQAPA_W@Z 004af158 f i libucrt:strtox.obj
 0001:000ae179       ??$parse_integer_from_string@JDPAPAD@__crt_strtox@@YAJQBDQAPADHQAU__crt_locale_pointers@@@Z 004af179 f i libucrt:strtox.obj
 0001:000ae1b1       ??$parse_integer_from_string@J_WPAPA_W@__crt_strtox@@YAJQB_WQAPA_WHQAU__crt_locale_pointers@@@Z 004af1b1 f i libucrt:strtox.obj
 0001:000ae1e9       ??$parse_integer_from_string@KDPAPAD@__crt_strtox@@YAKQBDQAPADHQAU__crt_locale_pointers@@@Z 004af1e9 f i libucrt:strtox.obj
 0001:000ae221       ??$parse_integer_from_string@K_WPAPA_W@__crt_strtox@@YAKQB_WQAPA_WHQAU__crt_locale_pointers@@@Z 004af221 f i libucrt:strtox.obj
 0001:000ae259       ??$parse_integer_from_string@_JDPAPAD@__crt_strtox@@YA_JQBDQAPADHQAU__crt_locale_pointers@@@Z 004af259 f i libucrt:strtox.obj
 0001:000ae291       ??$parse_integer_from_string@_J_WPAPA_W@__crt_strtox@@YA_JQB_WQAPA_WHQAU__crt_locale_pointers@@@Z 004af291 f i libucrt:strtox.obj
 0001:000ae2c9       ??$parse_integer_from_string@_KDPAPAD@__crt_strtox@@YA_KQBDQAPADHQAU__crt_locale_pointers@@@Z 004af2c9 f i libucrt:strtox.obj
 0001:000ae301       ??$parse_integer_from_string@_K_WPAPA_W@__crt_strtox@@YA_KQB_WQAPA_WHQAU__crt_locale_pointers@@@Z 004af301 f i libucrt:strtox.obj
 0001:000ae339       __strtoi64                 004af339 f   libucrt:strtox.obj
 0001:000ae370       __strtoi64_l               004af370 f   libucrt:strtox.obj
 0001:000ae3a8       __strtoimax_l              004af3a8 f   libucrt:strtox.obj
 0001:000ae3e0       __strtol_l                 004af3e0 f   libucrt:strtox.obj
 0001:000ae418       __strtoll_l                004af418 f   libucrt:strtox.obj
 0001:000ae450       __strtoui64                004af450 f   libucrt:strtox.obj
 0001:000ae487       __strtoui64_l              004af487 f   libucrt:strtox.obj
 0001:000ae4bf       __strtoul_l                004af4bf f   libucrt:strtox.obj
 0001:000ae4f7       __strtoull_l               004af4f7 f   libucrt:strtox.obj
 0001:000ae52f       __strtoumax_l              004af52f f   libucrt:strtox.obj
 0001:000ae567       __wcstoi64                 004af567 f   libucrt:strtox.obj
 0001:000ae59e       __wcstoi64_l               004af59e f   libucrt:strtox.obj
 0001:000ae5d6       __wcstoimax_l              004af5d6 f   libucrt:strtox.obj
 0001:000ae60e       __wcstol_l                 004af60e f   libucrt:strtox.obj
 0001:000ae646       __wcstoll_l                004af646 f   libucrt:strtox.obj
 0001:000ae67e       __wcstoui64                004af67e f   libucrt:strtox.obj
 0001:000ae6b5       __wcstoui64_l              004af6b5 f   libucrt:strtox.obj
 0001:000ae6ed       __wcstoul_l                004af6ed f   libucrt:strtox.obj
 0001:000ae725       __wcstoull_l               004af725 f   libucrt:strtox.obj
 0001:000ae75d       __wcstoumax_l              004af75d f   libucrt:strtox.obj
 0001:000ae795       _strtoimax                 004af795 f   libucrt:strtox.obj
 0001:000ae7cc       _strtol                    004af7cc f   libucrt:strtox.obj
 0001:000ae803       _strtoll                   004af803 f   libucrt:strtox.obj
 0001:000ae83a       _strtoul                   004af83a f   libucrt:strtox.obj
 0001:000ae871       _strtoull                  004af871 f   libucrt:strtox.obj
 0001:000ae8a8       _strtoumax                 004af8a8 f   libucrt:strtox.obj
 0001:000ae8df       _wcstoimax                 004af8df f   libucrt:strtox.obj
 0001:000ae916       _wcstol                    004af916 f   libucrt:strtox.obj
 0001:000ae94d       _wcstoll                   004af94d f   libucrt:strtox.obj
 0001:000ae984       _wcstoul                   004af984 f   libucrt:strtox.obj
 0001:000ae9bb       _wcstoull                  004af9bb f   libucrt:strtox.obj
 0001:000ae9f2       _wcstoumax                 004af9f2 f   libucrt:strtox.obj
 0001:000aea29       ??0__crt_stdio_stream@@QAE@QAU__crt_stdio_stream_data@@@Z 004afa29 f i libucrt:fflush.obj
 0001:000aea3d       ?__acrt_stdio_reset_buffer@@YAXV__crt_stdio_stream@@@Z 004afa3d f i libucrt:fflush.obj
 0001:000aea58       ?has_all_of@__crt_stdio_stream@@QBE_NJ@Z 004afa58 f i libucrt:fflush.obj
 0001:000aea77       ?has_big_buffer@__crt_stdio_stream@@QBE_NXZ 004afa77 f i libucrt:fflush.obj
 0001:000aea88       ?unset_flags@__crt_stdio_stream@@QBE_NJ@Z 004afa88 f i libucrt:fflush.obj
 0001:000aeabc       ___acrt_stdio_flush_nolock 004afabc f   libucrt:fflush.obj
 0001:000aeb3b       __fflush_nolock            004afb3b f   libucrt:fflush.obj
 0001:000aeb93       __flushall                 004afb93 f   libucrt:fflush.obj
 0001:000aecac       _fflush                    004afcac f   libucrt:fflush.obj
 0001:000aed1b       ??$?RV<lambda_11b4f7b0d3157825a5656a18eba1ae27>@@AAV<lambda_b51c0495177f500e782686251704ae76>@@V<lambda_cf89b47920b5017557bfe891e78aca36>@@@?$__crt_seh_guarded_call@I@@QAEI$$QAV<lambda_11b4f7b0d3157825a5656a18eba1ae27>@@AAV<lambda_b51c0495177f500e782686251704ae76>@@$$QAV<lambda_cf89b47920b5017557bfe891e78aca36>@@@Z 004afd1b f i libucrt:fwrite.obj
 0001:000aed80       ??$__acrt_lock_stream_and_call@V<lambda_b51c0495177f500e782686251704ae76>@@@@YAIQAU_iobuf@@$$QAV<lambda_b51c0495177f500e782686251704ae76>@@@Z 004afd80 f i libucrt:fwrite.obj
 0001:000aee75       __fwrite_nolock            004afe75 f   libucrt:fwrite.obj
 0001:000af04c       _fwrite                    004b004c f   libucrt:fwrite.obj
 0001:000af0ba       ??$?RV<lambda_8ccdbc1844700f1d8a5bf6490d3eb6ce>@@AAV<lambda_61d677f73751bd412abcbcd096bd0cc8>@@V<lambda_9cd2faef5ba6c34f9de47eb89f6a8f7d>@@@?$__crt_seh_guarded_call@H@@QAEH$$QAV<lambda_8ccdbc1844700f1d8a5bf6490d3eb6ce>@@AAV<lambda_61d677f73751bd412abcbcd096bd0cc8>@@$$QAV<lambda_9cd2faef5ba6c34f9de47eb89f6a8f7d>@@@Z 004b00ba f i libucrt:stat.obj
 0001:000af11f       ??$?RV<lambda_bf4ce8d6eac6cdb24e4c65264050668e>@@AAV<lambda_9f7c74da3c880c1c93b7275d920bab7e>@@V<lambda_84f15e24e86154a21a10ef76214bd4c8>@@@?$__crt_seh_guarded_call@H@@QAEH$$QAV<lambda_bf4ce8d6eac6cdb24e4c65264050668e>@@AAV<lambda_9f7c74da3c880c1c93b7275d920bab7e>@@$$QAV<lambda_84f15e24e86154a21a10ef76214bd4c8>@@@Z 004b011f f i libucrt:stat.obj
 0001:000af184       ??$?RV<lambda_da1648f3b0d77520e8adb6dab25a3295>@@AAV<lambda_5ee6b3739f556543202bdd7af6582283>@@V<lambda_2fa10eeb47e5a7ea6e179e658eac088f>@@@?$__crt_seh_guarded_call@H@@QAEH$$QAV<lambda_da1648f3b0d77520e8adb6dab25a3295>@@AAV<lambda_5ee6b3739f556543202bdd7af6582283>@@$$QAV<lambda_2fa10eeb47e5a7ea6e179e658eac088f>@@@Z 004b0184 f i libucrt:stat.obj
 0001:000af1e9       ??$?RV<lambda_debaefc9ace9acb854b52e906390d8f2>@@AAV<lambda_486a12472b28fefc2d6f55fe6da44c16>@@V<lambda_be5540c16d997d1f8327bcbdaff8d9a1>@@@?$__crt_seh_guarded_call@H@@QAEH$$QAV<lambda_debaefc9ace9acb854b52e906390d8f2>@@AAV<lambda_486a12472b28fefc2d6f55fe6da44c16>@@$$QAV<lambda_be5540c16d997d1f8327bcbdaff8d9a1>@@@Z 004b01e9 f i libucrt:stat.obj
 0001:000af24e       ??$?R_W@__crt_internal_free_policy@@QBEXQB_W@Z 004b024e f i libucrt:stat.obj
 0001:000af264       ??$?R_W@__crt_public_free_policy@@QBEXQB_W@Z 004b0264 f i libucrt:stat.obj
 0001:000af27a       ??$__acrt_lowio_lock_fh_and_call@V<lambda_486a12472b28fefc2d6f55fe6da44c16>@@@@YAHH$$QAV<lambda_486a12472b28fefc2d6f55fe6da44c16>@@@Z 004b027a f i libucrt:stat.obj
 0001:000af2ac       ??$__acrt_lowio_lock_fh_and_call@V<lambda_5ee6b3739f556543202bdd7af6582283>@@@@YAHH$$QAV<lambda_5ee6b3739f556543202bdd7af6582283>@@@Z 004b02ac f i libucrt:stat.obj
 0001:000af2de       ??$__acrt_lowio_lock_fh_and_call@V<lambda_61d677f73751bd412abcbcd096bd0cc8>@@@@YAHH$$QAV<lambda_61d677f73751bd412abcbcd096bd0cc8>@@@Z 004b02de f i libucrt:stat.obj
 0001:000af310       ??$__acrt_lowio_lock_fh_and_call@V<lambda_9f7c74da3c880c1c93b7275d920bab7e>@@@@YAHH$$QAV<lambda_9f7c74da3c880c1c93b7275d920bab7e>@@@Z 004b0310 f i libucrt:stat.obj
 0001:000b0a77       ??$loctotime@AAGAAGAAGAAGAAGAAGH@?$__crt_integer_traits@J@@SAJAAG00000$$QAH@Z 004b1a77 f i libucrt:stat.obj
 0001:000b0ac4       ??$loctotime@AAGAAGAAGAAGAAGAAGH@?$__crt_integer_traits@_J@@SA_JAAG00000$$QAH@Z 004b1ac4 f i libucrt:stat.obj
 0001:000b0b11       ??$loctotime@HHHHHHH@?$__crt_integer_traits@J@@SAJ$$QAH000000@Z 004b1b11 f i libucrt:stat.obj
 0001:000b0b4f       ??$loctotime@HHHHHHH@?$__crt_integer_traits@_J@@SA_J$$QAH000000@Z 004b1b4f f i libucrt:stat.obj
 0001:000b0ca9       ??0?$__crt_unique_handle_t@U__crt_handle_traits@@@@QAE@QAX@Z 004b1ca9 f i libucrt:stat.obj
 0001:000b0cbd       ??0?$__crt_unique_heap_ptr@_WU__crt_internal_free_policy@@@@QAE@QA_W@Z 004b1cbd f i libucrt:stat.obj
 0001:000b0cd1       ??0?$__crt_unique_heap_ptr@_WU__crt_public_free_policy@@@@QAE@QA_W@Z 004b1cd1 f i libucrt:stat.obj
 0001:000b0ce5       ??1?$__crt_unique_handle_t@U__crt_handle_traits@@@@QAE@XZ 004b1ce5 f i libucrt:stat.obj
 0001:000b0d01       ??1?$__crt_unique_heap_ptr@_WU__crt_internal_free_policy@@@@QAE@XZ 004b1d01 f i libucrt:stat.obj
 0001:000b0d17       ??1?$__crt_unique_heap_ptr@_WU__crt_public_free_policy@@@@QAE@XZ 004b1d17 f i libucrt:stat.obj
 0001:000b0d2d       ??B?$__crt_unique_handle_t@U__crt_handle_traits@@@@QBE_NXZ 004b1d2d f i libucrt:stat.obj
 0001:000b1067       ?close@?$__crt_unique_handle_t@U__crt_handle_traits@@@@QAEXXZ 004b2067 f i libucrt:stat.obj
 0001:000b1083       ?close@__crt_handle_traits@@SA_NPAX@Z 004b2083 f i libucrt:stat.obj
 0001:000b11ab       ?get@?$__crt_unique_handle_t@U__crt_handle_traits@@@@QBEPAXXZ 004b21ab f i libucrt:stat.obj
 0001:000b11ae       ?get@?$__crt_unique_heap_ptr@_WU__crt_internal_free_policy@@@@QBEPA_WXZ 004b21ae f i libucrt:stat.obj
 0001:000b11b1       ?get_address_of@?$__crt_unique_heap_ptr@_WU__crt_internal_free_policy@@@@QAEPAPA_WXZ 004b21b1 f i libucrt:stat.obj
 0001:000b11b4       ?get_address_of@?$__crt_unique_heap_ptr@_WU__crt_public_free_policy@@@@QAEPAPA_WXZ 004b21b4 f i libucrt:stat.obj
 0001:000b123f       ?get_invalid_value@__crt_handle_traits@@SAPAXXZ 004b223f f i libucrt:stat.obj
 0001:000b1529       ?is_valid@?$__crt_unique_handle_t@U__crt_handle_traits@@@@QBE_NXZ 004b2529 f i libucrt:stat.obj
 0001:000b1534       ?release@?$__crt_unique_heap_ptr@_WU__crt_internal_free_policy@@@@QAEXXZ 004b2534 f i libucrt:stat.obj
 0001:000b154a       ?release@?$__crt_unique_heap_ptr@_WU__crt_public_free_policy@@@@QAEXXZ 004b254a f i libucrt:stat.obj
 0001:000b1560       __fstat32                  004b2560 f   libucrt:stat.obj
 0001:000b156d       __fstat32i64               004b256d f   libucrt:stat.obj
 0001:000b157a       __fstat64                  004b257a f   libucrt:stat.obj
 0001:000b1587       __fstat64i32               004b2587 f   libucrt:stat.obj
 0001:000b1594       __stat32                   004b2594 f   libucrt:stat.obj
 0001:000b160c       __stat32i64                004b260c f   libucrt:stat.obj
 0001:000b1684       __stat64                   004b2684 f   libucrt:stat.obj
 0001:000b16fc       __stat64i32                004b26fc f   libucrt:stat.obj
 0001:000b1774       __wstat32                  004b2774 f   libucrt:stat.obj
 0001:000b1781       __wstat32i64               004b2781 f   libucrt:stat.obj
 0001:000b178e       __wstat64                  004b278e f   libucrt:stat.obj
 0001:000b179b       __wstat64i32               004b279b f   libucrt:stat.obj
 0001:000b17a8       __invoke_watson_if_error   004b27a8 f i libucrt:strdup.obj
 0001:000b17d2       __strdup                   004b27d2 f   libucrt:strdup.obj
 0001:000b17d2       _strdup                    004b27d2 f   libucrt:strdup.obj
 0001:000b183d       _free                      004b283d f   libucrt:free.obj
 0001:000b1842       ??$?RU__acrt_thread_parameter@@@__crt_internal_free_policy@@QBEXQBU__acrt_thread_parameter@@@Z 004b2842 f i libucrt:thread.obj
 0001:000b1992       ??0?$__crt_unique_heap_ptr@U__acrt_thread_parameter@@U__crt_internal_free_policy@@@@QAE@QAU__acrt_thread_parameter@@@Z 004b2992 f i libucrt:thread.obj
 0001:000b19a6       ??0?$__crt_unique_heap_ptr@U__acrt_thread_parameter@@Uthread_parameter_free_policy@?A0xe57bf005@@@@QAE@QAU__acrt_thread_parameter@@@Z 004b29a6 f i libucrt:thread.obj
 0001:000b19ba       ??1?$__crt_unique_heap_ptr@U__acrt_thread_parameter@@U__crt_internal_free_policy@@@@QAE@XZ 004b29ba f i libucrt:thread.obj
 0001:000b19d0       ??1?$__crt_unique_heap_ptr@U__acrt_thread_parameter@@Uthread_parameter_free_policy@?A0xe57bf005@@@@QAE@XZ 004b29d0 f i libucrt:thread.obj
 0001:000b19f1       ??B?$__crt_unique_heap_ptr@U__acrt_thread_parameter@@Uthread_parameter_free_policy@?A0xe57bf005@@@@QBE_NXZ 004b29f1 f i libucrt:thread.obj
 0001:000b19fb       ??Rthread_parameter_free_policy@?A0xe57bf005@@QAEXQAU__acrt_thread_parameter@@@Z 004b29fb f i libucrt:thread.obj
 0001:000b1b06       ?detach@?$__crt_unique_heap_ptr@U__acrt_thread_parameter@@U__crt_internal_free_policy@@@@QAEPAU__acrt_thread_parameter@@XZ 004b2b06 f i libucrt:thread.obj
 0001:000b1b0c       ?detach@?$__crt_unique_heap_ptr@U__acrt_thread_parameter@@Uthread_parameter_free_policy@?A0xe57bf005@@@@QAEPAU__acrt_thread_parameter@@XZ 004b2b0c f i libucrt:thread.obj
 0001:000b1b12       ?get@?$__crt_unique_heap_ptr@U__acrt_thread_parameter@@Uthread_parameter_free_policy@?A0xe57bf005@@@@QBEPAU__acrt_thread_parameter@@XZ 004b2b12 f i libucrt:thread.obj
 0001:000b1b89       ?is_valid@?$__crt_unique_heap_ptr@U__acrt_thread_parameter@@Uthread_parameter_free_policy@?A0xe57bf005@@@@QBE_NXZ 004b2b89 f i libucrt:thread.obj
 0001:000b1b93       ?release@?$__crt_unique_heap_ptr@U__acrt_thread_parameter@@U__crt_internal_free_policy@@@@QAEXXZ 004b2b93 f i libucrt:thread.obj
 0001:000b1ba9       ?release@?$__crt_unique_heap_ptr@U__acrt_thread_parameter@@Uthread_parameter_free_policy@?A0xe57bf005@@@@QAEXXZ 004b2ba9 f i libucrt:thread.obj
 0001:000b1bca       __beginthread              004b2bca f   libucrt:thread.obj
 0001:000b1c79       __beginthreadex            004b2c79 f   libucrt:thread.obj
 0001:000b1d1f       __endthread                004b2d1f f   libucrt:thread.obj
 0001:000b1d29       __endthreadex              004b2d29 f   libucrt:thread.obj
 0001:000b1d3a       ??$__crt_fast_decode_pointer@P6AXPB_W00II@Z@@YAP6AXPB_W00II@ZQ6AX000II@Z@Z 004b2d3a f i libucrt:invalid_parameter.obj
 0001:000b1d55       ??$__crt_fast_encode_pointer@P6AXPB_W00II@Z@@YAP6AXPB_W00II@ZQ6AX000II@Z@Z 004b2d55 f i libucrt:invalid_parameter.obj
 0001:000b1d7b       ?get_current_state_index@__crt_state_management@@YAIXZ 004b2d7b f i libucrt:invalid_parameter.obj
 0001:000b1d7e       ?initialize@?$dual_state_global@P6AXPB_W00II@Z@__crt_state_management@@QAEXQ6AXPB_W00II@Z@Z 004b2d7e f i libucrt:invalid_parameter.obj
 0001:000b1dbb       ?value@?$dual_state_global@P6AXPB_W00II@Z@__crt_state_management@@QAEAAP6AXPB_W00II@ZXZ 004b2dbb f i libucrt:invalid_parameter.obj
 0001:000b1dbe       ___acrt_call_reportfault   004b2dbe f   libucrt:invalid_parameter.obj
 0001:000b1f47       ___acrt_initialize_invalid_parameter_handler 004b2f47 f   libucrt:invalid_parameter.obj
 0001:000b1f60       __get_invalid_parameter_handler 004b2f60 f   libucrt:invalid_parameter.obj
 0001:000b1f77       __get_thread_local_invalid_parameter_handler 004b2f77 f   libucrt:invalid_parameter.obj
 0001:000b1f8c       __invalid_parameter        004b2f8c f   libucrt:invalid_parameter.obj
 0001:000b2025       __invalid_parameter_noinfo 004b3025 f   libucrt:invalid_parameter.obj
 0001:000b2039       __invalid_parameter_noinfo_noreturn 004b3039 f   libucrt:invalid_parameter.obj
 0001:000b205d       __invoke_watson            004b305d f   libucrt:invalid_parameter.obj
 0001:000b209c       __set_invalid_parameter_handler 004b309c f   libucrt:invalid_parameter.obj
 0001:000b20d8       __set_thread_local_invalid_parameter_handler 004b30d8 f   libucrt:invalid_parameter.obj
 0001:000b2100       _strncpy                   004b3100 f   libucrt:strncpy.obj
 0001:000b226d       ??$?B$$A6GXPAXK0@Z@__crt_fast_encoded_nullptr_t@@QBEP6GXPAXK0@ZXZ 004b326d f i libucrt:exit.obj
 0001:000b228b       ??$__crt_fast_decode_pointer@P6GXPAXK0@Z@@YAP6GXPAXK0@ZQ6GX0K0@Z@Z 004b328b f i libucrt:exit.obj
 0001:000b22a6       ??$__crt_fast_encode_pointer@P6GXPAXK0@Z@@YAP6GXPAXK0@ZQ6GX0K0@Z@Z 004b32a6 f i libucrt:exit.obj
 0001:000b22cc       ??$__crt_get_proc_address@P6GXI@Z@@YAP6GXI@ZQAUHINSTANCE__@@QBD@Z 004b32cc f i libucrt:exit.obj
 0001:000b22e3       ??0?$__crt_unique_handle_t@U__crt_hmodule_traits@@@@QAE@QAUHINSTANCE__@@@Z 004b32e3 f i libucrt:exit.obj
 0001:000b22f7       ??1?$__crt_unique_handle_t@U__crt_hmodule_traits@@@@QAE@XZ 004b32f7 f i libucrt:exit.obj
 0001:000b232a       ?close@?$__crt_unique_handle_t@U__crt_hmodule_traits@@@@QAEXXZ 004b332a f i libucrt:exit.obj
 0001:000b2346       ?close@__crt_hmodule_traits@@SA_NPAUHINSTANCE__@@@Z 004b3346 f i libucrt:exit.obj
 0001:000b2511       ?get@?$__crt_unique_handle_t@U__crt_hmodule_traits@@@@QBEPAUHINSTANCE__@@XZ 004b3511 f i libucrt:exit.obj
 0001:000b2514       ?get_address_of@?$__crt_unique_handle_t@U__crt_hmodule_traits@@@@QAEPAPAUHINSTANCE__@@XZ 004b3514 f i libucrt:exit.obj
 0001:000b2517       ?get_invalid_value@__crt_hmodule_traits@@SAPAUHINSTANCE__@@XZ 004b3517 f i libucrt:exit.obj
 0001:000b2614       __Exit                     004b3614 f   libucrt:exit.obj
 0001:000b262f       ___acrt_initialize_thread_local_exit_callback 004b362f f   libucrt:exit.obj
 0001:000b2641       __c_exit                   004b3641 f   libucrt:exit.obj
 0001:000b2653       __cexit                    004b3653 f   libucrt:exit.obj
 0001:000b2665       __exit                     004b3665 f   libucrt:exit.obj
 0001:000b2680       __is_c_termination_complete 004b3680 f   libucrt:exit.obj
 0001:000b2686       __register_thread_local_exe_atexit_callback 004b3686 f   libucrt:exit.obj
 0001:000b26cc       _exit                      004b36cc f   libucrt:exit.obj
 0001:000b26e7       _quick_exit                004b36e7 f   libucrt:exit.obj
 0001:000b2702       ??$__vcrt_va_start_verify_argument_type@QB_W@@YAXXZ 004b3702 f i libucrt:assert.obj
 0001:000b369f       ??$ftprintf@PAU_iobuf@@PBDABQBDABQBDABI@?$__crt_char_traits@D@@SAH$$QAPAU_iobuf@@$$QAPBDABQBD2ABI@Z 004b469f f i libucrt:assert.obj
 0001:000b36d1       ??$ftprintf@PAU_iobuf@@PB_WABQB_WABQB_WABI@?$__crt_char_traits@_W@@SAH$$QAPAU_iobuf@@$$QAPB_WABQB_W2ABI@Z 004b46d1 f i libucrt:assert.obj
 0001:000b3703       ??$get_module_file_name@AAPAUHINSTANCE__@@AAY0BAF@DK@?$__crt_char_traits@D@@SAKAAPAUHINSTANCE__@@AAY0BAF@D$$QAK@Z 004b4703 f i libucrt:assert.obj
 0001:000b3723       ??$get_module_file_name@AAPAUHINSTANCE__@@AAY0BAF@_WK@?$__crt_char_traits@_W@@SAKAAPAUHINSTANCE__@@AAY0BAF@_W$$QAK@Z 004b4723 f i libucrt:assert.obj
 0001:000b3743       ??$itot_s@ABIQAD$$CBIH@?$__crt_char_traits@D@@SAHABI$$QBQAD$$QBI$$QAH@Z 004b4743 f i libucrt:assert.obj
 0001:000b376e       ??$itot_s@ABIQA_W$$CBIH@?$__crt_char_traits@_W@@SAHABI$$QBQA_W$$QBI$$QAH@Z 004b476e f i libucrt:assert.obj
 0001:000b3799       ??$show_message_box@AAY0CEA@DPBDJ@?$__crt_char_traits@D@@SAHAAY0CEA@D$$QAPBD$$QAJ@Z 004b4799 f i libucrt:assert.obj
 0001:000b37bc       ??$show_message_box@AAY0CEA@_WPB_WJ@?$__crt_char_traits@_W@@SAHAAY0CEA@_W$$QAPB_W$$QAJ@Z 004b47bc f i libucrt:assert.obj
 0001:000b37df       ??$tcscat_s@ABQADABIAAPAD@?$__crt_char_traits@D@@SAHABQADABIAAPAD@Z 004b47df f i libucrt:assert.obj
 0001:000b3804       ??$tcscat_s@ABQADABIABQBD@?$__crt_char_traits@D@@SAHABQADABIABQBD@Z 004b4804 f i libucrt:assert.obj
 0001:000b3829       ??$tcscat_s@ABQADABIPBD@?$__crt_char_traits@D@@SAHABQADABI$$QAPBD@Z 004b4829 f i libucrt:assert.obj
 0001:000b384e       ??$tcscat_s@ABQA_WABIAAPA_W@?$__crt_char_traits@_W@@SAHABQA_WABIAAPA_W@Z 004b484e f i libucrt:assert.obj
 0001:000b3873       ??$tcscat_s@ABQA_WABIABQB_W@?$__crt_char_traits@_W@@SAHABQA_WABIABQB_W@Z 004b4873 f i libucrt:assert.obj
 0001:000b3898       ??$tcscat_s@ABQA_WABIPB_W@?$__crt_char_traits@_W@@SAHABQA_WABI$$QAPB_W@Z 004b4898 f i libucrt:assert.obj
 0001:000b38bd       ??$tcscpy_s@AAY0BAF@DIPBD@?$__crt_char_traits@D@@SAHAAY0BAF@D$$QAI$$QAPBD@Z 004b48bd f i libucrt:assert.obj
 0001:000b38e0       ??$tcscpy_s@AAY0BAF@_WIPB_W@?$__crt_char_traits@_W@@SAHAAY0BAF@_W$$QAI$$QAPB_W@Z 004b48e0 f i libucrt:assert.obj
 0001:000b3903       ??$tcscpy_s@ABQADABIPBD@?$__crt_char_traits@D@@SAHABQADABI$$QAPBD@Z 004b4903 f i libucrt:assert.obj
 0001:000b3928       ??$tcscpy_s@ABQA_WABIPB_W@?$__crt_char_traits@_W@@SAHABQA_WABI$$QAPB_W@Z 004b4928 f i libucrt:assert.obj
 0001:000b394d       ??$tcslen@AAY0BAF@D@?$__crt_char_traits@D@@SAIAAY0BAF@D@Z 004b494d f i libucrt:assert.obj
 0001:000b3968       ??$tcslen@AAY0BAF@_W@?$__crt_char_traits@_W@@SAIAAY0BAF@_W@Z 004b4968 f i libucrt:assert.obj
 0001:000b398b       ??$tcslen@ABQAD@?$__crt_char_traits@D@@SAIABQAD@Z 004b498b f i libucrt:assert.obj
 0001:000b39a9       ??$tcslen@ABQA_W@?$__crt_char_traits@_W@@SAIABQA_W@Z 004b49a9 f i libucrt:assert.obj
 0001:000b39ce       ??$tcsncat_s@ABQADABIAAPBD$$CBI@?$__crt_char_traits@D@@SAHABQADABIAAPBD$$QBI@Z 004b49ce f i libucrt:assert.obj
 0001:000b39f9       ??$tcsncat_s@ABQADABIABQBDABI@?$__crt_char_traits@D@@SAHABQADABIABQBD1@Z 004b49f9 f i libucrt:assert.obj
 0001:000b3a24       ??$tcsncat_s@ABQADABIPBD$$CBI@?$__crt_char_traits@D@@SAHABQADABI$$QAPBD$$QBI@Z 004b4a24 f i libucrt:assert.obj
 0001:000b3a4f       ??$tcsncat_s@ABQA_WABIAAPB_W$$CBI@?$__crt_char_traits@_W@@SAHABQA_WABIAAPB_W$$QBI@Z 004b4a4f f i libucrt:assert.obj
 0001:000b3a7a       ??$tcsncat_s@ABQA_WABIABQB_WABI@?$__crt_char_traits@_W@@SAHABQA_WABIABQB_W1@Z 004b4a7a f i libucrt:assert.obj
 0001:000b3aa5       ??$tcsncat_s@ABQA_WABIPB_W$$CBI@?$__crt_char_traits@_W@@SAHABQA_WABI$$QAPB_W$$QBI@Z 004b4aa5 f i libucrt:assert.obj
 0001:000b3c4a       __assert                   004b4c4a f   libucrt:assert.obj
 0001:000b3ca4       __vfwprintf_l              004b4ca4 f i libucrt:assert.obj
 0001:000b3cd2       __vswprintf_c_l            004b4cd2 f i libucrt:assert.obj
 0001:000b3d0c       __wassert                  004b4d0c f   libucrt:assert.obj
 0001:000b3d66       _fwprintf                  004b4d66 f i libucrt:assert.obj
 0001:000b3e28       _swprintf                  004b4e28 f i libucrt:assert.obj
 0001:000b4585       ?ctrl_z@__crt_stdio_stream@@QBE_NXZ 004b5585 f i libucrt:ftell.obj
 0001:000b4594       ?has_crt_buffer@__crt_stdio_stream@@QBE_NXZ 004b5594 f i libucrt:ftell.obj
 0001:000b45a3       ?has_setvbuf_buffer@__crt_stdio_stream@@QBE_NXZ 004b55a3 f i libucrt:ftell.obj
 0001:000b45b2       __ftell_nolock             004b55b2 f   libucrt:ftell.obj
 0001:000b45bf       __ftelli64                 004b55bf f   libucrt:ftell.obj
 0001:000b45cc       __ftelli64_nolock          004b55cc f   libucrt:ftell.obj
 0001:000b45d9       _ftell                     004b55d9 f   libucrt:ftell.obj
 0001:000b45e6       ?LongLongSub@@YAJ_J0PA_J@Z 004b55e6 f i libucrt:fseek.obj
 0001:000b494d       ?lowio_handle@__crt_stdio_stream@@QBEHXZ 004b594d f i libucrt:fseek.obj
 0001:000b4953       __fseek_nolock             004b5953 f   libucrt:fseek.obj
 0001:000b4974       __fseeki64                 004b5974 f   libucrt:fseek.obj
 0001:000b4995       __fseeki64_nolock          004b5995 f   libucrt:fseek.obj
 0001:000b49b6       _fseek                     004b59b6 f   libucrt:fseek.obj
 0001:000b49d7       _calloc                    004b59d7 f   libucrt:calloc.obj
 0001:000b49e4       _realloc                   004b59e4 f   libucrt:realloc.obj
 0001:000b49f1       _rename                    004b59f1 f   libucrt:rename.obj
 0001:000b4af0       _atan2                     004b5af0 f   libucrt:87ctriga.obj
 0001:000b4afa       __CIatan2                  004b5afa f   libucrt:87ctriga.obj
 0001:000b4b10       _cos                       004b5b10 f   libucrt:cos.obj
 0001:000b4b50       __CIcos                    004b5b50 f   libucrt:cos.obj
 0001:000b4b8b       __CIcos_default            004b5b8b f   libucrt:cos.obj
 0001:000b4b9f       __cos_default              004b5b9f     libucrt:cos.obj
 0001:000b4c7a       _fabs                      004b5c7a f   libucrt:fabs.obj
 0001:000b4d60       _sin                       004b5d60 f   libucrt:sin.obj
 0001:000b4da0       __CIsin                    004b5da0 f   libucrt:sin.obj
 0001:000b4ddb       __CIsin_default            004b5ddb f   libucrt:sin.obj
 0001:000b4def       __sin_default              004b5def     libucrt:sin.obj
 0001:000b4eca       _fmaxf                     004b5eca f   libucrt:fmaxf.obj
 0001:000b4f3d       _fminf                     004b5f3d f   libucrt:fminf.obj
 0001:000b4fb0       _roundf                    004b5fb0 f   libucrt:roundf.obj
 0001:000b5016       __abs64                    004b6016 f   libucrt:abs.obj
 0001:000b5036       _abs                       004b6036 f   libucrt:abs.obj
 0001:000b5663       ??$gmtime_s@ABQAUtm@@ABQBJ@?$__crt_integer_traits@J@@SAHABQAUtm@@ABQBJ@Z 004b6663 f i libucrt:localtime.obj
 0001:000b5681       ??$gmtime_s@ABQAUtm@@ABQB_J@?$__crt_integer_traits@_J@@SAHABQAUtm@@ABQB_J@Z 004b6681 f i libucrt:localtime.obj
 0001:000b569f       ??$gmtime_s@ABQAUtm@@PAJ@?$__crt_integer_traits@J@@SAHABQAUtm@@$$QAPAJ@Z 004b669f f i libucrt:localtime.obj
 0001:000b56bd       ??$gmtime_s@ABQAUtm@@PA_J@?$__crt_integer_traits@_J@@SAHABQAUtm@@$$QAPA_J@Z 004b66bd f i libucrt:localtime.obj
 0001:000b56db       ??$localtime_s@ABQAUtm@@ABQBJ@?$__crt_integer_traits@J@@SAHABQAUtm@@ABQBJ@Z 004b66db f i libucrt:localtime.obj
 0001:000b56fa       ??$localtime_s@ABQAUtm@@ABQB_J@?$__crt_integer_traits@_J@@SAHABQAUtm@@ABQB_J@Z 004b66fa f i libucrt:localtime.obj
 0001:000b5719       __localtime32              004b6719 f   libucrt:localtime.obj
 0001:000b5749       __localtime32_s            004b6749 f   libucrt:localtime.obj
 0001:000b5756       __localtime64              004b6756 f   libucrt:localtime.obj
 0001:000b5786       __localtime64_s            004b6786 f   libucrt:localtime.obj
 0001:000b5793       ?detach@?$__crt_unique_heap_ptr@DU__crt_internal_free_policy@@@@QAEPADXZ 004b6793 f i libucrt:strftime.obj
 0001:000b5799       __Getdays                  004b6799 f   libucrt:strftime.obj
 0001:000b57a4       __Getdays_l                004b67a4 f   libucrt:strftime.obj
 0001:000b58ee       __Getmonths                004b68ee f   libucrt:strftime.obj
 0001:000b58f9       __Getmonths_l              004b68f9 f   libucrt:strftime.obj
 0001:000b5a54       __Gettnames                004b6a54 f   libucrt:strftime.obj
 0001:000b5a59       __Strftime                 004b6a59 f   libucrt:strftime.obj
 0001:000b5a81       __Strftime_l               004b6a81 f   libucrt:strftime.obj
 0001:000b5bfb       __strftime_l               004b6bfb f   libucrt:strftime.obj
 0001:000b5c23       _strftime                  004b6c23 f   libucrt:strftime.obj
 0001:000b5e10       __time32                   004b6e10 f   libucrt:time.obj
 0001:000b5e4e       __time64                   004b6e4e f   libucrt:time.obj
 0001:000b5ea0       __timespec32_get           004b6ea0 f   libucrt:time.obj
 0001:000b5ead       __timespec64_get           004b6ead f   libucrt:time.obj
 0001:000b5eba       ??$?B$$A6AHI@Z@__crt_fast_encoded_nullptr_t@@QBEP6AHI@ZXZ 004b6eba f i libucrt:new_handler.obj
 0001:000b5ed8       ??$__crt_fast_decode_pointer@P6AHI@Z@@YAP6AHI@ZQ6AHI@Z@Z 004b6ed8 f i libucrt:new_handler.obj
 0001:000b5ef3       ??$__crt_fast_encode_pointer@P6AHI@Z@@YAP6AHI@ZQ6AHI@Z@Z 004b6ef3 f i libucrt:new_handler.obj
 0001:000b5f19       ?_set_new_handler@@YAP6AHI@ZH@Z 004b6f19 f   libucrt:new_handler.obj
 0001:000b5f3f       ?initialize@?$dual_state_global@P6AHI@Z@__crt_state_management@@QAEXQ6AHI@Z@Z 004b6f3f f i libucrt:new_handler.obj
 0001:000b5f7c       ?value@?$dual_state_global@P6AHI@Z@__crt_state_management@@QAEAAP6AHI@ZXZ 004b6f7c f i libucrt:new_handler.obj
 0001:000b5f7f       ___acrt_initialize_new_handler 004b6f7f f   libucrt:new_handler.obj
 0001:000b5f98       __callnewh                 004b6f98 f   libucrt:new_handler.obj
 0001:000b5fed       __query_new_handler        004b6fed f   libucrt:new_handler.obj
 0001:000b6053       __set_new_handler          004b7053 f   libucrt:new_handler.obj
 0001:000b60cb       __errcode                  004b70cb f   libucrt:fpexcept.obj
 0001:000b610c       __except1                  004b710c f   libucrt:fpexcept.obj
 0001:000b620d       __except2                  004b720d f   libucrt:fpexcept.obj
 0001:000b6356       __handle_exc               004b7356 f   libucrt:fpexcept.obj
 0001:000b65ae       __handle_qnan2             004b75ae f   libucrt:fpexcept.obj
 0001:000b65be       __raise_exc                004b75be f   libucrt:fpexcept.obj
 0001:000b65e9       __raise_exc_ex             004b75e9 f   libucrt:fpexcept.obj
 0001:000b6996       __raise_excf               004b7996 f   libucrt:fpexcept.obj
 0001:000b69c1       __set_errno_from_matherr   004b79c1 f   libucrt:fpexcept.obj
 0001:000b69fb       __umatherr                 004b79fb f   libucrt:fpexcept.obj
 0001:000b6af2       __seh_filter_dll           004b7af2 f   libucrt:exception_filter.obj
 0001:000b6b1a       __seh_filter_exe           004b7b1a f   libucrt:exception_filter.obj
 0001:000b6db0       ___acrt_report_runtime_error 004b7db0 f   libucrt:report_runtime_error.obj
 0001:000b6f16       __query_app_type           004b7f16 f   libucrt:report_runtime_error.obj
 0001:000b6f1c       __set_app_type             004b7f1c f   libucrt:report_runtime_error.obj
 0001:000b6f2e       ??$__crt_fast_decode_pointer@P6AHPAU_exception@@@Z@@YAP6AHPAU_exception@@@ZQ6AH0@Z@Z 004b7f2e f i libucrt:matherr.obj
 0001:000b6f49       ??$__crt_fast_encode_pointer@P6AHPAU_exception@@@Z@@YAP6AHPAU_exception@@@ZQ6AH0@Z@Z 004b7f49 f i libucrt:matherr.obj
 0001:000b6f6f       ?initialize@?$dual_state_global@P6AHPAU_exception@@@Z@__crt_state_management@@QAEXQ6AHPAU_exception@@@Z@Z 004b7f6f f i libucrt:matherr.obj
 0001:000b6fac       ?value@?$dual_state_global@P6AHPAU_exception@@@Z@__crt_state_management@@QAEAAP6AHPAU_exception@@@ZXZ 004b7fac f i libucrt:matherr.obj
 0001:000b6faf       ___acrt_has_user_matherr   004b7faf f   libucrt:matherr.obj
 0001:000b6fce       ___acrt_initialize_user_matherr 004b7fce f   libucrt:matherr.obj
 0001:000b6fe7       ___acrt_invoke_user_matherr 004b7fe7 f   libucrt:matherr.obj
 0001:000b7042       ___setusermatherr          004b8042 f   libucrt:matherr.obj
 0001:000b705c       ??$?RPAD@__crt_internal_free_policy@@QBEXQBQAD@Z 004b805c f i libucrt:argv_parsing.obj
 0001:000b7072       ??$?RPA_W@__crt_internal_free_policy@@QBEXQBQA_W@Z 004b8072 f i libucrt:argv_parsing.obj
 0001:000b735b       ??$get_module_file_name@$$TAAY0BAF@DH@?$__crt_char_traits@D@@SAK$$QA$$TAAY0BAF@D$$QAH@Z 004b835b f i libucrt:argv_parsing.obj
 0001:000b737b       ??$get_module_file_name@$$TAAY0BAF@_WH@?$__crt_char_traits@_W@@SAK$$QA$$TAAY0BAF@_W$$QAH@Z 004b837b f i libucrt:argv_parsing.obj
 0001:000b7754       ??$set_program_name@PAD@?$__crt_char_traits@D@@SAX$$QAPAD@Z 004b8754 f i libucrt:argv_parsing.obj
 0001:000b7769       ??$set_program_name@PA_W@?$__crt_char_traits@_W@@SAX$$QAPA_W@Z 004b8769 f i libucrt:argv_parsing.obj
 0001:000b77a6       ??0?$__crt_unique_heap_ptr@PADU__crt_internal_free_policy@@@@QAE@QAPAD@Z 004b87a6 f i libucrt:argv_parsing.obj
 0001:000b77ba       ??0?$__crt_unique_heap_ptr@PA_WU__crt_internal_free_policy@@@@QAE@QAPA_W@Z 004b87ba f i libucrt:argv_parsing.obj
 0001:000b77ce       ??1?$__crt_unique_heap_ptr@PADU__crt_internal_free_policy@@@@QAE@XZ 004b87ce f i libucrt:argv_parsing.obj
 0001:000b77e4       ??1?$__crt_unique_heap_ptr@PA_WU__crt_internal_free_policy@@@@QAE@XZ 004b87e4 f i libucrt:argv_parsing.obj
 0001:000b7830       ?detach@?$__crt_unique_heap_ptr@EU__crt_internal_free_policy@@@@QAEPAEXZ 004b8830 f i libucrt:argv_parsing.obj
 0001:000b7836       ?detach@?$__crt_unique_heap_ptr@PADU__crt_internal_free_policy@@@@QAEPAPADXZ 004b8836 f i libucrt:argv_parsing.obj
 0001:000b783c       ?detach@?$__crt_unique_heap_ptr@PA_WU__crt_internal_free_policy@@@@QAEPAPA_WXZ 004b883c f i libucrt:argv_parsing.obj
 0001:000b7862       ?get@?$__crt_unique_heap_ptr@PADU__crt_internal_free_policy@@@@QBEPAPADXZ 004b8862 f i libucrt:argv_parsing.obj
 0001:000b7865       ?get@?$__crt_unique_heap_ptr@PA_WU__crt_internal_free_policy@@@@QBEPAPA_WXZ 004b8865 f i libucrt:argv_parsing.obj
 0001:000b7868       ?get_address_of@?$__crt_unique_heap_ptr@PADU__crt_internal_free_policy@@@@QAEPAPAPADXZ 004b8868 f i libucrt:argv_parsing.obj
 0001:000b786b       ?get_address_of@?$__crt_unique_heap_ptr@PA_WU__crt_internal_free_policy@@@@QAEPAPAPA_WXZ 004b886b f i libucrt:argv_parsing.obj
 0001:000b7886       ?release@?$__crt_unique_heap_ptr@PADU__crt_internal_free_policy@@@@QAEXXZ 004b8886 f i libucrt:argv_parsing.obj
 0001:000b789c       ?release@?$__crt_unique_heap_ptr@PA_WU__crt_internal_free_policy@@@@QAEXXZ 004b889c f i libucrt:argv_parsing.obj
 0001:000b78d3       ___acrt_allocate_buffer_for_argv 004b88d3 f   libucrt:argv_parsing.obj
 0001:000b793d       __configure_narrow_argv    004b893d f   libucrt:argv_parsing.obj
 0001:000b794a       __configure_wide_argv      004b894a f   libucrt:argv_parsing.obj
 0001:000b7957       __set_pgmptr               004b8957 f i libucrt:argv_parsing.obj
 0001:000b7969       __set_wpgmptr              004b8969 f i libucrt:argv_parsing.obj
 0001:000b7e43       ??$get_environment_from_os@$$$V@?$__crt_char_traits@D@@SAPADXZ 004b8e43 f i libucrt:environment_initialization.obj
 0001:000b7e48       ??$get_environment_from_os@$$$V@?$__crt_char_traits@_W@@SAPA_WXZ 004b8e48 f i libucrt:environment_initialization.obj
 0001:000b7f82       ??$set_variable_in_environment_nolock@PADH@?$__crt_char_traits@D@@SAH$$QAPAD$$QAH@Z 004b8f82 f i libucrt:environment_initialization.obj
 0001:000b7fa0       ??$set_variable_in_environment_nolock@PA_WH@?$__crt_char_traits@_W@@SAH$$QAPA_W$$QAH@Z 004b8fa0 f i libucrt:environment_initialization.obj
 0001:000b7fbe       ??$tcscpy_s@PADABIAAPAD@?$__crt_char_traits@D@@SAH$$QAPADABIAAPAD@Z 004b8fbe f i libucrt:environment_initialization.obj
 0001:000b7fe3       ??$tcscpy_s@PA_WABIAAPA_W@?$__crt_char_traits@_W@@SAH$$QAPA_WABIAAPA_W@Z 004b8fe3 f i libucrt:environment_initialization.obj
 0001:000b8008       ??$tcslen@AAPAD@?$__crt_char_traits@D@@SAIAAPAD@Z 004b9008 f i libucrt:environment_initialization.obj
 0001:000b8026       ??$tcslen@AAPA_W@?$__crt_char_traits@_W@@SAIAAPA_W@Z 004b9026 f i libucrt:environment_initialization.obj
 0001:000b804b       ??$uninitialize@A6AXAAPAPAD@Z@?$dual_state_global@PAPAD@__crt_state_management@@QAEXA6AXAAPAPAD@Z@Z 004b904b f i libucrt:environment_initialization.obj
 0001:000b809b       ??$uninitialize@A6AXAAPAPA_W@Z@?$dual_state_global@PAPA_W@__crt_state_management@@QAEXA6AXAAPAPA_W@Z@Z 004b909b f i libucrt:environment_initialization.obj
 0001:000b812d       ??B?$__crt_unique_heap_ptr@PADU__crt_internal_free_policy@@@@QBE_NXZ 004b912d f i libucrt:environment_initialization.obj
 0001:000b8137       ??B?$__crt_unique_heap_ptr@PA_WU__crt_internal_free_policy@@@@QBE_NXZ 004b9137 f i libucrt:environment_initialization.obj
 0001:000b8141       ??B?$__crt_unique_heap_ptr@_WU__crt_internal_free_policy@@@@QBE_NXZ 004b9141 f i libucrt:environment_initialization.obj
 0001:000b814b       ?__crt_compute_required_transform_buffer_count@@YAIIQBD@Z 004b914b f i libucrt:environment_initialization.obj
 0001:000b816b       ?__crt_compute_required_transform_buffer_count@@YAIIQB_W@Z 004b916b f i libucrt:environment_initialization.obj
 0001:000b818e       ?__crt_transform_string@@YAIIQBDQA_WI@Z 004b918e f i libucrt:environment_initialization.obj
 0001:000b81b2       ?__crt_transform_string@@YAIIQB_WQADI@Z 004b91b2 f i libucrt:environment_initialization.obj
 0001:000b81da       ?detach@?$__crt_unique_heap_ptr@_WU__crt_internal_free_policy@@@@QAEPA_WXZ 004b91da f i libucrt:environment_initialization.obj
 0001:000b8204       ?initialize@?$dual_state_global@PAPAD@__crt_state_management@@QAEXQAPAD@Z 004b9204 f i libucrt:environment_initialization.obj
 0001:000b8241       ?initialize@?$dual_state_global@PAPA_W@__crt_state_management@@QAEXQAPA_W@Z 004b9241 f i libucrt:environment_initialization.obj
 0001:000b827e       ?is_valid@?$__crt_unique_heap_ptr@PADU__crt_internal_free_policy@@@@QBE_NXZ 004b927e f i libucrt:environment_initialization.obj
 0001:000b8288       ?is_valid@?$__crt_unique_heap_ptr@PA_WU__crt_internal_free_policy@@@@QBE_NXZ 004b9288 f i libucrt:environment_initialization.obj
 0001:000b8292       ?is_valid@?$__crt_unique_heap_ptr@_WU__crt_internal_free_policy@@@@QBE_NXZ 004b9292 f i libucrt:environment_initialization.obj
 0001:000b82a2       ?value@?$dual_state_global@PAPAD@__crt_state_management@@QAEAAPAPADXZ 004b92a2 f i libucrt:environment_initialization.obj
 0001:000b82a5       ?value@?$dual_state_global@PAPA_W@__crt_state_management@@QAEAAPAPA_WXZ 004b92a5 f i libucrt:environment_initialization.obj
 0001:000b82a8       ___dcrt_get_or_create_narrow_environment_nolock 004b92a8 f   libucrt:environment_initialization.obj
 0001:000b82ad       ___dcrt_get_or_create_wide_environment_nolock 004b92ad f   libucrt:environment_initialization.obj
 0001:000b82b2       ___dcrt_uninitialize_environments_nolock 004b92b2 f   libucrt:environment_initialization.obj
 0001:000b82f6       ___p__environ              004b92f6 f   libucrt:environment_initialization.obj
 0001:000b82fc       ___p__wenviron             004b92fc f   libucrt:environment_initialization.obj
 0001:000b8302       __get_initial_narrow_environment 004b9302 f   libucrt:environment_initialization.obj
 0001:000b831b       __get_initial_wide_environment 004b931b f   libucrt:environment_initialization.obj
 0001:000b8334       __initialize_narrow_environment 004b9334 f   libucrt:environment_initialization.obj
 0001:000b8339       __initialize_wide_environment 004b9339 f   libucrt:environment_initialization.obj
 0001:000b842f       __get_narrow_winmain_command_line 004b942f f   libucrt:argv_winmain.obj
 0001:000b8496       __get_wide_winmain_command_line 004b9496 f   libucrt:argv_winmain.obj
 0001:000b84ed       __initterm                 004b94ed f   libucrt:initterm.obj
 0001:000b8560       __initterm_e               004b9560 f   libucrt:initterm.obj
 0001:000b85b6       ??$__crt_interlocked_read@H@@YAHPDH@Z 004b95b6 f i libucrt:setmode.obj
 0001:000b85c5       __get_fmode                004b95c5 f   libucrt:setmode.obj
 0001:000b85fc       __set_fmode                004b95fc f   libucrt:setmode.obj
 0001:000b8648       __setmode                  004b9648 f   libucrt:setmode.obj
 0001:000b8799       __setmode_nolock           004b9799 f   libucrt:setmode.obj
 0001:000b88a1       ??$?RU__crt_locale_data@@@__crt_internal_free_policy@@QBEXQBU__crt_locale_data@@@Z 004b98a1 f i libucrt:wsetlocale.obj
 0001:000b88b7       ??$?RU__crt_locale_pointers@@@__crt_internal_free_policy@@QBEXQBU__crt_locale_pointers@@@Z 004b98b7 f i libucrt:wsetlocale.obj
 0001:000b88cd       ??$?RU__crt_multibyte_data@@@__crt_internal_free_policy@@QBEXQBU__crt_multibyte_data@@@Z 004b98cd f i libucrt:wsetlocale.obj
 0001:000b88e3       ??$?RV<lambda_70818de7b02deff9841e8b0962a60ed9>@@AAV<lambda_2af78c5f5901b1372d98f9ab3177dfa6>@@AAV<lambda_f51fe5fd7c79a33db34fc9310f277369>@@@?$__crt_seh_guarded_call@X@@QAEX$$QAV<lambda_70818de7b02deff9841e8b0962a60ed9>@@AAV<lambda_2af78c5f5901b1372d98f9ab3177dfa6>@@AAV<lambda_f51fe5fd7c79a33db34fc9310f277369>@@@Z 004b98e3 f i libucrt:wsetlocale.obj
 0001:000b892c       ??$?RV<lambda_76aaead6e312921abc834cb00a638bdd>@@AAV<lambda_176e34f99554166dd2fac165c457248c>@@V<lambda_998ee1c9f4290b119b936bcd6215875a>@@@?$__crt_seh_guarded_call@X@@QAEX$$QAV<lambda_76aaead6e312921abc834cb00a638bdd>@@AAV<lambda_176e34f99554166dd2fac165c457248c>@@$$QAV<lambda_998ee1c9f4290b119b936bcd6215875a>@@@Z 004b992c f i libucrt:wsetlocale.obj
 0001:000b8988       ??$?RV<lambda_c76fdea48760d5f9368b465f31df4405>@@AAV<lambda_e378711a6f6581bf7f0efd7cdf97f5d9>@@V<lambda_e927a58b2a85c081d733e8c6192ae2d2>@@@?$__crt_seh_guarded_call@X@@QAEX$$QAV<lambda_c76fdea48760d5f9368b465f31df4405>@@AAV<lambda_e378711a6f6581bf7f0efd7cdf97f5d9>@@$$QAV<lambda_e927a58b2a85c081d733e8c6192ae2d2>@@@Z 004b9988 f i libucrt:wsetlocale.obj
 0001:000b89db       ??$?RV<lambda_c9469061b39d205f0f236529d4a41659>@@AAV<lambda_b7fb1a997d3ebc0cc0186c5835178808>@@V<lambda_14b92c79d699846b5cc916cd4cf280e4>@@@?$__crt_seh_guarded_call@X@@QAEX$$QAV<lambda_c9469061b39d205f0f236529d4a41659>@@AAV<lambda_b7fb1a997d3ebc0cc0186c5835178808>@@$$QAV<lambda_14b92c79d699846b5cc916cd4cf280e4>@@@Z 004b99db f i libucrt:wsetlocale.obj
 0001:000b8a35       ??$__acrt_lock_and_call@V<lambda_176e34f99554166dd2fac165c457248c>@@@@YAXW4__acrt_lock_id@@$$QAV<lambda_176e34f99554166dd2fac165c457248c>@@@Z 004b9a35 f i libucrt:wsetlocale.obj
 0001:000b8a67       ??$__acrt_lock_and_call@V<lambda_b7fb1a997d3ebc0cc0186c5835178808>@@@@YAXW4__acrt_lock_id@@$$QAV<lambda_b7fb1a997d3ebc0cc0186c5835178808>@@@Z 004b9a67 f i libucrt:wsetlocale.obj
 0001:000b8a99       ??$__acrt_lock_and_call@V<lambda_e378711a6f6581bf7f0efd7cdf97f5d9>@@@@YAXW4__acrt_lock_id@@$$QAV<lambda_e378711a6f6581bf7f0efd7cdf97f5d9>@@@Z 004b9a99 f i libucrt:wsetlocale.obj
 0001:000b8acb       ??$__crt_call_and_cleanup@V<lambda_2af78c5f5901b1372d98f9ab3177dfa6>@@V<lambda_f51fe5fd7c79a33db34fc9310f277369>@@@@YAX$$QAV<lambda_2af78c5f5901b1372d98f9ab3177dfa6>@@$$QAV<lambda_f51fe5fd7c79a33db34fc9310f277369>@@@Z 004b9acb f i libucrt:wsetlocale.obj
 0001:000b8aee       ??$__vcrt_va_start_verify_argument_type@H@@YAXXZ 004b9aee f i libucrt:wsetlocale.obj
 0001:000b8c13       ??0?$__crt_unique_heap_ptr@U__crt_locale_data@@U__crt_internal_free_policy@@@@QAE@QAU__crt_locale_data@@@Z 004b9c13 f i libucrt:wsetlocale.obj
 0001:000b8c27       ??0?$__crt_unique_heap_ptr@U__crt_locale_pointers@@U__crt_internal_free_policy@@@@QAE@QAU__crt_locale_pointers@@@Z 004b9c27 f i libucrt:wsetlocale.obj
 0001:000b8c3b       ??0?$__crt_unique_heap_ptr@U__crt_multibyte_data@@U__crt_internal_free_policy@@@@QAE@QAU__crt_multibyte_data@@@Z 004b9c3b f i libucrt:wsetlocale.obj
 0001:000b8c4f       ??1?$__crt_unique_heap_ptr@U__crt_locale_data@@U__crt_internal_free_policy@@@@QAE@XZ 004b9c4f f i libucrt:wsetlocale.obj
 0001:000b8c65       ??1?$__crt_unique_heap_ptr@U__crt_locale_pointers@@U__crt_internal_free_policy@@@@QAE@XZ 004b9c65 f i libucrt:wsetlocale.obj
 0001:000b8c7b       ??1?$__crt_unique_heap_ptr@U__crt_multibyte_data@@U__crt_internal_free_policy@@@@QAE@XZ 004b9c7b f i libucrt:wsetlocale.obj
 0001:000b8c91       ??B?$__crt_unique_heap_ptr@U__crt_locale_data@@U__crt_internal_free_policy@@@@QBE_NXZ 004b9c91 f i libucrt:wsetlocale.obj
 0001:000b8c9b       ??B?$__crt_unique_heap_ptr@U__crt_locale_pointers@@U__crt_internal_free_policy@@@@QBE_NXZ 004b9c9b f i libucrt:wsetlocale.obj
 0001:000b8ca5       ??B?$__crt_unique_heap_ptr@U__crt_multibyte_data@@U__crt_internal_free_policy@@@@QBE_NXZ 004b9ca5 f i libucrt:wsetlocale.obj
 0001:000b8ece       ?detach@?$__crt_unique_heap_ptr@U__crt_locale_data@@U__crt_internal_free_policy@@@@QAEPAU__crt_locale_data@@XZ 004b9ece f i libucrt:wsetlocale.obj
 0001:000b8ed4       ?detach@?$__crt_unique_heap_ptr@U__crt_locale_pointers@@U__crt_internal_free_policy@@@@QAEPAU__crt_locale_pointers@@XZ 004b9ed4 f i libucrt:wsetlocale.obj
 0001:000b8eda       ?detach@?$__crt_unique_heap_ptr@U__crt_multibyte_data@@U__crt_internal_free_policy@@@@QAEPAU__crt_multibyte_data@@XZ 004b9eda f i libucrt:wsetlocale.obj
 0001:000b8ee0       ?get@?$__crt_unique_heap_ptr@U__crt_locale_data@@U__crt_internal_free_policy@@@@QBEPAU__crt_locale_data@@XZ 004b9ee0 f i libucrt:wsetlocale.obj
 0001:000b8ee3       ?get@?$__crt_unique_heap_ptr@U__crt_locale_pointers@@U__crt_internal_free_policy@@@@QBEPAU__crt_locale_pointers@@XZ 004b9ee3 f i libucrt:wsetlocale.obj
 0001:000b8ee6       ?get@?$__crt_unique_heap_ptr@U__crt_multibyte_data@@U__crt_internal_free_policy@@@@QBEPAU__crt_multibyte_data@@XZ 004b9ee6 f i libucrt:wsetlocale.obj
 0001:000b8ee9       ?is_valid@?$__crt_unique_heap_ptr@U__crt_locale_data@@U__crt_internal_free_policy@@@@QBE_NXZ 004b9ee9 f i libucrt:wsetlocale.obj
 0001:000b8ef3       ?is_valid@?$__crt_unique_heap_ptr@U__crt_locale_pointers@@U__crt_internal_free_policy@@@@QBE_NXZ 004b9ef3 f i libucrt:wsetlocale.obj
 0001:000b8efd       ?is_valid@?$__crt_unique_heap_ptr@U__crt_multibyte_data@@U__crt_internal_free_policy@@@@QBE_NXZ 004b9efd f i libucrt:wsetlocale.obj
 0001:000b8f07       ?release@?$__crt_unique_heap_ptr@U__crt_locale_data@@U__crt_internal_free_policy@@@@QAEXXZ 004b9f07 f i libucrt:wsetlocale.obj
 0001:000b8f1d       ?release@?$__crt_unique_heap_ptr@U__crt_locale_pointers@@U__crt_internal_free_policy@@@@QAEXXZ 004b9f1d f i libucrt:wsetlocale.obj
 0001:000b8f33       ?release@?$__crt_unique_heap_ptr@U__crt_multibyte_data@@U__crt_internal_free_policy@@@@QAEXXZ 004b9f33 f i libucrt:wsetlocale.obj
 0001:000b8f49       ?value@?$dual_state_global@PAU__crt_locale_data@@@__crt_state_management@@QAEAAPAU__crt_locale_data@@XZ 004b9f49 f i libucrt:wsetlocale.obj
 0001:000b8f4c       ___acrt_copy_locale_name   004b9f4c f   libucrt:wsetlocale.obj
 0001:000b8fcb       ___acrt_set_locale_changed 004b9fcb f   libucrt:wsetlocale.obj
 0001:000b8fd8       ___acrt_uninitialize_locale 004b9fd8 f   libucrt:wsetlocale.obj
 0001:000b903e       ___lc_lctowcs              004ba03e f   libucrt:wsetlocale.obj
 0001:000b90ca       ___lc_wcstolc              004ba0ca f   libucrt:wsetlocale.obj
 0001:000b9244       __configthreadlocale       004ba244 f   libucrt:wsetlocale.obj
 0001:000b92f8       __create_locale            004ba2f8 f   libucrt:wsetlocale.obj
 0001:000b9375       __expandlocale             004ba375 f   libucrt:wsetlocale.obj
 0001:000b97c9       __free_locale              004ba7c9 f   libucrt:wsetlocale.obj
 0001:000b98af       __get_current_locale       004ba8af f   libucrt:wsetlocale.obj
 0001:000b9948       __wcreate_locale           004ba948 f   libucrt:wsetlocale.obj
 0001:000b9a93       __wcscats                  004baa93 f   libucrt:wsetlocale.obj
 0001:000b9ae4       __wsetlocale               004baae4 f   libucrt:wsetlocale.obj
 0001:000ba60a       ?value@?$dual_state_global@J@__crt_state_management@@QAEAAJXZ 004bb60a f i libucrt:new_mode.obj
 0001:000ba60d       __query_new_mode           004bb60d f   libucrt:new_mode.obj
 0001:000ba613       __set_new_mode             004bb613 f   libucrt:new_mode.obj
 0001:000ba64d       ___p__commode              004bb64d f   libucrt:ncommode.obj
 0001:000ba653       ??$?BP6AXXZ@__crt_fast_encoded_nullptr_t@@QBEPAP6AXXZXZ 004bb653 f i libucrt:onexit.obj
 0001:000ba671       ??$?RP6AXXZ@__crt_internal_free_policy@@QBEXQBQ6AXXZ@Z 004bb671 f i libucrt:onexit.obj
 0001:000ba687       ??$?RV<lambda_800076c951b434888f4765a74a194fcc>@@AAV<lambda_4e60a939b0d047cfe11ddc22648dfba9>@@V<lambda_6dbb1268764f43b569ce7b67e331d33a>@@@?$__crt_seh_guarded_call@H@@QAEH$$QAV<lambda_800076c951b434888f4765a74a194fcc>@@AAV<lambda_4e60a939b0d047cfe11ddc22648dfba9>@@$$QAV<lambda_6dbb1268764f43b569ce7b67e331d33a>@@@Z 004bb687 f i libucrt:onexit.obj
 0001:000ba6ec       ??$?RV<lambda_995298e7d72eb4c2aab26c0585b3abe5>@@AAV<lambda_275893d493268fdec8709772e3fcec0e>@@V<lambda_293819299cbf9a7022e18b56a874bb5c>@@@?$__crt_seh_guarded_call@H@@QAEH$$QAV<lambda_995298e7d72eb4c2aab26c0585b3abe5>@@AAV<lambda_275893d493268fdec8709772e3fcec0e>@@$$QAV<lambda_293819299cbf9a7022e18b56a874bb5c>@@@Z 004bb6ec f i libucrt:onexit.obj
 0001:000ba751       ??$__acrt_lock_and_call@V<lambda_275893d493268fdec8709772e3fcec0e>@@@@YAHW4__acrt_lock_id@@$$QAV<lambda_275893d493268fdec8709772e3fcec0e>@@@Z 004bb751 f i libucrt:onexit.obj
 0001:000ba783       ??$__acrt_lock_and_call@V<lambda_4e60a939b0d047cfe11ddc22648dfba9>@@@@YAHW4__acrt_lock_id@@$$QAV<lambda_4e60a939b0d047cfe11ddc22648dfba9>@@@Z 004bb783 f i libucrt:onexit.obj
 0001:000ba7b5       ??$__crt_fast_encode_pointer@P6AHXZ@@YAP6AHXZQ6AHXZ@Z 004bb7b5 f i libucrt:onexit.obj
 0001:000ba862       ??0?$__crt_unique_heap_ptr@P6AXXZU__crt_internal_free_policy@@@@QAE@QAP6AXXZ@Z 004bb862 f i libucrt:onexit.obj
 0001:000ba876       ??1?$__crt_unique_heap_ptr@P6AXXZU__crt_internal_free_policy@@@@QAE@XZ 004bb876 f i libucrt:onexit.obj
 0001:000babb1       ?detach@?$__crt_unique_heap_ptr@P6AXXZU__crt_internal_free_policy@@@@QAEPAP6AXXZXZ 004bbbb1 f i libucrt:onexit.obj
 0001:000babb7       ?release@?$__crt_unique_heap_ptr@P6AXXZU__crt_internal_free_policy@@@@QAEXXZ 004bbbb7 f i libucrt:onexit.obj
 0001:000babcd       __crt_at_quick_exit        004bbbcd f   libucrt:onexit.obj
 0001:000babe8       __crt_atexit               004bbbe8 f   libucrt:onexit.obj
 0001:000bac03       __execute_onexit_table     004bbc03 f   libucrt:onexit.obj
 0001:000bac27       __initialize_onexit_table  004bbc27 f   libucrt:onexit.obj
 0001:000bac73       __register_onexit_function 004bbc73 f   libucrt:onexit.obj
 0001:000badda       ?initialize@?$dual_state_global@PAU__crt_locale_data@@@__crt_state_management@@QAEXQAU__crt_locale_data@@@Z 004bbdda f i libucrt:initialization.obj
 0001:000bae17       ___acrt_initialize         004bbe17 f   libucrt:initialization.obj
 0001:000bae2d       ___acrt_thread_attach      004bbe2d f   libucrt:initialization.obj
 0001:000bae3a       ___acrt_thread_detach      004bbe3a f   libucrt:initialization.obj
 0001:000bae44       ___acrt_uninitialize       004bbe44 f   libucrt:initialization.obj
 0001:000bae5a       ___acrt_uninitialize_critical 004bbe5a f   libucrt:initialization.obj
 0001:000bae70       __controlfp_s              004bbe70 f   libucrt:contrlfp.obj
 0001:000baf01       __get_terminate            004bbf01 f   libucrt:terminate.obj
 0001:000baf17       _set_terminate             004bbf17 f   libucrt:terminate.obj
 0001:000baf3f       _terminate                 004bbf3f f   libucrt:terminate.obj
 0001:000baf8a       ___ascii_stricmp           004bbf8a f   libucrt:stricmp.obj
 0001:000bafd3       __stricmp                  004bbfd3 f   libucrt:stricmp.obj
 0001:000bafd3       _stricmp                   004bbfd3 f   libucrt:stricmp.obj
 0001:000bb02d       __stricmp_l                004bc02d f   libucrt:stricmp.obj
 0001:000bb0ed       __strnicmp                 004bc0ed f   libucrt:strnicmp.obj
 0001:000bb0ed       _strnicmp                  004bc0ed f   libucrt:strnicmp.obj
 0001:000bb174       __strnicmp_l               004bc174 f   libucrt:strnicmp.obj
 0001:000bb258       ??$?RV<lambda_123407a5e2ac06da108355a851863b7a>@@AAV<lambda_2fe9b910cf3cbf4a0ab98a02ba45b3ec>@@V<lambda_ae55bdf541ad94d75914d381c370e64d>@@@?$__crt_seh_guarded_call@H@@QAEH$$QAV<lambda_123407a5e2ac06da108355a851863b7a>@@AAV<lambda_2fe9b910cf3cbf4a0ab98a02ba45b3ec>@@$$QAV<lambda_ae55bdf541ad94d75914d381c370e64d>@@@Z 004bc258 f i libucrt:close.obj
 0001:000bb2fa       ??$__acrt_lowio_lock_fh_and_call@V<lambda_2fe9b910cf3cbf4a0ab98a02ba45b3ec>@@@@YAHH$$QAV<lambda_2fe9b910cf3cbf4a0ab98a02ba45b3ec>@@@Z 004bc2fa f i libucrt:close.obj
 0001:000bb44d       _close                     004bc44d f   libucrt:close.obj
 0001:000bb44d       __close                    004bc44d f   libucrt:close.obj
 0001:000bb4eb       __close_nolock             004bc4eb f   libucrt:close.obj
 0001:000bb5ae       ??$__vcrt_va_start_verify_argument_type@$$CBH@@YAXXZ 004bc5ae f i libucrt:open.obj
 0001:000bb965       ??$tsopen_nolock@PAHABQAHABQBDABHABHABHABH@?$__crt_char_traits@D@@SAH$$QAPAHABQAHABQBDABH333@Z 004bc965 f i libucrt:open.obj
 0001:000bb9a3       ??$tsopen_nolock@PAHABQAHABQB_WABHABHABHABH@?$__crt_char_traits@_W@@SAH$$QAPAHABQAHABQB_WABH333@Z 004bc9a3 f i libucrt:open.obj
 0001:000bb9e1       ??$tsopen_nolock@PAHPAHABQBDABHHABHH@?$__crt_char_traits@D@@SAH$$QAPAH0ABQBDABH$$QAH23@Z 004bc9e1 f i libucrt:open.obj
 0001:000bba1f       ??$tsopen_nolock@PAHPAHABQB_WABHHABHH@?$__crt_char_traits@_W@@SAH$$QAPAH0ABQB_WABH$$QAH23@Z 004bca1f f i libucrt:open.obj
 0001:000bc1ed       _open                      004bd1ed f   libucrt:open.obj
 0001:000bc1ed       __open                     004bd1ed f   libucrt:open.obj
 0001:000bc20b       __sopen                    004bd20b f   libucrt:open.obj
 0001:000bc24d       __sopen_dispatch           004bd24d f   libucrt:open.obj
 0001:000bc25a       __sopen_nolock             004bd25a f   libucrt:open.obj
 0001:000bc2bf       __sopen_s                  004bd2bf f   libucrt:open.obj
 0001:000bc2e7       __wopen                    004bd2e7 f   libucrt:open.obj
 0001:000bc305       __wsopen                   004bd305 f   libucrt:open.obj
 0001:000bc347       __wsopen_dispatch          004bd347 f   libucrt:open.obj
 0001:000bc354       __wsopen_nolock            004bd354 f   libucrt:open.obj
 0001:000bc747       __wsopen_s                 004bd747 f   libucrt:open.obj
 0001:000bce07       _read                      004bde07 f   libucrt:read.obj
 0001:000bce07       __read                     004bde07 f   libucrt:read.obj
 0001:000bcf5e       __read_nolock              004bdf5e f   libucrt:read.obj
 0001:000bd400       __access                   004be400 f   libucrt:access.obj
 0001:000bd400       _access                    004be400 f   libucrt:access.obj
 0001:000bd41e       __access_s                 004be41e f   libucrt:access.obj
 0001:000bd488       _unlink                    004be488 f   libucrt:unlink.obj
 0001:000bd488       __unlink                   004be488 f   libucrt:unlink.obj
 0001:000bd495       _remove                    004be495 f   libucrt:unlink.obj
 0001:000bdc47       __write                    004bec47 f   libucrt:write.obj
 0001:000bdc47       _write                     004bec47 f   libucrt:write.obj
 0001:000bdd6c       __write_nolock             004bed6c f   libucrt:write.obj
 0001:000be06b       _strcpy_s                  004bf06b f   libucrt:strcpy_s.obj
 0001:000be0db       ??$__crt_interlocked_exchange_pointer@X$$T@@YAPAXPDSAX$$T@Z 004bf0db f i libucrt:free_base.obj
 0001:000be0f3       ___acrt_get_msvcrt_heap_handle 004bf0f3 f   libucrt:free_base.obj
 0001:000be184       __free_base                004bf184 f   libucrt:free_base.obj
 0001:000be1cc       __malloc_base              004bf1cc f   libucrt:malloc_base.obj
 0001:000be22d       __set_abort_behavior       004bf22d f   libucrt:abort.obj
 0001:000be256       _abort                     004bf256 f   libucrt:abort.obj
 0001:000be2a9       __calloc_base              004bf2a9 f   libucrt:calloc_base.obj
 0001:000be338       ___isascii                 004bf338 f i libucrt:_ctype.obj
 0001:000be34e       ___iscsym                  004bf34e f i libucrt:_ctype.obj
 0001:000be378       ___iscsymf                 004bf378 f i libucrt:_ctype.obj
 0001:000be39e       ___toascii                 004bf39e f i libucrt:_ctype.obj
 0001:000be3ae       __isalnum_l                004bf3ae f i libucrt:_ctype.obj
 0001:000be3f7       __isalpha_l                004bf3f7 f i libucrt:_ctype.obj
 0001:000be440       __isblank_l                004bf440 f i libucrt:_ctype.obj
 0001:000be493       __iscntrl_l                004bf493 f i libucrt:_ctype.obj
 0001:000be4d9       __iscsym_l                 004bf4d9 f i libucrt:_ctype.obj
 0001:000be504       __iscsymf_l                004bf504 f i libucrt:_ctype.obj
 0001:000be52f       __isdigit_l                004bf52f f i libucrt:_ctype.obj
 0001:000be575       __isgraph_l                004bf575 f i libucrt:_ctype.obj
 0001:000be5be       __islower_l                004bf5be f i libucrt:_ctype.obj
 0001:000be604       __isprint_l                004bf604 f i libucrt:_ctype.obj
 0001:000be64d       __ispunct_l                004bf64d f i libucrt:_ctype.obj
 0001:000be693       __isspace_l                004bf693 f i libucrt:_ctype.obj
 0001:000be6d9       __isupper_l                004bf6d9 f i libucrt:_ctype.obj
 0001:000be71f       __isxdigit_l               004bf71f f i libucrt:_ctype.obj
 0001:000be768       _isalnum                   004bf768 f i libucrt:_ctype.obj
 0001:000be7a2       _isalpha                   004bf7a2 f i libucrt:_ctype.obj
 0001:000be7dc       _isblank                   004bf7dc f i libucrt:_ctype.obj
 0001:000be820       _iscntrl                   004bf820 f i libucrt:_ctype.obj
 0001:000be858       _isdigit                   004bf858 f i libucrt:_ctype.obj
 0001:000be890       _isgraph                   004bf890 f i libucrt:_ctype.obj
 0001:000be8ca       _islower                   004bf8ca f i libucrt:_ctype.obj
 0001:000be902       _isprint                   004bf902 f i libucrt:_ctype.obj
 0001:000be93c       _ispunct                   004bf93c f i libucrt:_ctype.obj
 0001:000be974       _isspace                   004bf974 f i libucrt:_ctype.obj
 0001:000be9ac       _isupper                   004bf9ac f i libucrt:_ctype.obj
 0001:000be9e4       _isxdigit                  004bf9e4 f i libucrt:_ctype.obj
 0001:000bea1e       ___acrt_errno_from_os_error 004bfa1e f   libucrt:errno.obj
 0001:000bea71       ___acrt_errno_map_os_error 004bfa71 f   libucrt:errno.obj
 0001:000bea9c       ___doserrno                004bfa9c f   libucrt:errno.obj
 0001:000beab3       __errno                    004bfab3 f   libucrt:errno.obj
 0001:000beaca       __get_doserrno             004bfaca f   libucrt:errno.obj
 0001:000beaf8       __get_errno                004bfaf8 f   libucrt:errno.obj
 0001:000beb26       __set_doserrno             004bfb26 f   libucrt:errno.obj
 0001:000beb4f       __set_errno                004bfb4f f   libucrt:errno.obj
 0001:000beb78       __mbtowc_l                 004bfb78 f   libucrt:mbtowc.obj
 0001:000becb0       _mbtowc                    004bfcb0 f   libucrt:mbtowc.obj
 0001:000becd0       __wctomb_l                 004bfcd0 f   libucrt:wctomb.obj
 0001:000bed37       __wctomb_s_l               004bfd37 f   libucrt:wctomb.obj
 0001:000beea0       _wctomb                    004bfea0 f   libucrt:wctomb.obj
 0001:000beee1       _wctomb_s                  004bfee1 f   libucrt:wctomb.obj
 0001:000bf5f9       ??1?$__crt_simd_cleanup_guard@$00@@QAE@XZ 004c05f9 f i libucrt:strnlen.obj
 0001:000bf5fd       ??1?$__crt_simd_cleanup_guard@$0A@@@QAE@XZ 004c05fd f i libucrt:strnlen.obj
 0001:000bf5fe       ?compare_equals@?$__crt_simd_traits@$00E@@SA?AT__m256i@@T2@0@Z 004c05fe f i libucrt:strnlen.obj
 0001:000bf603       ?compare_equals@?$__crt_simd_traits@$00G@@SA?AT__m256i@@T2@0@Z 004c0603 f i libucrt:strnlen.obj
 0001:000bf608       ?compare_equals@?$__crt_simd_traits@$0A@E@@SA?AT__m128i@@T2@0@Z 004c0608 f i libucrt:strnlen.obj
 0001:000bf60d       ?compare_equals@?$__crt_simd_traits@$0A@G@@SA?AT__m128i@@T2@0@Z 004c060d f i libucrt:strnlen.obj
 0001:000bf612       ?compute_byte_mask@?$__crt_simd_pack_traits@$00@@SAHT__m256i@@@Z 004c0612 f i libucrt:strnlen.obj
 0001:000bf617       ?compute_byte_mask@?$__crt_simd_pack_traits@$0A@@@SAHT__m128i@@@Z 004c0617 f i libucrt:strnlen.obj
 0001:000bf61c       ?get_zero_pack@?$__crt_simd_pack_traits@$00@@SA?AT__m256i@@XZ 004c061c f i libucrt:strnlen.obj
 0001:000bf621       ?get_zero_pack@?$__crt_simd_pack_traits@$0A@@@SA?AT__m128i@@XZ 004c0621 f i libucrt:strnlen.obj
 0001:000bf626       _strnlen                   004c0626 f   libucrt:strnlen.obj
 0001:000bf796       _wcsnlen                   004c0796 f   libucrt:strnlen.obj
 0001:000bf9ba       ??$?RU__acrt_ptd@@@__crt_internal_free_policy@@QBEXQBU__acrt_ptd@@@Z 004c09ba f i libucrt:per_thread_data.obj
 0001:000bf9d0       ??$?RV<lambda_3518db117f0e7cdb002338c5d3c47b6c>@@AAV<lambda_b2ea41f6bbb362cd97d94c6828d90b61>@@V<lambda_abdedf541bb04549bc734292b4a045d4>@@@?$__crt_seh_guarded_call@X@@QAEX$$QAV<lambda_3518db117f0e7cdb002338c5d3c47b6c>@@AAV<lambda_b2ea41f6bbb362cd97d94c6828d90b61>@@$$QAV<lambda_abdedf541bb04549bc734292b4a045d4>@@@Z 004c09d0 f i libucrt:per_thread_data.obj
 0001:000bfa34       ??$?RV<lambda_51b6e8b1eb166f2a3faf91f424b38130>@@AAV<lambda_6250bd4b2a391816dd638c3bf72b0bcb>@@V<lambda_0b5a4a3e68152e1d9b943535f5f47bed>@@@?$__crt_seh_guarded_call@X@@QAEX$$QAV<lambda_51b6e8b1eb166f2a3faf91f424b38130>@@AAV<lambda_6250bd4b2a391816dd638c3bf72b0bcb>@@$$QAV<lambda_0b5a4a3e68152e1d9b943535f5f47bed>@@@Z 004c0a34 f i libucrt:per_thread_data.obj
 0001:000bfaad       ??$?RV<lambda_5b71d36f03204c0beab531769a5b5694>@@AAV<lambda_be2b3da3f62db62e9dad5dc70221a656>@@V<lambda_8f9ce462984622f9bf76b59e2aaaf805>@@@?$__crt_seh_guarded_call@X@@QAEX$$QAV<lambda_5b71d36f03204c0beab531769a5b5694>@@AAV<lambda_be2b3da3f62db62e9dad5dc70221a656>@@$$QAV<lambda_8f9ce462984622f9bf76b59e2aaaf805>@@@Z 004c0aad f i libucrt:per_thread_data.obj
 0001:000bfb0a       ??$?RV<lambda_9df27f884b057bc3edfc946cb5b7cf47>@@AAV<lambda_e69574bed617af4e071282c136b37893>@@V<lambda_cc0d902bcbbeb830f749456577db4721>@@@?$__crt_seh_guarded_call@X@@QAEX$$QAV<lambda_9df27f884b057bc3edfc946cb5b7cf47>@@AAV<lambda_e69574bed617af4e071282c136b37893>@@$$QAV<lambda_cc0d902bcbbeb830f749456577db4721>@@@Z 004c0b0a f i libucrt:per_thread_data.obj
 0001:000bfb64       ??$__acrt_lock_and_call@V<lambda_6250bd4b2a391816dd638c3bf72b0bcb>@@@@YAXW4__acrt_lock_id@@$$QAV<lambda_6250bd4b2a391816dd638c3bf72b0bcb>@@@Z 004c0b64 f i libucrt:per_thread_data.obj
 0001:000bfb96       ??$__acrt_lock_and_call@V<lambda_b2ea41f6bbb362cd97d94c6828d90b61>@@@@YAXW4__acrt_lock_id@@$$QAV<lambda_b2ea41f6bbb362cd97d94c6828d90b61>@@@Z 004c0b96 f i libucrt:per_thread_data.obj
 0001:000bfbc8       ??$__acrt_lock_and_call@V<lambda_be2b3da3f62db62e9dad5dc70221a656>@@@@YAXW4__acrt_lock_id@@$$QAV<lambda_be2b3da3f62db62e9dad5dc70221a656>@@@Z 004c0bc8 f i libucrt:per_thread_data.obj
 0001:000bfbfa       ??$__acrt_lock_and_call@V<lambda_e69574bed617af4e071282c136b37893>@@@@YAXW4__acrt_lock_id@@$$QAV<lambda_e69574bed617af4e071282c136b37893>@@@Z 004c0bfa f i libucrt:per_thread_data.obj
 0001:000bfd33       ??0?$__crt_unique_heap_ptr@U__acrt_ptd@@U__crt_internal_free_policy@@@@QAE@QAU__acrt_ptd@@@Z 004c0d33 f i libucrt:per_thread_data.obj
 0001:000bfd47       ??0__crt_scoped_get_last_error_reset@@QAE@XZ 004c0d47 f i libucrt:per_thread_data.obj
 0001:000bfd5c       ??1?$__crt_unique_heap_ptr@U__acrt_ptd@@U__crt_internal_free_policy@@@@QAE@XZ 004c0d5c f i libucrt:per_thread_data.obj
 0001:000bfd72       ??1__crt_scoped_get_last_error_reset@@QAE@XZ 004c0d72 f i libucrt:per_thread_data.obj
 0001:000bfd7d       ??B?$__crt_unique_heap_ptr@U__acrt_ptd@@U__crt_internal_free_policy@@@@QBE_NXZ 004c0d7d f i libucrt:per_thread_data.obj
 0001:000bfef3       ?dangerous_get_state_array@?$dual_state_global@PAU__crt_locale_data@@@__crt_state_management@@QAEPAPAU__crt_locale_data@@XZ 004c0ef3 f i libucrt:per_thread_data.obj
 0001:000bfff7       ?detach@?$__crt_unique_heap_ptr@U__acrt_ptd@@U__crt_internal_free_policy@@@@QAEPAU__acrt_ptd@@XZ 004c0ff7 f i libucrt:per_thread_data.obj
 0001:000bfffd       ?get@?$__crt_unique_heap_ptr@U__acrt_ptd@@U__crt_internal_free_policy@@@@QBEPAU__acrt_ptd@@XZ 004c0ffd f i libucrt:per_thread_data.obj
 0001:000c010c       ?is_valid@?$__crt_unique_heap_ptr@U__acrt_ptd@@U__crt_internal_free_policy@@@@QBE_NXZ 004c110c f i libucrt:per_thread_data.obj
 0001:000c0116       ?release@?$__crt_unique_heap_ptr@U__acrt_ptd@@U__crt_internal_free_policy@@@@QAEXXZ 004c1116 f i libucrt:per_thread_data.obj
 0001:000c01a2       ___acrt_freeptd            004c11a2 f   libucrt:per_thread_data.obj
 0001:000c01d9       ___acrt_getptd             004c11d9 f   libucrt:per_thread_data.obj
 0001:000c027e       ___acrt_getptd_noexit      004c127e f   libucrt:per_thread_data.obj
 0001:000c0324       ___acrt_initialize_ptd     004c1324 f   libucrt:per_thread_data.obj
 0001:000c035b       ___acrt_uninitialize_ptd   004c135b f   libucrt:per_thread_data.obj
 0001:000c037b       ___threadhandle            004c137b f   libucrt:per_thread_data.obj
 0001:000c0381       ___threadid                004c1381 f   libucrt:per_thread_data.obj
 0001:000c0387       ___acrt_update_locale_info 004c1387 f   libucrt:locale_update.obj
 0001:000c03bf       ___acrt_update_multibyte_info 004c13bf f   libucrt:locale_update.obj
 0001:000c03f7       ?__acrt_fp_classify@@YA?AW4__acrt_fp_class@@ABN@Z 004c13f7 f i libucrt:cvt.obj
 0001:000c047e       ?__acrt_fp_is_negative@@YA_NABN@Z 004c147e f i libucrt:cvt.obj
 0001:000c0ef1       ___acrt_fp_format          004c1ef1 f   libucrt:cvt.obj
 0001:000c10cb       __fputwc_nolock            004c20cb f   libucrt:fputwc.obj
 0001:000c123a       __fputwchar                004c223a f   libucrt:fputwc.obj
 0001:000c125a       __putwc_nolock             004c225a f   libucrt:fputwc.obj
 0001:000c1267       _fputwc                    004c2267 f   libucrt:fputwc.obj
 0001:000c1300       _putwc                     004c2300 f   libucrt:fputwc.obj
 0001:000c130d       _putwchar                  004c230d f   libucrt:fputwc.obj
 0001:000c131a       __fileno                   004c231a f   libucrt:fileno.obj
 0001:000c1349       ??$?RPAU__crt_stdio_stream_data@@@__crt_internal_free_policy@@QBEXQBQAU__crt_stdio_stream_data@@@Z 004c2349 f i libucrt:_file.obj
 0001:000c135f       ??0?$__crt_unique_heap_ptr@PAU__crt_stdio_stream_data@@U__crt_internal_free_policy@@@@QAE@QAPAU__crt_stdio_stream_data@@@Z 004c235f f i libucrt:_file.obj
 0001:000c1373       ??1?$__crt_unique_heap_ptr@PAU__crt_stdio_stream_data@@U__crt_internal_free_policy@@@@QAE@XZ 004c2373 f i libucrt:_file.obj
 0001:000c1389       ?detach@?$__crt_unique_heap_ptr@PAU__crt_stdio_stream_data@@U__crt_internal_free_policy@@@@QAEPAPAU__crt_stdio_stream_data@@XZ 004c2389 f i libucrt:_file.obj
 0001:000c138f       ?release@?$__crt_unique_heap_ptr@PAU__crt_stdio_stream_data@@U__crt_internal_free_policy@@@@QAEXXZ 004c238f f i libucrt:_file.obj
 0001:000c13a5       ___acrt_initialize_stdio   004c23a5 f   libucrt:_file.obj
 0001:000c149f       ___acrt_iob_func           004c249f f   libucrt:_file.obj
 0001:000c14b3       ___acrt_uninitialize_stdio 004c24b3 f   libucrt:_file.obj
 0001:000c1512       __get_stream_buffer_pointers 004c2512 f   libucrt:_file.obj
 0001:000c1569       __lock_file                004c2569 f   libucrt:_file.obj
 0001:000c1582       __unlock_file              004c2582 f   libucrt:_file.obj
 0001:000c159b       __fputc_nolock             004c259b f   libucrt:fputc.obj
 0001:000c15ce       __fputchar                 004c25ce f   libucrt:fputc.obj
 0001:000c15ee       __putc_nolock              004c25ee f   libucrt:fputc.obj
 0001:000c15fb       _fputc                     004c25fb f   libucrt:fputc.obj
 0001:000c1740       _putc                      004c2740 f   libucrt:fputc.obj
 0001:000c174d       _putchar                   004c274d f   libucrt:fputc.obj
 0001:000c175a       __get_printf_count_output  004c275a f   libucrt:printf_count_output.obj
 0001:000c1774       __set_printf_count_output  004c2774 f   libucrt:printf_count_output.obj
 0001:000c17a8       ?has_temporary_buffer@__crt_stdio_stream@@QBE_NXZ 004c27a8 f i libucrt:_sftbuf.obj
 0001:000c17b7       ___acrt_stdio_begin_temporary_buffering_nolock 004c27b7 f   libucrt:_sftbuf.obj
 0001:000c1899       ___acrt_stdio_end_temporary_buffering_nolock 004c2899 f   libucrt:_sftbuf.obj
 0001:000c18e0       ___p___mb_cur_max          004c28e0 f   libucrt:nlsdata.obj
 0001:000c1b00       ___acrt_initialize_lowio   004c2b00 f   libucrt:ioinit.obj
 0001:000c1b6b       ___acrt_uninitialize_lowio 004c2b6b f   libucrt:ioinit.obj
 0001:000c1ba2       ??$?RU__crt_stdio_stream_data@@@__crt_internal_free_policy@@QBEXQBU__crt_stdio_stream_data@@@Z 004c2ba2 f i libucrt:stream.obj
 0001:000c1bb8       ??0?$__crt_unique_heap_ptr@U__crt_stdio_stream_data@@U__crt_internal_free_policy@@@@QAE@QAU__crt_stdio_stream_data@@@Z 004c2bb8 f i libucrt:stream.obj
 0001:000c1bcc       ??0__crt_stdio_stream@@QAE@XZ 004c2bcc f i libucrt:stream.obj
 0001:000c1bd2       ??1?$__crt_unique_heap_ptr@U__crt_stdio_stream_data@@U__crt_internal_free_policy@@@@QAE@XZ 004c2bd2 f i libucrt:stream.obj
 0001:000c1be8       ?__acrt_stdio_allocate_stream@@YA?AV__crt_stdio_stream@@XZ 004c2be8 f   libucrt:stream.obj
 0001:000c1c5e       ?__acrt_stdio_free_stream@@YAXV__crt_stdio_stream@@@Z 004c2c5e f   libucrt:stream.obj
 0001:000c1ca7       ?deallocate@__crt_stdio_stream@@QAEXXZ 004c2ca7 f i libucrt:stream.obj
 0001:000c1cb3       ?detach@?$__crt_unique_heap_ptr@U__crt_stdio_stream_data@@U__crt_internal_free_policy@@@@QAEPAU__crt_stdio_stream_data@@XZ 004c2cb3 f i libucrt:stream.obj
 0001:000c1dac       ?lock@__crt_stdio_stream@@QBEXXZ 004c2dac f i libucrt:stream.obj
 0001:000c1db7       ?release@?$__crt_unique_heap_ptr@U__crt_stdio_stream_data@@U__crt_internal_free_policy@@@@QAEXXZ 004c2db7 f i libucrt:stream.obj
 0001:000c1dcd       ?try_allocate@__crt_stdio_stream@@QAE_NXZ 004c2dcd f i libucrt:stream.obj
 0001:000c1df6       ___acrt_stdio_free_buffer_nolock 004c2df6 f   libucrt:_freebuf.obj
 0001:000c1e43       ??$__acrt_stdio_parse_mode@D@@YA?AU__acrt_stdio_stream_mode@@QBD@Z 004c2e43 f i libucrt:openfile.obj
 0001:000c2101       ??$__acrt_stdio_parse_mode@_W@@YA?AU__acrt_stdio_stream_mode@@QB_W@Z 004c3101 f i libucrt:openfile.obj
 0001:000c2522       ??$tcsncmp@AAPBDAAY02$$CBDI@?$__crt_char_traits@D@@SAHAAPBDAAY02$$CBD$$QAI@Z 004c3522 f i libucrt:openfile.obj
 0001:000c2545       ??$tcsncmp@AAPB_WAAY02$$CB_WI@?$__crt_char_traits@_W@@SAHAAPB_WAAY02$$CB_W$$QAI@Z 004c3545 f i libucrt:openfile.obj
 0001:000c2568       ??$tcsnicmp@AAPBDAAY04$$CBDI@?$__crt_char_traits@D@@SAHAAPBDAAY04$$CBD$$QAI@Z 004c3568 f i libucrt:openfile.obj
 0001:000c258b       ??$tcsnicmp@AAPBDAAY06$$CBDI@?$__crt_char_traits@D@@SAHAAPBDAAY06$$CBD$$QAI@Z 004c358b f i libucrt:openfile.obj
 0001:000c25ae       ??$tcsnicmp@AAPBDAAY07$$CBDI@?$__crt_char_traits@D@@SAHAAPBDAAY07$$CBD$$QAI@Z 004c35ae f i libucrt:openfile.obj
 0001:000c25d1       ??$tcsnicmp@AAPB_WAAY04$$CB_WI@?$__crt_char_traits@_W@@SAHAAPB_WAAY04$$CB_W$$QAI@Z 004c35d1 f i libucrt:openfile.obj
 0001:000c25f4       ??$tcsnicmp@AAPB_WAAY06$$CB_WI@?$__crt_char_traits@_W@@SAHAAPB_WAAY06$$CB_W$$QAI@Z 004c35f4 f i libucrt:openfile.obj
 0001:000c2617       ??$tcsnicmp@AAPB_WAAY07$$CB_WI@?$__crt_char_traits@_W@@SAHAAPB_WAAY07$$CB_W$$QAI@Z 004c3617 f i libucrt:openfile.obj
 0001:000c263a       ??$tsopen_s@PAHABQBDABHABHH@?$__crt_char_traits@D@@SAH$$QAPAHABQBDABH2$$QAH@Z 004c363a f i libucrt:openfile.obj
 0001:000c266c       ??$tsopen_s@PAHABQB_WABHABHH@?$__crt_char_traits@_W@@SAH$$QAPAHABQB_WABH2$$QAH@Z 004c366c f i libucrt:openfile.obj
 0001:000c269e       ?__acrt_stdio_parse_mode_D@@YA_NAAU__acrt_stdio_stream_mode@@@Z 004c369e f i libucrt:openfile.obj
 0001:000c26bf       ?__acrt_stdio_parse_mode_N@@YA_NAAU__acrt_stdio_stream_mode@@@Z 004c36bf f i libucrt:openfile.obj
 0001:000c26d5       ?__acrt_stdio_parse_mode_R@@YA_NAAU__acrt_stdio_stream_mode@@AA_N@Z 004c36d5 f i libucrt:openfile.obj
 0001:000c26fa       ?__acrt_stdio_parse_mode_S@@YA_NAAU__acrt_stdio_stream_mode@@AA_N@Z 004c36fa f i libucrt:openfile.obj
 0001:000c271f       ?__acrt_stdio_parse_mode_T@@YA_NAAU__acrt_stdio_stream_mode@@@Z 004c371f f i libucrt:openfile.obj
 0001:000c2745       ?__acrt_stdio_parse_mode_b@@YA_NAAU__acrt_stdio_stream_mode@@@Z 004c3745 f i libucrt:openfile.obj
 0001:000c276d       ?__acrt_stdio_parse_mode_c@@YA_NAAU__acrt_stdio_stream_mode@@AA_N@Z 004c376d f i libucrt:openfile.obj
 0001:000c2797       ?__acrt_stdio_parse_mode_n@@YA_NAAU__acrt_stdio_stream_mode@@AA_N@Z 004c3797 f i libucrt:openfile.obj
 0001:000c27c1       ?__acrt_stdio_parse_mode_plus@@YA_NAAU__acrt_stdio_stream_mode@@AA_N@Z 004c37c1 f i libucrt:openfile.obj
 0001:000c2803       ?__acrt_stdio_parse_mode_t@@YA_NAAU__acrt_stdio_stream_mode@@@Z 004c3803 f i libucrt:openfile.obj
 0001:000c282b       __openfile                 004c382b f   libucrt:openfile.obj
 0001:000c2838       __wopenfile                004c3838 f   libucrt:openfile.obj
 0001:000c2d3b       ___acrt_stdio_refill_and_read_narrow_nolock 004c3d3b f   libucrt:_filbuf.obj
 0001:000c2d48       ___acrt_stdio_refill_and_read_wide_nolock 004c3d48 f   libucrt:_filbuf.obj
 0001:000c2d55       ___pctype_func             004c3d55 f   libucrt:ctype.obj
 0001:000c2d84       ___pwctype_func            004c3d84 f   libucrt:ctype.obj
 0001:000c2d8a       __iswctype_l               004c3d8a f   libucrt:iswctype.obj
 0001:000c2da3       _iswctype                  004c3da3 f   libucrt:iswctype.obj
 0001:000c2e19       __isctype                  004c3e19 f   libucrt:isctype.obj
 0001:000c2e56       __isctype_l                004c3e56 f   libucrt:isctype.obj
 0001:000c2f5c       __fgetwc_nolock            004c3f5c f   libucrt:fgetwc.obj
 0001:000c312a       __fgetwchar                004c412a f   libucrt:fgetwc.obj
 0001:000c313e       __getwc_nolock             004c413e f   libucrt:fgetwc.obj
 0001:000c314b       _fgetwc                    004c414b f   libucrt:fgetwc.obj
 0001:000c31dc       _getwc                     004c41dc f   libucrt:fgetwc.obj
 0001:000c31e9       _getwchar                  004c41e9 f   libucrt:fgetwc.obj
 0001:000c33c5       __ungetwc_nolock           004c43c5 f   libucrt:ungetwc.obj
 0001:000c34a6       _ungetwc                   004c44a6 f   libucrt:ungetwc.obj
 0001:000c353f       __fgetc_nolock             004c453f f   libucrt:fgetc.obj
 0001:000c358a       __fgetchar                 004c458a f   libucrt:fgetc.obj
 0001:000c359e       __getc_nolock              004c459e f   libucrt:fgetc.obj
 0001:000c35ab       _fgetc                     004c45ab f   libucrt:fgetc.obj
 0001:000c36ed       _getc                      004c46ed f   libucrt:fgetc.obj
 0001:000c36fa       _getchar                   004c46fa f   libucrt:fgetc.obj
 0001:000c36ff       __ungetc_nolock            004c46ff f   libucrt:ungetc.obj
 0001:000c3829       _ungetc                    004c4829 f   libucrt:ungetc.obj
 0001:000c38b5       ___fpe_flt_rounds          004c48b5 f   libucrt:fegetround.obj
 0001:000c38f6       _fegetround                004c48f6 f   libucrt:fegetround.obj
 0001:000c3903       ___acrt_strtok_s_novalidation 004c4903 f   libucrt:strtok_s.obj
 0001:000c3a19       _strtok_s                  004c4a19 f   libucrt:strtok_s.obj
 0001:000c3a6b       ___iswcsym                 004c4a6b f i libucrt:_wctype.obj
 0001:000c3a9a       ___iswcsymf                004c4a9a f i libucrt:_wctype.obj
 0001:000c3ac9       __isleadbyte_l             004c4ac9 f i libucrt:_wctype.obj
 0001:000c3b10       __iswalnum_l               004c4b10 f i libucrt:_wctype.obj
 0001:000c3b2b       __iswalpha_l               004c4b2b f i libucrt:_wctype.obj
 0001:000c3b46       __iswblank_l               004c4b46 f i libucrt:_wctype.obj
 0001:000c3b6a       __iswcntrl_l               004c4b6a f i libucrt:_wctype.obj
 0001:000c3b81       __iswcsym_l                004c4b81 f i libucrt:_wctype.obj
 0001:000c3bb0       __iswcsymf_l               004c4bb0 f i libucrt:_wctype.obj
 0001:000c3bdf       __iswdigit_l               004c4bdf f i libucrt:_wctype.obj
 0001:000c3bf6       __iswgraph_l               004c4bf6 f i libucrt:_wctype.obj
 0001:000c3c11       __iswlower_l               004c4c11 f i libucrt:_wctype.obj
 0001:000c3c28       __iswprint_l               004c4c28 f i libucrt:_wctype.obj
 0001:000c3c43       __iswpunct_l               004c4c43 f i libucrt:_wctype.obj
 0001:000c3c5a       __iswspace_l               004c4c5a f i libucrt:_wctype.obj
 0001:000c3c71       __iswupper_l               004c4c71 f i libucrt:_wctype.obj
 0001:000c3c88       __iswxdigit_l              004c4c88 f i libucrt:_wctype.obj
 0001:000c3ca3       _isleadbyte                004c4ca3 f i libucrt:_wctype.obj
 0001:000c3cba       _iswalnum                  004c4cba f i libucrt:_wctype.obj
 0001:000c3cd5       _iswalpha                  004c4cd5 f i libucrt:_wctype.obj
 0001:000c3cf0       _iswascii                  004c4cf0 f i libucrt:_wctype.obj
 0001:000c3d09       _iswblank                  004c4d09 f i libucrt:_wctype.obj
 0001:000c3d2d       _iswcntrl                  004c4d2d f i libucrt:_wctype.obj
 0001:000c3d44       _iswdigit                  004c4d44 f i libucrt:_wctype.obj
 0001:000c3d5b       _iswgraph                  004c4d5b f i libucrt:_wctype.obj
 0001:000c3d76       _iswlower                  004c4d76 f i libucrt:_wctype.obj
 0001:000c3d8d       _iswprint                  004c4d8d f i libucrt:_wctype.obj
 0001:000c3da8       _iswpunct                  004c4da8 f i libucrt:_wctype.obj
 0001:000c3dbf       _iswspace                  004c4dbf f i libucrt:_wctype.obj
 0001:000c3dd6       _iswupper                  004c4dd6 f i libucrt:_wctype.obj
 0001:000c3ded       _iswxdigit                 004c4ded f i libucrt:_wctype.obj
 0001:000c3e08       ??0?$__crt_scoped_stack_ptr@_W@@QAE@U?$__crt_scoped_stack_ptr_tag@_W@@@Z 004c4e08 f i libucrt:lcmapstringa.obj
 0001:000c3e1c       ??0?$__crt_scoped_stack_ptr_tag@_W@@QAE@QA_W@Z 004c4e1c f i libucrt:lcmapstringa.obj
 0001:000c3e30       ??1?$__crt_scoped_stack_ptr@_W@@QAE@XZ 004c4e30 f i libucrt:lcmapstringa.obj
 0001:000c3e3b       ??B?$__crt_scoped_stack_ptr@_W@@QBE_NXZ 004c4e3b f i libucrt:lcmapstringa.obj
 0001:000c40e9       ?get@?$__crt_scoped_stack_ptr@_W@@QBEPA_WXZ 004c50e9 f i libucrt:lcmapstringa.obj
 0001:000c40ec       __MallocaComputeSize       004c50ec f i libucrt:lcmapstringa.obj
 0001:000c4103       __MarkAllocaS              004c5103 f i libucrt:lcmapstringa.obj
 0001:000c411e       ___acrt_LCMapStringA       004c511e f   libucrt:lcmapstringa.obj
 0001:000c417b       __freea_crt                004c517b f i libucrt:lcmapstringa.obj
 0001:000c41b0       __trandisp1                004c51b0 f   libucrt:87disp.obj
 0001:000c4217       __trandisp2                004c5217 f   libucrt:87disp.obj
 0001:000c42a3       __rttospopde               004c52a3     libucrt:87disp.obj
 0001:000c42a8       __rttospop                 004c52a8     libucrt:87disp.obj
 0001:000c42aa       __rtnospop                 004c52aa     libucrt:87disp.obj
 0001:000c42ac       __rttosnpop                004c52ac     libucrt:87disp.obj
 0001:000c42ad       __rtnospopde               004c52ad     libucrt:87disp.obj
 0001:000c42b4       __rtzeropop                004c52b4     libucrt:87disp.obj
 0001:000c42b6       __rtzeronpop               004c52b6     libucrt:87disp.obj
 0001:000c42bb       __rtzerospop               004c52bb     libucrt:87disp.obj
 0001:000c42c8       __rtonepop                 004c52c8     libucrt:87disp.obj
 0001:000c42ca       __rtonenpop                004c52ca     libucrt:87disp.obj
 0001:000c42cf       __tosnan1                  004c52cf     libucrt:87disp.obj
 0001:000c42fa       __nosnan2                  004c52fa     libucrt:87disp.obj
 0001:000c42fc       __tosnan2                  004c52fc     libucrt:87disp.obj
 0001:000c4324       __nan2                     004c5324     libucrt:87disp.obj
 0001:000c4363       __rtindfpop                004c5363     libucrt:87disp.obj
 0001:000c4365       __rtindfnpop               004c5365     libucrt:87disp.obj
 0001:000c4376       __rttosnpopde              004c5376     libucrt:87disp.obj
 0001:000c4380       __rtatan2inf               004c5380     libucrt:87disp.obj
 0001:000c439d       __rtchsifneg               004c539d     libucrt:87disp.obj
 0001:000c4421       ___setfflag                004c5421 f   libucrt:fp_flags.obj
 0001:000c4440       __startTwoArgErrorHandling 004c5440 f   libucrt:genexcep.obj
 0001:000c4457       __startOneArgErrorHandling 004c5457 f   libucrt:genexcep.obj
 0001:000c44b0       __twoToTOS                 004c54b0 f   libucrt:common.obj
 0001:000c44c5       __load_CW                  004c54c5 f   libucrt:common.obj
 0001:000c44dc       __convertTOStoQNaN         004c54dc f   libucrt:common.obj
 0001:000c44f5       __fload_withFB             004c54f5 f   libucrt:common.obj
 0001:000c4538       __checkTOS_withFB          004c5538 f   libucrt:common.obj
 0001:000c454e       __fast_exit                004c554e f   libucrt:common.obj
 0001:000c455b       __math_exit                004c555b f   libucrt:common.obj
 0001:000c4585       __check_overflow_exit      004c5585 f   libucrt:common.obj
 0001:000c4599       __check_range_exit         004c5599 f   libucrt:common.obj
 0001:000c469f       ___acrt_initialize_locks   004c569f f   libucrt:locks.obj
 0001:000c46f0       ___acrt_lock               004c56f0 f   libucrt:locks.obj
 0001:000c470c       ___acrt_uninitialize_locks 004c570c f   libucrt:locks.obj
 0001:000c4749       ___acrt_unlock             004c5749 f   libucrt:locks.obj
 0001:000c4765       __lock_locales             004c5765 f   libucrt:locks.obj
 0001:000c4770       __unlock_locales           004c5770 f   libucrt:locks.obj
 0001:000c477b       ??$?RV<lambda_61cee617f5178ae960314fd4d05640a0>@@AAV<lambda_6978c1fb23f02e42e1d9e99668cc68aa>@@V<lambda_9cd88cf8ad10232537feb2133f08c833>@@@?$__crt_seh_guarded_call@H@@QAEH$$QAV<lambda_61cee617f5178ae960314fd4d05640a0>@@AAV<lambda_6978c1fb23f02e42e1d9e99668cc68aa>@@$$QAV<lambda_9cd88cf8ad10232537feb2133f08c833>@@@Z 004c577b f i libucrt:commit.obj
 0001:000c4839       ??$__acrt_lowio_lock_fh_and_call@V<lambda_6978c1fb23f02e42e1d9e99668cc68aa>@@@@YAHH$$QAV<lambda_6978c1fb23f02e42e1d9e99668cc68aa>@@@Z 004c5839 f i libucrt:commit.obj
 0001:000c492b       __commit                   004c592b f   libucrt:commit.obj
 0001:000c4e6c       ___acrt_stdio_flush_and_write_narrow_nolock 004c5e6c f   libucrt:_flsbuf.obj
 0001:000c4e79       ___acrt_stdio_flush_and_write_wide_nolock 004c5e79 f   libucrt:_flsbuf.obj
 0001:000c4ebe       __chdrive                  004c5ebe f   libucrt:drive.obj
 0001:000c4f5e       __getdrive                 004c5f5e f   libucrt:drive.obj
 0001:000c532b       ??$tgetcwd@ABQADH@?$__crt_char_traits@D@@SAPADABQAD$$QAH@Z 004c632b f i libucrt:fullpath.obj
 0001:000c5349       ??$tgetcwd@ABQA_WH@?$__crt_char_traits@_W@@SAPA_WABQA_W$$QAH@Z 004c6349 f i libucrt:fullpath.obj
 0001:000c5367       ??B?$__crt_unique_heap_ptr@_WU__crt_public_free_policy@@@@QBE_NXZ 004c6367 f i libucrt:fullpath.obj
 0001:000c5371       ?detach@?$__crt_unique_heap_ptr@_WU__crt_public_free_policy@@@@QAEPA_WXZ 004c6371 f i libucrt:fullpath.obj
 0001:000c5377       ?get@?$__crt_unique_heap_ptr@_WU__crt_public_free_policy@@@@QBEPA_WXZ 004c6377 f i libucrt:fullpath.obj
 0001:000c53b6       ?is_valid@?$__crt_unique_heap_ptr@_WU__crt_public_free_policy@@@@QBE_NXZ 004c63b6 f i libucrt:fullpath.obj
 0001:000c53c0       __fullpath                 004c63c0 f   libucrt:fullpath.obj
 0001:000c542c       __wfullpath                004c642c f   libucrt:fullpath.obj
 0001:000c5497       _wcspbrk                   004c6497 f   libucrt:wcspbrk.obj
 0001:000c54ed       __wcsicmp                  004c64ed f   libucrt:wcsicmp.obj
 0001:000c55a7       __wcsicmp_l                004c65a7 f   libucrt:wcsicmp.obj
 0001:000c56bf       ___acrt_copy_path_to_wide_string 004c66bf f   libucrt:string_utilities.obj
 0001:000c57b7       ___acrt_copy_to_char       004c67b7 f   libucrt:string_utilities.obj
 0001:000c58f9       ??$?B$$A6GHPA_WKJ@Z@__crt_fast_encoded_nullptr_t@@QBEP6GHPA_WKJ@ZXZ 004c68f9 f i libucrt:winapi_thunks.obj
 0001:000c5917       ??$?RV<lambda_9227be29367c048ad7fd93a717dcb1a1>@@AAV<lambda_a463b7b0560cfcaf9b17f27c6ef46564>@@V<lambda_ccea11b5727ccf69be64f5f5d9a08d9f>@@@?$__crt_seh_guarded_call@H@@QAEH$$QAV<lambda_9227be29367c048ad7fd93a717dcb1a1>@@AAV<lambda_a463b7b0560cfcaf9b17f27c6ef46564>@@$$QAV<lambda_ccea11b5727ccf69be64f5f5d9a08d9f>@@@Z 004c6917 f i libucrt:winapi_thunks.obj
 0001:000c59bc       ??$__acrt_lock_and_call@V<lambda_a463b7b0560cfcaf9b17f27c6ef46564>@@@@YAHW4__acrt_lock_id@@$$QAV<lambda_a463b7b0560cfcaf9b17f27c6ef46564>@@@Z 004c69bc f i libucrt:winapi_thunks.obj
 0001:000c59ee       ??$__crt_fast_decode_pointer@P6GHPA_WKJ@Z@@YAP6GHPA_WKJ@ZQ6GH0KJ@Z@Z 004c69ee f i libucrt:winapi_thunks.obj
 0001:000c5a09       ??$__crt_fast_encode_pointer@P6GHPA_WKJ@Z@@YAP6GHPA_WKJ@ZQ6GH0KJ@Z@Z 004c6a09 f i libucrt:winapi_thunks.obj
 0001:000c6136       ___acrt_AreFileApisANSI@0  004c7136 f   libucrt:winapi_thunks.obj
 0001:000c6197       ___acrt_CompareStringEx@36 004c7197 f   libucrt:winapi_thunks.obj
 0001:000c6228       ___acrt_EnumSystemLocalesEx@16 004c7228 f   libucrt:winapi_thunks.obj
 0001:000c62b0       ___acrt_FlsAlloc@4         004c72b0 f   libucrt:winapi_thunks.obj
 0001:000c631b       ___acrt_FlsFree@4          004c731b f   libucrt:winapi_thunks.obj
 0001:000c6386       ___acrt_FlsGetValue@4      004c7386 f   libucrt:winapi_thunks.obj
 0001:000c63f1       ___acrt_FlsSetValue@8      004c73f1 f   libucrt:winapi_thunks.obj
 0001:000c6460       ___acrt_GetDateFormatEx@28 004c7460 f   libucrt:winapi_thunks.obj
 0001:000c6502       ___acrt_GetEnabledXStateFeatures@0 004c7502 f   libucrt:winapi_thunks.obj
 0001:000c6564       ___acrt_GetFileInformationByHandleEx@16 004c7564 f   libucrt:winapi_thunks.obj
 0001:000c65df       ___acrt_GetLocaleInfoEx@16 004c75df f   libucrt:winapi_thunks.obj
 0001:000c6663       ___acrt_GetSystemTimePreciseAsFileTime@4 004c7663 f   libucrt:winapi_thunks.obj
 0001:000c66ce       ___acrt_GetTimeFormatEx@24 004c76ce f   libucrt:winapi_thunks.obj
 0001:000c675a       ___acrt_GetUserDefaultLocaleName@8 004c775a f   libucrt:winapi_thunks.obj
 0001:000c67da       ___acrt_GetXStateFeaturesMask@8 004c77da f   libucrt:winapi_thunks.obj
 0001:000c6846       ___acrt_InitializeCriticalSectionEx@12 004c7846 f   libucrt:winapi_thunks.obj
 0001:000c68c0       ___acrt_IsValidLocaleName@4 004c78c0 f   libucrt:winapi_thunks.obj
 0001:000c693b       ___acrt_LCIDToLocaleName@16 004c793b f   libucrt:winapi_thunks.obj
 0001:000c69bf       ___acrt_LCMapStringEx@36   004c79bf f   libucrt:winapi_thunks.obj
 0001:000c6a69       ___acrt_LocaleNameToLCID@8 004c7a69 f   libucrt:winapi_thunks.obj
 0001:000c6adc       ___acrt_LocateXStateFeature@12 004c7adc f   libucrt:winapi_thunks.obj
 0001:000c6b33       ___acrt_MessageBoxA@16     004c7b33 f   libucrt:winapi_thunks.obj
 0001:000c6b8e       ___acrt_MessageBoxW@16     004c7b8e f   libucrt:winapi_thunks.obj
 0001:000c6be9       ___acrt_RoInitialize@4     004c7be9 f   libucrt:winapi_thunks.obj
 0001:000c6c4f       ___acrt_RoUninitialize@0   004c7c4f f   libucrt:winapi_thunks.obj
 0001:000c6caa       ___acrt_RtlGenRandom@8     004c7caa f   libucrt:winapi_thunks.obj
 0001:000c6d16       ___acrt_SetThreadStackGuarantee@4 004c7d16 f   libucrt:winapi_thunks.obj
 0001:000c6d7c       ___acrt_can_show_message_box 004c7d7c f   libucrt:winapi_thunks.obj
 0001:000c6d9b       ___acrt_can_use_vista_locale_apis 004c7d9b f   libucrt:winapi_thunks.obj
 0001:000c6daa       ___acrt_can_use_xstate_apis 004c7daa f   libucrt:winapi_thunks.obj
 0001:000c6db9       ___acrt_get_parent_window  004c7db9 f   libucrt:winapi_thunks.obj
 0001:000c6e57       ___acrt_initialize_winapi_thunks 004c7e57 f   libucrt:winapi_thunks.obj
 0001:000c6e86       ___acrt_is_interactive     004c7e86 f   libucrt:winapi_thunks.obj
 0001:000c6f55       ___acrt_is_packaged_app    004c7f55 f   libucrt:winapi_thunks.obj
 0001:000c6ffd       ___acrt_uninitialize_winapi_thunks 004c7ffd f   libucrt:winapi_thunks.obj
 0001:000c7040       ??$?RU__crt_lowio_handle_data@@@__crt_internal_free_policy@@QBEXQBU__crt_lowio_handle_data@@@Z 004c8040 f i libucrt:osfinfo.obj
 0001:000c7056       ??0?$__crt_unique_heap_ptr@U__crt_lowio_handle_data@@U__crt_internal_free_policy@@@@QAE@QAU__crt_lowio_handle_data@@@Z 004c8056 f i libucrt:osfinfo.obj
 0001:000c706a       ??1?$__crt_unique_heap_ptr@U__crt_lowio_handle_data@@U__crt_internal_free_policy@@@@QAE@XZ 004c806a f i libucrt:osfinfo.obj
 0001:000c7080       ??B?$__crt_unique_heap_ptr@U__crt_lowio_handle_data@@U__crt_internal_free_policy@@@@QBE_NXZ 004c8080 f i libucrt:osfinfo.obj
 0001:000c708a       ?detach@?$__crt_unique_heap_ptr@U__crt_lowio_handle_data@@U__crt_internal_free_policy@@@@QAEPAU__crt_lowio_handle_data@@XZ 004c808a f i libucrt:osfinfo.obj
 0001:000c7090       ?get@?$__crt_unique_heap_ptr@U__crt_lowio_handle_data@@U__crt_internal_free_policy@@@@QBEPAU__crt_lowio_handle_data@@XZ 004c8090 f i libucrt:osfinfo.obj
 0001:000c7093       ?is_valid@?$__crt_unique_heap_ptr@U__crt_lowio_handle_data@@U__crt_internal_free_policy@@@@QBE_NXZ 004c8093 f i libucrt:osfinfo.obj
 0001:000c709d       ?release@?$__crt_unique_heap_ptr@U__crt_lowio_handle_data@@U__crt_internal_free_policy@@@@QAEXXZ 004c809d f i libucrt:osfinfo.obj
 0001:000c70b3       ___acrt_lowio_create_handle_array 004c80b3 f   libucrt:osfinfo.obj
 0001:000c714b       ___acrt_lowio_destroy_handle_array 004c814b f   libucrt:osfinfo.obj
 0001:000c718d       ___acrt_lowio_ensure_fh_exists 004c818d f   libucrt:osfinfo.obj
 0001:000c724b       ___acrt_lowio_lock_fh      004c824b f   libucrt:osfinfo.obj
 0001:000c7276       ___acrt_lowio_set_os_handle 004c8276 f   libucrt:osfinfo.obj
 0001:000c732f       ___acrt_lowio_unlock_fh    004c832f f   libucrt:osfinfo.obj
 0001:000c735a       __alloc_osfhnd             004c835a f   libucrt:osfinfo.obj
 0001:000c74b0       __free_osfhnd              004c84b0 f   libucrt:osfinfo.obj
 0001:000c7565       __get_osfhandle            004c8565 f   libucrt:osfinfo.obj
 0001:000c75e9       __open_osfhandle           004c85e9 f   libucrt:osfinfo.obj
 0001:000c773a       ??$__crt_time_elapsed_leap_years@H@@YAHH@Z 004c873a f i libucrt:loctotime.obj
 0001:000c7782       ??$__crt_time_is_leap_year@H@@YA_NH@Z 004c8782 f i libucrt:loctotime.obj
 0001:000c7c0b       ?__crt_time_is_day_valid@@YA_NHHH@Z 004c8c0b f i libucrt:loctotime.obj
 0001:000c7c63       ___loctotime32_t           004c8c63 f   libucrt:loctotime.obj
 0001:000c7c70       ___loctotime64_t           004c8c70 f   libucrt:loctotime.obj
 0001:000c8157       __i64toa                   004c9157 f   libucrt:xtoa.obj
 0001:000c81aa       __i64toa_s                 004c91aa f   libucrt:xtoa.obj
 0001:000c81fb       __i64tow                   004c91fb f   libucrt:xtoa.obj
 0001:000c824e       __i64tow_s                 004c924e f   libucrt:xtoa.obj
 0001:000c829f       __itoa                     004c929f f   libucrt:xtoa.obj
 0001:000c82e3       __itoa_s                   004c92e3 f   libucrt:xtoa.obj
 0001:000c8325       __itow                     004c9325 f   libucrt:xtoa.obj
 0001:000c8369       __itow_s                   004c9369 f   libucrt:xtoa.obj
 0001:000c83ab       __ltoa                     004c93ab f   libucrt:xtoa.obj
 0001:000c83ef       __ltoa_s                   004c93ef f   libucrt:xtoa.obj
 0001:000c8431       __ltow                     004c9431 f   libucrt:xtoa.obj
 0001:000c8475       __ltow_s                   004c9475 f   libucrt:xtoa.obj
 0001:000c84b7       __ui64toa                  004c94b7 f   libucrt:xtoa.obj
 0001:000c84e1       __ui64toa_s                004c94e1 f   libucrt:xtoa.obj
 0001:000c8509       __ui64tow                  004c9509 f   libucrt:xtoa.obj
 0001:000c8533       __ui64tow_s                004c9533 f   libucrt:xtoa.obj
 0001:000c855b       __ultoa                    004c955b f   libucrt:xtoa.obj
 0001:000c8581       __ultoa_s                  004c9581 f   libucrt:xtoa.obj
 0001:000c85a5       __ultow                    004c95a5 f   libucrt:xtoa.obj
 0001:000c85cb       __ultow_s                  004c95cb f   libucrt:xtoa.obj
 0001:000c85ef       __set_error_mode           004c95ef f   libucrt:set_error_mode.obj
 0001:000c86cb       _wcscat_s                  004c96cb f   libucrt:wcscat_s.obj
 0001:000c87d5       _wcscpy_s                  004c97d5 f   libucrt:wcscpy_s.obj
 0001:000c8975       _wcsncat_s                 004c9975 f   libucrt:wcsncat_s.obj
 0001:000c8a05       _strcat_s                  004c9a05 f   libucrt:strcat_s.obj
 0001:000c8b8c       _strncat_s                 004c9b8c f   libucrt:strncat_s.obj
 0001:000c8db7       ??$message_box@$$TAAPBDAAPBDAAI@?$__crt_char_traits@D@@SAH$$QA$$TAAPBD1AAI@Z 004c9db7 f i libucrt:crtmbox.obj
 0001:000c8ddf       ??$message_box@$$TAAPB_WAAPB_WAAI@?$__crt_char_traits@_W@@SAH$$QA$$TAAPB_W1AAI@Z 004c9ddf f i libucrt:crtmbox.obj
 0001:000c8e07       ??$message_box@$$TABQBDABQBDK@?$__crt_char_traits@D@@SAH$$QA$$TABQBD1$$QAK@Z 004c9e07 f i libucrt:crtmbox.obj
 0001:000c8e2f       ??$message_box@$$TABQB_WABQB_WK@?$__crt_char_traits@_W@@SAH$$QA$$TABQB_W1$$QAK@Z 004c9e2f f i libucrt:crtmbox.obj
 0001:000c8e57       ??$message_box@PAUHWND__@@ABQBDABQBDABI@?$__crt_char_traits@D@@SAH$$QAPAUHWND__@@ABQBD1ABI@Z 004c9e57 f i libucrt:crtmbox.obj
 0001:000c8e7f       ??$message_box@PAUHWND__@@ABQB_WABQB_WABI@?$__crt_char_traits@_W@@SAH$$QAPAUHWND__@@ABQB_W1ABI@Z 004c9e7f f i libucrt:crtmbox.obj
 0001:000c8efb       ??$output_debug_string@ABQBD@?$__crt_char_traits@D@@SAXABQBD@Z 004c9efb f i libucrt:crtmbox.obj
 0001:000c8f11       ??$output_debug_string@ABQB_W@?$__crt_char_traits@_W@@SAXABQB_W@Z 004c9f11 f i libucrt:crtmbox.obj
 0001:000c8f27       ___acrt_show_narrow_message_box 004c9f27 f   libucrt:crtmbox.obj
 0001:000c8f34       ___acrt_show_wide_message_box 004c9f34 f   libucrt:crtmbox.obj
 0001:000c8f41       ??$?RV<lambda_d92cfe8357b99225085016881b624cb0>@@AAV<lambda_b721fa326cdb32351d23dfa67958c160>@@V<lambda_42d75b0848218ec137fa420c8ba9fdf9>@@@?$__crt_seh_guarded_call@H@@QAEH$$QAV<lambda_d92cfe8357b99225085016881b624cb0>@@AAV<lambda_b721fa326cdb32351d23dfa67958c160>@@$$QAV<lambda_42d75b0848218ec137fa420c8ba9fdf9>@@@Z 004c9f41 f i libucrt:setvbuf.obj
 0001:000c8fa6       ??$__acrt_lock_stream_and_call@V<lambda_b721fa326cdb32351d23dfa67958c160>@@@@YAHQAU_iobuf@@$$QAV<lambda_b721fa326cdb32351d23dfa67958c160>@@@Z 004c9fa6 f i libucrt:setvbuf.obj
 0001:000c9143       _setvbuf                   004ca143 f   libucrt:setvbuf.obj
 0001:000c91d6       ??$?B$$A6AXH@Z@__crt_fast_encoded_nullptr_t@@QBEP6AXH@ZXZ 004ca1d6 f i libucrt:signal.obj
 0001:000c91f4       ??$?RV<lambda_a048d3beccc847880fc8490e18b82769>@@AAV<lambda_ec61778202f4f5fc7e7711acc23c3bca>@@V<lambda_f7496a158712204296dd6628a163878e>@@@?$__crt_seh_guarded_call@P6AXH@Z@@QAEP6AXH@Z$$QAV<lambda_a048d3beccc847880fc8490e18b82769>@@AAV<lambda_ec61778202f4f5fc7e7711acc23c3bca>@@$$QAV<lambda_f7496a158712204296dd6628a163878e>@@@Z 004ca1f4 f i libucrt:signal.obj
 0001:000c9264       ??$__acrt_lock_and_call@V<lambda_ec61778202f4f5fc7e7711acc23c3bca>@@@@YAP6AXH@ZW4__acrt_lock_id@@$$QAV<lambda_ec61778202f4f5fc7e7711acc23c3bca>@@@Z 004ca264 f i libucrt:signal.obj
 0001:000c9296       ??$__crt_fast_decode_pointer@P6AXH@Z@@YAP6AXH@ZQ6AXH@Z@Z 004ca296 f i libucrt:signal.obj
 0001:000c92b1       ??$__crt_fast_encode_pointer@P6AXH@Z@@YAP6AXH@ZQ6AXH@Z@Z 004ca2b1 f i libucrt:signal.obj
 0001:000c945b       ?initialize@?$dual_state_global@P6AXH@Z@__crt_state_management@@QAEXQ6AXH@Z@Z 004ca45b f i libucrt:signal.obj
 0001:000c9507       ?value@?$dual_state_global@P6AXH@Z@__crt_state_management@@QAEAAP6AXH@ZXZ 004ca507 f i libucrt:signal.obj
 0001:000c950a       ___acrt_get_sigabrt_handler 004ca50a f   libucrt:signal.obj
 0001:000c9526       ___acrt_initialize_signal_handlers 004ca526 f   libucrt:signal.obj
 0001:000c956f       ___fpecode                 004ca56f f   libucrt:signal.obj
 0001:000c957a       ___pxcptinfoptrs           004ca57a f   libucrt:signal.obj
 0001:000c9585       _raise                     004ca585 f   libucrt:signal.obj
 0001:000c980f       _signal                    004ca80f f   libucrt:signal.obj
 0001:000c9e94       __lseek                    004cae94 f   libucrt:lseek.obj
 0001:000c9ea1       __lseek_nolock             004caea1 f   libucrt:lseek.obj
 0001:000c9eae       __lseeki64                 004caeae f   libucrt:lseek.obj
 0001:000c9ecf       __lseeki64_nolock          004caecf f   libucrt:lseek.obj
 0001:000c9ef0       __realloc_base             004caef0 f   libucrt:realloc_base.obj
 0001:000c9f73       __wrename                  004caf73 f   libucrt:wrename.obj
 0001:000c9fcc       __fFATN2                   004cafcc     libucrt:87triga.obj
 0001:000ca01c       __rtpiby2                  004cb01c     libucrt:87triga.obj
 0001:000ca090       __cintrindisp2             004cb090 f   libucrt:87cdisp.obj
 0001:000ca0d4       __cintrindisp1             004cb0d4 f   libucrt:87cdisp.obj
 0001:000ca117       __ctrandisp2               004cb117 f   libucrt:87cdisp.obj
 0001:000ca2a6       __ctrandisp1               004cb2a6 f   libucrt:87cdisp.obj
 0001:000ca2d9       __fload                    004cb2d9 f   libucrt:87cdisp.obj
 0001:000ca3b6       ___acrt_initialize_sse2    004cb3b6 f   libucrt:mathfcns.obj
 0001:000ca3c8       __set_SSE2_enable          004cb3c8 f   libucrt:mathfcns.obj
 0001:000ca400       __CIcos_pentium4           004cb400 f   libucrt:cos_pentium4.obj
 0001:000ca418       __cos_pentium4             004cb418     libucrt:cos_pentium4.obj
 0001:000ca617       __add_exp                  004cb617 f   libucrt:util.obj
 0001:000ca651       __decomp                   004cb651 f   libucrt:util.obj
 0001:000ca75a       __get_exp                  004cb75a f   libucrt:util.obj
 0001:000ca779       __set_bexp                 004cb779 f   libucrt:util.obj
 0001:000ca7ac       __set_exp                  004cb7ac f   libucrt:util.obj
 0001:000ca7e6       __sptype                   004cb7e6 f   libucrt:util.obj
 0001:000ca85b       ___clrfp_sse2              004cb85b f   libucrt:fpctrl.obj
 0001:000ca884       ___ctrlfp_sse2             004cb884 f   libucrt:fpctrl.obj
 0001:000ca8cd       ___fclrf_sse2              004cb8cd f   libucrt:fpctrl.obj
 0001:000ca8f3       ___get_fpsr_sse2           004cb8f3 f   libucrt:fpctrl.obj
 0001:000ca918       ___set_fpsr_sse2           004cb918 f   libucrt:fpctrl.obj
 0001:000ca9ab       ___set_statfp_sse2         004cb9ab f   libucrt:fpctrl.obj
 0001:000ca9cc       ___statfp_sse2             004cb9cc f   libucrt:fpctrl.obj
 0001:000ca9e6       __clrfp                    004cb9e6 f   libucrt:fpctrl.obj
 0001:000ca9fd       __ctrlfp                   004cb9fd f   libucrt:fpctrl.obj
 0001:000caa34       __set_statfp               004cba34 f   libucrt:fpctrl.obj
 0001:000caaa5       __statfp                   004cbaa5 f   libucrt:fpctrl.obj
 0001:000caac0       __CIsin_pentium4           004cbac0 f   libucrt:sin_pentium4.obj
 0001:000caad8       __sin_pentium4             004cbad8     libucrt:sin_pentium4.obj
 0001:000cacfa       __d_int                    004cbcfa f   libucrt:_test.obj
 0001:000cae42       __dtest                    004cbe42 f   libucrt:_test.obj
 0001:000caebf       __fd_int                   004cbebf f   libucrt:_test.obj
 0001:000cafc1       __fdtest                   004cbfc1 f   libucrt:_test.obj
 0001:000cb022       __fperrraise               004cc022 f   libucrt:_test.obj
 0001:000cb04d       __ld_int                   004cc04d f   libucrt:_test.obj
 0001:000cb05a       __ldtest                   004cc05a f   libucrt:_test.obj
 0001:000cb0ff       ?dangerous_get_state_array@?$dual_state_global@PAPAD@__crt_state_management@@QAEPAPAPADXZ 004cc0ff f i libucrt:timeset.obj
 0001:000cb102       ?initialize@?$dual_state_global@H@__crt_state_management@@QAEXH@Z 004cc102 f i libucrt:timeset.obj
 0001:000cb13f       ?initialize@?$dual_state_global@J@__crt_state_management@@QAEXJ@Z 004cc13f f i libucrt:timeset.obj
 0001:000cb17c       ?value@?$dual_state_global@H@__crt_state_management@@QAEAAHXZ 004cc17c f i libucrt:timeset.obj
 0001:000cb17f       ___acrt_initialize_timeset 004cc17f f   libucrt:timeset.obj
 0001:000cb1c3       ___daylight                004cc1c3 f   libucrt:timeset.obj
 0001:000cb1c9       ___dstbias                 004cc1c9 f   libucrt:timeset.obj
 0001:000cb1cf       ___timezone                004cc1cf f   libucrt:timeset.obj
 0001:000cb1d5       ___tzname                  004cc1d5 f   libucrt:timeset.obj
 0001:000cb1db       __get_daylight             004cc1db f   libucrt:timeset.obj
 0001:000cb212       __get_dstbias              004cc212 f   libucrt:timeset.obj
 0001:000cb249       __get_timezone             004cc249 f   libucrt:timeset.obj
 0001:000cb280       __get_tzname               004cc280 f   libucrt:timeset.obj
 0001:000cb35f       ??$?RUtm@@@__crt_internal_free_policy@@QBEXQBUtm@@@Z 004cc35f f i libucrt:gmtime.obj
 0001:000cb6d5       ??0?$__crt_unique_heap_ptr@Utm@@U__crt_internal_free_policy@@@@QAE@QAUtm@@@Z 004cc6d5 f i libucrt:gmtime.obj
 0001:000cb6e9       ??1?$__crt_unique_heap_ptr@Utm@@U__crt_internal_free_policy@@@@QAE@XZ 004cc6e9 f i libucrt:gmtime.obj
 0001:000cb847       ?detach@?$__crt_unique_heap_ptr@Utm@@U__crt_internal_free_policy@@@@QAEPAUtm@@XZ 004cc847 f i libucrt:gmtime.obj
 0001:000cb84d       ?release@?$__crt_unique_heap_ptr@Utm@@U__crt_internal_free_policy@@@@QAEXXZ 004cc84d f i libucrt:gmtime.obj
 0001:000cb863       ___getgmtimebuf            004cc863 f   libucrt:gmtime.obj
 0001:000cb8b0       __gmtime32                 004cc8b0 f   libucrt:gmtime.obj
 0001:000cb8e0       __gmtime32_s               004cc8e0 f   libucrt:gmtime.obj
 0001:000cb8ed       __gmtime64                 004cc8ed f   libucrt:gmtime.obj
 0001:000cb91d       __gmtime64_s               004cc91d f   libucrt:gmtime.obj
 0001:000cbb8a       ?_set_daylight@@YAXH@Z     004ccb8a f i libucrt:tzset.obj
 0001:000cbb9f       ?_set_dstbias@@YAXJ@Z      004ccb9f f i libucrt:tzset.obj
 0001:000cbbb4       ?_set_timezone@@YAXJ@Z     004ccbb4 f i libucrt:tzset.obj
 0001:000cc30c       ___tzset                   004cd30c f   libucrt:tzset.obj
 0001:000cc371       __isindst                  004cd371 f   libucrt:tzset.obj
 0001:000cc3cd       __tzset                    004cd3cd f   libucrt:tzset.obj
 0001:000cc413       ?__crt_get_2digit_year@@YAHH@Z 004cd413 f i libucrt:wcsftime.obj
 0001:000cc42f       ?__crt_get_century@@YAHH@Z 004cd42f f i libucrt:wcsftime.obj
 0001:000cda8b       __W_Getdays                004cea8b f   libucrt:wcsftime.obj
 0001:000cdc44       __W_Getmonths              004cec44 f   libucrt:wcsftime.obj
 0001:000cddfd       __W_Gettnames              004cedfd f   libucrt:wcsftime.obj
 0001:000ce6ba       __Wcsftime                 004cf6ba f   libucrt:wcsftime.obj
 0001:000ce6e2       __Wcsftime_l               004cf6e2 f   libucrt:wcsftime.obj
 0001:000ce8c3       __wcsftime_l               004cf8c3 f   libucrt:wcsftime.obj
 0001:000ce8eb       _wcsftime                  004cf8eb f   libucrt:wcsftime.obj
 0001:000cea11       _wcsncpy_s                 004cfa11 f   libucrt:wcsncpy_s.obj
 0001:000cf416       ??$find_first_file_ex@ABQADW4_FINDEX_INFO_LEVELS@@PAU_WIN32_FIND_DATAA@@W4_FINDEX_SEARCH_OPS@@$$TH@?$__crt_char_traits@D@@SAPAXABQAD$$QAW4_FINDEX_INFO_LEVELS@@$$QAPAU_WIN32_FIND_DATAA@@$$QAW4_FINDEX_SEARCH_OPS@@$$QA$$T$$QAH@Z 004d0416 f i libucrt:argv_wildcards.obj
 0001:000cf44b       ??$find_first_file_ex@ABQA_WW4_FINDEX_INFO_LEVELS@@PAU_WIN32_FIND_DATAW@@W4_FINDEX_SEARCH_OPS@@$$TH@?$__crt_char_traits@_W@@SAPAXABQA_W$$QAW4_FINDEX_INFO_LEVELS@@$$QAPAU_WIN32_FIND_DATAW@@$$QAW4_FINDEX_SEARCH_OPS@@$$QA$$T$$QAH@Z 004d044b f i libucrt:argv_wildcards.obj
 0001:000cf480       ??$find_next_file@PAXPAU_WIN32_FIND_DATAA@@@?$__crt_char_traits@D@@SAH$$QAPAX$$QAPAU_WIN32_FIND_DATAA@@@Z 004d0480 f i libucrt:argv_wildcards.obj
 0001:000cf49c       ??$find_next_file@PAXPAU_WIN32_FIND_DATAW@@@?$__crt_char_traits@_W@@SAH$$QAPAX$$QAPAU_WIN32_FIND_DATAW@@@Z 004d049c f i libucrt:argv_wildcards.obj
 0001:000cf4b8       ??$tcsncpy_s@AAPADIAAPADABI@?$__crt_char_traits@D@@SAHAAPAD$$QAI0ABI@Z 004d04b8 f i libucrt:argv_wildcards.obj
 0001:000cf4e3       ??$tcsncpy_s@AAPA_WIAAPA_WABI@?$__crt_char_traits@_W@@SAHAAPA_W$$QAI0ABI@Z 004d04e3 f i libucrt:argv_wildcards.obj
 0001:000cf50e       ??$tcsncpy_s@PAD$$CBIABQBDABI@?$__crt_char_traits@D@@SAH$$QAPAD$$QBIABQBDABI@Z 004d050e f i libucrt:argv_wildcards.obj
 0001:000cf539       ??$tcsncpy_s@PADABIABQBDABI@?$__crt_char_traits@D@@SAH$$QAPADABIABQBD1@Z 004d0539 f i libucrt:argv_wildcards.obj
 0001:000cf564       ??$tcsncpy_s@PA_W$$CBIABQB_WABI@?$__crt_char_traits@_W@@SAH$$QAPA_W$$QBIABQB_WABI@Z 004d0564 f i libucrt:argv_wildcards.obj
 0001:000cf58f       ??$tcsncpy_s@PA_WABIABQB_WABI@?$__crt_char_traits@_W@@SAH$$QAPA_WABIABQB_W1@Z 004d058f f i libucrt:argv_wildcards.obj
 0001:000cf5ba       ??$tcspbrk@AAPADAAY02$$CBD@?$__crt_char_traits@D@@SAPADAAPADAAY02$$CBD@Z 004d05ba f i libucrt:argv_wildcards.obj
 0001:000cf5d5       ??$tcspbrk@AAPA_WAAY02$$CB_W@?$__crt_char_traits@_W@@SAPA_WAAPA_WAAY02$$CB_W@Z 004d05d5 f i libucrt:argv_wildcards.obj
 0001:000cf5f0       ??0?$__crt_unique_handle_t@U__crt_findfile_traits@@@@QAE@QAX@Z 004d05f0 f i libucrt:argv_wildcards.obj
 0001:000cf604       ??0?$argument_list@D@?A0xb0e4b824@@QAE@XZ 004d0604 f i libucrt:argv_wildcards.obj
 0001:000cf614       ??0?$argument_list@_W@?A0xb0e4b824@@QAE@XZ 004d0614 f i libucrt:argv_wildcards.obj
 0001:000cf624       ??1?$__crt_unique_handle_t@U__crt_findfile_traits@@@@QAE@XZ 004d0624 f i libucrt:argv_wildcards.obj
 0001:000cf640       ??1?$argument_list@D@?A0xb0e4b824@@QAE@XZ 004d0640 f i libucrt:argv_wildcards.obj
 0001:000cf66e       ??1?$argument_list@_W@?A0xb0e4b824@@QAE@XZ 004d066e f i libucrt:argv_wildcards.obj
 0001:000cf6fc       ?append@?$argument_list@D@?A0xb0e4b824@@QAEHQAD@Z 004d06fc f i libucrt:argv_wildcards.obj
 0001:000cf73e       ?append@?$argument_list@_W@?A0xb0e4b824@@QAEHQA_W@Z 004d073e f i libucrt:argv_wildcards.obj
 0001:000cf780       ?begin@?$argument_list@D@?A0xb0e4b824@@QBEPAPADXZ 004d0780 f i libucrt:argv_wildcards.obj
 0001:000cf783       ?begin@?$argument_list@_W@?A0xb0e4b824@@QBEPAPA_WXZ 004d0783 f i libucrt:argv_wildcards.obj
 0001:000cf786       ?close@?$__crt_unique_handle_t@U__crt_findfile_traits@@@@QAEXXZ 004d0786 f i libucrt:argv_wildcards.obj
 0001:000cf7a2       ?close@__crt_findfile_traits@@SA_NPAX@Z 004d07a2 f i libucrt:argv_wildcards.obj
 0001:000cf7bd       ?end@?$argument_list@D@?A0xb0e4b824@@QBEPAPADXZ 004d07bd f i libucrt:argv_wildcards.obj
 0001:000cf7c1       ?end@?$argument_list@_W@?A0xb0e4b824@@QBEPAPA_WXZ 004d07c1 f i libucrt:argv_wildcards.obj
 0001:000cf7c5       ?expand_if_necessary@?$argument_list@D@?A0xb0e4b824@@AAEHXZ 004d07c5 f i libucrt:argv_wildcards.obj
 0001:000cf86d       ?expand_if_necessary@?$argument_list@_W@?A0xb0e4b824@@AAEHXZ 004d086d f i libucrt:argv_wildcards.obj
 0001:000cf915       ?get@?$__crt_unique_handle_t@U__crt_findfile_traits@@@@QBEPAXXZ 004d0915 f i libucrt:argv_wildcards.obj
 0001:000cf918       ?get_invalid_value@__crt_findfile_traits@@SAPAXXZ 004d0918 f i libucrt:argv_wildcards.obj
 0001:000cf939       ?size@?$argument_list@D@?A0xb0e4b824@@QBEIXZ 004d0939 f i libucrt:argv_wildcards.obj
 0001:000cf944       ?size@?$argument_list@_W@?A0xb0e4b824@@QBEIXZ 004d0944 f i libucrt:argv_wildcards.obj
 0001:000cf94f       ?strpbrk@@YAPADQADQBD@Z    004d094f f i libucrt:argv_wildcards.obj
 0001:000cf95c       ?wcspbrk@@YAPA_WPA_WPB_W@Z 004d095c f i libucrt:argv_wildcards.obj
 0001:000cf969       ___acrt_expand_narrow_argv_wildcards 004d0969 f   libucrt:argv_wildcards.obj
 0001:000cf976       ___acrt_expand_wide_argv_wildcards 004d0976 f   libucrt:argv_wildcards.obj
 0001:000cf983       ??$?RV<lambda_978dc153c237d78434369da87b74ff60>@@AAV<lambda_ad1ced32f4ac17aa236e5ef05d6b3b7c>@@V<lambda_4a8533e2866a575feecb8298ce776b0d>@@@?$__crt_seh_guarded_call@X@@QAEX$$QAV<lambda_978dc153c237d78434369da87b74ff60>@@AAV<lambda_ad1ced32f4ac17aa236e5ef05d6b3b7c>@@$$QAV<lambda_4a8533e2866a575feecb8298ce776b0d>@@@Z 004d0983 f i libucrt:mbctype.obj
 0001:000cf9d6       ??$__acrt_lock_and_call@V<lambda_ad1ced32f4ac17aa236e5ef05d6b3b7c>@@@@YAXW4__acrt_lock_id@@$$QAV<lambda_ad1ced32f4ac17aa236e5ef05d6b3b7c>@@@Z 004d09d6 f i libucrt:mbctype.obj
 0001:000cffe7       ___acrt_initialize_multibyte 004d0fe7 f   libucrt:mbctype.obj
 0001:000d000c       ___acrt_update_thread_multibyte_data 004d100c f   libucrt:mbctype.obj
 0001:000d00d6       ___p__mbcasemap            004d10d6 f   libucrt:mbctype.obj
 0001:000d00dc       ___p__mbctype              004d10dc f   libucrt:mbctype.obj
 0001:000d00e2       __getmbcp                  004d10e2 f   libucrt:mbctype.obj
 0001:000d0125       __setmbcp                  004d1125 f   libucrt:mbctype.obj
 0001:000d013c       __setmbcp_nolock           004d113c f   libucrt:mbctype.obj
 0001:000d04b9       __ismbbalnum               004d14b9 f   libucrt:ismbbyte.obj
 0001:000d04da       __ismbbalnum_l             004d14da f   libucrt:ismbbyte.obj
 0001:000d04fd       __ismbbalpha               004d14fd f   libucrt:ismbbyte.obj
 0001:000d051e       __ismbbalpha_l             004d151e f   libucrt:ismbbyte.obj
 0001:000d0541       __ismbbblank               004d1541 f   libucrt:ismbbyte.obj
 0001:000d056c       __ismbbblank_l             004d156c f   libucrt:ismbbyte.obj
 0001:000d0599       __ismbbgraph               004d1599 f   libucrt:ismbbyte.obj
 0001:000d05ba       __ismbbgraph_l             004d15ba f   libucrt:ismbbyte.obj
 0001:000d05dd       __ismbbkalnum              004d15dd f   libucrt:ismbbyte.obj
 0001:000d05fb       __ismbbkalnum_l            004d15fb f   libucrt:ismbbyte.obj
 0001:000d061a       __ismbbkana                004d161a f   libucrt:ismbbyte.obj
 0001:000d0631       __ismbbkana_l              004d1631 f   libucrt:ismbbyte.obj
 0001:000d0696       __ismbbkprint              004d1696 f   libucrt:ismbbyte.obj
 0001:000d06b4       __ismbbkprint_l            004d16b4 f   libucrt:ismbbyte.obj
 0001:000d06d3       __ismbbkpunct              004d16d3 f   libucrt:ismbbyte.obj
 0001:000d06f1       __ismbbkpunct_l            004d16f1 f   libucrt:ismbbyte.obj
 0001:000d0710       __ismbblead                004d1710 f   libucrt:ismbbyte.obj
 0001:000d072e       __ismbblead_l              004d172e f   libucrt:ismbbyte.obj
 0001:000d074d       __ismbbprint               004d174d f   libucrt:ismbbyte.obj
 0001:000d076e       __ismbbprint_l             004d176e f   libucrt:ismbbyte.obj
 0001:000d0791       __ismbbpunct               004d1791 f   libucrt:ismbbyte.obj
 0001:000d07af       __ismbbpunct_l             004d17af f   libucrt:ismbbyte.obj
 0001:000d07ce       __ismbbtrail               004d17ce f   libucrt:ismbbyte.obj
 0001:000d07ec       __ismbbtrail_l             004d17ec f   libucrt:ismbbyte.obj
 0001:000d080b       ___acrt_initialize_command_line 004d180b f   libucrt:argv_data.obj
 0001:000d082a       ___acrt_uninitialize_command_line 004d182a f   libucrt:argv_data.obj
 0001:000d082d       ___p___argc                004d182d f   libucrt:argv_data.obj
 0001:000d0833       ___p___argv                004d1833 f   libucrt:argv_data.obj
 0001:000d0839       ___p___wargv               004d1839 f   libucrt:argv_data.obj
 0001:000d083f       ___p__acmdln               004d183f f   libucrt:argv_data.obj
 0001:000d0845       ___p__pgmptr               004d1845 f   libucrt:argv_data.obj
 0001:000d084b       ___p__wcmdln               004d184b f   libucrt:argv_data.obj
 0001:000d0851       ___p__wpgmptr              004d1851 f   libucrt:argv_data.obj
 0001:000d0857       __get_pgmptr               004d1857 f   libucrt:argv_data.obj
 0001:000d0894       __get_wpgmptr              004d1894 f   libucrt:argv_data.obj
 0001:000d08d1       ??0?$__crt_unique_handle_t@Uenvironment_strings_traits@?A0x588e5281@@@@QAE@QA_W@Z 004d18d1 f i libucrt:get_environment_from_os.obj
 0001:000d08e5       ??1?$__crt_unique_handle_t@Uenvironment_strings_traits@?A0x588e5281@@@@QAE@XZ 004d18e5 f i libucrt:get_environment_from_os.obj
 0001:000d0901       ??B?$__crt_unique_handle_t@Uenvironment_strings_traits@?A0x588e5281@@@@QBE_NXZ 004d1901 f i libucrt:get_environment_from_os.obj
 0001:000d090b       ?close@?$__crt_unique_handle_t@Uenvironment_strings_traits@?A0x588e5281@@@@QAEXXZ 004d190b f i libucrt:get_environment_from_os.obj
 0001:000d0927       ?close@environment_strings_traits@?A0x588e5281@@SA_NPA_W@Z 004d1927 f i libucrt:get_environment_from_os.obj
 0001:000d0981       ?get@?$__crt_unique_handle_t@Uenvironment_strings_traits@?A0x588e5281@@@@QBEPA_WXZ 004d1981 f i libucrt:get_environment_from_os.obj
 0001:000d0984       ?get_invalid_value@environment_strings_traits@?A0x588e5281@@SAPA_WXZ 004d1984 f i libucrt:get_environment_from_os.obj
 0001:000d0987       ?is_valid@?$__crt_unique_handle_t@Uenvironment_strings_traits@?A0x588e5281@@@@QBE_NXZ 004d1987 f i libucrt:get_environment_from_os.obj
 0001:000d0991       ___dcrt_get_narrow_environment_from_os 004d1991 f   libucrt:get_environment_from_os.obj
 0001:000d0a34       ___dcrt_get_wide_environment_from_os 004d1a34 f   libucrt:get_environment_from_os.obj
 0001:000d12cc       ??$get_or_create_environment_nolock@$$$V@?$__crt_char_traits@D@@SAPAPADXZ 004d22cc f i libucrt:setenv.obj
 0001:000d12d1       ??$get_or_create_environment_nolock@$$$V@?$__crt_char_traits@_W@@SAPAPA_WXZ 004d22d1 f i libucrt:setenv.obj
 0001:000d12d6       ??$set_environment_variable@ABQADQAD@?$__crt_char_traits@D@@SAHABQAD$$QBQAD@Z 004d22d6 f i libucrt:setenv.obj
 0001:000d12f2       ??$set_environment_variable@ABQA_WQA_W@?$__crt_char_traits@_W@@SAHABQA_W$$QBQA_W@Z 004d22f2 f i libucrt:setenv.obj
 0001:000d130e       ??$tcschr@ABQADD@?$__crt_char_traits@D@@SAPADABQAD$$QAD@Z 004d230e f i libucrt:setenv.obj
 0001:000d132e       ??$tcschr@ABQA_WD@?$__crt_char_traits@_W@@SAPA_WABQA_W$$QAD@Z 004d232e f i libucrt:setenv.obj
 0001:000d1353       ??$tcscpy_s@AAPADABIAAPAD@?$__crt_char_traits@D@@SAHAAPADABI0@Z 004d2353 f i libucrt:setenv.obj
 0001:000d1378       ??$tcscpy_s@AAPA_WABIAAPA_W@?$__crt_char_traits@_W@@SAHAAPA_WABI0@Z 004d2378 f i libucrt:setenv.obj
 0001:000d139d       ??$tcscpy_s@ABQADABIABQAD@?$__crt_char_traits@D@@SAHABQADABI0@Z 004d239d f i libucrt:setenv.obj
 0001:000d13c2       ??$tcscpy_s@ABQA_WABIABQA_W@?$__crt_char_traits@_W@@SAHABQA_WABI0@Z 004d23c2 f i libucrt:setenv.obj
 0001:000d13e7       ??$tcsnicoll@ABQBDAAPADABI@?$__crt_char_traits@D@@SAHABQBDAAPADABI@Z 004d23e7 f i libucrt:setenv.obj
 0001:000d140c       ??$tcsnicoll@ABQB_WAAPA_WABI@?$__crt_char_traits@_W@@SAHABQB_WAAPA_WABI@Z 004d240c f i libucrt:setenv.obj
 0001:000d1455       ?wcschr@@YAPA_WPA_W_W@Z    004d2455 f i libucrt:setenv.obj
 0001:000d1462       ___dcrt_set_variable_in_narrow_environment_nolock 004d2462 f   libucrt:setenv.obj
 0001:000d146f       ___dcrt_set_variable_in_wide_environment_nolock 004d246f f   libucrt:setenv.obj
 0001:000d147c       ___p__fmode                004d247c f   libucrt:txtmode.obj
 0001:000d1482       ??$?RG@__crt_internal_free_policy@@QBEXQBG@Z 004d2482 f i libucrt:initctype.obj
 0001:000d1498       ??$?RJ@__crt_internal_free_policy@@QBEXQBJ@Z 004d2498 f i libucrt:initctype.obj
 0001:000d14ae       ??0?$__crt_unique_heap_ptr@GU__crt_internal_free_policy@@@@QAE@QAG@Z 004d24ae f i libucrt:initctype.obj
 0001:000d14c2       ??0?$__crt_unique_heap_ptr@JU__crt_internal_free_policy@@@@QAE@QAJ@Z 004d24c2 f i libucrt:initctype.obj
 0001:000d14d6       ??1?$__crt_unique_heap_ptr@GU__crt_internal_free_policy@@@@QAE@XZ 004d24d6 f i libucrt:initctype.obj
 0001:000d14ec       ??1?$__crt_unique_heap_ptr@JU__crt_internal_free_policy@@@@QAE@XZ 004d24ec f i libucrt:initctype.obj
 0001:000d1502       ?detach@?$__crt_unique_heap_ptr@GU__crt_internal_free_policy@@@@QAEPAGXZ 004d2502 f i libucrt:initctype.obj
 0001:000d1508       ?detach@?$__crt_unique_heap_ptr@JU__crt_internal_free_policy@@@@QAEPAJXZ 004d2508 f i libucrt:initctype.obj
 0001:000d150e       ?release@?$__crt_unique_heap_ptr@GU__crt_internal_free_policy@@@@QAEXXZ 004d250e f i libucrt:initctype.obj
 0001:000d1524       ?release@?$__crt_unique_heap_ptr@JU__crt_internal_free_policy@@@@QAEXXZ 004d2524 f i libucrt:initctype.obj
 0001:000d153a       ____lc_codepage_func       004d253a f   libucrt:initctype.obj
 0001:000d156a       ____lc_collate_cp_func     004d256a f   libucrt:initctype.obj
 0001:000d159a       ____lc_locale_name_func    004d259a f   libucrt:initctype.obj
 0001:000d15cd       ____mb_cur_max_func        004d25cd f   libucrt:initctype.obj
 0001:000d15fd       ____mb_cur_max_l_func      004d25fd f   libucrt:initctype.obj
 0001:000d161c       ___acrt_locale_initialize_ctype 004d261c f   libucrt:initctype.obj
 0001:000d1aa1       ??$?RUlconv@@@__crt_internal_free_policy@@QBEXQBUlconv@@@Z 004d2aa1 f i libucrt:initmon.obj
 0001:000d1ab7       ??0?$__crt_unique_heap_ptr@Ulconv@@U__crt_internal_free_policy@@@@QAE@QAUlconv@@@Z 004d2ab7 f i libucrt:initmon.obj
 0001:000d1acb       ??1?$__crt_unique_heap_ptr@Ulconv@@U__crt_internal_free_policy@@@@QAE@XZ 004d2acb f i libucrt:initmon.obj
 0001:000d1ae1       ?detach@?$__crt_unique_heap_ptr@Ulconv@@U__crt_internal_free_policy@@@@QAEPAUlconv@@XZ 004d2ae1 f i libucrt:initmon.obj
 0001:000d1ae7       ?release@?$__crt_unique_heap_ptr@Ulconv@@U__crt_internal_free_policy@@@@QAEXXZ 004d2ae7 f i libucrt:initmon.obj
 0001:000d1afd       ___acrt_locale_free_monetary 004d2afd f   libucrt:initmon.obj
 0001:000d1c3a       ___acrt_locale_initialize_monetary 004d2c3a f   libucrt:initmon.obj
 0001:000d212d       ___acrt_locale_free_numeric 004d312d f   libucrt:initnum.obj
 0001:000d21b0       ___acrt_locale_initialize_numeric 004d31b0 f   libucrt:initnum.obj
 0001:000d249b       ??$?RU__crt_lc_time_data@@@__crt_internal_free_policy@@QBEXQBU__crt_lc_time_data@@@Z 004d349b f i libucrt:inittime.obj
 0001:000d253b       ??0?$__crt_unique_heap_ptr@U__crt_lc_time_data@@U__crt_internal_free_policy@@@@QAE@QAU__crt_lc_time_data@@@Z 004d353b f i libucrt:inittime.obj
 0001:000d254f       ??1?$__crt_unique_heap_ptr@U__crt_lc_time_data@@U__crt_internal_free_policy@@@@QAE@XZ 004d354f f i libucrt:inittime.obj
 0001:000d2565       ??B?$__crt_unique_heap_ptr@U__crt_lc_time_data@@U__crt_internal_free_policy@@@@QBE_NXZ 004d3565 f i libucrt:inittime.obj
 0001:000d256f       ?detach@?$__crt_unique_heap_ptr@U__crt_lc_time_data@@U__crt_internal_free_policy@@@@QAEPAU__crt_lc_time_data@@XZ 004d356f f i libucrt:inittime.obj
 0001:000d25c0       ?get@?$__crt_unique_heap_ptr@U__crt_lc_time_data@@U__crt_internal_free_policy@@@@QBEPAU__crt_lc_time_data@@XZ 004d35c0 f i libucrt:inittime.obj
 0001:000d2958       ?is_valid@?$__crt_unique_heap_ptr@U__crt_lc_time_data@@U__crt_internal_free_policy@@@@QBE_NXZ 004d3958 f i libucrt:inittime.obj
 0001:000d2962       ?release@?$__crt_unique_heap_ptr@U__crt_lc_time_data@@U__crt_internal_free_policy@@@@QAEXXZ 004d3962 f i libucrt:inittime.obj
 0001:000d2978       ___acrt_locale_free_time   004d3978 f   libucrt:inittime.obj
 0001:000d2a95       ___acrt_locale_initialize_time 004d3a95 f   libucrt:inittime.obj
 0001:000d2b33       _wcscspn                   004d3b33 f   libucrt:wcscspn.obj
 0001:000d2b97       _wcsncmp                   004d3b97 f   libucrt:wcsncmp.obj
 0001:000d2bdf       ___acrt_GetStringTypeA     004d3bdf f   libucrt:getstringtypea.obj
 0001:000d2d43       ___acrt_add_locale_ref     004d3d43 f   libucrt:locale_refcounting.obj
 0001:000d2ddf       ___acrt_free_locale        004d3ddf f   libucrt:locale_refcounting.obj
 0001:000d2f7b       ___acrt_locale_add_lc_time_reference 004d3f7b f   libucrt:locale_refcounting.obj
 0001:000d2fae       ___acrt_locale_free_lc_time_if_unreferenced 004d3fae f   libucrt:locale_refcounting.obj
 0001:000d2fea       ___acrt_locale_release_lc_time_reference 004d3fea f   libucrt:locale_refcounting.obj
 0001:000d301d       ___acrt_release_locale_ref 004d401d f   libucrt:locale_refcounting.obj
 0001:000d30be       ___acrt_update_thread_locale_data 004d40be f   libucrt:locale_refcounting.obj
 0001:000d3152       __updatetlocinfoEx_nolock  004d4152 f   libucrt:locale_refcounting.obj
 0001:000d3ac6       ___acrt_get_qualified_locale 004d4ac6 f   libucrt:get_qualified_locale.obj
 0001:000d466d       ___acrt_get_qualified_locale_downlevel 004d566d f   libucrt:getqloc_downlevel.obj
 0001:000d48f5       _localeconv                004d58f5 f   libucrt:localeconv.obj
 0001:000d4929       __recalloc                 004d5929 f   libucrt:recalloc.obj
 0001:000d4936       __recalloc_base            004d5936 f   libucrt:recalloc.obj
 0001:000d49be       ___acrt_getheap            004d59be f   libucrt:heap_handle.obj
 0001:000d49c4       ___acrt_initialize_heap    004d59c4 f   libucrt:heap_handle.obj
 0001:000d49d9       ___acrt_uninitialize_heap  004d59d9 f   libucrt:heap_handle.obj
 0001:000d49e5       __get_heap_handle          004d59e5 f   libucrt:heap_handle.obj
 0001:000d49eb       ___acrt_execute_initializers 004d59eb f   libucrt:shared_initialization.obj
 0001:000d4a8e       ___acrt_execute_uninitializers 004d5a8e f   libucrt:shared_initialization.obj
 0001:000d4c84       ___control87_2             004d5c84 f   libucrt:ieee87.obj
 0001:000d5258       ___fpreset_sse2            004d6258 f   libucrt:ieee87.obj
 0001:000d54ab       __clearfp                  004d64ab f   libucrt:ieee87.obj
 0001:000d55c0       __control87                004d65c0 f   libucrt:ieee87.obj
 0001:000d5982       __controlfp                004d6982 f   libucrt:ieee87.obj
 0001:000d59a2       __fpreset                  004d69a2 f   libucrt:ieee87.obj
 0001:000d5a9f       __set_controlfp            004d6a9f f   libucrt:ieee87.obj
 0001:000d5b35       __statusfp                 004d6b35 f   libucrt:ieee87.obj
 0001:000d5bf8       __statusfp2                004d6bf8 f   libucrt:ieee87.obj
 0001:000d5c80       ___ascii_strnicmp          004d6c80 f   libucrt:_strnicm.obj
 0001:000d5cf9       ??$?RV<lambda_4cfda81533ccf5a03113a1ca40a30445>@@AAV<lambda_1cffa78e445b1da5fba1a2e0e533226f>@@V<lambda_68c952aa1b860373b2109ef12d0bba9d>@@@?$__crt_seh_guarded_call@H@@QAEH$$QAV<lambda_4cfda81533ccf5a03113a1ca40a30445>@@AAV<lambda_1cffa78e445b1da5fba1a2e0e533226f>@@$$QAV<lambda_68c952aa1b860373b2109ef12d0bba9d>@@@Z 004d6cf9 f i libucrt:chsize.obj
 0001:000d5da3       ??$__acrt_lowio_lock_fh_and_call@V<lambda_1cffa78e445b1da5fba1a2e0e533226f>@@@@YAHH$$QAV<lambda_1cffa78e445b1da5fba1a2e0e533226f>@@@Z 004d6da3 f i libucrt:chsize.obj
 0001:000d5e85       __chsize                   004d6e85 f   libucrt:chsize.obj
 0001:000d5ea8       __chsize_nolock            004d6ea8 f   libucrt:chsize.obj
 0001:000d609d       __chsize_s                 004d709d f   libucrt:chsize.obj
 0001:000d615e       __umask                    004d715e f   libucrt:umask.obj
 0001:000d618c       __umask_s                  004d718c f   libucrt:umask.obj
 0001:000d61d5       __isatty                   004d71d5 f   libucrt:isatty.obj
 0001:000d6240       __waccess                  004d7240 f   libucrt:waccess.obj
 0001:000d625e       __waccess_s                004d725e f   libucrt:waccess.obj
 0001:000d634e       __wremove                  004d734e f   libucrt:wunlink.obj
 0001:000d6380       __wunlink                  004d7380 f   libucrt:wunlink.obj
 0001:000d638d       ??$?RV<lambda_4980db0136e49a56f91ef52c46ca659a>@@AAV<lambda_6e3e78bb6855d1e4040e022c1b427e22>@@V<lambda_9c074eaf62197b4fd0274ed9e7824161>@@@?$__crt_seh_guarded_call@G@@QAEG$$QAV<lambda_4980db0136e49a56f91ef52c46ca659a>@@AAV<lambda_6e3e78bb6855d1e4040e022c1b427e22>@@$$QAV<lambda_9c074eaf62197b4fd0274ed9e7824161>@@@Z 004d738d f i libucrt:putwch.obj
 0001:000d6402       ??$__acrt_lock_and_call@V<lambda_6e3e78bb6855d1e4040e022c1b427e22>@@@@YAGW4__acrt_lock_id@@$$QAV<lambda_6e3e78bb6855d1e4040e022c1b427e22>@@@Z 004d7402 f i libucrt:putwch.obj
 0001:000d649a       __putwch                   004d749a f   libucrt:putwch.obj
 0001:000d64be       __putwch_nolock            004d74be f   libucrt:putwch.obj
 0001:000d6514       ___acrt_fp_strflt_to_string 004d7514 f   libucrt:_fptostr.obj
 0001:000d7d3e       ??0scoped_fp_state_reset@?A0x48fbfdd4@@QAE@XZ 004d8d3e f i libucrt:cfout.obj
 0001:000d7d72       ??1scoped_fp_state_reset@?A0x48fbfdd4@@QAE@XZ 004d8d72 f i libucrt:cfout.obj
 0001:000d7d90       ??8__crt_strtox@@YA_NABUbig_integer@0@0@Z 004d8d90 f i libucrt:cfout.obj
 0001:000d7de0       ??9__crt_strtox@@YA_NABUbig_integer@0@0@Z 004d8de0 f i libucrt:cfout.obj
 0001:000d7e40       ?is_zero@__crt_strtox@@YA_NABUbig_integer@1@@Z 004d8e40 f i libucrt:cfout.obj
 0001:000d7e60       ?make_big_integer_power_of_two@__crt_strtox@@YA?AUbig_integer@1@I@Z 004d8e60 f i libucrt:cfout.obj
 0001:000d7ebf       ___acrt_fltout             004d8ebf f   libucrt:cfout.obj
 0001:000d97e3       __fcloseall                004da7e3 f   libucrt:closeall.obj
 0001:000d98ab       __wcsnicmp                 004da8ab f   libucrt:wcsnicmp.obj
 0001:000d9991       __wcsnicmp_l               004da991 f   libucrt:wcsnicmp.obj
 0001:000d9ae0       _strncmp                   004daae0 f   libucrt:strncmp.obj
 0001:000d9b76       ___acrt_stdio_allocate_buffer_nolock 004dab76 f   libucrt:_getbuf.obj
 0001:000d9bea       ___acrt_fenv_get_fp_status_word_from_exception_mask 004dabea f   libucrt:_fenvutils.obj
 0001:000da02d       __getfpcontrolword         004db02d f   libucrt:_fenvutils.obj
 0001:000da080       __getfpstatusword          004db080 f   libucrt:_fenvutils.obj
 0001:000da152       __setfpcontrolword         004db152 f   libucrt:_fenvutils.obj
 0001:000da1f2       __setfpstatusword          004db1f2 f   libucrt:_fenvutils.obj
 0001:000da292       ___strncnt                 004db292 f   libucrt:strncnt.obj
 0001:000da2b5       __87except                 004db2b5 f   libucrt:87except.obj
 0001:000da916       __getcwd                   004db916 f   libucrt:getcwd.obj
 0001:000da939       __getdcwd                  004db939 f   libucrt:getcwd.obj
 0001:000da95e       __wgetcwd                  004db95e f   libucrt:getcwd.obj
 0001:000da981       __wgetdcwd                 004db981 f   libucrt:getcwd.obj
 0001:000da9a6       __towlower_l               004db9a6 f   libucrt:towlower.obj
 0001:000daaa1       _towlower                  004dbaa1 f   libucrt:towlower.obj
 0001:000dac79       ___acrt_DownlevelLCIDToLocaleName 004dbc79 f   libucrt:lcidtoname_downlevel.obj
 0001:000dad4d       ___acrt_DownlevelLocaleNameToLCID 004dbd4d f   libucrt:lcidtoname_downlevel.obj
 0001:000dad84       _fegetexceptflag           004dbd84 f   libucrt:fegetexceptflag.obj
 0001:000dadc1       _fesetexceptflag           004dbdc1 f   libucrt:fesetexceptflag.obj
 0001:000db5ac       ??$tcscpy_s@AAPADABIABQBD@?$__crt_char_traits@D@@SAHAAPADABIABQBD@Z 004dc5ac f i libucrt:getenv.obj
 0001:000db5d1       ??$tcscpy_s@AAPA_WABIABQB_W@?$__crt_char_traits@_W@@SAHAAPA_WABIABQB_W@Z 004dc5d1 f i libucrt:getenv.obj
 0001:000db5f6       ??$tcscpy_s@ABQADABIABQBD@?$__crt_char_traits@D@@SAHABQADABIABQBD@Z 004dc5f6 f i libucrt:getenv.obj
 0001:000db61b       ??$tcscpy_s@ABQA_WABIABQB_W@?$__crt_char_traits@_W@@SAHABQA_WABIABQB_W@Z 004dc61b f i libucrt:getenv.obj
 0001:000db640       ??$tcsnicoll@AAPADABQBDABI@?$__crt_char_traits@D@@SAHAAPADABQBDABI@Z 004dc640 f i libucrt:getenv.obj
 0001:000db665       ??$tcsnicoll@AAPA_WABQB_WABI@?$__crt_char_traits@_W@@SAHAAPA_WABQB_WABI@Z 004dc665 f i libucrt:getenv.obj
 0001:000db68a       ??$tcsnlen@ABQBDH@?$__crt_char_traits@D@@SAIABQBD$$QAH@Z 004dc68a f i libucrt:getenv.obj
 0001:000db6a8       ??$tcsnlen@ABQB_WH@?$__crt_char_traits@_W@@SAIABQB_W$$QAH@Z 004dc6a8 f i libucrt:getenv.obj
 0001:000db6c6       __dupenv_s                 004dc6c6 f   libucrt:getenv.obj
 0001:000db6eb       __wdupenv_s                004dc6eb f   libucrt:getenv.obj
 0001:000db710       __wgetenv                  004dc710 f   libucrt:getenv.obj
 0001:000db71d       __wgetenv_s                004dc71d f   libucrt:getenv.obj
 0001:000db72a       _getenv                    004dc72a f   libucrt:getenv.obj
 0001:000db737       _getenv_s                  004dc737 f   libucrt:getenv.obj
 0001:000db821       _strncpy_s                 004dc821 f   libucrt:strncpy_s.obj
 0001:000dba05       __mbstowcs_l               004dca05 f   libucrt:mbstowcs.obj
 0001:000dba12       __mbstowcs_s_l             004dca12 f   libucrt:mbstowcs.obj
 0001:000dbb2d       _mbstowcs                  004dcb2d f   libucrt:mbstowcs.obj
 0001:000dbb61       _mbstowcs_s                004dcb61 f   libucrt:mbstowcs.obj
 0001:000dbb89       ??1scoped_global_state_reset@__crt_state_management@@QAE@XZ 004dcb89 f i libucrt:qsort.obj
 0001:000dbca0       _qsort                     004dcca0 f   libucrt:qsort.obj
 0001:000dc120       _strpbrk                   004dd120 f   libucrt:strpbrk.obj
 0001:000dc170       __mbsdec                   004dd170 f   libucrt:mbsdec.obj
 0001:000dc18c       __mbsdec_l                 004dd18c f   libucrt:mbsdec.obj
 0001:000dc24e       __wcsnicoll                004dd24e f   libucrt:wcsnicol.obj
 0001:000dc352       __wcsnicoll_l              004dd352 f   libucrt:wcsnicol.obj
 0001:000dc4ca       __strnicoll                004dd4ca f   libucrt:strnicol.obj
 0001:000dc4fd       __strnicoll_l              004dd4fd f   libucrt:strnicol.obj
 0001:000dc732       ___acrt_GetLocaleInfoA     004dd732 f   libucrt:getlocaleinfoa.obj
 0001:000dc98f       __msize                    004dd98f f   libucrt:msize.obj
 0001:000dc9ce       ___dcrt_lowio_initialize_console_output 004dd9ce f   libucrt:initcon.obj
 0001:000dc9f4       ___dcrt_terminate_console_output 004dd9f4 f   libucrt:initcon.obj
 0001:000dca10       _fegetenv                  004dda10 f   libucrt:fegetenv.obj
 0001:000dca34       _fesetenv                  004dda34 f   libucrt:fesetenv.obj
 0001:000dca8f       _feholdexcept              004dda8f f   libucrt:feholdexcept.obj
 0001:000dcb00       _log10                     004ddb00 f   libucrt:log10.obj
 0001:000dcb40       __CIlog10                  004ddb40 f   libucrt:log10.obj
 0001:000dcb7b       __CIlog10_default          004ddb7b f   libucrt:log10.obj
 0001:000dcb8f       __log10_default            004ddb8f     libucrt:log10.obj
 0001:000dccb0       _ceil                      004ddcb0 f   libucrt:ceil_pentium4.obj
 0001:000dccf0       __ceil_pentium4            004ddcf0 f   libucrt:ceil_pentium4.obj
 0001:000dce14       ___acrt_LCMapStringW       004dde14 f   libucrt:lcmapstringw.obj
 0001:000dce61       _fetestexcept              004dde61 f   libucrt:fetestexcept.obj
 0001:000dce8b       ___acrt_CompareStringW     004dde8b f   libucrt:comparestringw.obj
 0001:000dd25f       ___acrt_CompareStringA     004de25f f   libucrt:comparestringa.obj
 0001:000dd2c0       __CIlog10_pentium4         004de2c0 f   libucrt:log10_pentium4.obj
 0001:000dd2d8       __log10_pentium4           004de2d8     libucrt:log10_pentium4.obj
 0001:000dd611       __fFEXP                    004de611     libucrt:87tran.obj
 0001:000dd668       __rtinfpopse               004de668     libucrt:87tran.obj
 0001:000dd66a       __rtinfnpopse              004de66a     libucrt:87tran.obj
 0001:000dd67a       __fFLN                     004de67a     libucrt:87tran.obj
 0001:000dd72f       __rtinfpop                 004de72f     libucrt:87tran.obj
 0001:000dd731       __rtinfnpop                004de731     libucrt:87tran.obj
 0001:000dd74e       __ffexpm1                  004de74e     libucrt:87tran.obj
 0001:000dd874       ___libm_error_support      004de874 f   libucrt:libm_error.obj
 0001:000ddb12       ___libm_setusermatherr     004deb12 f   libucrt:libm_error.obj
 0001:000ddb4b       __ceil_default             004deb4b f   libucrt:ceil.obj
 0001:000ddc32       __d_inttype                004dec32 f   libucrt:powhlp.obj
 0001:000ddcb6       __powhlp                   004decb6 f   libucrt:powhlp.obj
 0001:000dde2b       __frnd                     004dee2b f   libucrt:frnd.obj
 0001:000dde46       __chgsign                  004dee46 f   libucrt:ieeemisc.obj
 0001:000dde80       __chgsignf                 004dee80 f   libucrt:ieeemisc.obj
 0001:000ddeab       __copysign                 004deeab f   libucrt:ieeemisc.obj
 0001:000ddedf       __copysignf                004deedf f   libucrt:ieeemisc.obj
 0001:000ddf04       __finite                   004def04 f   libucrt:ieeemisc.obj
 0001:000ddf24       __fpclass                  004def24 f   libucrt:ieeemisc.obj
 0001:000ddff1       __isnan                    004deff1 f   libucrt:ieeemisc.obj
 0001:000de034       __logb                     004df034 f   libucrt:ieeemisc.obj
 0001:000de139       __nextafter                004df139 f   libucrt:ieeemisc.obj
 0001:000de15f       __scalb                    004df15f f   libucrt:ieeemisc.obj
 0001:000de17f       _ldexp                     004df17f f   libucrt:ldexp.obj
 0001:000de3df       _nextafter                 004df3df f   libucrt:nextafter.obj
 0001:000de405       _nexttoward                004df405 f   libucrt:nexttoward.obj
 0001:000de5c0       __FindPESection            004df5c0 f   LIBCMT:pesect.obj
 0001:000de620       __IsNonwritableInCurrentImage 004df620 f   LIBCMT:pesect.obj
 0001:000de710       __ValidateImageBase        004df710 f   LIBCMT:pesect.obj
 0001:000de74d       __EH_epilog3               004df74d f   LIBCMT:ehprolg3.obj
 0001:000de767       __EH_epilog3_GS            004df767 f   LIBCMT:ehprolg3.obj
 0001:000de77c       __EH_epilog3_catch_GS      004df77c f   LIBCMT:ehprolg3.obj
 0001:000de791       __EH_prolog3               004df791 f   LIBCMT:ehprolg3.obj
 0001:000de7d2       __EH_prolog3_GS            004df7d2 f   LIBCMT:ehprolg3.obj
 0001:000de816       __EH_prolog3_catch         004df816 f   LIBCMT:ehprolg3.obj
 0001:000de85a       __EH_prolog3_catch_GS      004df85a f   LIBCMT:ehprolg3.obj
 0001:000de8b0       __aulldvrm                 004df8b0 f   LIBCMT:ulldvrm.obj
 0001:000de970       __allshl                   004df970 f   LIBCMT:llshl.obj
 0001:000de9a0       __aullshr                  004df9a0 f   LIBCMT:ullshr.obj
 0001:000de9d0       __SEH_prolog4_GS           004df9d0 f   LIBCMT:_sehprolg4gs_.obj
 0001:000dea19       __SEH_epilog4_GS           004dfa19 f   LIBCMT:_sehprolg4gs_.obj
 0001:000dea40       __allrem                   004dfa40 f   LIBCMT:llrem.obj
 0001:000deb20       __alldvrm                  004dfb20 f   LIBCMT:lldvrm.obj
 0001:000dec40       __alloca_probe_16          004dfc40 f   LIBCMT:alloca16.obj
 0001:000dec56       __alloca_probe_8           004dfc56     LIBCMT:alloca16.obj
 0001:000dec80       __ftol2_sse                004dfc80 f   LIBCMT:_ftol2_.obj
 0001:000dec89       __ftol2_pentium4           004dfc89 f   LIBCMT:_ftol2_.obj
 0001:000dec9c       __ftol2_sse_excpt          004dfc9c f   LIBCMT:_ftol2_.obj
 0001:000decc0       __ftol2                    004dfcc0 f   LIBCMT:_ftol2_.obj
 0001:000ded62       _RtlUnwind@16              004dfd62 f   kernel32:KERNEL32.dll
 0001:000ded68       _GetModuleFileNameW@12     004dfd68 f   kernel32:KERNEL32.dll
 0001:000ded6e       _LoadLibraryExW@12         004dfd6e f   kernel32:KERNEL32.dll
 0001:000ded74       _InterlockedPushEntrySList@8 004dfd74 f   kernel32:KERNEL32.dll
 0001:000ded7a       _InterlockedFlushSList@4   004dfd7a f   kernel32:KERNEL32.dll
 0001:000ded80       _SetLastError@4            004dfd80 f   kernel32:KERNEL32.dll
 0001:000ded86       _EncodePointer@4           004dfd86 f   kernel32:KERNEL32.dll
 0001:000ded8c       _DeleteCriticalSection@4   004dfd8c f   kernel32:KERNEL32.dll
 0001:000ded92       _InitializeCriticalSectionAndSpinCount@8 004dfd92 f   kernel32:KERNEL32.dll
 0001:000ded98       _TlsAlloc@0                004dfd98 f   kernel32:KERNEL32.dll
 0001:000ded9e       _TlsGetValue@4             004dfd9e f   kernel32:KERNEL32.dll
 0001:000deda4       _TlsSetValue@8             004dfda4 f   kernel32:KERNEL32.dll
 0001:000dedaa       _TlsFree@4                 004dfdaa f   kernel32:KERNEL32.dll
 0001:000dedb0       _CreateFileW@28            004dfdb0 f   kernel32:KERNEL32.dll
 0001:000dedb6       _GetDriveTypeW@4           004dfdb6 f   kernel32:KERNEL32.dll
 0001:000dedbc       _GetFileType@4             004dfdbc f   kernel32:KERNEL32.dll
 0001:000dedc2       _PeekNamedPipe@24          004dfdc2 f   kernel32:KERNEL32.dll
 0001:000dedc8       _SystemTimeToTzSpecificLocalTime@12 004dfdc8 f   kernel32:KERNEL32.dll
 0001:000dedce       _FileTimeToSystemTime@8    004dfdce f   kernel32:KERNEL32.dll
 0001:000dedd4       _CreateThread@24           004dfdd4 f   kernel32:KERNEL32.dll
 0001:000dedda       _ExitThread@4              004dfdda f   kernel32:KERNEL32.dll
 0001:000dede0       _ResumeThread@4            004dfde0 f   kernel32:KERNEL32.dll
 0001:000dede6       _FreeLibraryAndExitThread@8 004dfde6 f   kernel32:KERNEL32.dll
 0001:000dedec       _GetModuleHandleExW@12     004dfdec f   kernel32:KERNEL32.dll
 0001:000dedf2       _ExitProcess@4             004dfdf2 f   kernel32:KERNEL32.dll
 0001:000dedf8       _GetStdHandle@4            004dfdf8 f   kernel32:KERNEL32.dll
 0001:000dedfe       _GetModuleFileNameA@12     004dfdfe f   kernel32:KERNEL32.dll
 0001:000dee04       _WriteConsoleW@20          004dfe04 f   kernel32:KERNEL32.dll
 0001:000dee0a       _ReadFile@20               004dfe0a f   kernel32:KERNEL32.dll
 0001:000dee10       _WriteFile@20              004dfe10 f   kernel32:KERNEL32.dll
 0001:000dee16       _GetACP@0                  004dfe16 f   kernel32:KERNEL32.dll
 0001:000dee1c       _GetConsoleMode@8          004dfe1c f   kernel32:KERNEL32.dll
 0001:000dee22       _ReadConsoleW@20           004dfe22 f   kernel32:KERNEL32.dll
 0001:000dee28       _GetConsoleCP@0            004dfe28 f   kernel32:KERNEL32.dll
 0001:000dee2e       _GetCurrentThread@0        004dfe2e f   kernel32:KERNEL32.dll
 0001:000dee34       _GetStringTypeW@16         004dfe34 f   kernel32:KERNEL32.dll
 0001:000dee3a       _FlushFileBuffers@4        004dfe3a f   kernel32:KERNEL32.dll
 0001:000dee40       _SetCurrentDirectoryW@4    004dfe40 f   kernel32:KERNEL32.dll
 0001:000dee46       _GetCurrentDirectoryW@8    004dfe46 f   kernel32:KERNEL32.dll
 0001:000dee4c       _GetFullPathNameW@16       004dfe4c f   kernel32:KERNEL32.dll
 0001:000dee52       _GetFullPathNameA@16       004dfe52 f   kernel32:KERNEL32.dll
 0001:000dee58       _GetDateFormatW@24         004dfe58 f   kernel32:KERNEL32.dll
 0001:000dee5e       _GetTimeFormatW@24         004dfe5e f   kernel32:KERNEL32.dll
 0001:000dee64       _CompareStringW@24         004dfe64 f   kernel32:KERNEL32.dll
 0001:000dee6a       _LCMapStringW@24           004dfe6a f   kernel32:KERNEL32.dll
 0001:000dee70       _GetLocaleInfoW@16         004dfe70 f   kernel32:KERNEL32.dll
 0001:000dee76       _IsValidLocale@8           004dfe76 f   kernel32:KERNEL32.dll
 0001:000dee7c       _GetUserDefaultLCID@0      004dfe7c f   kernel32:KERNEL32.dll
 0001:000dee82       _EnumSystemLocalesW@8      004dfe82 f   kernel32:KERNEL32.dll
 0001:000dee88       _SetStdHandle@8            004dfe88 f   kernel32:KERNEL32.dll
 0001:000dee8e       _OutputDebugStringA@4      004dfe8e f   kernel32:KERNEL32.dll
 0001:000dee94       _OutputDebugStringW@4      004dfe94 f   kernel32:KERNEL32.dll
 0001:000dee9a       _WaitForSingleObjectEx@12  004dfe9a f   kernel32:KERNEL32.dll
 0001:000deea0       _SetConsoleCtrlHandler@8   004dfea0 f   kernel32:KERNEL32.dll
 0001:000deea6       _SetFilePointerEx@20       004dfea6 f   kernel32:KERNEL32.dll
 0001:000deeac       _HeapReAlloc@16            004dfeac f   kernel32:KERNEL32.dll
 0001:000deeb2       _MoveFileExW@12            004dfeb2 f   kernel32:KERNEL32.dll
 0001:000deeb8       _FindFirstFileExA@24       004dfeb8 f   kernel32:KERNEL32.dll
 0001:000deebe       _FindFirstFileExW@24       004dfebe f   kernel32:KERNEL32.dll
 0001:000deec4       _FindNextFileW@8           004dfec4 f   kernel32:KERNEL32.dll
 0001:000deeca       _IsValidCodePage@4         004dfeca f   kernel32:KERNEL32.dll
 0001:000deed0       _GetOEMCP@0                004dfed0 f   kernel32:KERNEL32.dll
 0001:000deed6       _GetCPInfo@8               004dfed6 f   kernel32:KERNEL32.dll
 0001:000deedc       _GetCommandLineA@0         004dfedc f   kernel32:KERNEL32.dll
 0001:000deee2       _GetCommandLineW@0         004dfee2 f   kernel32:KERNEL32.dll
 0001:000deee8       _GetEnvironmentStringsW@0  004dfee8 f   kernel32:KERNEL32.dll
 0001:000deeee       _FreeEnvironmentStringsW@4 004dfeee f   kernel32:KERNEL32.dll
 0001:000deef4       _SetEnvironmentVariableA@8 004dfef4 f   kernel32:KERNEL32.dll
 0001:000deefa       _SetEnvironmentVariableW@8 004dfefa f   kernel32:KERNEL32.dll
 0001:000def00       _SetEndOfFile@4            004dff00 f   kernel32:KERNEL32.dll
 0001:000def06       _GetFileAttributesExW@12   004dff06 f   kernel32:KERNEL32.dll
 0001:000def0c       _DeleteFileW@4             004dff0c f   kernel32:KERNEL32.dll
 0001:000def12       _HeapSize@12               004dff12 f   kernel32:KERNEL32.dll
 0001:000def18       _DecodePointer@4           004dff18 f   kernel32:KERNEL32.dll
 0001:000def1e       _wcsrchr                   004dff1e f   libvcruntime:wcsrchr.obj
 0001:000defe7       _wcschr                    004dffe7 f   libvcruntime:wcschr.obj
 0002:00000000       ___xc_a                    004e2000     LIBCMT:initializers.obj
 0002:00000208       ___xc_z                    004e2208     LIBCMT:initializers.obj
 0002:0000030c       ___xi_a                    004e230c     LIBCMT:initializers.obj
 0002:00000618       ___acrt_stdio_initializer  004e2618     libucrt:stdio_initializer.obj
 0002:0000061c       ___acrt_tran_sse2_initializer 004e261c     libucrt:sse2_initializer.obj
 0002:00000620       ___acrt_timeset_initializer 004e2620     libucrt:timeset_initializer.obj
 0002:00000624       ___acrt_multibyte_initializer 004e2624     libucrt:multibyte_initializer.obj
 0002:0000072c       ___xi_z                    004e272c     LIBCMT:initializers.obj
 0002:00000830       ___xp_a                    004e2830     LIBCMT:initializers.obj
 0002:00000934       ___acrt_locale_terminator  004e2934     libucrt:locale_initializer.obj
 0002:00000938       ___dcrt_console_output_terminator 004e2938     libucrt:console_output_initializer.obj
 0002:00000a40       ___acrt_stdio_terminator   004e2a40     libucrt:stdio_initializer.obj
 0002:00000b44       ___xp_z                    004e2b44     LIBCMT:initializers.obj
 0002:00000c48       ___xt_a                    004e2c48     LIBCMT:initializers.obj
 0002:00000d4c       ___xt_z                    004e2d4c     LIBCMT:initializers.obj
 0002:000083c0       __real@3d800000            004ea3c0     adminfn.obj
 0002:000083c8       __real@408f400000000000    004ea3c8     adminfn.obj
 0002:000083d8       __real@40ac200000000000    004ea3d8     adminfn.obj
 0002:000083e8       __real@40c1940000000000    004ea3e8     adminfn.obj
 0002:000083f8       __real@412e848000000000    004ea3f8     adminfn.obj
 0002:0000db3c       ??_C@_0CJ@JMNKKDIO@?$FL?$CFs?$FN?5RetrieveValue?5can?8t?5find?5OB@ 004efb3c     ccode.obj
 0002:0000db70       ??_C@_0DD@KCPKPLGJ@?$FL?$CFs?$FN?5RetrieveValue?5class?5var?5can@ 004efb70     ccode.obj
 0002:0000dbb0       ??_C@_0DG@EFMFPMDE@?$FL?$CFs?$FN?5RetrieveValue?5can?8t?5find?5CL@ 004efbb0     ccode.obj
 0002:0000dbf0       ??_C@_0FD@KGOKFNIJ@?$FL?$CFs?$FN?5RetrieveValue?5can?8t?5retriev@ 004efbf0     ccode.obj
 0002:0000dc54       ??_C@_0CL@JHHCPMKO@?$FL?$CFs?$FN?5RetrieveValue?5can?8t?5identif@ 004efc54     ccode.obj
 0002:0000dc88       __real@41800000            004efc88     ccode.obj
 0002:0000dc8c       __real@42800000            004efc8c     ccode.obj
 0002:0000dc90       __real@44400000            004efc90     ccode.obj
 0002:0000dc94       __real@4d000000            004efc94     ccode.obj
 0002:0000dc98       __real@cd000000            004efc98     ccode.obj
 0002:00012ab4       ??_C@_0BD@OLBABOEK@vector?$DMT?$DO?5too?5long?$AA@ 004f4ab4     files.obj
 0002:00012acc       ??_C@_0BA@JFNIOLAK@string?5too?5long?$AA@ 004f4acc     files.obj
 0002:00012ae0       ??_C@_0BI@CFPLBAOH@invalid?5string?5position?$AA@ 004f4ae0     files.obj
 0002:00013b38       __real@3f847ae147ae147b    004f5b38     interface_windows.obj
 0002:00017760       ??_C@_0GE@HCBECMHH@ParseClientSendBlakod?5?$CFi?5got?5inv@ 004f9760     parsecli.obj
 0002:000177d8       ??_C@_0GO@HOELLDI@ParseClientSendBlakod?5?$CFi?5got?5inv@ 004f97d8     parsecli.obj
 0002:00017860       ??_C@_0GL@NPKKECCA@ParseClientSendBlakod?5got?5invali@ 004f9860     parsecli.obj
 0002:0001791c       __real@00000000            004f991c     roofile.obj
 0002:00017920       __real@38d1b717            004f9920     roofile.obj
 0002:00017924       __real@3dcccccd            004f9924     roofile.obj
 0002:00017928       __real@3ec90fdb            004f9928     roofile.obj
 0002:00017930       __real@3f1a36e2e0000000    004f9930     roofile.obj
 0002:0001793c       __real@3f800000            004f993c     roofile.obj
 0002:00017940       __real@3fc90fdb            004f9940     roofile.obj
 0002:00017944       __real@40000000            004f9944     roofile.obj
 0002:00017948       __real@40490fdb            004f9948     roofile.obj
 0002:0001794c       __real@40800000            004f994c     roofile.obj
 0002:00017950       __real@4096cbe4            004f9950     roofile.obj
 0002:00017954       __real@40c90fdb            004f9954     roofile.obj
 0002:00017958       __real@434ccccd            004f9958     roofile.obj
 0002:0001795c       __real@43780000            004f995c     roofile.obj
 0002:00017960       __real@43800000            004f9960     roofile.obj
 0002:00017964       __real@43c00000            004f9964     roofile.obj
 0002:00017968       __real@43cccccd            004f9968     roofile.obj
 0002:0001796c       __real@44000000            004f996c     roofile.obj
 0002:00017970       __real@44160000            004f9970     roofile.obj
 0002:00017974       __real@4419999a            004f9974     roofile.obj
 0002:00017978       __real@44800000            004f9978     roofile.obj
 0002:0001797c       __real@45800000            004f997c     roofile.obj
 0002:00017980       __real@46fffe00            004f9980     roofile.obj
 0002:00017984       __real@47704000            004f9984     roofile.obj
 0002:00017988       __real@49100000            004f9988     roofile.obj
 0002:0001798c       __real@b8d1b717            004f998c     roofile.obj
 0002:00017990       __real@bec90fdb            004f9990     roofile.obj
 0002:00017998       __real@bf1a36e2e0000000    004f9998     roofile.obj
 0002:000179a4       __real@bfc90fdb            004f99a4     roofile.obj
 0002:000179a8       __real@c0490fdb            004f99a8     roofile.obj
 0002:000179ac       __real@c096cbe4            004f99ac     roofile.obj
 0002:000179b0       __real@c0c90fdb            004f99b0     roofile.obj
 0002:000179b4       __real@c3780000            004f99b4     roofile.obj
 0002:000179c0       __xmm@80000000800000008000000080000000 004f99c0     roofile.obj
 0002:00019720       ??_C@_0DG@BDJOKEC@?$FL?$CFs?$FN?5RetrieveClassVar?5class?5var?5@ 004fb720     sendmsg.obj
 0002:00019760       ??_C@_0DJ@CAGJOFIM@?$FL?$CFs?$FN?5RetrieveClassVar?5can?8t?5find@ 004fb760     sendmsg.obj
 0002:000197a8       ??_C@_0FG@KFKDOMDL@?$FL?$CFs?$FN?5RetrieveClassVar?5can?8t?5retr@ 004fb7a8     sendmsg.obj
 0002:00019810       ??_C@_0DF@LOCOGJP@?$FL?$CFs?$FN?5StoreValue?5can?8t?5write?5to?5i@ 004fb810     sendmsg.obj
 0002:00019850       ??_C@_0CG@EJMLFCCI@?$FL?$CFs?$FN?5StoreValue?5can?8t?5find?5objec@ 004fb850     sendmsg.obj
 0002:00019880       ??_C@_0DN@ILONDLMG@?$FL?$CFs?$FN?5StoreValue?5can?8t?5write?5to?5i@ 004fb880     sendmsg.obj
 0002:000198cc       ??_C@_0CI@LMJMAMKF@?$FL?$CFs?$FN?5StoreValue?5can?8t?5identify?5t@ 004fb8cc     sendmsg.obj
 0002:000198fc       ??_C@_0DF@KIIFJHLO@?$FL?$CFs?$FN?5StoreLocal?5can?8t?5write?5to?5i@ 004fb8fc     sendmsg.obj
 0002:0001ae18       __real@0000000000000000    004fce18     time.obj
 0002:0001b21c       _in6addr_allmldv2routersonlink 004fd21c     ws2_32:indef.obj
 0002:0001b230       _in6addr_multicastprefix   004fd230     ws2_32:indef.obj
 0002:0001b244       _in6addr_allroutersonlink  004fd244     ws2_32:indef.obj
 0002:0001b258       _in4addr_allroutersonlink  004fd258     ws2_32:indef.obj
 0002:0001b25c       _in6addr_solicitednodemulticastprefix 004fd25c     ws2_32:indef.obj
 0002:0001b270       _in6addr_linklocalprefix   004fd270     ws2_32:indef.obj
 0002:0001b284       _in4addr_alligmpv3routersonlink 004fd284     ws2_32:indef.obj
 0002:0001b288       _in6addr_loopback          004fd288     ws2_32:indef.obj
 0002:0001b2b0       _in6addr_teredoprefix_old  004fd2b0     ws2_32:indef.obj
 0002:0001b2c4       _in6addr_v4mappedprefix    004fd2c4     ws2_32:indef.obj
 0002:0001b308       _in4addr_multicastprefix   004fd308     ws2_32:indef.obj
 0002:0001b30c       _in4addr_any               004fd30c     ws2_32:indef.obj
 0002:0001b31c       _in6addr_6to4prefix        004fd31c     ws2_32:indef.obj
 0002:0001b330       _in6addr_any               004fd330     ws2_32:indef.obj
 0002:0001b344       _in4addr_allnodesonlink    004fd344     ws2_32:indef.obj
 0002:0001b378       _in6addr_teredoprefix      004fd378     ws2_32:indef.obj
 0002:0001b398       _in4addr_loopback          004fd398     ws2_32:indef.obj
 0002:0001b3c0       _scopeid_unspecified       004fd3c0     ws2_32:indef.obj
 0002:0001b3c4       _in4addr_linklocalprefix   004fd3c4     ws2_32:indef.obj
 0002:0001b3c8       _in4addr_allteredohostsonlink 004fd3c8     ws2_32:indef.obj
 0002:0001b3cc       _in6addr_teredoinitiallinklocaladdress 004fd3cc     ws2_32:indef.obj
 0002:0001b3ec       _in4addr_broadcast         004fd3ec     ws2_32:indef.obj
 0002:0001b3f0       _in6addr_allnodesonlink    004fd3f0     ws2_32:indef.obj
 0002:0001b404       _eui48_broadcast           004fd404     ws2_32:indef.obj
 0002:0001b40c       _in6addr_allnodesonnode    004fd40c     ws2_32:indef.obj
 0002:0001b4e8       ??_C@_0NN@NGPKDKPD@The?5value?5of?5ESP?5was?5not?5properl@ 004fd4e8     LIBCMT:_error_.obj
 0002:0001b5f8       ??_C@_0BBN@GPMLNJCF@A?5cast?5to?5a?5smaller?5data?5type?5ha@ 004fd5f8     LIBCMT:_error_.obj
 0002:0001b750       ??_C@_0BN@FFOINMNJ@Stack?5memory?5was?5corrupted?6?$AN?$AA@ 004fd750     LIBCMT:_error_.obj
 0002:0001b774       ??_C@_0DG@HKJMLLLP@A?5local?5variable?5was?5used?5before@ 004fd774     LIBCMT:_error_.obj
 0002:0001b7b4       ??_C@_0CM@NGINOKPC@Stack?5memory?5around?5_alloca?5was?5@ 004fd7b4     LIBCMT:_error_.obj
 0002:0001b7e8       ??_C@_0BO@GNIAFIKK@Unknown?5Runtime?5Check?5Error?6?$AN?$AA@ 004fd7e8     LIBCMT:_error_.obj
 0002:0001b810       ??_C@_1GM@OLMCBDMB@?$AAR?$AAu?$AAn?$AAt?$AAi?$AAm?$AAe?$AA?5?$AAC?$AAh?$AAe?$AAc?$AAk?$AA?5?$AAE?$AAr?$AAr?$AAo?$AAr?$AA?4?$AA?6?$AA?$AN?$AA?5?$AAU?$AAn?$AAa?$AAb?$AAl?$AAe?$AA?5?$AAt?$AAo@ 004fd810     LIBCMT:_error_.obj
 0002:0001b898       ??_C@_1EA@NFKNIFJP@?$AAR?$AAu?$AAn?$AA?9?$AAT?$AAi?$AAm?$AAe?$AA?5?$AAC?$AAh?$AAe?$AAc?$AAk?$AA?5?$AAF?$AAa?$AAi?$AAl?$AAu?$AAr?$AAe?$AA?5?$AA?$CD?$AA?$CF?$AAd?$AA?5?$AA?9?$AA?5?$AA?$CF?$AAs?$AA?$AA@ 004fd898     LIBCMT:_error_.obj
 0002:0001b8e4       ??_C@_0BB@PFFGGCJP@Unknown?5Filename?$AA@ 004fd8e4     LIBCMT:_error_.obj
 0002:0001b8f8       ??_C@_0BE@GNBOBNCK@Unknown?5Module?5Name?$AA@ 004fd8f8     LIBCMT:_error_.obj
 0002:0001b910       ??_C@_0CA@IODNCDPG@Run?9Time?5Check?5Failure?5?$CD?$CFd?5?9?5?$CFs?$AA@ 004fd910     LIBCMT:_error_.obj
 0002:0001b938       ??_C@_0CG@IAFNJNEE@Stack?5corrupted?5near?5unknown?5var@ 004fd938     LIBCMT:_error_.obj
 0002:0001b968       ??_C@_05MKKEDADM@?$CF?42X?5?$AA@ 004fd968     LIBCMT:_error_.obj
 0002:0001b970       ??_C@_0EJ@LJKNEOLN@Stack?5area?5around?5_alloca?5memory@ 004fd970     LIBCMT:_error_.obj
 0002:0001b9c8       ??_C@_08OMAHNMHJ@?6Data?3?5?$DM?$AA@ 004fd9c8     LIBCMT:_error_.obj
 0002:0001b9d4       ??_C@_0CK@DKGBICFE@?6Allocation?5number?5within?5this?5f@ 004fd9d4     LIBCMT:_error_.obj
 0002:0001ba08       ??_C@_07DFDJCKFN@?6Size?3?5?$AA@ 004fda08     LIBCMT:_error_.obj
 0002:0001ba14       ??_C@_0N@MHFFIMFG@?6Address?3?50x?$AA@ 004fda14     LIBCMT:_error_.obj
 0002:0001ba28       ??_C@_0EI@CLEPFNGI@Stack?5area?5around?5_alloca?5memory@ 004fda28     LIBCMT:_error_.obj
 0002:0001ba80       ??_C@_0BC@HHMKLAND@?$CFs?$CFs?$CFp?$CFs?$CFzd?$CFs?$CFd?$CFs?$AA@ 004fda80     LIBCMT:_error_.obj
 0002:0001ba98       ??_C@_01EEMJAFIK@?6?$AA@   004fda98     LIBCMT:_error_.obj
 0002:0001ba9c       ??_C@_02LLMPMKNF@?$DO?5?$AA@ 004fda9c     LIBCMT:_error_.obj
 0002:0001baa0       ??_C@_08KJEDNCKC@?$CFs?$CFs?$CFs?$CFs?$AA@ 004fdaa0     LIBCMT:_error_.obj
 0002:0001baac       ??_C@_0DE@OHJBPMBP@A?5variable?5is?5being?5used?5without@ 004fdaac     LIBCMT:_error_.obj
 0002:0001bba4       ??_C@_0BJ@HEGAHDFO@Stack?5pointer?5corruption?$AA@ 004fdba4     LIBCMT:_userapi_.obj
 0002:0001bbc4       ??_C@_0CK@FEGOIOPB@Cast?5to?5smaller?5type?5causing?5los@ 004fdbc4     LIBCMT:_userapi_.obj
 0002:0001bbf8       ??_C@_0BI@CIGMDCBH@Stack?5memory?5corruption?$AA@ 004fdbf8     LIBCMT:_userapi_.obj
 0002:0001bc14       ??_C@_0CK@CNLNOEPB@Local?5variable?5used?5before?5initi@ 004fdc14     LIBCMT:_userapi_.obj
 0002:0001bc48       ??_C@_0BP@OGBCLIBO@Stack?5around?5_alloca?5corrupted?$AA@ 004fdc48     LIBCMT:_userapi_.obj
 0002:0001bc74       ??_7exception@std@@6B@     004fdc74     LIBCMT:throw_bad_alloc.obj
 0002:0001bc80       ??_C@_0BC@EOODALEL@Unknown?5exception?$AA@ 004fdc80     LIBCMT:throw_bad_alloc.obj
 0002:0001bc9c       ??_7bad_alloc@std@@6B@     004fdc9c     LIBCMT:throw_bad_alloc.obj
 0002:0001bca8       ??_C@_0P@GHFPNOJB@bad?5allocation?$AA@ 004fdca8     LIBCMT:throw_bad_alloc.obj
 0002:0001bcc0       ??_7bad_array_new_length@std@@6B@ 004fdcc0     LIBCMT:throw_bad_alloc.obj
 0002:0001bccc       ??_C@_0BF@KINCDENJ@bad?5array?5new?5length?$AA@ 004fdccc     LIBCMT:throw_bad_alloc.obj
 0002:0001bd10       ??_C@_1EI@MLPKHBGE@?$AAa?$AAp?$AAi?$AA?9?$AAm?$AAs?$AA?9?$AAw?$AAi?$AAn?$AA?9?$AAc?$AAo?$AAr?$AAe?$AA?9?$AAr?$AAe?$AAg?$AAi?$AAs?$AAt?$AAr?$AAy?$AA?9?$AAl?$AA1?$AA?9?$AA1?$AA?9?$AA0?$AA?4@ 004fdd10     LIBCMT:_pdblkup_.obj
 0002:0001bd68       ??_C@_1BK@JHLNAEJL@?$AAa?$AAd?$AAv?$AAa?$AAp?$AAi?$AA3?$AA2?$AA?4?$AAd?$AAl?$AAl?$AA?$AA@ 004fdd68     LIBCMT:_pdblkup_.obj
 0002:0001bd88       ??_C@_0O@COHOBMLB@RegOpenKeyExW?$AA@ 004fdd88     LIBCMT:_pdblkup_.obj
 0002:0001bd98       ??_C@_0BB@GLNAEDBD@RegQueryValueExW?$AA@ 004fdd98     LIBCMT:_pdblkup_.obj
 0002:0001bdac       ??_C@_0M@HLOHPNFA@RegCloseKey?$AA@ 004fddac     LIBCMT:_pdblkup_.obj
 0002:0001bdc0       ??_C@_1HE@EBEAGLFB@?$AAS?$AAO?$AAF?$AAT?$AAW?$AAA?$AAR?$AAE?$AA?2?$AAW?$AAo?$AAw?$AA6?$AA4?$AA3?$AA2?$AAN?$AAo?$AAd?$AAe?$AA?2?$AAM?$AAi?$AAc?$AAr?$AAo?$AAs?$AAo?$AAf?$AAt?$AA?2?$AAV@ 004fddc0     LIBCMT:_pdblkup_.obj
 0002:0001be4c       ??_C@_1BG@EABPBLLF@?$AAP?$AAr?$AAo?$AAd?$AAu?$AAc?$AAt?$AAD?$AAi?$AAr?$AA?$AA@ 004fde4c     LIBCMT:_pdblkup_.obj
 0002:0001be68       ??_C@_0BB@KCIACLNC@PDBOpenValidate5?$AA@ 004fde68     LIBCMT:_pdblkup_.obj
 0002:0001be7c       ??_C@_01KDCPPGHE@r?$AA@    004fde7c     LIBCMT:_pdblkup_.obj
 0002:0001be84       ??_7type_info@@6B@         004fde84     LIBCMT:std_type_info_static.obj
 0002:0001be90       ??_7logic_error@std@@6B@   004fde90     libcpmt:xthrow.obj
 0002:0001bea0       ??_7invalid_argument@std@@6B@ 004fdea0     libcpmt:xthrow.obj
 0002:0001beb0       ??_7length_error@std@@6B@  004fdeb0     libcpmt:xthrow.obj
 0002:0001bec0       ??_7out_of_range@std@@6B@  004fdec0     libcpmt:xthrow.obj
 0002:0001bed0       ??_7runtime_error@std@@6B@ 004fded0     libcpmt:xthrow.obj
 0002:0001bee0       ??_7overflow_error@std@@6B@ 004fdee0     libcpmt:xthrow.obj
 0002:0001bef0       ??_7bad_function_call@std@@6B@ 004fdef0     libcpmt:xthrow.obj
 0002:0001befc       ??_C@_0BC@DPJNKNAF@bad?5function?5call?$AA@ 004fdefc     libcpmt:xthrow.obj
 0002:0001bf18       ??_7regex_error@std@@6B@   004fdf18     libcpmt:xthrow.obj
 0002:0001bf28       ??_C@_0FI@CMNGHIFF@regex_error?$CIerror_collate?$CJ?3?5The?5@ 004fdf28     libcpmt:xthrow.obj
 0002:0001bf98       ??_C@_0FE@LJMHKIOC@regex_error?$CIerror_ctype?$CJ?3?5The?5ex@ 004fdf98     libcpmt:xthrow.obj
 0002:0001c000       ??_C@_0GI@HEGGMMDL@regex_error?$CIerror_escape?$CJ?3?5The?5e@ 004fe000     libcpmt:xthrow.obj
 0002:0001c080       ??_C@_0FA@HFMLPGNN@regex_error?$CIerror_backref?$CJ?3?5The?5@ 004fe080     libcpmt:xthrow.obj
 0002:0001c0e0       ??_C@_0EH@LGEANNAL@regex_error?$CIerror_brack?$CJ?3?5The?5ex@ 004fe0e0     libcpmt:xthrow.obj
 0002:0001c138       ??_C@_0EH@CAGOJGLE@regex_error?$CIerror_paren?$CJ?3?5The?5ex@ 004fe138     libcpmt:xthrow.obj
 0002:0001c190       ??_C@_0EH@DICJJKLO@regex_error?$CIerror_brace?$CJ?3?5The?5ex@ 004fe190     libcpmt:xthrow.obj
 0002:0001c1e8       ??_C@_0FM@BLDIHIBB@regex_error?$CIerror_badbrace?$CJ?3?5The@ 004fe1e8     libcpmt:xthrow.obj
 0002:0001c258       ??_C@_0HA@ICNJLCMC@regex_error?$CIerror_range?$CJ?3?5The?5ex@ 004fe258     libcpmt:xthrow.obj
 0002:0001c2e0       ??_C@_0GP@PICOBCHA@regex_error?$CIerror_space?$CJ?3?5There?5@ 004fe2e0     libcpmt:xthrow.obj
 0002:0001c368       ??_C@_0FK@LCHHHEOA@regex_error?$CIerror_badrepeat?$CJ?3?5On@ 004fe368     libcpmt:xthrow.obj
 0002:0001c3d8       ??_C@_0HL@NEKOFBJA@regex_error?$CIerror_complexity?$CJ?3?5T@ 004fe3d8     libcpmt:xthrow.obj
 0002:0001c470       ??_C@_0JC@HCDLJLGO@regex_error?$CIerror_stack?$CJ?3?5There?5@ 004fe470     libcpmt:xthrow.obj
 0002:0001c520       ??_C@_0BJ@CHBLKGNM@regex_error?$CIerror_parse?$CJ?$AA@ 004fe520     libcpmt:xthrow.obj
 0002:0001c540       ??_C@_0BK@DFJCACNI@regex_error?$CIerror_syntax?$CJ?$AA@ 004fe540     libcpmt:xthrow.obj
 0002:0001c560       ??_C@_0M@KGKAAGCA@regex_error?$AA@ 004fe560     libcpmt:xthrow.obj
 0002:0001c598       __pDestructExceptionObject 004fe598     libvcruntime:frame.obj
 0002:0001c5a0       ??_7bad_exception@std@@6B@ 004fe5a0     libvcruntime:frame.obj
 0002:0001c5ac       ??_C@_0O@DPKOEFFH@bad?5exception?$AA@ 004fe5ac     libvcruntime:frame.obj
 0002:0001c5d0       ??_C@_1BC@DNHGCMLG@?$AAa?$AAd?$AAv?$AAa?$AAp?$AAi?$AA3?$AA2?$AA?$AA@ 004fe5d0     libvcruntime:winapi_downlevel.obj
 0002:0001c5e8       ??_C@_1DM@KHCHBNEB@?$AAa?$AAp?$AAi?$AA?9?$AAm?$AAs?$AA?9?$AAw?$AAi?$AAn?$AA?9?$AAc?$AAo?$AAr?$AAe?$AA?9?$AAf?$AAi?$AAb?$AAe?$AAr?$AAs?$AA?9?$AAl?$AA1?$AA?9?$AA1?$AA?9?$AA1?$AA?$AA@ 004fe5e8     libvcruntime:winapi_downlevel.obj
 0002:0001c630       ??_C@_1DK@LPPGFMPP@?$AAa?$AAp?$AAi?$AA?9?$AAm?$AAs?$AA?9?$AAw?$AAi?$AAn?$AA?9?$AAc?$AAo?$AAr?$AAe?$AA?9?$AAs?$AAy?$AAn?$AAc?$AAh?$AA?9?$AAl?$AA1?$AA?9?$AA2?$AA?9?$AA0?$AA?$AA@ 004fe630     libvcruntime:winapi_downlevel.obj
 0002:0001c678       ??_C@_1BC@GDMECMAK@?$AAk?$AAe?$AAr?$AAn?$AAe?$AAl?$AA3?$AA2?$AA?$AA@ 004fe678     libvcruntime:winapi_downlevel.obj
 0002:0001c694       ??_C@_0O@BAMBGLIE@EventRegister?$AA@ 004fe694     libvcruntime:winapi_downlevel.obj
 0002:0001c6a8       ??_C@_0BE@BJEEGHGK@EventSetInformation?$AA@ 004fe6a8     libvcruntime:winapi_downlevel.obj
 0002:0001c6c4       ??_C@_0BA@FAKLIPIC@EventUnregister?$AA@ 004fe6c4     libvcruntime:winapi_downlevel.obj
 0002:0001c6dc       ??_C@_0BD@PKLHJPHD@EventWriteTransfer?$AA@ 004fe6dc     libvcruntime:winapi_downlevel.obj
 0002:0001c700       ??_C@_08KNHFBNJ@FlsAlloc?$AA@ 004fe700     libvcruntime:winapi_downlevel.obj
 0002:0001c718       ??_C@_07PEJMOBNF@FlsFree?$AA@ 004fe718     libvcruntime:winapi_downlevel.obj
 0002:0001c730       ??_C@_0M@GDNOONDI@FlsGetValue?$AA@ 004fe730     libvcruntime:winapi_downlevel.obj
 0002:0001c74c       ??_C@_0M@JCPCPOEF@FlsSetValue?$AA@ 004fe74c     libvcruntime:winapi_downlevel.obj
 0002:0001c768       ??_C@_0BM@HCFOFFN@InitializeCriticalSectionEx?$AA@ 004fe768     libvcruntime:winapi_downlevel.obj
 0002:0001c970       ??_C@_08EHJDFFNH@__based?$CI?$AA@ 004fe970     libvcruntime:undname.obj
 0002:0001c97c       ??_C@_07KOLFKCDI@__cdecl?$AA@ 004fe97c     libvcruntime:undname.obj
 0002:0001c988       ??_C@_08GHMPAG@__pascal?$AA@ 004fe988     libvcruntime:undname.obj
 0002:0001c994       ??_C@_09IFJBGAPI@__stdcall?$AA@ 004fe994     libvcruntime:undname.obj
 0002:0001c9a0       ??_C@_0L@NPHFGOKO@__thiscall?$AA@ 004fe9a0     libvcruntime:undname.obj
 0002:0001c9b0       ??_C@_0L@JMKHOMEK@__fastcall?$AA@ 004fe9b0     libvcruntime:undname.obj
 0002:0001c9c0       ??_C@_0N@BCKKPABJ@__vectorcall?$AA@ 004fe9c0     libvcruntime:undname.obj
 0002:0001c9d0       ??_C@_09HIJEGCPM@__clrcall?$AA@ 004fe9d0     libvcruntime:undname.obj
 0002:0001c9dc       ??_C@_06GHPCKEAG@__eabi?$AA@ 004fe9dc     libvcruntime:undname.obj
 0002:0001c9e4       ??_C@_07JOMMBBKO@__ptr64?$AA@ 004fe9e4     libvcruntime:undname.obj
 0002:0001c9f0       ??_C@_0L@PILCLIHE@__restrict?$AA@ 004fe9f0     libvcruntime:undname.obj
 0002:0001ca00       ??_C@_0M@GFIIJFMG@__unaligned?$AA@ 004fea00     libvcruntime:undname.obj
 0002:0001ca10       ??_C@_09DHDLOLLB@restrict?$CI?$AA@ 004fea10     libvcruntime:undname.obj
 0002:0001ca1c       ??_C@_00CNPNBAHC@?$AA@     004fea1c     libvcruntime:undname.obj
 0002:0001ca20       ??_C@_04NIHEBCM@?5new?$AA@ 004fea20     libvcruntime:undname.obj
 0002:0001ca28       ??_C@_07FPCDHGMM@?5delete?$AA@ 004fea28     libvcruntime:undname.obj
 0002:0001ca34       ??_C@_01NEMOKFLO@?$DN?$AA@ 004fea34     libvcruntime:undname.obj
 0002:0001ca38       ??_C@_02GPIOPFAK@?$DO?$DO?$AA@ 004fea38     libvcruntime:undname.obj
 0002:0001ca3c       ??_C@_02FODMEDOG@?$DM?$DM?$AA@ 004fea3c     libvcruntime:undname.obj
 0002:0001ca40       ??_C@_01DCLJPIOD@?$CB?$AA@ 004fea40     libvcruntime:undname.obj
 0002:0001ca44       ??_C@_02EGOFBIJA@?$DN?$DN?$AA@ 004fea44     libvcruntime:undname.obj
 0002:0001ca48       ??_C@_02FDNJECIE@?$CB?$DN?$AA@ 004fea48     libvcruntime:undname.obj
 0002:0001ca4c       ??_C@_02GPECMEKF@?$FL?$FN?$AA@ 004fea4c     libvcruntime:undname.obj
 0002:0001ca50       ??_C@_08LHJFAFGD@operator?$AA@ 004fea50     libvcruntime:undname.obj
 0002:0001ca5c       ??_C@_02HBOOOICD@?9?$DO?$AA@ 004fea5c     libvcruntime:undname.obj
 0002:0001ca60       ??_C@_01NBENCBCI@?$CK?$AA@ 004fea60     libvcruntime:undname.obj
 0002:0001ca64       ??_C@_02ECNGHCIF@?$CL?$CL?$AA@ 004fea64     libvcruntime:undname.obj
 0002:0001ca68       ??_C@_02BAABKJLB@?9?9?$AA@ 004fea68     libvcruntime:undname.obj
 0002:0001ca6c       ??_C@_01JOAMLHOP@?9?$AA@   004fea6c     libvcruntime:undname.obj
 0002:0001ca70       ??_C@_01MIFGBAGJ@?$CL?$AA@ 004fea70     libvcruntime:undname.obj
 0002:0001ca74       ??_C@_01HNPIGOCE@?$CG?$AA@ 004fea74     libvcruntime:undname.obj
 0002:0001ca78       ??_C@_03MNHNFDLC@?9?$DO?$CK?$AA@ 004fea78     libvcruntime:undname.obj
 0002:0001ca7c       ??_C@_01KMDKNFGN@?1?$AA@   004fea7c     libvcruntime:undname.obj
 0002:0001ca80       ??_C@_01FGNFDNOH@?$CF?$AA@ 004fea80     libvcruntime:undname.obj
 0002:0001ca84       ??_C@_01MNNFJEPP@?$DM?$AA@ 004fea84     libvcruntime:undname.obj
 0002:0001ca88       ??_C@_02EHCHHCKH@?$DM?$DN?$AA@ 004fea88     libvcruntime:undname.obj
 0002:0001ca8c       ??_C@_01PPODPGHN@?$DO?$AA@ 004fea8c     libvcruntime:undname.obj
 0002:0001ca90       ??_C@_02EEKDKGMJ@?$DO?$DN?$AA@ 004fea90     libvcruntime:undname.obj
 0002:0001ca94       ??_C@_01IHBHIGKO@?0?$AA@   004fea94     libvcruntime:undname.obj
 0002:0001ca98       ??_C@_02HCKGKOFO@?$CI?$CJ?$AA@ 004fea98     libvcruntime:undname.obj
 0002:0001ca9c       ??_C@_01PJKLJHI@?$HO?$AA@  004fea9c     libvcruntime:undname.obj
 0002:0001caa0       ??_C@_01JKBOJNNK@?$FO?$AA@ 004feaa0     libvcruntime:undname.obj
 0002:0001caa4       ??_C@_01DNKMNLPK@?$HM?$AA@ 004feaa4     libvcruntime:undname.obj
 0002:0001caa8       ??_C@_02PPKAJPJL@?$CG?$CG?$AA@ 004feaa8     libvcruntime:undname.obj
 0002:0001caac       ??_C@_02NONPIBCD@?$HM?$HM?$AA@ 004feaac     libvcruntime:undname.obj
 0002:0001cab0       ??_C@_02FPIMKNGF@?$CK?$DN?$AA@ 004feab0     libvcruntime:undname.obj
 0002:0001cab4       ??_C@_02FOEOMHFC@?$CL?$DN?$AA@ 004feab4     libvcruntime:undname.obj
 0002:0001cab8       ??_C@_02FKMDLLOA@?9?$DN?$AA@ 004feab8     libvcruntime:undname.obj
 0002:0001cabc       ??_C@_02FJEHGPIO@?1?$DN?$AA@ 004feabc     libvcruntime:undname.obj
 0002:0001cac0       ??_C@_02FENAOKFI@?$CF?$DN?$AA@ 004feac0     libvcruntime:undname.obj
 0002:0001cac4       ??_C@_03IKFCCPFF@?$DO?$DO?$DN?$AA@ 004feac4     libvcruntime:undname.obj
 0002:0001cac8       ??_C@_03CDNPDDLA@?$DM?$DM?$DN?$AA@ 004feac8     libvcruntime:undname.obj
 0002:0001cacc       ??_C@_02FGJGFEAB@?$CG?$DN?$AA@ 004feacc     libvcruntime:undname.obj
 0002:0001cad0       ??_C@_02DHLNPPGH@?$HM?$DN?$AA@ 004fead0     libvcruntime:undname.obj
 0002:0001cad4       ??_C@_02MHEGNOJ@?$FO?$DN?$AA@ 004fead4     libvcruntime:undname.obj
 0002:0001cad8       ??_C@_09IFPLHPGF@?$GAvftable?8?$AA@ 004fead8     libvcruntime:undname.obj
 0002:0001cae4       ??_C@_09BLBHBJP@?$GAvbtable?8?$AA@ 004feae4     libvcruntime:undname.obj
 0002:0001caf0       ??_C@_07FEEIOKP@?$GAvcall?8?$AA@ 004feaf0     libvcruntime:undname.obj
 0002:0001cafc       ??_C@_08LLFFHHDJ@?$GAtypeof?8?$AA@ 004feafc     libvcruntime:undname.obj
 0002:0001cb08       ??_C@_0BF@KDPPACIK@?$GAlocal?5static?5guard?8?$AA@ 004feb08     libvcruntime:undname.obj
 0002:0001cb24       ??_C@_08OBABFOLI@?$GAstring?8?$AA@ 004feb24     libvcruntime:undname.obj
 0002:0001cb30       ??_C@_0BD@JDLKDPAB@?$GAvbase?5destructor?8?$AA@ 004feb30     libvcruntime:undname.obj
 0002:0001cb48       ??_C@_0BN@DEGPLNFK@?$GAvector?5deleting?5destructor?8?$AA@ 004feb48     libvcruntime:undname.obj
 0002:0001cb6c       ??_C@_0BO@OBMKPJIG@?$GAdefault?5constructor?5closure?8?$AA@ 004feb6c     libvcruntime:undname.obj
 0002:0001cb90       ??_C@_0BN@IMDCHIKM@?$GAscalar?5deleting?5destructor?8?$AA@ 004feb90     libvcruntime:undname.obj
 0002:0001cbb4       ??_C@_0BO@PFGOCPJJ@?$GAvector?5constructor?5iterator?8?$AA@ 004febb4     libvcruntime:undname.obj
 0002:0001cbd8       ??_C@_0BN@LFPFMEDL@?$GAvector?5destructor?5iterator?8?$AA@ 004febd8     libvcruntime:undname.obj
 0002:0001cbfc       ??_C@_0CE@IKBNEHA@?$GAvector?5vbase?5constructor?5iterat@ 004febfc     libvcruntime:undname.obj
 0002:0001cc28       ??_C@_0BL@NILFHHPC@?$GAvirtual?5displacement?5map?8?$AA@ 004fec28     libvcruntime:undname.obj
 0002:0001cc48       ??_C@_0CB@JONCMFFK@?$GAeh?5vector?5constructor?5iterator?8@ 004fec48     libvcruntime:undname.obj
 0002:0001cc70       ??_C@_0CA@GCEOPDGL@?$GAeh?5vector?5destructor?5iterator?8?$AA@ 004fec70     libvcruntime:undname.obj
 0002:0001cc98       ??_C@_0CH@OOJPLCPH@?$GAeh?5vector?5vbase?5constructor?5ite@ 004fec98     libvcruntime:undname.obj
 0002:0001ccc8       ??_C@_0BL@LLKPOHJI@?$GAcopy?5constructor?5closure?8?$AA@ 004fecc8     libvcruntime:undname.obj
 0002:0001cce8       ??_C@_0BA@KBCDOMBN@?$GAudt?5returning?8?$AA@ 004fece8     libvcruntime:undname.obj
 0002:0001ccfc       ??_C@_03KLGMFNMG@?$GAEH?$AA@ 004fecfc     libvcruntime:undname.obj
 0002:0001cd00       ??_C@_05KHLCHHI@?$GARTTI?$AA@ 004fed00     libvcruntime:undname.obj
 0002:0001cd08       ??_C@_0BA@KKLDJDLB@?$GAlocal?5vftable?8?$AA@ 004fed08     libvcruntime:undname.obj
 0002:0001cd1c       ??_C@_0CE@IIHCMGGL@?$GAlocal?5vftable?5constructor?5closu@ 004fed1c     libvcruntime:undname.obj
 0002:0001cd48       ??_C@_06FHBGPFGH@?5new?$FL?$FN?$AA@ 004fed48     libvcruntime:undname.obj
 0002:0001cd50       ??_C@_09LBNFPBCA@?5delete?$FL?$FN?$AA@ 004fed50     libvcruntime:undname.obj
 0002:0001cd5c       ??_C@_0P@HJKNJFNN@?$GAomni?5callsig?8?$AA@ 004fed5c     libvcruntime:undname.obj
 0002:0001cd70       ??_C@_0BL@CNOONJFP@?$GAplacement?5delete?5closure?8?$AA@ 004fed70     libvcruntime:undname.obj
 0002:0001cd90       ??_C@_0BN@CKNJLHMB@?$GAplacement?5delete?$FL?$FN?5closure?8?$AA@ 004fed90     libvcruntime:undname.obj
 0002:0001cdb4       ??_C@_0CG@CFDHKGGD@?$GAmanaged?5vector?5constructor?5iter@ 004fedb4     libvcruntime:undname.obj
 0002:0001cde4       ??_C@_0CF@IMGKMJNO@?$GAmanaged?5vector?5destructor?5itera@ 004fede4     libvcruntime:undname.obj
 0002:0001ce10       ??_C@_0CG@HLDDJMAG@?$GAeh?5vector?5copy?5constructor?5iter@ 004fee10     libvcruntime:undname.obj
 0002:0001ce40       ??_C@_0CM@FCBBDIGB@?$GAeh?5vector?5vbase?5copy?5constructo@ 004fee40     libvcruntime:undname.obj
 0002:0001ce74       ??_C@_0BL@CLIPGLGB@?$GAdynamic?5initializer?5for?5?8?$AA@ 004fee74     libvcruntime:undname.obj
 0002:0001ce94       ??_C@_0CB@PDBIFEP@?$GAdynamic?5atexit?5destructor?5for?5?8@ 004fee94     libvcruntime:undname.obj
 0002:0001cebc       ??_C@_0CD@CGAJBKEJ@?$GAvector?5copy?5constructor?5iterato@ 004feebc     libvcruntime:undname.obj
 0002:0001cee8       ??_C@_0CJ@GJELGAMM@?$GAvector?5vbase?5copy?5constructor?5i@ 004feee8     libvcruntime:undname.obj
 0002:0001cf1c       ??_C@_0CL@FGIJHLCE@?$GAmanaged?5vector?5copy?5constructor@ 004fef1c     libvcruntime:undname.obj
 0002:0001cf50       ??_C@_0BM@PMGGMLDN@?$GAlocal?5static?5thread?5guard?8?$AA@ 004fef50     libvcruntime:undname.obj
 0002:0001cf74       ??_C@_0N@BDNMDMOL@operator?5?$CC?$CC?5?$AA@ 004fef74     libvcruntime:undname.obj
 0002:0001cf84       ??_C@_0BC@DAFEJGAK@?5Type?5Descriptor?8?$AA@ 004fef84     libvcruntime:undname.obj
 0002:0001cf9c       ??_C@_0BM@LDKODKLH@?5Base?5Class?5Descriptor?5at?5?$CI?$AA@ 004fef9c     libvcruntime:undname.obj
 0002:0001cfc0       ??_C@_0BD@LGICGFMM@?5Base?5Class?5Array?8?$AA@ 004fefc0     libvcruntime:undname.obj
 0002:0001cfd8       ??_C@_0BN@MECKDCOJ@?5Class?5Hierarchy?5Descriptor?8?$AA@ 004fefd8     libvcruntime:undname.obj
 0002:0001cffc       ??_C@_0BK@CFCOFLF@?5Complete?5Object?5Locator?8?$AA@ 004feffc     libvcruntime:undname.obj
 0002:0001d01c       ??_C@_04HEJADOOB@CV?3?5?$AA@ 004ff01c     libvcruntime:undname.obj
 0002:0001d024       ??_C@_02MOLJINC@?3?3?$AA@  004ff024     libvcruntime:undname.obj
 0002:0001d028       ??_C@_0BE@JAEOCHPE@template?9parameter?9?$AA@ 004ff028     libvcruntime:undname.obj
 0002:0001d040       ??_C@_0O@KHGCOMHP@generic?9type?9?$AA@ 004ff040     libvcruntime:undname.obj
 0002:0001d050       ??_C@_01NLNLIGKH@?$GA?$AA@ 004ff050     libvcruntime:undname.obj
 0002:0001d054       ??_C@_01GEODFPGF@?8?$AA@   004ff054     libvcruntime:undname.obj
 0002:0001d058       ??_C@_0BG@JNJLAMPM@?$GAanonymous?5namespace?8?$AA@ 004ff058     libvcruntime:undname.obj
 0002:0001d074       ??_C@_02OHHJMEON@?8?8?$AA@ 004ff074     libvcruntime:undname.obj
 0002:0001d078       ??_C@_0BN@IBLMMFAP@?$GAnon?9type?9template?9parameter?$AA@ 004ff078     libvcruntime:undname.obj
 0002:0001d09c       ??_C@_04GKJNKENE@void?$AA@ 004ff09c     libvcruntime:undname.obj
 0002:0001d0a4       ??_C@_0BE@EODMJLIF@?$GAtemplate?9parameter?$AA@ 004ff0a4     libvcruntime:undname.obj
 0002:0001d0bc       ??_C@_03KHICJKCI@?4?4?4?$AA@ 004ff0bc     libvcruntime:undname.obj
 0002:0001d0c0       ??_C@_04HIBGFPH@NULL?$AA@  004ff0c0     libvcruntime:undname.obj
 0002:0001d0c8       ??_C@_02DPKJAMEF@?$CFd?$AA@ 004ff0c8     libvcruntime:undname.obj
 0002:0001d0cc       ??_C@_0BK@IHCCFNEL@?$GAtemplate?9type?9parameter?9?$AA@ 004ff0cc     libvcruntime:undname.obj
 0002:0001d0ec       ??_C@_0BK@OFCNNNKO@?$GAgeneric?9class?9parameter?9?$AA@ 004ff0ec     libvcruntime:undname.obj
 0002:0001d10c       ??_C@_0BL@NGJBLFIL@?$GAgeneric?9method?9parameter?9?$AA@ 004ff10c     libvcruntime:undname.obj
 0002:0001d12c       ??_C@_03OPGICMGF@?$HN?8?5?$AA@ 004ff12c     libvcruntime:undname.obj
 0002:0001d130       ??_C@_02IGFCGPIL@?$HN?8?$AA@ 004ff130     libvcruntime:undname.obj
 0002:0001d134       ??_C@_01CLKCMJKC@?5?$AA@   004ff134     libvcruntime:undname.obj
 0002:0001d138       ??_C@_0N@CBHHHENL@?$GAvtordispex?$HL?$AA@ 004ff138     libvcruntime:undname.obj
 0002:0001d148       ??_C@_0L@GHPFDFH@?$GAvtordisp?$HL?$AA@ 004ff148     libvcruntime:undname.obj
 0002:0001d158       ??_C@_0L@HNGCOGAE@?$GAadjustor?$HL?$AA@ 004ff158     libvcruntime:undname.obj
 0002:0001d168       ??_C@_0CB@KJDOOODE@?$GAlocal?5static?5destructor?5helper?8@ 004ff168     libvcruntime:undname.obj
 0002:0001d190       ??_C@_0DB@ILEFOCIJ@?$GAtemplate?5static?5data?5member?5con@ 004ff190     libvcruntime:undname.obj
 0002:0001d1cc       ??_C@_0DA@HGFJFBBE@?$GAtemplate?5static?5data?5member?5des@ 004ff1cc     libvcruntime:undname.obj
 0002:0001d208       ??_C@_07PGOEDBHP@static?5?$AA@ 004ff208     libvcruntime:undname.obj
 0002:0001d214       ??_C@_08NIEOINHE@virtual?5?$AA@ 004ff214     libvcruntime:undname.obj
 0002:0001d220       ??_C@_09LAPHOOG@private?3?5?$AA@ 004ff220     libvcruntime:undname.obj
 0002:0001d22c       ??_C@_0M@GAIFPFIP@protected?3?5?$AA@ 004ff22c     libvcruntime:undname.obj
 0002:0001d23c       ??_C@_08GPDDCMKI@public?3?5?$AA@ 004ff23c     libvcruntime:undname.obj
 0002:0001d248       ??_C@_08KJLFOPNE@?$FLthunk?$FN?3?$AA@ 004ff248     libvcruntime:undname.obj
 0002:0001d254       ??_C@_0M@DHNBOJMP@extern?5?$CCC?$CC?5?$AA@ 004ff254     libvcruntime:undname.obj
 0002:0001d264       ??_C@_02KCKGHPCA@?$CJ?5?$AA@ 004ff264     libvcruntime:undname.obj
 0002:0001d268       ??_C@_05CIHEBHNO@char?5?$AA@ 004ff268     libvcruntime:undname.obj
 0002:0001d270       ??_C@_06EHJMALKF@short?5?$AA@ 004ff270     libvcruntime:undname.obj
 0002:0001d278       ??_C@_04LAHKHJMA@int?5?$AA@ 004ff278     libvcruntime:undname.obj
 0002:0001d280       ??_C@_05CJIMAING@long?5?$AA@ 004ff280     libvcruntime:undname.obj
 0002:0001d288       ??_C@_09EBBEKKIH@unsigned?5?$AA@ 004ff288     libvcruntime:undname.obj
 0002:0001d294       ??_C@_05BEFAKPML@void?5?$AA@ 004ff294     libvcruntime:undname.obj
 0002:0001d29c       ??_C@_08PABEKFH@volatile?$AA@ 004ff29c     libvcruntime:undname.obj
 0002:0001d2a8       ??_C@_0BA@LKIJLKPP@std?3?3nullptr_t?5?$AA@ 004ff2a8     libvcruntime:undname.obj
 0002:0001d2bc       ??_C@_0P@GCOCNKDM@std?3?3nullptr_t?$AA@ 004ff2bc     libvcruntime:undname.obj
 0002:0001d2d0       ??_C@_0L@EGPHHEKN@?$DMellipsis?$DO?$AA@ 004ff2d0     libvcruntime:undname.obj
 0002:0001d2e0       ??_C@_04EENFHACM@?0?4?4?4?$AA@ 004ff2e0     libvcruntime:undname.obj
 0002:0001d2e8       ??_C@_0M@ELJOJFFH@?0?$DMellipsis?$DO?$AA@ 004ff2e8     libvcruntime:undname.obj
 0002:0001d2f8       ??_C@_07HDJPLPEK@?5throw?$CI?$AA@ 004ff2f8     libvcruntime:undname.obj
 0002:0001d304       ??_C@_03PBJBJNON@cpu?$AA@  004ff304     libvcruntime:undname.obj
 0002:0001d308       ??_C@_03DCBBJBAA@amp?$AA@  004ff308     libvcruntime:undname.obj
 0002:0001d30c       ??_C@_02KEGNLNML@?0?5?$AA@ 004ff30c     libvcruntime:undname.obj
 0002:0001d310       ??_C@_04ENMBGAPA@char?$AA@ 004ff310     libvcruntime:undname.obj
 0002:0001d318       ??_C@_05BFKKPKCG@short?$AA@ 004ff318     libvcruntime:undname.obj
 0002:0001d320       ??_C@_03JBIPMCLC@int?$AA@  004ff320     libvcruntime:undname.obj
 0002:0001d324       ??_C@_04GOKPGOLB@long?$AA@ 004ff324     libvcruntime:undname.obj
 0002:0001d32c       ??_C@_05KNFBNCOH@float?$AA@ 004ff32c     libvcruntime:undname.obj
 0002:0001d334       ??_C@_06BNJCAIGJ@double?$AA@ 004ff334     libvcruntime:undname.obj
 0002:0001d33c       ??_C@_04DDKJGDCM@bool?$AA@ 004ff33c     libvcruntime:undname.obj
 0002:0001d344       ??_C@_06EBGKOKIG@__int8?$AA@ 004ff344     libvcruntime:undname.obj
 0002:0001d34c       ??_C@_07ICFHOGAF@__int16?$AA@ 004ff34c     libvcruntime:undname.obj
 0002:0001d358       ??_C@_07OFLPPHGP@__int32?$AA@ 004ff358     libvcruntime:undname.obj
 0002:0001d364       ??_C@_07LFCOJCAC@__int64?$AA@ 004ff364     libvcruntime:undname.obj
 0002:0001d370       ??_C@_08GAHOLHEO@__int128?$AA@ 004ff370     libvcruntime:undname.obj
 0002:0001d37c       ??_C@_09EEKGDCPH@?$DMunknown?$DO?$AA@ 004ff37c     libvcruntime:undname.obj
 0002:0001d388       ??_C@_08HBIPOFJB@char16_t?$AA@ 004ff388     libvcruntime:undname.obj
 0002:0001d394       ??_C@_08IECNCBKG@char32_t?$AA@ 004ff394     libvcruntime:undname.obj
 0002:0001d3a0       ??_C@_07CLGGIAMF@wchar_t?$AA@ 004ff3a0     libvcruntime:undname.obj
 0002:0001d3ac       ??_C@_06GCICPBLB@__w64?5?$AA@ 004ff3ac     libvcruntime:undname.obj
 0002:0001d3b4       ??_C@_07NFANNNEC@UNKNOWN?$AA@ 004ff3b4     libvcruntime:undname.obj
 0002:0001d3c0       ??_C@_07EDHNAJHC@signed?5?$AA@ 004ff3c0     libvcruntime:undname.obj
 0002:0001d3cc       ??_C@_05BNCCCJPP@const?$AA@ 004ff3cc     libvcruntime:undname.obj
 0002:0001d3d4       ??_C@_09EFNPDFFP@?5volatile?$AA@ 004ff3d4     libvcruntime:undname.obj
 0002:0001d3e0       ??_C@_0P@GCIFDJCJ@?$GAunknown?5ecsu?8?$AA@ 004ff3e0     libvcruntime:undname.obj
 0002:0001d3f4       ??_C@_06MOJHIBMG@union?5?$AA@ 004ff3f4     libvcruntime:undname.obj
 0002:0001d3fc       ??_C@_07DIBCDNGL@struct?5?$AA@ 004ff3fc     libvcruntime:undname.obj
 0002:0001d408       ??_C@_06LJBABKPM@class?5?$AA@ 004ff408     libvcruntime:undname.obj
 0002:0001d410       ??_C@_08KOFANOFK@coclass?5?$AA@ 004ff410     libvcruntime:undname.obj
 0002:0001d41c       ??_C@_0N@DLIEFKNA@cointerface?5?$AA@ 004ff41c     libvcruntime:undname.obj
 0002:0001d42c       ??_C@_05LJGMCFOG@enum?5?$AA@ 004ff42c     libvcruntime:undname.obj
 0002:0001d434       ??_C@_09GAIEOBLP@volatile?5?$AA@ 004ff434     libvcruntime:undname.obj
 0002:0001d440       ??_C@_06LIJLOJAG@const?5?$AA@ 004ff440     libvcruntime:undname.obj
 0002:0001d448       ??_C@_02KJPKDIBN@?$CG?5?$AA@ 004ff448     libvcruntime:undname.obj
 0002:0001d44c       ??_C@_03PCKGMOPB@?$CG?$CG?5?$AA@ 004ff44c     libvcruntime:undname.obj
 0002:0001d450       ??_C@_0M@EALIELKG@cli?3?3array?$DM?$AA@ 004ff450     libvcruntime:undname.obj
 0002:0001d460       ??_C@_0O@GKABPPIF@cli?3?3pin_ptr?$DM?$AA@ 004ff460     libvcruntime:undname.obj
 0002:0001d470       ??_C@_02GOGNNPBN@?$CJ?$FL?$AA@ 004ff470     libvcruntime:undname.obj
 0002:0001d474       ??_C@_06EEGAIFAK@?$HLflat?$HN?$AA@ 004ff474     libvcruntime:undname.obj
 0002:0001d47c       ??_C@_05JIBOFOHK@?$HLfor?5?$AA@ 004ff47c     libvcruntime:undname.obj
 0002:0001d484       ??_C@_02MDINNEEG@s?5?$AA@  004ff484     libvcruntime:undname.obj
 0002:0001d48c       ??_7DNameNode@@6B@         004ff48c     libvcruntime:undname.obj
 0002:0001d4a0       ??_7charNode@@6B@          004ff4a0     libvcruntime:undname.obj
 0002:0001d4b4       ??_7pcharNode@@6B@         004ff4b4     libvcruntime:undname.obj
 0002:0001d4c8       ??_7pDNameNode@@6B@        004ff4c8     libvcruntime:undname.obj
 0002:0001d4dc       ??_7DNameStatusNode@@6B@   004ff4dc     libvcruntime:undname.obj
 0002:0001d4f0       ??_7pairNode@@6B@          004ff4f0     libvcruntime:undname.obj
 0002:0001d500       ??_C@_04OKOHEJBO@?5?$DP?$DP?5?$AA@ 004ff500     libvcruntime:undname.obj
 0002:0001d508       _standard_lookup_table     004ff508     libucrt:output.obj
 0002:0001d578       _format_validation_lookup_table 004ff578     libucrt:output.obj
 0002:0001d5e8       ??_C@_06OJHGLDPL@?$CInull?$CJ?$AA@ 004ff5e8     libucrt:output.obj
 0002:0001d5f0       ??_C@_1O@CEDCILHN@?$AA?$CI?$AAn?$AAu?$AAl?$AAl?$AA?$CJ?$AA?$AA@ 004ff5f0     libucrt:output.obj
 0002:0001d600       __Fenv0                    004ff600     libucrt:input.obj
 0002:0001d610       ?large_power_data@?1??multiply_by_power_of_ten@__crt_strtox@@YA_NAAUbig_integer@2@I@Z@4QBIB 004ff610     libucrt:input.obj
 0002:0001e0e8       ?large_power_indices@?1??multiply_by_power_of_ten@__crt_strtox@@YA_NAAUbig_integer@2@I@Z@4QBUunpack_index@?1??12@YA_N0I@Z@B 005000e8     libucrt:input.obj
 0002:0001e1a0       ?small_powers_of_ten@?6??multiply_by_power_of_ten@__crt_strtox@@YA_NAAUbig_integer@2@I@Z@4QBIB 005001a0     libucrt:input.obj
 0002:0001e1d0       ??_C@_1GE@DPGDJKLM@?$AAm?$AAi?$AAn?$AAk?$AAe?$AAr?$AAn?$AAe?$AAl?$AA?2?$AAc?$AAr?$AAt?$AAs?$AA?2?$AAu?$AAc?$AAr?$AAt?$AA?2?$AAi?$AAn?$AAc?$AA?2?$AAc?$AAo?$AAr?$AAe?$AAc?$AAr?$AAt?$AA_@ 005001d0     libucrt:input.obj
 0002:0001e248       ??_C@_1FM@FELNCOBF@?$AA_?$AA_?$AAc?$AAr?$AAt?$AA_?$AAs?$AAt?$AAr?$AAt?$AAo?$AAx?$AA?3?$AA?3?$AAf?$AAl?$AAo?$AAa?$AAt?$AAi?$AAn?$AAg?$AA_?$AAp?$AAo?$AAi?$AAn?$AAt?$AA_?$AAv?$AAa?$AAl@ 00500248     libucrt:input.obj
 0002:0001e2b8       ??_C@_1BG@GEMHBGAF@?$AA_?$AAi?$AAs?$AA_?$AAd?$AAo?$AAu?$AAb?$AAl?$AAe?$AA?$AA@ 005002b8     libucrt:input.obj
 0002:0001e2d8       ??_C@_1FK@JOJELFFO@?$AA_?$AA_?$AAc?$AAr?$AAt?$AA_?$AAs?$AAt?$AAr?$AAt?$AAo?$AAx?$AA?3?$AA?3?$AAf?$AAl?$AAo?$AAa?$AAt?$AAi?$AAn?$AAg?$AA_?$AAp?$AAo?$AAi?$AAn?$AAt?$AA_?$AAv?$AAa?$AAl@ 005002d8     libucrt:input.obj
 0002:0001e344       ??_C@_1BI@BANMPGJI@?$AA?$CB?$AA_?$AAi?$AAs?$AA_?$AAd?$AAo?$AAu?$AAb?$AAl?$AAe?$AA?$AA@ 00500344     libucrt:input.obj
 0002:0001e360       ?constraints@?1??is_length_valid@__crt_stdio_input@@YA_NW4conversion_mode@2@W4length_modifier@2@@Z@4QAY0M@$$CBEA 00500360     libucrt:input.obj
 0002:0001e3f0       ?inf_uppercase@?2???$parse_floating_point_possible_infinity@DV?$input_adapter_character_source@V?$stream_input_adapter@D@__crt_stdio_input@@@__crt_strtox@@_K@__crt_strtox@@YA?AW4floating_point_parse_result@1@AADAAV?$input_adapter_character_source@V?$stream_input_adapter@D@__crt_stdio_input@@@1@_K@Z@4QBDB 005003f0     libucrt:input.obj
 0002:0001e3f4       ?inf_lowercase@?2???$parse_floating_point_possible_infinity@DV?$input_adapter_character_source@V?$stream_input_adapter@D@__crt_stdio_input@@@__crt_strtox@@_K@__crt_strtox@@YA?AW4floating_point_parse_result@1@AADAAV?$input_adapter_character_source@V?$stream_input_adapter@D@__crt_stdio_input@@@1@_K@Z@4QBDB 005003f4     libucrt:input.obj
 0002:0001e3f8       ?inity_uppercase@?5???$parse_floating_point_possible_infinity@DV?$input_adapter_character_source@V?$stream_input_adapter@D@__crt_stdio_input@@@__crt_strtox@@_K@__crt_strtox@@YA?AW4floating_point_parse_result@1@AADAAV?$input_adapter_character_source@V?$stream_input_adapter@D@__crt_stdio_input@@@1@_K@Z@4QBDB 005003f8     libucrt:input.obj
 0002:0001e400       ?inity_lowercase@?5???$parse_floating_point_possible_infinity@DV?$input_adapter_character_source@V?$stream_input_adapter@D@__crt_stdio_input@@@__crt_strtox@@_K@__crt_strtox@@YA?AW4floating_point_parse_result@1@AADAAV?$input_adapter_character_source@V?$stream_input_adapter@D@__crt_stdio_input@@@1@_K@Z@4QBDB 00500400     libucrt:input.obj
 0002:0001e408       ?uppercase@?2???$parse_floating_point_possible_nan@DV?$input_adapter_character_source@V?$stream_input_adapter@D@__crt_stdio_input@@@__crt_strtox@@_K@__crt_strtox@@YA?AW4floating_point_parse_result@1@AADAAV?$input_adapter_character_source@V?$stream_input_adapter@D@__crt_stdio_input@@@1@_K@Z@4QBDB 00500408     libucrt:input.obj
 0002:0001e40c       ?lowercase@?2???$parse_floating_point_possible_nan@DV?$input_adapter_character_source@V?$stream_input_adapter@D@__crt_stdio_input@@@__crt_strtox@@_K@__crt_strtox@@YA?AW4floating_point_parse_result@1@AADAAV?$input_adapter_character_source@V?$stream_input_adapter@D@__crt_stdio_input@@@1@_K@Z@4QBDB 0050040c     libucrt:input.obj
 0002:0001e410       ?inf_uppercase@?2???$parse_floating_point_possible_infinity@_WV?$input_adapter_character_source@V?$stream_input_adapter@_W@__crt_stdio_input@@@__crt_strtox@@_K@__crt_strtox@@YA?AW4floating_point_parse_result@1@AA_WAAV?$input_adapter_character_source@V?$stream_input_adapter@_W@__crt_stdio_input@@@1@_K@Z@4QB_WB 00500410     libucrt:input.obj
 0002:0001e418       ?inf_lowercase@?2???$parse_floating_point_possible_infinity@_WV?$input_adapter_character_source@V?$stream_input_adapter@_W@__crt_stdio_input@@@__crt_strtox@@_K@__crt_strtox@@YA?AW4floating_point_parse_result@1@AA_WAAV?$input_adapter_character_source@V?$stream_input_adapter@_W@__crt_stdio_input@@@1@_K@Z@4QB_WB 00500418     libucrt:input.obj
 0002:0001e420       ?inity_uppercase@?5???$parse_floating_point_possible_infinity@_WV?$input_adapter_character_source@V?$stream_input_adapter@_W@__crt_stdio_input@@@__crt_strtox@@_K@__crt_strtox@@YA?AW4floating_point_parse_result@1@AA_WAAV?$input_adapter_character_source@V?$stream_input_adapter@_W@__crt_stdio_input@@@1@_K@Z@4QB_WB 00500420     libucrt:input.obj
 0002:0001e42c       ?inity_lowercase@?5???$parse_floating_point_possible_infinity@_WV?$input_adapter_character_source@V?$stream_input_adapter@_W@__crt_stdio_input@@@__crt_strtox@@_K@__crt_strtox@@YA?AW4floating_point_parse_result@1@AA_WAAV?$input_adapter_character_source@V?$stream_input_adapter@_W@__crt_stdio_input@@@1@_K@Z@4QB_WB 0050042c     libucrt:input.obj
 0002:0001e438       ?uppercase@?2???$parse_floating_point_possible_nan@_WV?$input_adapter_character_source@V?$stream_input_adapter@_W@__crt_stdio_input@@@__crt_strtox@@_K@__crt_strtox@@YA?AW4floating_point_parse_result@1@AA_WAAV?$input_adapter_character_source@V?$stream_input_adapter@_W@__crt_stdio_input@@@1@_K@Z@4QB_WB 00500438     libucrt:input.obj
 0002:0001e440       ?lowercase@?2???$parse_floating_point_possible_nan@_WV?$input_adapter_character_source@V?$stream_input_adapter@_W@__crt_stdio_input@@@__crt_strtox@@_K@__crt_strtox@@YA?AW4floating_point_parse_result@1@AA_WAAV?$input_adapter_character_source@V?$stream_input_adapter@_W@__crt_stdio_input@@@1@_K@Z@4QB_WB 00500440     libucrt:input.obj
 0002:0001e448       ?inf_uppercase@?2???$parse_floating_point_possible_infinity@DV?$input_adapter_character_source@V?$string_input_adapter@D@__crt_stdio_input@@@__crt_strtox@@_K@__crt_strtox@@YA?AW4floating_point_parse_result@1@AADAAV?$input_adapter_character_source@V?$string_input_adapter@D@__crt_stdio_input@@@1@_K@Z@4QBDB 00500448     libucrt:input.obj
 0002:0001e44c       ?inf_lowercase@?2???$parse_floating_point_possible_infinity@DV?$input_adapter_character_source@V?$string_input_adapter@D@__crt_stdio_input@@@__crt_strtox@@_K@__crt_strtox@@YA?AW4floating_point_parse_result@1@AADAAV?$input_adapter_character_source@V?$string_input_adapter@D@__crt_stdio_input@@@1@_K@Z@4QBDB 0050044c     libucrt:input.obj
 0002:0001e450       ?inity_uppercase@?5???$parse_floating_point_possible_infinity@DV?$input_adapter_character_source@V?$string_input_adapter@D@__crt_stdio_input@@@__crt_strtox@@_K@__crt_strtox@@YA?AW4floating_point_parse_result@1@AADAAV?$input_adapter_character_source@V?$string_input_adapter@D@__crt_stdio_input@@@1@_K@Z@4QBDB 00500450     libucrt:input.obj
 0002:0001e458       ?inity_lowercase@?5???$parse_floating_point_possible_infinity@DV?$input_adapter_character_source@V?$string_input_adapter@D@__crt_stdio_input@@@__crt_strtox@@_K@__crt_strtox@@YA?AW4floating_point_parse_result@1@AADAAV?$input_adapter_character_source@V?$string_input_adapter@D@__crt_stdio_input@@@1@_K@Z@4QBDB 00500458     libucrt:input.obj
 0002:0001e460       ?uppercase@?2???$parse_floating_point_possible_nan@DV?$input_adapter_character_source@V?$string_input_adapter@D@__crt_stdio_input@@@__crt_strtox@@_K@__crt_strtox@@YA?AW4floating_point_parse_result@1@AADAAV?$input_adapter_character_source@V?$string_input_adapter@D@__crt_stdio_input@@@1@_K@Z@4QBDB 00500460     libucrt:input.obj
 0002:0001e464       ?lowercase@?2???$parse_floating_point_possible_nan@DV?$input_adapter_character_source@V?$string_input_adapter@D@__crt_stdio_input@@@__crt_strtox@@_K@__crt_strtox@@YA?AW4floating_point_parse_result@1@AADAAV?$input_adapter_character_source@V?$string_input_adapter@D@__crt_stdio_input@@@1@_K@Z@4QBDB 00500464     libucrt:input.obj
 0002:0001e468       ?inf_uppercase@?2???$parse_floating_point_possible_infinity@_WV?$input_adapter_character_source@V?$string_input_adapter@_W@__crt_stdio_input@@@__crt_strtox@@_K@__crt_strtox@@YA?AW4floating_point_parse_result@1@AA_WAAV?$input_adapter_character_source@V?$string_input_adapter@_W@__crt_stdio_input@@@1@_K@Z@4QB_WB 00500468     libucrt:input.obj
 0002:0001e470       ?inf_lowercase@?2???$parse_floating_point_possible_infinity@_WV?$input_adapter_character_source@V?$string_input_adapter@_W@__crt_stdio_input@@@__crt_strtox@@_K@__crt_strtox@@YA?AW4floating_point_parse_result@1@AA_WAAV?$input_adapter_character_source@V?$string_input_adapter@_W@__crt_stdio_input@@@1@_K@Z@4QB_WB 00500470     libucrt:input.obj
 0002:0001e478       ?inity_uppercase@?5???$parse_floating_point_possible_infinity@_WV?$input_adapter_character_source@V?$string_input_adapter@_W@__crt_stdio_input@@@__crt_strtox@@_K@__crt_strtox@@YA?AW4floating_point_parse_result@1@AA_WAAV?$input_adapter_character_source@V?$string_input_adapter@_W@__crt_stdio_input@@@1@_K@Z@4QB_WB 00500478     libucrt:input.obj
 0002:0001e484       ?inity_lowercase@?5???$parse_floating_point_possible_infinity@_WV?$input_adapter_character_source@V?$string_input_adapter@_W@__crt_stdio_input@@@__crt_strtox@@_K@__crt_strtox@@YA?AW4floating_point_parse_result@1@AA_WAAV?$input_adapter_character_source@V?$string_input_adapter@_W@__crt_stdio_input@@@1@_K@Z@4QB_WB 00500484     libucrt:input.obj
 0002:0001e490       ?uppercase@?2???$parse_floating_point_possible_nan@_WV?$input_adapter_character_source@V?$string_input_adapter@_W@__crt_stdio_input@@@__crt_strtox@@_K@__crt_strtox@@YA?AW4floating_point_parse_result@1@AA_WAAV?$input_adapter_character_source@V?$string_input_adapter@_W@__crt_stdio_input@@@1@_K@Z@4QB_WB 00500490     libucrt:input.obj
 0002:0001e498       ?lowercase@?2???$parse_floating_point_possible_nan@_WV?$input_adapter_character_source@V?$string_input_adapter@_W@__crt_stdio_input@@@__crt_strtox@@_K@__crt_strtox@@YA?AW4floating_point_parse_result@1@AA_WAAV?$input_adapter_character_source@V?$string_input_adapter@_W@__crt_stdio_input@@@1@_K@Z@4QB_WB 00500498     libucrt:input.obj
 0002:0001e4a0       ?uppercase@?1???$parse_floating_point_possible_nan_is_snan@DV?$input_adapter_character_source@V?$stream_input_adapter@D@__crt_stdio_input@@@__crt_strtox@@@__crt_strtox@@YA_NAADAAV?$input_adapter_character_source@V?$stream_input_adapter@D@__crt_stdio_input@@@1@@Z@4QBDB 005004a0     libucrt:input.obj
 0002:0001e4a8       ?lowercase@?1???$parse_floating_point_possible_nan_is_snan@DV?$input_adapter_character_source@V?$stream_input_adapter@D@__crt_stdio_input@@@__crt_strtox@@@__crt_strtox@@YA_NAADAAV?$input_adapter_character_source@V?$stream_input_adapter@D@__crt_stdio_input@@@1@@Z@4QBDB 005004a8     libucrt:input.obj
 0002:0001e4b0       ?uppercase@?1???$parse_floating_point_possible_nan_is_ind@DV?$input_adapter_character_source@V?$stream_input_adapter@D@__crt_stdio_input@@@__crt_strtox@@@__crt_strtox@@YA_NAADAAV?$input_adapter_character_source@V?$stream_input_adapter@D@__crt_stdio_input@@@1@@Z@4QBDB 005004b0     libucrt:input.obj
 0002:0001e4b4       ?lowercase@?1???$parse_floating_point_possible_nan_is_ind@DV?$input_adapter_character_source@V?$stream_input_adapter@D@__crt_stdio_input@@@__crt_strtox@@@__crt_strtox@@YA_NAADAAV?$input_adapter_character_source@V?$stream_input_adapter@D@__crt_stdio_input@@@1@@Z@4QBDB 005004b4     libucrt:input.obj
 0002:0001e4b8       ?uppercase@?1???$parse_floating_point_possible_nan_is_snan@_WV?$input_adapter_character_source@V?$stream_input_adapter@_W@__crt_stdio_input@@@__crt_strtox@@@__crt_strtox@@YA_NAA_WAAV?$input_adapter_character_source@V?$stream_input_adapter@_W@__crt_stdio_input@@@1@@Z@4QB_WB 005004b8     libucrt:input.obj
 0002:0001e4c4       ?lowercase@?1???$parse_floating_point_possible_nan_is_snan@_WV?$input_adapter_character_source@V?$stream_input_adapter@_W@__crt_stdio_input@@@__crt_strtox@@@__crt_strtox@@YA_NAA_WAAV?$input_adapter_character_source@V?$stream_input_adapter@_W@__crt_stdio_input@@@1@@Z@4QB_WB 005004c4     libucrt:input.obj
 0002:0001e4d0       ?uppercase@?1???$parse_floating_point_possible_nan_is_ind@_WV?$input_adapter_character_source@V?$stream_input_adapter@_W@__crt_stdio_input@@@__crt_strtox@@@__crt_strtox@@YA_NAA_WAAV?$input_adapter_character_source@V?$stream_input_adapter@_W@__crt_stdio_input@@@1@@Z@4QB_WB 005004d0     libucrt:input.obj
 0002:0001e4dc       ?lowercase@?1???$parse_floating_point_possible_nan_is_ind@_WV?$input_adapter_character_source@V?$stream_input_adapter@_W@__crt_stdio_input@@@__crt_strtox@@@__crt_strtox@@YA_NAA_WAAV?$input_adapter_character_source@V?$stream_input_adapter@_W@__crt_stdio_input@@@1@@Z@4QB_WB 005004dc     libucrt:input.obj
 0002:0001e4e8       ?uppercase@?1???$parse_floating_point_possible_nan_is_snan@DV?$input_adapter_character_source@V?$string_input_adapter@D@__crt_stdio_input@@@__crt_strtox@@@__crt_strtox@@YA_NAADAAV?$input_adapter_character_source@V?$string_input_adapter@D@__crt_stdio_input@@@1@@Z@4QBDB 005004e8     libucrt:input.obj
 0002:0001e4f0       ?lowercase@?1???$parse_floating_point_possible_nan_is_snan@DV?$input_adapter_character_source@V?$string_input_adapter@D@__crt_stdio_input@@@__crt_strtox@@@__crt_strtox@@YA_NAADAAV?$input_adapter_character_source@V?$string_input_adapter@D@__crt_stdio_input@@@1@@Z@4QBDB 005004f0     libucrt:input.obj
 0002:0001e4f8       ?uppercase@?1???$parse_floating_point_possible_nan_is_ind@DV?$input_adapter_character_source@V?$string_input_adapter@D@__crt_stdio_input@@@__crt_strtox@@@__crt_strtox@@YA_NAADAAV?$input_adapter_character_source@V?$string_input_adapter@D@__crt_stdio_input@@@1@@Z@4QBDB 005004f8     libucrt:input.obj
 0002:0001e4fc       ?lowercase@?1???$parse_floating_point_possible_nan_is_ind@DV?$input_adapter_character_source@V?$string_input_adapter@D@__crt_stdio_input@@@__crt_strtox@@@__crt_strtox@@YA_NAADAAV?$input_adapter_character_source@V?$string_input_adapter@D@__crt_stdio_input@@@1@@Z@4QBDB 005004fc     libucrt:input.obj
 0002:0001e500       ?uppercase@?1???$parse_floating_point_possible_nan_is_snan@_WV?$input_adapter_character_source@V?$string_input_adapter@_W@__crt_stdio_input@@@__crt_strtox@@@__crt_strtox@@YA_NAA_WAAV?$input_adapter_character_source@V?$string_input_adapter@_W@__crt_stdio_input@@@1@@Z@4QB_WB 00500500     libucrt:input.obj
 0002:0001e50c       ?lowercase@?1???$parse_floating_point_possible_nan_is_snan@_WV?$input_adapter_character_source@V?$string_input_adapter@_W@__crt_stdio_input@@@__crt_strtox@@@__crt_strtox@@YA_NAA_WAAV?$input_adapter_character_source@V?$string_input_adapter@_W@__crt_stdio_input@@@1@@Z@4QB_WB 0050050c     libucrt:input.obj
 0002:0001e518       ?uppercase@?1???$parse_floating_point_possible_nan_is_ind@_WV?$input_adapter_character_source@V?$string_input_adapter@_W@__crt_stdio_input@@@__crt_strtox@@@__crt_strtox@@YA_NAA_WAAV?$input_adapter_character_source@V?$string_input_adapter@_W@__crt_stdio_input@@@1@@Z@4QB_WB 00500518     libucrt:input.obj
 0002:0001e524       ?lowercase@?1???$parse_floating_point_possible_nan_is_ind@_WV?$input_adapter_character_source@V?$string_input_adapter@_W@__crt_stdio_input@@@__crt_strtox@@@__crt_strtox@@YA_NAA_WAAV?$input_adapter_character_source@V?$string_input_adapter@_W@__crt_stdio_input@@@1@@Z@4QB_WB 00500524     libucrt:input.obj
 0002:0001e53c       ??_C@_19DOGDICKI@?$AA?4?$AAe?$AAx?$AAe?$AA?$AA@ 0050053c     libucrt:stat.obj
 0002:0001e548       ??_C@_19BDKLHPGC@?$AA?4?$AAc?$AAm?$AAd?$AA?$AA@ 00500548     libucrt:stat.obj
 0002:0001e554       ??_C@_19PINKOIBI@?$AA?4?$AAb?$AAa?$AAt?$AA?$AA@ 00500554     libucrt:stat.obj
 0002:0001e560       ??_C@_19CDGLJBOD@?$AA?4?$AAc?$AAo?$AAm?$AA?$AA@ 00500560     libucrt:stat.obj
 0002:0001e56c       ??_C@_17BAAFHAL@?$AA?4?$AA?1?$AA?2?$AA?$AA@ 0050056c     libucrt:stat.obj
 0002:0001e578       ??_C@_15HEJOKEHO@?$AA?$DP?$AA?$CK?$AA?$AA@ 00500578     libucrt:stat.obj
 0002:0001e580       _RtlNtPathSeperatorString  00500580     libucrt:exit.obj
 0002:0001e58c       ??_C@_13FPGAJAPJ@?$AA?2?$AA?$AA@ 0050058c     libucrt:exit.obj
 0002:0001e590       _RtlDosPathSeperatorsString 00500590     libucrt:exit.obj
 0002:0001e59c       ??_C@_15MNCACJLI@?$AA?2?$AA?1?$AA?$AA@ 0050059c     libucrt:exit.obj
 0002:0001e5a4       _RtlAlternateDosPathSeperatorString 005005a4     libucrt:exit.obj
 0002:0001e5b0       ??_C@_13CGOKJPIL@?$AA?1?$AA?$AA@ 005005b0     libucrt:exit.obj
 0002:0001e5b4       ??_C@_1BI@BGOHAHKC@?$AAm?$AAs?$AAc?$AAo?$AAr?$AAe?$AAe?$AA?4?$AAd?$AAl?$AAl?$AA?$AA@ 005005b4     libucrt:exit.obj
 0002:0001e5d0       ??_C@_0P@MIGLKIOC@CorExitProcess?$AA@ 005005d0     libucrt:exit.obj
 0002:0001e5e4       ??_C@_0CF@GOGNBNAK@Microsoft?5Visual?5C?$CL?$CL?5Runtime?5Lib@ 005005e4     libucrt:assert.obj
 0002:0001e610       ??_C@_1EK@MBDPDCGA@?$AAM?$AAi?$AAc?$AAr?$AAo?$AAs?$AAo?$AAf?$AAt?$AA?5?$AAV?$AAi?$AAs?$AAu?$AAa?$AAl?$AA?5?$AAC?$AA?$CL?$AA?$CL?$AA?5?$AAR?$AAu?$AAn?$AAt?$AAi?$AAm?$AAe?$AA?5?$AAL?$AAi?$AAb@ 00500610     libucrt:assert.obj
 0002:0001e668       ??_C@_0CK@CFPGFGGO@Assertion?5failed?3?5?$CFTs?0?5file?5?$CFTs?0@ 00500668     libucrt:assert.obj
 0002:0001e6a0       ??_C@_1FE@LHBLIKM@?$AAA?$AAs?$AAs?$AAe?$AAr?$AAt?$AAi?$AAo?$AAn?$AA?5?$AAf?$AAa?$AAi?$AAl?$AAe?$AAd?$AA?3?$AA?5?$AA?$CF?$AAT?$AAs?$AA?0?$AA?5?$AAf?$AAi?$AAl?$AAe?$AA?5?$AA?$CF?$AAT?$AAs?$AA?0@ 005006a0     libucrt:assert.obj
 0002:0001e704       ??_C@_0BC@LAIDCHCH@Assertion?5failed?$CB?$AA@ 00500704     libucrt:assert.obj
 0002:0001e71c       ??_C@_1CE@OJBNHDMO@?$AAA?$AAs?$AAs?$AAe?$AAr?$AAt?$AAi?$AAo?$AAn?$AA?5?$AAf?$AAa?$AAi?$AAl?$AAe?$AAd?$AA?$CB?$AA?$AA@ 0050071c     libucrt:assert.obj
 0002:0001e748       ??_C@_09KLGCKDOD@Program?3?5?$AA@ 00500748     libucrt:assert.obj
 0002:0001e754       ??_C@_1BE@PHKBBGE@?$AAP?$AAr?$AAo?$AAg?$AAr?$AAa?$AAm?$AA?3?$AA?5?$AA?$AA@ 00500754     libucrt:assert.obj
 0002:0001e76c       ??_C@_06IGPBOHMJ@File?3?5?$AA@ 0050076c     libucrt:assert.obj
 0002:0001e774       ??_C@_1O@HEMHKNDC@?$AAF?$AAi?$AAl?$AAe?$AA?3?$AA?5?$AA?$AA@ 00500774     libucrt:assert.obj
 0002:0001e784       ??_C@_06FIEBOLOH@Line?3?5?$AA@ 00500784     libucrt:assert.obj
 0002:0001e78c       ??_C@_1O@KCAFKHJE@?$AAL?$AAi?$AAn?$AAe?$AA?3?$AA?5?$AA?$AA@ 0050078c     libucrt:assert.obj
 0002:0001e79c       ??_C@_0N@MEECIJGN@Expression?3?5?$AA@ 0050079c     libucrt:assert.obj
 0002:0001e7ac       ??_C@_1BK@PEDCIPMA@?$AAE?$AAx?$AAp?$AAr?$AAe?$AAs?$AAs?$AAi?$AAo?$AAn?$AA?3?$AA?5?$AA?$AA@ 005007ac     libucrt:assert.obj
 0002:0001e7d0       ??_C@_0HA@OJHAGA@For?5information?5on?5how?5your?5prog@ 005007d0     libucrt:assert.obj
 0002:0001e858       ??_C@_1OA@EGMLFBHJ@?$AAF?$AAo?$AAr?$AA?5?$AAi?$AAn?$AAf?$AAo?$AAr?$AAm?$AAa?$AAt?$AAi?$AAo?$AAn?$AA?5?$AAo?$AAn?$AA?5?$AAh?$AAo?$AAw?$AA?5?$AAy?$AAo?$AAu?$AAr?$AA?5?$AAp?$AAr?$AAo?$AAg@ 00500858     libucrt:assert.obj
 0002:0001e964       ??_C@_0DN@EBBNMLME@?$CIPress?5Retry?5to?5debug?5the?5applic@ 00500964     libucrt:assert.obj
 0002:0001e9b0       ??_C@_1HK@POCJMFGK@?$AA?$CI?$AAP?$AAr?$AAe?$AAs?$AAs?$AA?5?$AAR?$AAe?$AAt?$AAr?$AAy?$AA?5?$AAt?$AAo?$AA?5?$AAd?$AAe?$AAb?$AAu?$AAg?$AA?5?$AAt?$AAh?$AAe?$AA?5?$AAa?$AAp?$AAp?$AAl?$AAi?$AAc@ 005009b0     libucrt:assert.obj
 0002:0001ea44       ??_C@_17LGKOMLJ@?$AA?4?$AA?4?$AA?4?$AA?$AA@ 00500a44     libucrt:assert.obj
 0002:0001ea50       ??_C@_13LBAGMAIH@?$AA?6?$AA?$AA@ 00500a50     libucrt:assert.obj
 0002:0001ea54       ??_C@_02PHMGELLB@?6?6?$AA@ 00500a54     libucrt:assert.obj
 0002:0001ea58       ??_C@_15IABLJNFO@?$AA?6?$AA?6?$AA?$AA@ 00500a58     libucrt:assert.obj
 0002:0001ea60       ??_C@_0BH@DNAGHKFM@?$DMprogram?5name?5unknown?$DO?$AA@ 00500a60     libucrt:assert.obj
 0002:0001ea7c       ??_C@_1CO@EAEJAADC@?$AA?$DM?$AAp?$AAr?$AAo?$AAg?$AAr?$AAa?$AAm?$AA?5?$AAn?$AAa?$AAm?$AAe?$AA?5?$AAu?$AAn?$AAk?$AAn?$AAo?$AAw?$AAn?$AA?$DO?$AA?$AA@ 00500a7c     libucrt:assert.obj
 0002:0001eac8       __real@3ff0000000000000    00500ac8     libucrt:fabs.obj
 0002:0001eae8       ??_C@_04FJHINJAO@tanh?$AA@ 00500ae8     libucrt:fpexcept.obj
 0002:0001eaf0       ??_C@_04FIHNOPOL@asin?$AA@ 00500af0     libucrt:fpexcept.obj
 0002:0001eaf8       ??_C@_04PDIFKINK@acos?$AA@ 00500af8     libucrt:fpexcept.obj
 0002:0001eb00       ??_C@_04MLLJIGOK@atan?$AA@ 00500b00     libucrt:fpexcept.obj
 0002:0001eb08       ??_C@_05KNGEOGJB@atan2?$AA@ 00500b08     libucrt:fpexcept.obj
 0002:0001eb10       ??_C@_04EIAKFFMI@sqrt?$AA@ 00500b10     libucrt:fpexcept.obj
 0002:0001eb18       ??_C@_03BLEJJJBH@sin?$AA@  00500b18     libucrt:fpexcept.obj
 0002:0001eb1c       ??_C@_03LALBNOCG@cos?$AA@  00500b1c     libucrt:fpexcept.obj
 0002:0001eb20       ??_C@_03IIINPABG@tan?$AA@  00500b20     libucrt:fpexcept.obj
 0002:0001eb24       ??_C@_04GFPJNGEK@ceil?$AA@ 00500b24     libucrt:fpexcept.obj
 0002:0001eb2c       ??_C@_05PBJFFIGL@floor?$AA@ 00500b2c     libucrt:fpexcept.obj
 0002:0001eb34       ??_C@_04ODHECPBC@fabs?$AA@ 00500b34     libucrt:fpexcept.obj
 0002:0001eb3c       ??_C@_04EHEDPDJG@modf?$AA@ 00500b3c     libucrt:fpexcept.obj
 0002:0001eb44       ??_C@_05CEJMAHNP@ldexp?$AA@ 00500b44     libucrt:fpexcept.obj
 0002:0001eb4c       ??_C@_05KBKMEMPO@_cabs?$AA@ 00500b4c     libucrt:fpexcept.obj
 0002:0001eb54       ??_C@_06MEIMCGCF@_hypot?$AA@ 00500b54     libucrt:fpexcept.obj
 0002:0001eb5c       ??_C@_04KEPJIHGP@fmod?$AA@ 00500b5c     libucrt:fpexcept.obj
 0002:0001eb64       ??_C@_05GKKHEGJL@frexp?$AA@ 00500b64     libucrt:fpexcept.obj
 0002:0001eb6c       ??_C@_03MJLDFKDL@_y0?$AA@  00500b6c     libucrt:fpexcept.obj
 0002:0001eb70       ??_C@_03NAKIGLHK@_y1?$AA@  00500b70     libucrt:fpexcept.obj
 0002:0001eb74       ??_C@_03ONILCKOB@_yn?$AA@  00500b74     libucrt:fpexcept.obj
 0002:0001eb78       ??_C@_05JGDBENOH@_logb?$AA@ 00500b78     libucrt:fpexcept.obj
 0002:0001eb80       ??_C@_0L@KDOEJCKC@_nextafter?$AA@ 00500b80     libucrt:fpexcept.obj
 0002:0001eca8       ??_C@_03KHJOGHMM@exp?$AA@  00500ca8     libucrt:fpexcept.obj
 0002:0001ecac       ??_C@_03JGHBODFD@pow?$AA@  00500cac     libucrt:fpexcept.obj
 0002:0001ecb0       ??_C@_03MGHMBJCF@log?$AA@  00500cb0     libucrt:fpexcept.obj
 0002:0001ecb4       ??_C@_05HGHHAHAP@log10?$AA@ 00500cb4     libucrt:fpexcept.obj
 0002:0001ecbc       ??_C@_04COOMCNPB@sinh?$AA@ 00500cbc     libucrt:fpexcept.obj
 0002:0001ecc4       ??_C@_04HPJJNFIM@cosh?$AA@ 00500cc4     libucrt:fpexcept.obj
 0002:0001ecd0       ___acrt_exception_action_table 00500cd0     libucrt:exception_filter.obj
 0002:0001ed7c       ___acrt_signal_action_table_count 00500d7c     libucrt:exception_filter.obj
 0002:0001ed80       ___acrt_signal_action_table_size 00500d80     libucrt:exception_filter.obj
 0002:0001ed84       ___acrt_signal_action_first_fpe_index 00500d84     libucrt:exception_filter.obj
 0002:0001ed88       ___acrt_signal_action_fpe_count 00500d88     libucrt:exception_filter.obj
 0002:0001ed8c       ??_C@_1DE@JNGNBFGO@?$AAR?$AAu?$AAn?$AAt?$AAi?$AAm?$AAe?$AA?5?$AAE?$AAr?$AAr?$AAo?$AAr?$AA?$CB?$AA?6?$AA?6?$AAP?$AAr?$AAo?$AAg?$AAr?$AAa?$AAm?$AA?3?$AA?5?$AA?$AA@ 00500d8c     libucrt:report_runtime_error.obj
 0002:0001edd0       ___lc_category             00500dd0     libucrt:wsetlocale.obj
 0002:0001ee28       ??_C@_1O@GIFLHMA@?$AAL?$AAC?$AA_?$AAA?$AAL?$AAL?$AA?$AA@ 00500e28     libucrt:wsetlocale.obj
 0002:0001ee38       ??_C@_1BG@PPOMIBNJ@?$AAL?$AAC?$AA_?$AAC?$AAO?$AAL?$AAL?$AAA?$AAT?$AAE?$AA?$AA@ 00500e38     libucrt:wsetlocale.obj
 0002:0001ee54       ??_C@_1BC@FFJGAPJM@?$AAL?$AAC?$AA_?$AAC?$AAT?$AAY?$AAP?$AAE?$AA?$AA@ 00500e54     libucrt:wsetlocale.obj
 0002:0001ee6c       ??_C@_1BI@PCKFNJFB@?$AAL?$AAC?$AA_?$AAM?$AAO?$AAN?$AAE?$AAT?$AAA?$AAR?$AAY?$AA?$AA@ 00500e6c     libucrt:wsetlocale.obj
 0002:0001ee88       ??_C@_1BG@ENIEDKID@?$AAL?$AAC?$AA_?$AAN?$AAU?$AAM?$AAE?$AAR?$AAI?$AAC?$AA?$AA@ 00500e88     libucrt:wsetlocale.obj
 0002:0001eea4       ??_C@_1BA@HAAOMIIG@?$AAL?$AAC?$AA_?$AAT?$AAI?$AAM?$AAE?$AA?$AA@ 00500ea4     libucrt:wsetlocale.obj
 0002:0001ef50       ??_C@_15NBPDDFIP@?$AA?$DN?$AA?$DL?$AA?$AA@ 00500f50     libucrt:wsetlocale.obj
 0002:0001ef58       ??_C@_13PJJBFPED@?$AA?$DL?$AA?$AA@ 00500f58     libucrt:wsetlocale.obj
 0002:0001ef5c       ??_C@_13NMPKAAJP@?$AA?$DN?$AA?$AA@ 00500f5c     libucrt:wsetlocale.obj
 0002:0001ef60       ??_C@_13FHBKNHDA@?$AAC?$AA?$AA@ 00500f60     libucrt:wsetlocale.obj
 0002:0001ef64       ??_C@_17MBJJLFDM@?$AA_?$AA?4?$AA?0?$AA?$AA@ 00500f64     libucrt:wsetlocale.obj
 0002:0001ef70       ??_C@_13ENNFDPBH@?$AA_?$AA?$AA@ 00500f70     libucrt:wsetlocale.obj
 0002:0001ef74       ??_C@_13JOFGPIOO@?$AA?4?$AA?$AA@ 00500f74     libucrt:wsetlocale.obj
 0002:0001f008       ??_C@_1BG@HHIFPOEK@?$AAm?$AAs?$AAv?$AAc?$AAr?$AAt?$AA?4?$AAd?$AAl?$AAl?$AA?$AA@ 00501008     libucrt:free_base.obj
 0002:0001f1d8       ??_C@_03OEIAHPBN@INF?$AA@  005011d8     libucrt:cvt.obj
 0002:0001f1dc       ??_C@_03OJHLLCGB@inf?$AA@  005011dc     libucrt:cvt.obj
 0002:0001f1e0       ??_C@_03LKNCIKJB@NAN?$AA@  005011e0     libucrt:cvt.obj
 0002:0001f1e4       ??_C@_03LHCJEHON@nan?$AA@  005011e4     libucrt:cvt.obj
 0002:0001f1e8       ??_C@_09OFJJIMPC@NAN?$CISNAN?$CJ?$AA@ 005011e8     libucrt:cvt.obj
 0002:0001f1f4       ??_C@_09IPFBKMDL@nan?$CIsnan?$CJ?$AA@ 005011f4     libucrt:cvt.obj
 0002:0001f200       ??_C@_08IKHNHAJ@NAN?$CIIND?$CJ?$AA@ 00501200     libucrt:cvt.obj
 0002:0001f20c       ??_C@_08OFCDMILK@nan?$CIind?$CJ?$AA@ 0050120c     libucrt:cvt.obj
 0002:0001f218       ??_C@_05KLBDPFGC@e?$CL000?$AA@ 00501218     libucrt:cvt.obj
 0002:0001f220       ??_C@_03KOEHGMDN@Sun?$AA@  00501220     libucrt:nlsdata.obj
 0002:0001f224       ??_C@_03PDAGKDH@Mon?$AA@   00501224     libucrt:nlsdata.obj
 0002:0001f228       ??_C@_03NAGEINEP@Tue?$AA@  00501228     libucrt:nlsdata.obj
 0002:0001f22c       ??_C@_03MHOMLAJA@Wed?$AA@  0050122c     libucrt:nlsdata.obj
 0002:0001f230       ??_C@_03IOFIKPDN@Thu?$AA@  00501230     libucrt:nlsdata.obj
 0002:0001f234       ??_C@_03IDIOELNC@Fri?$AA@  00501234     libucrt:nlsdata.obj
 0002:0001f238       ??_C@_03FEFJNEK@Sat?$AA@   00501238     libucrt:nlsdata.obj
 0002:0001f23c       ??_C@_06OOPIFAJ@Sunday?$AA@ 0050123c     libucrt:nlsdata.obj
 0002:0001f244       ??_C@_06JLEDEDGH@Monday?$AA@ 00501244     libucrt:nlsdata.obj
 0002:0001f24c       ??_C@_07BAAGCFCM@Tuesday?$AA@ 0050124c     libucrt:nlsdata.obj
 0002:0001f258       ??_C@_09DLIGFAKA@Wednesday?$AA@ 00501258     libucrt:nlsdata.obj
 0002:0001f264       ??_C@_08HACCIKIA@Thursday?$AA@ 00501264     libucrt:nlsdata.obj
 0002:0001f270       ??_C@_06JECMNKMI@Friday?$AA@ 00501270     libucrt:nlsdata.obj
 0002:0001f278       ??_C@_08INBOOONO@Saturday?$AA@ 00501278     libucrt:nlsdata.obj
 0002:0001f284       ??_C@_03JIHJHPIE@Jan?$AA@  00501284     libucrt:nlsdata.obj
 0002:0001f288       ??_C@_03HJBDCHOM@Feb?$AA@  00501288     libucrt:nlsdata.obj
 0002:0001f28c       ??_C@_03ODNJBKGA@Mar?$AA@  0050128c     libucrt:nlsdata.obj
 0002:0001f290       ??_C@_03LEOLGMJP@Apr?$AA@  00501290     libucrt:nlsdata.obj
 0002:0001f294       ??_C@_03CNMDKL@May?$AA@    00501294     libucrt:nlsdata.obj
 0002:0001f298       ??_C@_03IDFGHECI@Jun?$AA@  00501298     libucrt:nlsdata.obj
 0002:0001f29c       ??_C@_03LBGABGKK@Jul?$AA@  0050129c     libucrt:nlsdata.obj
 0002:0001f2a0       ??_C@_03IFJFEIGA@Aug?$AA@  005012a0     libucrt:nlsdata.obj
 0002:0001f2a4       ??_C@_03GGCAPAJC@Sep?$AA@  005012a4     libucrt:nlsdata.obj
 0002:0001f2a8       ??_C@_03BMAOKBAD@Oct?$AA@  005012a8     libucrt:nlsdata.obj
 0002:0001f2ac       ??_C@_03JPJOFNIA@Nov?$AA@  005012ac     libucrt:nlsdata.obj
 0002:0001f2b0       ??_C@_03MKABNOCG@Dec?$AA@  005012b0     libucrt:nlsdata.obj
 0002:0001f2b4       ??_C@_07CGJPFGJA@January?$AA@ 005012b4     libucrt:nlsdata.obj
 0002:0001f2c0       ??_C@_08GNJGEPFN@February?$AA@ 005012c0     libucrt:nlsdata.obj
 0002:0001f2cc       ??_C@_05HPCKOFNC@March?$AA@ 005012cc     libucrt:nlsdata.obj
 0002:0001f2d4       ??_C@_05DMJDNLEJ@April?$AA@ 005012d4     libucrt:nlsdata.obj
 0002:0001f2dc       ??_C@_04CNLMGBGM@June?$AA@ 005012dc     libucrt:nlsdata.obj
 0002:0001f2e4       ??_C@_04MIEPOIFP@July?$AA@ 005012e4     libucrt:nlsdata.obj
 0002:0001f2ec       ??_C@_06LBBHFDDG@August?$AA@ 005012ec     libucrt:nlsdata.obj
 0002:0001f2f4       ??_C@_09BHHEALKD@September?$AA@ 005012f4     libucrt:nlsdata.obj
 0002:0001f300       ??_C@_07JJNFCEND@October?$AA@ 00501300     libucrt:nlsdata.obj
 0002:0001f30c       ??_C@_08HCHEGEOA@November?$AA@ 0050130c     libucrt:nlsdata.obj
 0002:0001f318       ??_C@_08EDHMEBNP@December?$AA@ 00501318     libucrt:nlsdata.obj
 0002:0001f324       ??_C@_02DEDBPAFC@AM?$AA@   00501324     libucrt:nlsdata.obj
 0002:0001f328       ??_C@_02CJNFDJBF@PM?$AA@   00501328     libucrt:nlsdata.obj
 0002:0001f32c       ??_C@_08BPBNCDIB@MM?1dd?1yy?$AA@ 0050132c     libucrt:nlsdata.obj
 0002:0001f338       ??_C@_0BE@CKGJFCPC@dddd?0?5MMMM?5dd?0?5yyyy?$AA@ 00501338     libucrt:nlsdata.obj
 0002:0001f350       ??_C@_08JCCMCCIL@HH?3mm?3ss?$AA@ 00501350     libucrt:nlsdata.obj
 0002:0001f35c       ??_C@_17MBGCMIPB@?$AAS?$AAu?$AAn?$AA?$AA@ 0050135c     libucrt:nlsdata.obj
 0002:0001f368       ??_C@_17KBOMKBF@?$AAM?$AAo?$AAn?$AA?$AA@ 00501368     libucrt:nlsdata.obj
 0002:0001f374       ??_C@_17BMKGEGOJ@?$AAT?$AAu?$AAe?$AA?$AA@ 00501374     libucrt:nlsdata.obj
 0002:0001f380       ??_C@_17CJEDCEPE@?$AAW?$AAe?$AAd?$AA?$AA@ 00501380     libucrt:nlsdata.obj
 0002:0001f38c       ??_C@_17PDPHAADD@?$AAT?$AAh?$AAu?$AA?$AA@ 0050138c     libucrt:nlsdata.obj
 0002:0001f398       ??_C@_17HFOLPPLP@?$AAF?$AAr?$AAi?$AA?$AA@ 00501398     libucrt:nlsdata.obj
 0002:0001f3a4       ??_C@_17GGIBDPIH@?$AAS?$AAa?$AAt?$AA?$AA@ 005013a4     libucrt:nlsdata.obj
 0002:0001f3b0       ??_C@_1O@IHNHDHPB@?$AAS?$AAu?$AAn?$AAd?$AAa?$AAy?$AA?$AA@ 005013b0     libucrt:nlsdata.obj
 0002:0001f3c0       ??_C@_1O@MMNBFLIA@?$AAM?$AAo?$AAn?$AAd?$AAa?$AAy?$AA?$AA@ 005013c0     libucrt:nlsdata.obj
 0002:0001f3d0       ??_C@_1BA@ENFBFFEK@?$AAT?$AAu?$AAe?$AAs?$AAd?$AAa?$AAy?$AA?$AA@ 005013d0     libucrt:nlsdata.obj
 0002:0001f3e4       ??_C@_1BE@EBOGMDOH@?$AAW?$AAe?$AAd?$AAn?$AAe?$AAs?$AAd?$AAa?$AAy?$AA?$AA@ 005013e4     libucrt:nlsdata.obj
 0002:0001f3fc       ??_C@_1BC@HHMNLIHE@?$AAT?$AAh?$AAu?$AAr?$AAs?$AAd?$AAa?$AAy?$AA?$AA@ 005013fc     libucrt:nlsdata.obj
 0002:0001f414       ??_C@_1O@PDICJHAG@?$AAF?$AAr?$AAi?$AAd?$AAa?$AAy?$AA?$AA@ 00501414     libucrt:nlsdata.obj
 0002:0001f424       ??_C@_1BC@ENMNNPAJ@?$AAS?$AAa?$AAt?$AAu?$AAr?$AAd?$AAa?$AAy?$AA?$AA@ 00501424     libucrt:nlsdata.obj
 0002:0001f43c       ??_C@_17DKNBKCHM@?$AAJ?$AAa?$AAn?$AA?$AA@ 0050143c     libucrt:nlsdata.obj
 0002:0001f448       ??_C@_17LMDJEKJN@?$AAF?$AAe?$AAb?$AA?$AA@ 00501448     libucrt:nlsdata.obj
 0002:0001f454       ??_C@_17CKNLEDEC@?$AAM?$AAa?$AAr?$AA?$AA@ 00501454     libucrt:nlsdata.obj
 0002:0001f460       ??_C@_17LFPOIHDD@?$AAA?$AAp?$AAr?$AA?$AA@ 00501460     libucrt:nlsdata.obj
 0002:0001f46c       ??_C@_17PNNKMEED@?$AAM?$AAa?$AAy?$AA?$AA@ 0050146c     libucrt:nlsdata.obj
 0002:0001f478       ??_C@_17KCJGOCPB@?$AAJ?$AAu?$AAn?$AA?$AA@ 00501478     libucrt:nlsdata.obj
 0002:0001f484       ??_C@_17IJPCKHK@?$AAJ?$AAu?$AAl?$AA?$AA@ 00501484     libucrt:nlsdata.obj
 0002:0001f490       ??_C@_17ICPELBCN@?$AAA?$AAu?$AAg?$AA?$AA@ 00501490     libucrt:nlsdata.obj
 0002:0001f49c       ??_C@_17HCHCOKMG@?$AAS?$AAe?$AAp?$AA?$AA@ 0050149c     libucrt:nlsdata.obj
 0002:0001f4a8       ??_C@_17FNLKOI@?$AAO?$AAc?$AAt?$AA?$AA@ 005014a8     libucrt:nlsdata.obj
 0002:0001f4b4       ??_C@_17BBDMLCIG@?$AAN?$AAo?$AAv?$AA?$AA@ 005014b4     libucrt:nlsdata.obj
 0002:0001f4c0       ??_C@_17EGKACKIF@?$AAD?$AAe?$AAc?$AA?$AA@ 005014c0     libucrt:nlsdata.obj
 0002:0001f4cc       ??_C@_1BA@EFMEIEBA@?$AAJ?$AAa?$AAn?$AAu?$AAa?$AAr?$AAy?$AA?$AA@ 005014cc     libucrt:nlsdata.obj
 0002:0001f4e0       ??_C@_1BC@JGDDFFAM@?$AAF?$AAe?$AAb?$AAr?$AAu?$AAa?$AAr?$AAy?$AA?$AA@ 005014e0     libucrt:nlsdata.obj
 0002:0001f4f8       ??_C@_1M@IKEENEDF@?$AAM?$AAa?$AAr?$AAc?$AAh?$AA?$AA@ 005014f8     libucrt:nlsdata.obj
 0002:0001f508       ??_C@_1M@GJNLMHFD@?$AAA?$AAp?$AAr?$AAi?$AAl?$AA?$AA@ 00501508     libucrt:nlsdata.obj
 0002:0001f518       ??_C@_19EPFLPGAP@?$AAJ?$AAu?$AAn?$AAe?$AA?$AA@ 00501518     libucrt:nlsdata.obj
 0002:0001f524       ??_C@_19BIFMLPCD@?$AAJ?$AAu?$AAl?$AAy?$AA?$AA@ 00501524     libucrt:nlsdata.obj
 0002:0001f530       ??_C@_1O@PAHLKOAC@?$AAA?$AAu?$AAg?$AAu?$AAs?$AAt?$AA?$AA@ 00501530     libucrt:nlsdata.obj
 0002:0001f540       ??_C@_1BE@DKAAMBJL@?$AAS?$AAe?$AAp?$AAt?$AAe?$AAm?$AAb?$AAe?$AAr?$AA?$AA@ 00501540     libucrt:nlsdata.obj
 0002:0001f558       ??_C@_1BA@EPANDLNG@?$AAO?$AAc?$AAt?$AAo?$AAb?$AAe?$AAr?$AA?$AA@ 00501558     libucrt:nlsdata.obj
 0002:0001f56c       ??_C@_1BC@BGLIFPF@?$AAN?$AAo?$AAv?$AAe?$AAm?$AAb?$AAe?$AAr?$AA?$AA@ 0050156c     libucrt:nlsdata.obj
 0002:0001f584       ??_C@_1BC@FEMKIFH@?$AAD?$AAe?$AAc?$AAe?$AAm?$AAb?$AAe?$AAr?$AA?$AA@ 00501584     libucrt:nlsdata.obj
 0002:0001f59c       ??_C@_15ODEHAHHF@?$AAA?$AAM?$AA?$AA@ 0050159c     libucrt:nlsdata.obj
 0002:0001f5a4       ??_C@_15CLMNNGEL@?$AAP?$AAM?$AA?$AA@ 005015a4     libucrt:nlsdata.obj
 0002:0001f5ac       ??_C@_1BC@IEBCMHCM@?$AAM?$AAM?$AA?1?$AAd?$AAd?$AA?1?$AAy?$AAy?$AA?$AA@ 005015ac     libucrt:nlsdata.obj
 0002:0001f5c4       ??_C@_1CI@KNAKOEBC@?$AAd?$AAd?$AAd?$AAd?$AA?0?$AA?5?$AAM?$AAM?$AAM?$AAM?$AA?5?$AAd?$AAd?$AA?0?$AA?5?$AAy?$AAy?$AAy?$AAy?$AA?$AA@ 005015c4     libucrt:nlsdata.obj
 0002:0001f5f4       ??_C@_1BC@GDGBMEMK@?$AAH?$AAH?$AA?3?$AAm?$AAm?$AA?3?$AAs?$AAs?$AA?$AA@ 005015f4     libucrt:nlsdata.obj
 0002:0001f60c       ??_C@_1M@BMHNFIME@?$AAe?$AAn?$AA?9?$AAU?$AAS?$AA?$AA@ 0050160c     libucrt:nlsdata.obj
 0002:0001f620       ___lc_time_c               00501620     libucrt:nlsdata.obj
 0002:0001f7cc       ?ccs@?BL@???$__acrt_stdio_parse_mode@D@@YA?AU__acrt_stdio_stream_mode@@QBD@Z@4QBDB 005017cc     libucrt:openfile.obj
 0002:0001f7d0       ?utf8_encoding@?BL@???$__acrt_stdio_parse_mode@D@@YA?AU__acrt_stdio_stream_mode@@QBD@Z@4QBDB 005017d0     libucrt:openfile.obj
 0002:0001f7d8       ?utf16_encoding@?BL@???$__acrt_stdio_parse_mode@D@@YA?AU__acrt_stdio_stream_mode@@QBD@Z@4QBDB 005017d8     libucrt:openfile.obj
 0002:0001f7e4       ?unicode_encoding@?BL@???$__acrt_stdio_parse_mode@D@@YA?AU__acrt_stdio_stream_mode@@QBD@Z@4QBDB 005017e4     libucrt:openfile.obj
 0002:0001f7ec       ?ccs@?BL@???$__acrt_stdio_parse_mode@_W@@YA?AU__acrt_stdio_stream_mode@@QB_W@Z@4QB_WB 005017ec     libucrt:openfile.obj
 0002:0001f7f4       ?utf8_encoding@?BL@???$__acrt_stdio_parse_mode@_W@@YA?AU__acrt_stdio_stream_mode@@QB_W@Z@4QB_WB 005017f4     libucrt:openfile.obj
 0002:0001f800       ?utf16_encoding@?BL@???$__acrt_stdio_parse_mode@_W@@YA?AU__acrt_stdio_stream_mode@@QB_W@Z@4QB_WB 00501800     libucrt:openfile.obj
 0002:0001f814       ?unicode_encoding@?BL@???$__acrt_stdio_parse_mode@_W@@YA?AU__acrt_stdio_stream_mode@@QB_W@Z@4QB_WB 00501814     libucrt:openfile.obj
 0002:0001f828       __wctype                   00501828     libucrt:ctype.obj
 0002:0001fa98       ___newctype                00501a98     libucrt:ctype.obj
 0002:0001fe38       ___newclmap                00501e38     libucrt:ctype.obj
 0002:00020008       ___newcumap                00502008     libucrt:ctype.obj
 0002:000201e0       __indefinite               005021e0     libucrt:87disp.obj
 0002:000201ea       __piby2                    005021ea     libucrt:87disp.obj
 0002:000201f4       __piby4                    005021f4     libucrt:87disp.obj
 0002:00020238       __DEFAULT_CW_in_mem        00502238     libucrt:common.obj
 0002:0002023a       __pi_by_2_to_61            0050223a     libucrt:common.obj
 0002:000202e8       ??_C@_1EG@CNNIPFIM@?$AAa?$AAp?$AAi?$AA?9?$AAm?$AAs?$AA?9?$AAw?$AAi?$AAn?$AA?9?$AAa?$AAp?$AAp?$AAm?$AAo?$AAd?$AAe?$AAl?$AA?9?$AAr?$AAu?$AAn?$AAt?$AAi?$AAm?$AAe?$AA?9?$AAl?$AA1?$AA?9?$AA1@ 005022e8     libucrt:winapi_thunks.obj
 0002:00020340       ??_C@_1EA@JGEFHKEI@?$AAa?$AAp?$AAi?$AA?9?$AAm?$AAs?$AA?9?$AAw?$AAi?$AAn?$AA?9?$AAc?$AAo?$AAr?$AAe?$AA?9?$AAd?$AAa?$AAt?$AAe?$AAt?$AAi?$AAm?$AAe?$AA?9?$AAl?$AA1?$AA?9?$AA1?$AA?9?$AA1?$AA?$AA@ 00502340     libucrt:winapi_thunks.obj
 0002:0002038c       ??_C@_1DI@GCIAAENM@?$AAa?$AAp?$AAi?$AA?9?$AAm?$AAs?$AA?9?$AAw?$AAi?$AAn?$AA?9?$AAc?$AAo?$AAr?$AAe?$AA?9?$AAf?$AAi?$AAl?$AAe?$AA?9?$AAl?$AA2?$AA?9?$AA1?$AA?9?$AA1?$AA?$AA@ 0050238c     libucrt:winapi_thunks.obj
 0002:000203d0       ??_C@_1EI@MPIAOHOC@?$AAa?$AAp?$AAi?$AA?9?$AAm?$AAs?$AA?9?$AAw?$AAi?$AAn?$AA?9?$AAc?$AAo?$AAr?$AAe?$AA?9?$AAl?$AAo?$AAc?$AAa?$AAl?$AAi?$AAz?$AAa?$AAt?$AAi?$AAo?$AAn?$AA?9?$AAl?$AA1?$AA?9@ 005023d0     libucrt:winapi_thunks.obj
 0002:00020428       ??_C@_1FK@FPHCKFIE@?$AAa?$AAp?$AAi?$AA?9?$AAm?$AAs?$AA?9?$AAw?$AAi?$AAn?$AA?9?$AAc?$AAo?$AAr?$AAe?$AA?9?$AAl?$AAo?$AAc?$AAa?$AAl?$AAi?$AAz?$AAa?$AAt?$AAi?$AAo?$AAn?$AA?9?$AAo?$AAb?$AAs@ 00502428     libucrt:winapi_thunks.obj
 0002:00020498       ??_C@_1EM@DILCGIIO@?$AAa?$AAp?$AAi?$AA?9?$AAm?$AAs?$AA?9?$AAw?$AAi?$AAn?$AA?9?$AAc?$AAo?$AAr?$AAe?$AA?9?$AAp?$AAr?$AAo?$AAc?$AAe?$AAs?$AAs?$AAt?$AAh?$AAr?$AAe?$AAa?$AAd?$AAs?$AA?9?$AAl@ 00502498     libucrt:winapi_thunks.obj
 0002:000204f4       ??_C@_1DM@LNCGDDPN@?$AAa?$AAp?$AAi?$AA?9?$AAm?$AAs?$AA?9?$AAw?$AAi?$AAn?$AA?9?$AAc?$AAo?$AAr?$AAe?$AA?9?$AAs?$AAt?$AAr?$AAi?$AAn?$AAg?$AA?9?$AAl?$AA1?$AA?9?$AA1?$AA?9?$AA0?$AA?$AA@ 005024f4     libucrt:winapi_thunks.obj
 0002:0002053c       ??_C@_1DO@FPAPJEMD@?$AAa?$AAp?$AAi?$AA?9?$AAm?$AAs?$AA?9?$AAw?$AAi?$AAn?$AA?9?$AAc?$AAo?$AAr?$AAe?$AA?9?$AAs?$AAy?$AAs?$AAi?$AAn?$AAf?$AAo?$AA?9?$AAl?$AA1?$AA?9?$AA2?$AA?9?$AA1?$AA?$AA@ 0050253c     libucrt:winapi_thunks.obj
 0002:00020588       ??_C@_1DK@NDHNAHIO@?$AAa?$AAp?$AAi?$AA?9?$AAm?$AAs?$AA?9?$AAw?$AAi?$AAn?$AA?9?$AAc?$AAo?$AAr?$AAe?$AA?9?$AAw?$AAi?$AAn?$AAr?$AAt?$AA?9?$AAl?$AA1?$AA?9?$AA1?$AA?9?$AA0?$AA?$AA@ 00502588     libucrt:winapi_thunks.obj
 0002:000205d0       ??_C@_1DM@KGHDGBCM@?$AAa?$AAp?$AAi?$AA?9?$AAm?$AAs?$AA?9?$AAw?$AAi?$AAn?$AA?9?$AAc?$AAo?$AAr?$AAe?$AA?9?$AAx?$AAs?$AAt?$AAa?$AAt?$AAe?$AA?9?$AAl?$AA2?$AA?9?$AA1?$AA?9?$AA0?$AA?$AA@ 005025d0     libucrt:winapi_thunks.obj
 0002:00020618       ??_C@_1EO@IJIOEFOH@?$AAa?$AAp?$AAi?$AA?9?$AAm?$AAs?$AA?9?$AAw?$AAi?$AAn?$AA?9?$AAr?$AAt?$AAc?$AAo?$AAr?$AAe?$AA?9?$AAn?$AAt?$AAu?$AAs?$AAe?$AAr?$AA?9?$AAw?$AAi?$AAn?$AAd?$AAo?$AAw?$AA?9@ 00502618     libucrt:winapi_thunks.obj
 0002:00020678       ??_C@_1FG@HHGEKANL@?$AAa?$AAp?$AAi?$AA?9?$AAm?$AAs?$AA?9?$AAw?$AAi?$AAn?$AA?9?$AAs?$AAe?$AAc?$AAu?$AAr?$AAi?$AAt?$AAy?$AA?9?$AAs?$AAy?$AAs?$AAt?$AAe?$AAm?$AAf?$AAu?$AAn?$AAc?$AAt?$AAi@ 00502678     libucrt:winapi_thunks.obj
 0002:000206e0       ??_C@_1FG@NCKKOLKO@?$AAe?$AAx?$AAt?$AA?9?$AAm?$AAs?$AA?9?$AAw?$AAi?$AAn?$AA?9?$AAk?$AAe?$AAr?$AAn?$AAe?$AAl?$AA3?$AA2?$AA?9?$AAp?$AAa?$AAc?$AAk?$AAa?$AAg?$AAe?$AA?9?$AAc?$AAu?$AAr?$AAr@ 005026e0     libucrt:winapi_thunks.obj
 0002:00020748       ??_C@_1EG@DBIOJECG@?$AAe?$AAx?$AAt?$AA?9?$AAm?$AAs?$AA?9?$AAw?$AAi?$AAn?$AA?9?$AAn?$AAt?$AAu?$AAs?$AAe?$AAr?$AA?9?$AAd?$AAi?$AAa?$AAl?$AAo?$AAg?$AAb?$AAo?$AAx?$AA?9?$AAl?$AA1?$AA?9?$AA1@ 00502748     libucrt:winapi_thunks.obj
 0002:000207a0       ??_C@_1EO@FIHMJCLF@?$AAe?$AAx?$AAt?$AA?9?$AAm?$AAs?$AA?9?$AAw?$AAi?$AAn?$AA?9?$AAn?$AAt?$AAu?$AAs?$AAe?$AAr?$AA?9?$AAw?$AAi?$AAn?$AAd?$AAo?$AAw?$AAs?$AAt?$AAa?$AAt?$AAi?$AAo?$AAn?$AA?9@ 005027a0     libucrt:winapi_thunks.obj
 0002:00020800       ??_C@_1O@BCCLBEOE@?$AAu?$AAs?$AAe?$AAr?$AA3?$AA2?$AA?$AA@ 00502800     libucrt:winapi_thunks.obj
 0002:00020814       ??_C@_0BA@FHFNEAED@AreFileApisANSI?$AA@ 00502814     libucrt:winapi_thunks.obj
 0002:00020834       ??_C@_0BA@IHGNDAEB@CompareStringEx?$AA@ 00502834     libucrt:winapi_thunks.obj
 0002:00020854       ??_C@_0BE@LJANKFHF@EnumSystemLocalesEx?$AA@ 00502854     libucrt:winapi_thunks.obj
 0002:000208a8       ??_C@_0BA@HNOPNCHB@GetActiveWindow?$AA@ 005028a8     libucrt:winapi_thunks.obj
 0002:000208c8       ??_C@_0BE@JOGNEJCI@GetCurrentPackageId?$AA@ 005028c8     libucrt:winapi_thunks.obj
 0002:000208ec       ??_C@_0BA@EPCJIIPD@GetDateFormatEx?$AA@ 005028ec     libucrt:winapi_thunks.obj
 0002:0002090c       ??_C@_0BJ@DIBIJBHA@GetEnabledXStateFeatures?$AA@ 0050290c     libucrt:winapi_thunks.obj
 0002:00020938       ??_C@_0BN@NEEHBBPO@GetFileInformationByHandleEx?$AA@ 00502938     libucrt:winapi_thunks.obj
 0002:00020968       ??_C@_0BD@HHGDFDBJ@GetLastActivePopup?$AA@ 00502968     libucrt:winapi_thunks.obj
 0002:0002098c       ??_C@_0BA@ONOKGCMP@GetLocaleInfoEx?$AA@ 0050298c     libucrt:winapi_thunks.obj
 0002:000209ac       ??_C@_0BI@DFKBFLJE@GetProcessWindowStation?$AA@ 005029ac     libucrt:winapi_thunks.obj
 0002:000209cc       ??_C@_0BP@FPNJPEJC@GetSystemTimePreciseAsFileTime?$AA@ 005029cc     libucrt:winapi_thunks.obj
 0002:00020a00       ??_C@_0BA@CIJJKCJJ@GetTimeFormatEx?$AA@ 00502a00     libucrt:winapi_thunks.obj
 0002:00020a20       ??_C@_0BJ@PBCCBIPI@GetUserDefaultLocaleName?$AA@ 00502a20     libucrt:winapi_thunks.obj
 0002:00020a4c       ??_C@_0BK@DEKFELLI@GetUserObjectInformationW?$AA@ 00502a4c     libucrt:winapi_thunks.obj
 0002:00020a78       ??_C@_0BG@IKLDMBLM@GetXStateFeaturesMask?$AA@ 00502a78     libucrt:winapi_thunks.obj
 0002:00020aac       ??_C@_0BC@CELBKLLA@IsValidLocaleName?$AA@ 00502aac     libucrt:winapi_thunks.obj
 0002:00020ad0       ??_C@_0O@KKBNKAPF@LCMapStringEx?$AA@ 00502ad0     libucrt:winapi_thunks.obj
 0002:00020aec       ??_C@_0BB@CDHDDLLP@LCIDToLocaleName?$AA@ 00502aec     libucrt:winapi_thunks.obj
 0002:00020b0c       ??_C@_0BB@HBDEELFH@LocaleNameToLCID?$AA@ 00502b0c     libucrt:winapi_thunks.obj
 0002:00020b2c       ??_C@_0BE@KINNKFDA@LocateXStateFeature?$AA@ 00502b2c     libucrt:winapi_thunks.obj
 0002:00020b50       ??_C@_0M@CHKKJDAI@MessageBoxA?$AA@ 00502b50     libucrt:winapi_thunks.obj
 0002:00020b6c       ??_C@_0M@DLDCCGNP@MessageBoxW?$AA@ 00502b6c     libucrt:winapi_thunks.obj
 0002:00020b80       ??_C@_0N@PPOMPGGK@RoInitialize?$AA@ 00502b80     libucrt:winapi_thunks.obj
 0002:00020b94       ??_C@_0P@LLFHBIJD@RoUninitialize?$AA@ 00502b94     libucrt:winapi_thunks.obj
 0002:00020bb4       ??_C@_0BI@BKLFFAPO@SetThreadStackGuarantee?$AA@ 00502bb4     libucrt:winapi_thunks.obj
 0002:00020bdc       ??_C@_0BC@JEAENNKH@SystemFunction036?$AA@ 00502bdc     libucrt:winapi_thunks.obj
 0002:00020c00       __OP_ATAN2jmptab           00502c00     libucrt:87triga.obj
 0002:00020d78       __d_inf                    00502d78     libucrt:util.obj
 0002:00020d88       __d_ind                    00502d88     libucrt:util.obj
 0002:00020d98       __d_max                    00502d98     libucrt:util.obj
 0002:00020da8       __d_min                    00502da8     libucrt:util.obj
 0002:00020db8       __d_mzero                  00502db8     libucrt:util.obj
 0002:00020f20       ___dnames                  00502f20     libucrt:timeset.obj
 0002:00020f3c       ___mnames                  00502f3c     libucrt:timeset.obj
 0002:00020f68       ??_C@_02CLFPBFFP@TZ?$AA@   00502f68     libucrt:tzset.obj
 0002:00020f6c       ??_C@_1M@PBPMMENC@?$AAa?$AAm?$AA?1?$AAp?$AAm?$AA?$AA@ 00502f6c     libucrt:wcsftime.obj
 0002:00020f7c       ??_C@_17BLFJJHMM@?$AAa?$AA?1?$AAp?$AA?$AA@ 00502f7c     libucrt:wcsftime.obj
 0002:00020f88       ??_C@_13HOIJIPNN@?$AA?5?$AA?$AA@ 00502f88     libucrt:wcsftime.obj
 0002:00020f8c       ??_C@_13IMODFHAA@?$AA?9?$AA?$AA@ 00502f8c     libucrt:wcsftime.obj
 0002:00020f90       ??_C@_13EBCNDICG@?$AA?3?$AA?$AA@ 00502f90     libucrt:wcsftime.obj
 0002:00020f94       ??_C@_13KDLDGPGJ@?$AA?7?$AA?$AA@ 00502f94     libucrt:wcsftime.obj
 0002:00020f98       ??_C@_13KJIIAINM@?$AA?$CL?$AA?$AA@ 00502f98     libucrt:wcsftime.obj
 0002:00020f9c       ??_C@_13EJFHHPOP@?$AA?$CF?$AA?$AA@ 00502f9c     libucrt:wcsftime.obj
 0002:00020fb4       ??_C@_1M@HPNHIDJI@?$AAj?$AAa?$AA?9?$AAJ?$AAP?$AA?$AA@ 00502fb4     libucrt:mbctype.obj
 0002:00020fc4       ??_C@_1M@BIBDDEMK@?$AAz?$AAh?$AA?9?$AAC?$AAN?$AA?$AA@ 00502fc4     libucrt:mbctype.obj
 0002:00020fd4       ??_C@_1M@JLOOOEGK@?$AAk?$AAo?$AA?9?$AAK?$AAR?$AA?$AA@ 00502fd4     libucrt:mbctype.obj
 0002:00020fe4       ??_C@_1M@CLNBBOPM@?$AAz?$AAh?$AA?9?$AAT?$AAW?$AA?$AA@ 00502fe4     libucrt:mbctype.obj
 0002:00020ff4       ??_C@_1BC@LLOKLNP@?$AAa?$AAm?$AAe?$AAr?$AAi?$AAc?$AAa?$AAn?$AA?$AA@ 00502ff4     libucrt:get_qualified_locale.obj
 0002:0002100c       ??_C@_1CC@HEIGCDGG@?$AAa?$AAm?$AAe?$AAr?$AAi?$AAc?$AAa?$AAn?$AA?5?$AAe?$AAn?$AAg?$AAl?$AAi?$AAs?$AAh?$AA?$AA@ 0050300c     libucrt:get_qualified_locale.obj
 0002:00021034       ??_C@_1CC@IHCNOMIN@?$AAa?$AAm?$AAe?$AAr?$AAi?$AAc?$AAa?$AAn?$AA?9?$AAe?$AAn?$AAg?$AAl?$AAi?$AAs?$AAh?$AA?$AA@ 00503034     libucrt:get_qualified_locale.obj
 0002:0002105c       ??_C@_1BG@GKAGPCGG@?$AAa?$AAu?$AAs?$AAt?$AAr?$AAa?$AAl?$AAi?$AAa?$AAn?$AA?$AA@ 0050305c     libucrt:get_qualified_locale.obj
 0002:00021078       ??_C@_1BA@GMENCENF@?$AAb?$AAe?$AAl?$AAg?$AAi?$AAa?$AAn?$AA?$AA@ 00503078     libucrt:get_qualified_locale.obj
 0002:0002108c       ??_C@_1BC@PJMIIAAN@?$AAc?$AAa?$AAn?$AAa?$AAd?$AAi?$AAa?$AAn?$AA?$AA@ 0050308c     libucrt:get_qualified_locale.obj
 0002:000210a4       ??_C@_17NOIMNFBF@?$AAc?$AAh?$AAh?$AA?$AA@ 005030a4     libucrt:get_qualified_locale.obj
 0002:000210b0       ??_C@_17GGDALCHA@?$AAc?$AAh?$AAi?$AA?$AA@ 005030b0     libucrt:get_qualified_locale.obj
 0002:000210bc       ??_C@_1BA@NPNJKIBL@?$AAc?$AAh?$AAi?$AAn?$AAe?$AAs?$AAe?$AA?$AA@ 005030bc     libucrt:get_qualified_locale.obj
 0002:000210d0       ??_C@_1CC@DINBAMMJ@?$AAc?$AAh?$AAi?$AAn?$AAe?$AAs?$AAe?$AA?9?$AAh?$AAo?$AAn?$AAg?$AAk?$AAo?$AAn?$AAg?$AA?$AA@ 005030d0     libucrt:get_qualified_locale.obj
 0002:000210f8       ??_C@_1CG@IOBJPACO@?$AAc?$AAh?$AAi?$AAn?$AAe?$AAs?$AAe?$AA?9?$AAs?$AAi?$AAm?$AAp?$AAl?$AAi?$AAf?$AAi?$AAe?$AAd?$AA?$AA@ 005030f8     libucrt:get_qualified_locale.obj
 0002:00021128       ??_C@_1CE@GAJNDCKG@?$AAc?$AAh?$AAi?$AAn?$AAe?$AAs?$AAe?$AA?9?$AAs?$AAi?$AAn?$AAg?$AAa?$AAp?$AAo?$AAr?$AAe?$AA?$AA@ 00503128     libucrt:get_qualified_locale.obj
 0002:00021154       ??_C@_1CI@PAJPIOOD@?$AAc?$AAh?$AAi?$AAn?$AAe?$AAs?$AAe?$AA?9?$AAt?$AAr?$AAa?$AAd?$AAi?$AAt?$AAi?$AAo?$AAn?$AAa?$AAl?$AA?$AA@ 00503154     libucrt:get_qualified_locale.obj
 0002:00021184       ??_C@_1BM@NILJBMMD@?$AAd?$AAu?$AAt?$AAc?$AAh?$AA?9?$AAb?$AAe?$AAl?$AAg?$AAi?$AAa?$AAn?$AA?$AA@ 00503184     libucrt:get_qualified_locale.obj
 0002:000211a8       ??_C@_1CC@OOJPJNEJ@?$AAe?$AAn?$AAg?$AAl?$AAi?$AAs?$AAh?$AA?9?$AAa?$AAm?$AAe?$AAr?$AAi?$AAc?$AAa?$AAn?$AA?$AA@ 005031a8     libucrt:get_qualified_locale.obj
 0002:000211d0       ??_C@_1BI@IOLFEEM@?$AAe?$AAn?$AAg?$AAl?$AAi?$AAs?$AAh?$AA?9?$AAa?$AAu?$AAs?$AA?$AA@ 005031d0     libucrt:get_qualified_locale.obj
 0002:000211ec       ??_C@_1BO@HFFNLENJ@?$AAe?$AAn?$AAg?$AAl?$AAi?$AAs?$AAh?$AA?9?$AAb?$AAe?$AAl?$AAi?$AAz?$AAe?$AA?$AA@ 005031ec     libucrt:get_qualified_locale.obj
 0002:00021210       ??_C@_1BI@HAPKJMPO@?$AAe?$AAn?$AAg?$AAl?$AAi?$AAs?$AAh?$AA?9?$AAc?$AAa?$AAn?$AA?$AA@ 00503210     libucrt:get_qualified_locale.obj
 0002:0002122c       ??_C@_1CE@HLNDMIOJ@?$AAe?$AAn?$AAg?$AAl?$AAi?$AAs?$AAh?$AA?9?$AAc?$AAa?$AAr?$AAi?$AAb?$AAb?$AAe?$AAa?$AAn?$AA?$AA@ 0050322c     libucrt:get_qualified_locale.obj
 0002:00021258       ??_C@_1BI@LDHJHHAC@?$AAe?$AAn?$AAg?$AAl?$AAi?$AAs?$AAh?$AA?9?$AAi?$AAr?$AAe?$AA?$AA@ 00503258     libucrt:get_qualified_locale.obj
 0002:00021274       ??_C@_1CA@NJMMCFOC@?$AAe?$AAn?$AAg?$AAl?$AAi?$AAs?$AAh?$AA?9?$AAj?$AAa?$AAm?$AAa?$AAi?$AAc?$AAa?$AA?$AA@ 00503274     libucrt:get_qualified_locale.obj
 0002:0002129c       ??_C@_1BG@BHJEBBGG@?$AAe?$AAn?$AAg?$AAl?$AAi?$AAs?$AAh?$AA?9?$AAn?$AAz?$AA?$AA@ 0050329c     libucrt:get_qualified_locale.obj
 0002:000212b8       ??_C@_1CK@FGOEJJCO@?$AAe?$AAn?$AAg?$AAl?$AAi?$AAs?$AAh?$AA?9?$AAs?$AAo?$AAu?$AAt?$AAh?$AA?5?$AAa?$AAf?$AAr?$AAi?$AAc?$AAa?$AA?$AA@ 005032b8     libucrt:get_qualified_locale.obj
 0002:000212ec       ??_C@_1DE@PDBJPCJ@?$AAe?$AAn?$AAg?$AAl?$AAi?$AAs?$AAh?$AA?9?$AAt?$AAr?$AAi?$AAn?$AAi?$AAd?$AAa?$AAd?$AA?5?$AAy?$AA?5?$AAt?$AAo?$AAb?$AAa?$AAg?$AAo?$AA?$AA@ 005032ec     libucrt:get_qualified_locale.obj
 0002:0002132c       ??_C@_1BG@JGCANDME@?$AAe?$AAn?$AAg?$AAl?$AAi?$AAs?$AAh?$AA?9?$AAu?$AAk?$AA?$AA@ 0050332c     libucrt:get_qualified_locale.obj
 0002:00021348       ??_C@_1BG@DINKMLE@?$AAe?$AAn?$AAg?$AAl?$AAi?$AAs?$AAh?$AA?9?$AAu?$AAs?$AA?$AA@ 00503348     libucrt:get_qualified_locale.obj
 0002:00021364       ??_C@_1BI@NMFDBHJE@?$AAe?$AAn?$AAg?$AAl?$AAi?$AAs?$AAh?$AA?9?$AAu?$AAs?$AAa?$AA?$AA@ 00503364     libucrt:get_qualified_locale.obj
 0002:00021380       ??_C@_1BO@OIHKJKII@?$AAf?$AAr?$AAe?$AAn?$AAc?$AAh?$AA?9?$AAb?$AAe?$AAl?$AAg?$AAi?$AAa?$AAn?$AA?$AA@ 00503380     libucrt:get_qualified_locale.obj
 0002:000213a4       ??_C@_1CA@NKAELJKI@?$AAf?$AAr?$AAe?$AAn?$AAc?$AAh?$AA?9?$AAc?$AAa?$AAn?$AAa?$AAd?$AAi?$AAa?$AAn?$AA?$AA@ 005033a4     libucrt:get_qualified_locale.obj
 0002:000213cc       ??_C@_1CE@MGKCNLGN@?$AAf?$AAr?$AAe?$AAn?$AAc?$AAh?$AA?9?$AAl?$AAu?$AAx?$AAe?$AAm?$AAb?$AAo?$AAu?$AAr?$AAg?$AA?$AA@ 005033cc     libucrt:get_qualified_locale.obj
 0002:000213f8       ??_C@_1BK@CEGEAILM@?$AAf?$AAr?$AAe?$AAn?$AAc?$AAh?$AA?9?$AAs?$AAw?$AAi?$AAs?$AAs?$AA?$AA@ 005033f8     libucrt:get_qualified_locale.obj
 0002:00021418       ??_C@_1CA@PAFKEOCC@?$AAg?$AAe?$AAr?$AAm?$AAa?$AAn?$AA?9?$AAa?$AAu?$AAs?$AAt?$AAr?$AAi?$AAa?$AAn?$AA?$AA@ 00503418     libucrt:get_qualified_locale.obj
 0002:00021440       ??_C@_1CI@HCFHGOFD@?$AAg?$AAe?$AAr?$AAm?$AAa?$AAn?$AA?9?$AAl?$AAi?$AAc?$AAh?$AAt?$AAe?$AAn?$AAs?$AAt?$AAe?$AAi?$AAn?$AA?$AA@ 00503440     libucrt:get_qualified_locale.obj
 0002:00021470       ??_C@_1CE@FEDDNPDG@?$AAg?$AAe?$AAr?$AAm?$AAa?$AAn?$AA?9?$AAl?$AAu?$AAx?$AAe?$AAm?$AAb?$AAo?$AAu?$AAr?$AAg?$AA?$AA@ 00503470     libucrt:get_qualified_locale.obj
 0002:0002149c       ??_C@_1BK@LIMINNMN@?$AAg?$AAe?$AAr?$AAm?$AAa?$AAn?$AA?9?$AAs?$AAw?$AAi?$AAs?$AAs?$AA?$AA@ 0050349c     libucrt:get_qualified_locale.obj
 0002:000214bc       ??_C@_1BM@LGMDBEPD@?$AAi?$AAr?$AAi?$AAs?$AAh?$AA?9?$AAe?$AAn?$AAg?$AAl?$AAi?$AAs?$AAh?$AA?$AA@ 005034bc     libucrt:get_qualified_locale.obj
 0002:000214e0       ??_C@_1BM@NNCFBAEE@?$AAi?$AAt?$AAa?$AAl?$AAi?$AAa?$AAn?$AA?9?$AAs?$AAw?$AAi?$AAs?$AAs?$AA?$AA@ 005034e0     libucrt:get_qualified_locale.obj
 0002:00021504       ??_C@_1BE@FEDJNPIB@?$AAn?$AAo?$AAr?$AAw?$AAe?$AAg?$AAi?$AAa?$AAn?$AA?$AA@ 00503504     libucrt:get_qualified_locale.obj
 0002:0002151c       ??_C@_1CC@CILKDEIE@?$AAn?$AAo?$AAr?$AAw?$AAe?$AAg?$AAi?$AAa?$AAn?$AA?9?$AAb?$AAo?$AAk?$AAm?$AAa?$AAl?$AA?$AA@ 0050351c     libucrt:get_qualified_locale.obj
 0002:00021544       ??_C@_1CE@DHMMHEPL@?$AAn?$AAo?$AAr?$AAw?$AAe?$AAg?$AAi?$AAa?$AAn?$AA?9?$AAn?$AAy?$AAn?$AAo?$AAr?$AAs?$AAk?$AA?$AA@ 00503544     libucrt:get_qualified_locale.obj
 0002:00021570       ??_C@_1CK@OPNMHECD@?$AAp?$AAo?$AAr?$AAt?$AAu?$AAg?$AAu?$AAe?$AAs?$AAe?$AA?9?$AAb?$AAr?$AAa?$AAz?$AAi?$AAl?$AAi?$AAa?$AAn?$AA?$AA@ 00503570     libucrt:get_qualified_locale.obj
 0002:000215a4       ??_C@_1CE@KEEHCDB@?$AAs?$AAp?$AAa?$AAn?$AAi?$AAs?$AAh?$AA?9?$AAa?$AAr?$AAg?$AAe?$AAn?$AAt?$AAi?$AAn?$AAa?$AA?$AA@ 005035a4     libucrt:get_qualified_locale.obj
 0002:000215d0       ??_C@_1CA@GIAOLHJD@?$AAs?$AAp?$AAa?$AAn?$AAi?$AAs?$AAh?$AA?9?$AAb?$AAo?$AAl?$AAi?$AAv?$AAi?$AAa?$AA?$AA@ 005035d0     libucrt:get_qualified_locale.obj
 0002:000215f8       ??_C@_1BM@OJNDFNPD@?$AAs?$AAp?$AAa?$AAn?$AAi?$AAs?$AAh?$AA?9?$AAc?$AAh?$AAi?$AAl?$AAe?$AA?$AA@ 005035f8     libucrt:get_qualified_locale.obj
 0002:0002161c       ??_C@_1CC@OCOLPALL@?$AAs?$AAp?$AAa?$AAn?$AAi?$AAs?$AAh?$AA?9?$AAc?$AAo?$AAl?$AAo?$AAm?$AAb?$AAi?$AAa?$AA?$AA@ 0050361c     libucrt:get_qualified_locale.obj
 0002:00021644       ??_C@_1CG@BPOFMKBB@?$AAs?$AAp?$AAa?$AAn?$AAi?$AAs?$AAh?$AA?9?$AAc?$AAo?$AAs?$AAt?$AAa?$AA?5?$AAr?$AAi?$AAc?$AAa?$AA?$AA@ 00503644     libucrt:get_qualified_locale.obj
 0002:00021674       ??_C@_1DG@IGOBAPBB@?$AAs?$AAp?$AAa?$AAn?$AAi?$AAs?$AAh?$AA?9?$AAd?$AAo?$AAm?$AAi?$AAn?$AAi?$AAc?$AAa?$AAn?$AA?5?$AAr?$AAe?$AAp?$AAu?$AAb?$AAl?$AAi?$AAc?$AA?$AA@ 00503674     libucrt:get_qualified_locale.obj
 0002:000216b4       ??_C@_1CA@JHAPGEGI@?$AAs?$AAp?$AAa?$AAn?$AAi?$AAs?$AAh?$AA?9?$AAe?$AAc?$AAu?$AAa?$AAd?$AAo?$AAr?$AA?$AA@ 005036b4     libucrt:get_qualified_locale.obj
 0002:000216dc       ??_C@_1CI@LAPALJPP@?$AAs?$AAp?$AAa?$AAn?$AAi?$AAs?$AAh?$AA?9?$AAe?$AAl?$AA?5?$AAs?$AAa?$AAl?$AAv?$AAa?$AAd?$AAo?$AAr?$AA?$AA@ 005036dc     libucrt:get_qualified_locale.obj
 0002:0002170c       ??_C@_1CE@PDGBOFOM@?$AAs?$AAp?$AAa?$AAn?$AAi?$AAs?$AAh?$AA?9?$AAg?$AAu?$AAa?$AAt?$AAe?$AAm?$AAa?$AAl?$AAa?$AA?$AA@ 0050370c     libucrt:get_qualified_locale.obj
 0002:00021738       ??_C@_1CC@NBEBAODI@?$AAs?$AAp?$AAa?$AAn?$AAi?$AAs?$AAh?$AA?9?$AAh?$AAo?$AAn?$AAd?$AAu?$AAr?$AAa?$AAs?$AA?$AA@ 00503738     libucrt:get_qualified_locale.obj
 0002:00021760       ??_C@_1CA@LLKGHBMF@?$AAs?$AAp?$AAa?$AAn?$AAi?$AAs?$AAh?$AA?9?$AAm?$AAe?$AAx?$AAi?$AAc?$AAa?$AAn?$AA?$AA@ 00503760     libucrt:get_qualified_locale.obj
 0002:00021788       ??_C@_1BO@LKNDOIGD@?$AAs?$AAp?$AAa?$AAn?$AAi?$AAs?$AAh?$AA?9?$AAm?$AAo?$AAd?$AAe?$AAr?$AAn?$AA?$AA@ 00503788     libucrt:get_qualified_locale.obj
 0002:000217ac       ??_C@_1CE@NMDMOEEB@?$AAs?$AAp?$AAa?$AAn?$AAi?$AAs?$AAh?$AA?9?$AAn?$AAi?$AAc?$AAa?$AAr?$AAa?$AAg?$AAu?$AAa?$AA?$AA@ 005037ac     libucrt:get_qualified_locale.obj
 0002:000217d8       ??_C@_1BO@LLCBEJGB@?$AAs?$AAp?$AAa?$AAn?$AAi?$AAs?$AAh?$AA?9?$AAp?$AAa?$AAn?$AAa?$AAm?$AAa?$AA?$AA@ 005037d8     libucrt:get_qualified_locale.obj
 0002:000217fc       ??_C@_1CC@FKPGGIHO@?$AAs?$AAp?$AAa?$AAn?$AAi?$AAs?$AAh?$AA?9?$AAp?$AAa?$AAr?$AAa?$AAg?$AAu?$AAa?$AAy?$AA?$AA@ 005037fc     libucrt:get_qualified_locale.obj
 0002:00021824       ??_C@_1BK@CDEIHOOP@?$AAs?$AAp?$AAa?$AAn?$AAi?$AAs?$AAh?$AA?9?$AAp?$AAe?$AAr?$AAu?$AA?$AA@ 00503824     libucrt:get_qualified_locale.obj
 0002:00021844       ??_C@_1CI@GAHAKKGP@?$AAs?$AAp?$AAa?$AAn?$AAi?$AAs?$AAh?$AA?9?$AAp?$AAu?$AAe?$AAr?$AAt?$AAo?$AA?5?$AAr?$AAi?$AAc?$AAo?$AA?$AA@ 00503844     libucrt:get_qualified_locale.obj
 0002:00021874       ??_C@_1CA@NKJBCAGP@?$AAs?$AAp?$AAa?$AAn?$AAi?$AAs?$AAh?$AA?9?$AAu?$AAr?$AAu?$AAg?$AAu?$AAa?$AAy?$AA?$AA@ 00503874     libucrt:get_qualified_locale.obj
 0002:0002189c       ??_C@_1CE@ODILCONM@?$AAs?$AAp?$AAa?$AAn?$AAi?$AAs?$AAh?$AA?9?$AAv?$AAe?$AAn?$AAe?$AAz?$AAu?$AAe?$AAl?$AAa?$AA?$AA@ 0050389c     libucrt:get_qualified_locale.obj
 0002:000218c8       ??_C@_1CA@OBNMCGFO@?$AAs?$AAw?$AAe?$AAd?$AAi?$AAs?$AAh?$AA?9?$AAf?$AAi?$AAn?$AAl?$AAa?$AAn?$AAd?$AA?$AA@ 005038c8     libucrt:get_qualified_locale.obj
 0002:000218f0       ??_C@_1M@PIPDDPPI@?$AAs?$AAw?$AAi?$AAs?$AAs?$AA?$AA@ 005038f0     libucrt:get_qualified_locale.obj
 0002:00021900       ??_C@_15PJPFLCCM@?$AAu?$AAk?$AA?$AA@ 00503900     libucrt:get_qualified_locale.obj
 0002:00021908       ??_C@_15GMFIMNFM@?$AAu?$AAs?$AA?$AA@ 00503908     libucrt:get_qualified_locale.obj
 0002:00021910       ??_C@_17HAEBFAGL@?$AAu?$AAs?$AAa?$AA?$AA@ 00503910     libucrt:get_qualified_locale.obj
 0002:0002191c       ??_C@_1BA@DPFJEPHB@?$AAa?$AAm?$AAe?$AAr?$AAi?$AAc?$AAa?$AA?$AA@ 0050391c     libucrt:get_qualified_locale.obj
 0002:00021930       ??_C@_1BA@ELOGGFK@?$AAb?$AAr?$AAi?$AAt?$AAa?$AAi?$AAn?$AA?$AA@ 00503930     libucrt:get_qualified_locale.obj
 0002:00021944       ??_C@_1M@GHBGIGDA@?$AAc?$AAh?$AAi?$AAn?$AAa?$AA?$AA@ 00503944     libucrt:get_qualified_locale.obj
 0002:00021954       ??_C@_1M@NCHEJOPO@?$AAc?$AAz?$AAe?$AAc?$AAh?$AA?$AA@ 00503954     libucrt:get_qualified_locale.obj
 0002:00021964       ??_C@_1BA@BKPAPBLA@?$AAe?$AAn?$AAg?$AAl?$AAa?$AAn?$AAd?$AA?$AA@ 00503964     libucrt:get_qualified_locale.obj
 0002:00021978       ??_C@_1BM@HKBCKIPC@?$AAg?$AAr?$AAe?$AAa?$AAt?$AA?5?$AAb?$AAr?$AAi?$AAt?$AAa?$AAi?$AAn?$AA?$AA@ 00503978     libucrt:get_qualified_locale.obj
 0002:0002199c       ??_C@_1BA@PPCHPGJB@?$AAh?$AAo?$AAl?$AAl?$AAa?$AAn?$AAd?$AA?$AA@ 0050399c     libucrt:get_qualified_locale.obj
 0002:000219b0       ??_C@_1BE@JBMPEGDG@?$AAh?$AAo?$AAn?$AAg?$AA?9?$AAk?$AAo?$AAn?$AAg?$AA?$AA@ 005039b0     libucrt:get_qualified_locale.obj
 0002:000219c8       ??_C@_1BI@KOELBBPJ@?$AAn?$AAe?$AAw?$AA?9?$AAz?$AAe?$AAa?$AAl?$AAa?$AAn?$AAd?$AA?$AA@ 005039c8     libucrt:get_qualified_locale.obj
 0002:000219e4       ??_C@_15HIEBHAIO@?$AAn?$AAz?$AA?$AA@ 005039e4     libucrt:get_qualified_locale.obj
 0002:000219ec       ??_C@_1BC@CHBCPFPI@?$AAp?$AAr?$AA?5?$AAc?$AAh?$AAi?$AAn?$AAa?$AA?$AA@ 005039ec     libucrt:get_qualified_locale.obj
 0002:00021a04       ??_C@_1BC@JAOIIFKD@?$AAp?$AAr?$AA?9?$AAc?$AAh?$AAi?$AAn?$AAa?$AA?$AA@ 00503a04     libucrt:get_qualified_locale.obj
 0002:00021a1c       ??_C@_1BI@BEHPPHKC@?$AAp?$AAu?$AAe?$AAr?$AAt?$AAo?$AA?9?$AAr?$AAi?$AAc?$AAo?$AA?$AA@ 00503a1c     libucrt:get_qualified_locale.obj
 0002:00021a38       ??_C@_1O@PAEOFKDI@?$AAs?$AAl?$AAo?$AAv?$AAa?$AAk?$AA?$AA@ 00503a38     libucrt:get_qualified_locale.obj
 0002:00021a48       ??_C@_1BK@FIHMCKAM@?$AAs?$AAo?$AAu?$AAt?$AAh?$AA?5?$AAa?$AAf?$AAr?$AAi?$AAc?$AAa?$AA?$AA@ 00503a48     libucrt:get_qualified_locale.obj
 0002:00021a68       ??_C@_1BI@NAEOODKB@?$AAs?$AAo?$AAu?$AAt?$AAh?$AA?5?$AAk?$AAo?$AAr?$AAe?$AAa?$AA?$AA@ 00503a68     libucrt:get_qualified_locale.obj
 0002:00021a84       ??_C@_1BK@FBDGGIFF@?$AAs?$AAo?$AAu?$AAt?$AAh?$AA?9?$AAa?$AAf?$AAr?$AAi?$AAc?$AAa?$AA?$AA@ 00503a84     libucrt:get_qualified_locale.obj
 0002:00021aa4       ??_C@_1BI@GHLEJDPK@?$AAs?$AAo?$AAu?$AAt?$AAh?$AA?9?$AAk?$AAo?$AAr?$AAe?$AAa?$AA?$AA@ 00503aa4     libucrt:get_qualified_locale.obj
 0002:00021ac0       ??_C@_1CE@PLHLOMJF@?$AAt?$AAr?$AAi?$AAn?$AAi?$AAd?$AAa?$AAd?$AA?5?$AA?$CG?$AA?5?$AAt?$AAo?$AAb?$AAa?$AAg?$AAo?$AA?$AA@ 00503ac0     libucrt:get_qualified_locale.obj
 0002:00021aec       ??_C@_1BO@MODIMHHI@?$AAu?$AAn?$AAi?$AAt?$AAe?$AAd?$AA?9?$AAk?$AAi?$AAn?$AAg?$AAd?$AAo?$AAm?$AA?$AA@ 00503aec     libucrt:get_qualified_locale.obj
 0002:00021b10       ??_C@_1BM@FFHJONBJ@?$AAu?$AAn?$AAi?$AAt?$AAe?$AAd?$AA?9?$AAs?$AAt?$AAa?$AAt?$AAe?$AAs?$AA?$AA@ 00503b10     libucrt:get_qualified_locale.obj
 0002:00021b38       ___acrt_rg_language        00503b38     libucrt:get_qualified_locale.obj
 0002:00021ee0       ___acrt_rg_language_count  00503ee0     libucrt:get_qualified_locale.obj
 0002:00021ee8       ___acrt_rg_country         00503ee8     libucrt:get_qualified_locale.obj
 0002:00022034       ___acrt_rg_country_count   00504034     libucrt:get_qualified_locale.obj
 0002:00022038       ??_C@_17DNCLJFIF@?$AAA?$AAC?$AAP?$AA?$AA@ 00504038     libucrt:get_qualified_locale.obj
 0002:00022044       ??_C@_17CIKBIHLH@?$AAO?$AAC?$AAP?$AA?$AA@ 00504044     libucrt:get_qualified_locale.obj
 0002:00022050       ___rglangidNotDefault      00504050     libucrt:getqloc_downlevel.obj
 0002:0002206c       ??_C@_01GBGANLPD@0?$AA@    0050406c     libucrt:cfout.obj
 0002:00022070       ??_C@_05DNEBIAHO@1?$CDINF?$AA@ 00504070     libucrt:cfout.obj
 0002:00022078       ??_C@_06IMKFLFPG@1?$CDQNAN?$AA@ 00504078     libucrt:cfout.obj
 0002:00022080       ??_C@_06PGGFOGJG@1?$CDSNAN?$AA@ 00504080     libucrt:cfout.obj
 0002:00022088       ??_C@_05PHHOCPM@1?$CDIND?$AA@ 00504088     libucrt:cfout.obj
 0002:0002291c       ??_C@_15EMKDOKLE@?$AAa?$AAr?$AA?$AA@ 0050491c     libucrt:lcidtoname_downlevel.obj
 0002:00022924       ??_C@_15KNPADPLH@?$AAb?$AAg?$AA?$AA@ 00504924     libucrt:lcidtoname_downlevel.obj
 0002:0002292c       ??_C@_15EDMHLDMO@?$AAc?$AAa?$AA?$AA@ 0050492c     libucrt:lcidtoname_downlevel.obj
 0002:00022934       ??_C@_1O@BPEAJADD@?$AAz?$AAh?$AA?9?$AAC?$AAH?$AAS?$AA?$AA@ 00504934     libucrt:lcidtoname_downlevel.obj
 0002:00022944       ??_C@_15LJNHCMNK@?$AAc?$AAs?$AA?$AA@ 00504944     libucrt:lcidtoname_downlevel.obj
 0002:0002294c       ??_C@_15FOMCIDHG@?$AAd?$AAa?$AA?$AA@ 0050494c     libucrt:lcidtoname_downlevel.obj
 0002:00022954       ??_C@_15NBKABECB@?$AAd?$AAe?$AA?$AA@ 00504954     libucrt:lcidtoname_downlevel.obj
 0002:0002295c       ??_C@_15GHPEIIAO@?$AAe?$AAl?$AA?$AA@ 0050495c     libucrt:lcidtoname_downlevel.obj
 0002:00022964       ??_C@_15MNPNEAIF@?$AAe?$AAn?$AA?$AA@ 00504964     libucrt:lcidtoname_downlevel.obj
 0002:0002296c       ??_C@_15GPIOMPMH@?$AAe?$AAs?$AA?$AA@ 0050496c     libucrt:lcidtoname_downlevel.obj
 0002:00022974       ??_C@_15NGLOAKJC@?$AAf?$AAi?$AA?$AA@ 00504974     libucrt:lcidtoname_downlevel.obj
 0002:0002297c       ??_C@_15FBKGNKAM@?$AAf?$AAr?$AA?$AA@ 0050497c     libucrt:lcidtoname_downlevel.obj
 0002:00022984       ??_C@_15KGGCNEFK@?$AAh?$AAe?$AA?$AA@ 00504984     libucrt:lcidtoname_downlevel.obj
 0002:0002298c       ??_C@_15PGHLIDMF@?$AAh?$AAu?$AA?$AA@ 0050498c     libucrt:lcidtoname_downlevel.obj
 0002:00022994       ??_C@_15BIEMAPLM@?$AAi?$AAs?$AA?$AA@ 00504994     libucrt:lcidtoname_downlevel.obj
 0002:0002299c       ??_C@_15IFJLDHAF@?$AAi?$AAt?$AA?$AA@ 0050499c     libucrt:lcidtoname_downlevel.obj
 0002:000229a4       ??_C@_15GEMIOCAG@?$AAj?$AAa?$AA?$AA@ 005049a4     libucrt:lcidtoname_downlevel.obj
 0002:000229ac       ??_C@_15EPELEGJA@?$AAk?$AAo?$AA?$AA@ 005049ac     libucrt:lcidtoname_downlevel.obj
 0002:000229b4       ??_C@_15NDDHIMN@?$AAn?$AAl?$AA?$AA@ 005049b4     libucrt:lcidtoname_downlevel.obj
 0002:000229bc       ??_C@_15BPIGNHCD@?$AAn?$AAo?$AA?$AA@ 005049bc     libucrt:lcidtoname_downlevel.obj
 0002:000229c4       ??_C@_15DEOPBLCG@?$AAp?$AAl?$AA?$AA@ 005049c4     libucrt:lcidtoname_downlevel.obj
 0002:000229cc       ??_C@_15KBECGEFG@?$AAp?$AAt?$AA?$AA@ 005049cc     libucrt:lcidtoname_downlevel.obj
 0002:000229d4       ??_C@_15GLJCBFMD@?$AAr?$AAo?$AA?$AA@ 005049d4     libucrt:lcidtoname_downlevel.obj
 0002:000229dc       ??_C@_15FEDGKCDI@?$AAr?$AAu?$AA?$AA@ 005049dc     libucrt:lcidtoname_downlevel.obj
 0002:000229e4       ??_C@_15GLKMLLHM@?$AAh?$AAr?$AA?$AA@ 005049e4     libucrt:lcidtoname_downlevel.obj
 0002:000229ec       ??_C@_15CPKMFBDB@?$AAs?$AAk?$AA?$AA@ 005049ec     libucrt:lcidtoname_downlevel.obj
 0002:000229f4       ??_C@_15BAAIOGMK@?$AAs?$AAq?$AA?$AA@ 005049f4     libucrt:lcidtoname_downlevel.obj
 0002:000229fc       ??_C@_15INNPNOHD@?$AAs?$AAv?$AA?$AA@ 005049fc     libucrt:lcidtoname_downlevel.obj
 0002:00022a04       ??_C@_15CABMMOGH@?$AAt?$AAh?$AA?$AA@ 00504a04     libucrt:lcidtoname_downlevel.obj
 0002:00022a0c       ??_C@_15BPLIHJJM@?$AAt?$AAr?$AA?$AA@ 00504a0c     libucrt:lcidtoname_downlevel.obj
 0002:00022a14       ??_C@_15NEOEKKDJ@?$AAu?$AAr?$AA?$AA@ 00504a14     libucrt:lcidtoname_downlevel.obj
 0002:00022a1c       ??_C@_15NFICGAJK@?$AAi?$AAd?$AA?$AA@ 00504a1c     libucrt:lcidtoname_downlevel.obj
 0002:00022a24       ??_C@_15HPJPHDM@?$AAb?$AAe?$AA?$AA@ 00504a24     libucrt:lcidtoname_downlevel.obj
 0002:00022a2c       ??_C@_15LCHLGJII@?$AAs?$AAl?$AA?$AA@ 00504a2c     libucrt:lcidtoname_downlevel.obj
 0002:00022a34       ??_C@_15PCFJPHHO@?$AAe?$AAt?$AA?$AA@ 00504a34     libucrt:lcidtoname_downlevel.obj
 0002:00022a3c       ??_C@_15HPFPGODN@?$AAl?$AAv?$AA?$AA@ 00504a3c     libucrt:lcidtoname_downlevel.obj
 0002:00022a44       ??_C@_15NFFGKGLG@?$AAl?$AAt?$AA?$AA@ 00504a44     libucrt:lcidtoname_downlevel.obj
 0002:00022a4c       ??_C@_15BDAKCCHN@?$AAf?$AAa?$AA?$AA@ 00504a4c     libucrt:lcidtoname_downlevel.obj
 0002:00022a54       ??_C@_15NFGIAIAJ@?$AAv?$AAi?$AA?$AA@ 00504a54     libucrt:lcidtoname_downlevel.obj
 0002:00022a5c       ??_C@_15LMKNDMHN@?$AAh?$AAy?$AA?$AA@ 00504a5c     libucrt:lcidtoname_downlevel.obj
 0002:00022a64       ??_C@_15IJBHMCFL@?$AAa?$AAz?$AA?$AA@ 00504a64     libucrt:lcidtoname_downlevel.obj
 0002:00022a6c       ??_C@_15EKOFJABL@?$AAe?$AAu?$AA?$AA@ 00504a6c     libucrt:lcidtoname_downlevel.obj
 0002:00022a74       ??_C@_15BGHADCNK@?$AAm?$AAk?$AA?$AA@ 00504a74     libucrt:lcidtoname_downlevel.obj
 0002:00022a7c       ??_C@_15JDNICKHM@?$AAa?$AAf?$AA?$AA@ 00504a7c     libucrt:lcidtoname_downlevel.obj
 0002:00022a84       ??_C@_15KPJEDBKD@?$AAk?$AAa?$AA?$AA@ 00504a84     libucrt:lcidtoname_downlevel.obj
 0002:00022a8c       ??_C@_15PDNFFFEO@?$AAf?$AAo?$AA?$AA@ 00504a8c     libucrt:lcidtoname_downlevel.obj
 0002:00022a94       ??_C@_15OMLEGLOC@?$AAh?$AAi?$AA?$AA@ 00504a94     libucrt:lcidtoname_downlevel.obj
 0002:00022a9c       ??_C@_15IDNNENKK@?$AAm?$AAs?$AA?$AA@ 00504a9c     libucrt:lcidtoname_downlevel.obj
 0002:00022aa4       ??_C@_15MACJNBMH@?$AAk?$AAk?$AA?$AA@ 00504aa4     libucrt:lcidtoname_downlevel.obj
 0002:00022aac       ??_C@_15DKDJEOND@?$AAk?$AAy?$AA?$AA@ 00504aac     libucrt:lcidtoname_downlevel.obj
 0002:00022ab4       ??_C@_15DFGDLJBG@?$AAs?$AAw?$AA?$AA@ 00504ab4     libucrt:lcidtoname_downlevel.obj
 0002:00022abc       ??_C@_15BBFAICNG@?$AAu?$AAz?$AA?$AA@ 00504abc     libucrt:lcidtoname_downlevel.obj
 0002:00022ac4       ??_C@_15DKNDCGEA@?$AAt?$AAt?$AA?$AA@ 00504ac4     libucrt:lcidtoname_downlevel.obj
 0002:00022acc       ??_C@_15MGIFMDPL@?$AAp?$AAa?$AA?$AA@ 00504acc     libucrt:lcidtoname_downlevel.obj
 0002:00022ad4       ??_C@_15HCNDBBA@?$AAg?$AAu?$AA?$AA@ 00504ad4     libucrt:lcidtoname_downlevel.obj
 0002:00022adc       ??_C@_15FNBEIBON@?$AAt?$AAa?$AA?$AA@ 00504adc     libucrt:lcidtoname_downlevel.obj
 0002:00022ae4       ??_C@_15NCHGBGLK@?$AAt?$AAe?$AA?$AA@ 00504ae4     libucrt:lcidtoname_downlevel.obj
 0002:00022aec       ??_C@_15PHPHCBPF@?$AAk?$AAn?$AA?$AA@ 00504aec     libucrt:lcidtoname_downlevel.obj
 0002:00022af4       ??_C@_15DLGBCKMP@?$AAm?$AAr?$AA?$AA@ 00504af4     libucrt:lcidtoname_downlevel.obj
 0002:00022afc       ??_C@_15EABBLBFF@?$AAs?$AAa?$AA?$AA@ 00504afc     libucrt:lcidtoname_downlevel.obj
 0002:00022b04       ??_C@_15CBKOMCOI@?$AAm?$AAn?$AA?$AA@ 00504b04     libucrt:lcidtoname_downlevel.obj
 0002:00022b0c       ??_C@_15CKDMCJAF@?$AAg?$AAl?$AA?$AA@ 00504b0c     libucrt:lcidtoname_downlevel.obj
 0002:00022b14       ??_C@_17CNJFBPG@?$AAk?$AAo?$AAk?$AA?$AA@ 00504b14     libucrt:lcidtoname_downlevel.obj
 0002:00022b20       ??_C@_17FFBJICPL@?$AAs?$AAy?$AAr?$AA?$AA@ 00504b20     libucrt:lcidtoname_downlevel.obj
 0002:00022b2c       ??_C@_17KPNDCPAF@?$AAd?$AAi?$AAv?$AA?$AA@ 00504b2c     libucrt:lcidtoname_downlevel.obj
 0002:00022b38       ??_C@_11LOCGONAA@?$AA?$AA@ 00504b38     libucrt:lcidtoname_downlevel.obj
 0002:00022b3c       ??_C@_1M@OKAHONE@?$AAa?$AAr?$AA?9?$AAS?$AAA?$AA?$AA@ 00504b3c     libucrt:lcidtoname_downlevel.obj
 0002:00022b4c       ??_C@_1M@FFFIGIGK@?$AAb?$AAg?$AA?9?$AAB?$AAG?$AA?$AA@ 00504b4c     libucrt:lcidtoname_downlevel.obj
 0002:00022b5c       ??_C@_1M@BJNKEDC@?$AAc?$AAa?$AA?9?$AAE?$AAS?$AA?$AA@ 00504b5c     libucrt:lcidtoname_downlevel.obj
 0002:00022b6c       ??_C@_1M@IJJHFJHA@?$AAc?$AAs?$AA?9?$AAC?$AAZ?$AA?$AA@ 00504b6c     libucrt:lcidtoname_downlevel.obj
 0002:00022b7c       ??_C@_1M@CLPEOBGI@?$AAd?$AAa?$AA?9?$AAD?$AAK?$AA?$AA@ 00504b7c     libucrt:lcidtoname_downlevel.obj
 0002:00022b8c       ??_C@_1M@MCMADGCB@?$AAd?$AAe?$AA?9?$AAD?$AAE?$AA?$AA@ 00504b8c     libucrt:lcidtoname_downlevel.obj
 0002:00022b9c       ??_C@_1M@OOCKEMAM@?$AAe?$AAl?$AA?9?$AAG?$AAR?$AA?$AA@ 00504b9c     libucrt:lcidtoname_downlevel.obj
 0002:00022bac       ??_C@_1M@DDNJFGID@?$AAf?$AAi?$AA?9?$AAF?$AAI?$AA?$AA@ 00504bac     libucrt:lcidtoname_downlevel.obj
 0002:00022bbc       ??_C@_1M@GLIPPMAC@?$AAf?$AAr?$AA?9?$AAF?$AAR?$AA?$AA@ 00504bbc     libucrt:lcidtoname_downlevel.obj
 0002:00022bcc       ??_C@_1M@GFMCHPE@?$AAh?$AAe?$AA?9?$AAI?$AAL?$AA?$AA@ 00504bcc     libucrt:lcidtoname_downlevel.obj
 0002:00022bdc       ??_C@_1M@MHLPGNKM@?$AAh?$AAu?$AA?9?$AAH?$AAU?$AA?$AA@ 00504bdc     libucrt:lcidtoname_downlevel.obj
 0002:00022bec       ??_C@_1M@LPDDNNPN@?$AAi?$AAs?$AA?9?$AAI?$AAS?$AA?$AA@ 00504bec     libucrt:lcidtoname_downlevel.obj
 0002:00022bfc       ??_C@_1M@MADIPODN@?$AAi?$AAt?$AA?9?$AAI?$AAT?$AA?$AA@ 00504bfc     libucrt:lcidtoname_downlevel.obj
 0002:00022c0c       ??_C@_1M@IHBJJGG@?$AAn?$AAl?$AA?9?$AAN?$AAL?$AA?$AA@ 00504c0c     libucrt:lcidtoname_downlevel.obj
 0002:00022c1c       ??_C@_1M@EANAGDL@?$AAn?$AAb?$AA?9?$AAN?$AAO?$AA?$AA@ 00504c1c     libucrt:lcidtoname_downlevel.obj
 0002:00022c2c       ??_C@_1M@NEIEMEGP@?$AAp?$AAl?$AA?9?$AAP?$AAL?$AA?$AA@ 00504c2c     libucrt:lcidtoname_downlevel.obj
 0002:00022c3c       ??_C@_1M@BOCFIGEP@?$AAp?$AAt?$AA?9?$AAB?$AAR?$AA?$AA@ 00504c3c     libucrt:lcidtoname_downlevel.obj
 0002:00022c4c       ??_C@_1M@IMPFOPBG@?$AAr?$AAo?$AA?9?$AAR?$AAO?$AA?$AA@ 00504c4c     libucrt:lcidtoname_downlevel.obj
 0002:00022c5c       ??_C@_1M@IDNNEJMM@?$AAr?$AAu?$AA?9?$AAR?$AAU?$AA?$AA@ 00504c5c     libucrt:lcidtoname_downlevel.obj
 0002:00022c6c       ??_C@_1M@LILEEOGM@?$AAh?$AAr?$AA?9?$AAH?$AAR?$AA?$AA@ 00504c6c     libucrt:lcidtoname_downlevel.obj
 0002:00022c7c       ??_C@_1M@FKIFEHPB@?$AAs?$AAk?$AA?9?$AAS?$AAK?$AA?$AA@ 00504c7c     libucrt:lcidtoname_downlevel.obj
 0002:00022c8c       ??_C@_1M@LJMAMNPJ@?$AAs?$AAq?$AA?9?$AAA?$AAL?$AA?$AA@ 00504c8c     libucrt:lcidtoname_downlevel.obj
 0002:00022c9c       ??_C@_1M@GIAKDKJK@?$AAs?$AAv?$AA?9?$AAS?$AAE?$AA?$AA@ 00504c9c     libucrt:lcidtoname_downlevel.obj
 0002:00022cac       ??_C@_1M@MKJKIKCL@?$AAt?$AAh?$AA?9?$AAT?$AAH?$AA?$AA@ 00504cac     libucrt:lcidtoname_downlevel.obj
 0002:00022cbc       ??_C@_1M@MFLCCMPB@?$AAt?$AAr?$AA?9?$AAT?$AAR?$AA?$AA@ 00504cbc     libucrt:lcidtoname_downlevel.obj
 0002:00022ccc       ??_C@_1M@OIJHDKJN@?$AAu?$AAr?$AA?9?$AAP?$AAK?$AA?$AA@ 00504ccc     libucrt:lcidtoname_downlevel.obj
 0002:00022cdc       ??_C@_1M@LHIPCIEK@?$AAi?$AAd?$AA?9?$AAI?$AAD?$AA?$AA@ 00504cdc     libucrt:lcidtoname_downlevel.obj
 0002:00022cec       ??_C@_1M@MFMOBGI@?$AAu?$AAk?$AA?9?$AAU?$AAA?$AA?$AA@ 00504cec     libucrt:lcidtoname_downlevel.obj
 0002:00022cfc       ??_C@_1M@OBGLJIPL@?$AAb?$AAe?$AA?9?$AAB?$AAY?$AA?$AA@ 00504cfc     libucrt:lcidtoname_downlevel.obj
 0002:00022d0c       ??_C@_1M@BCFAJEAD@?$AAs?$AAl?$AA?9?$AAS?$AAI?$AA?$AA@ 00504d0c     libucrt:lcidtoname_downlevel.obj
 0002:00022d1c       ??_C@_1M@FKFFEDDN@?$AAe?$AAt?$AA?9?$AAE?$AAE?$AA?$AA@ 00504d1c     libucrt:lcidtoname_downlevel.obj
 0002:00022d2c       ??_C@_1M@KGKKAACI@?$AAl?$AAv?$AA?9?$AAL?$AAV?$AA?$AA@ 00504d2c     libucrt:lcidtoname_downlevel.obj
 0002:00022d3c       ??_C@_1M@IFGBIJO@?$AAl?$AAt?$AA?9?$AAL?$AAT?$AA?$AA@ 00504d3c     libucrt:lcidtoname_downlevel.obj
 0002:00022d4c       ??_C@_1M@FGEAHEDM@?$AAf?$AAa?$AA?9?$AAI?$AAR?$AA?$AA@ 00504d4c     libucrt:lcidtoname_downlevel.obj
 0002:00022d5c       ??_C@_1M@KBMAIBFN@?$AAv?$AAi?$AA?9?$AAV?$AAN?$AA?$AA@ 00504d5c     libucrt:lcidtoname_downlevel.obj
 0002:00022d6c       ??_C@_1M@GPCBKDJK@?$AAh?$AAy?$AA?9?$AAA?$AAM?$AA?$AA@ 00504d6c     libucrt:lcidtoname_downlevel.obj
 0002:00022d7c       ??_C@_1BG@BECMDDJB@?$AAa?$AAz?$AA?9?$AAA?$AAZ?$AA?9?$AAL?$AAa?$AAt?$AAn?$AA?$AA@ 00504d7c     libucrt:lcidtoname_downlevel.obj
 0002:00022d98       ??_C@_1M@MAOFCAEA@?$AAe?$AAu?$AA?9?$AAE?$AAS?$AA?$AA@ 00504d98     libucrt:lcidtoname_downlevel.obj
 0002:00022da8       ??_C@_1M@IGHABKPI@?$AAm?$AAk?$AA?9?$AAM?$AAK?$AA?$AA@ 00504da8     libucrt:lcidtoname_downlevel.obj
 0002:00022db8       ??_C@_1M@IAIGNEJG@?$AAt?$AAn?$AA?9?$AAZ?$AAA?$AA?$AA@ 00504db8     libucrt:lcidtoname_downlevel.obj
 0002:00022dc8       ??_C@_1M@IIJCOJFA@?$AAx?$AAh?$AA?9?$AAZ?$AAA?$AA?$AA@ 00504dc8     libucrt:lcidtoname_downlevel.obj
 0002:00022dd8       ??_C@_1M@LGPJHNJH@?$AAz?$AAu?$AA?9?$AAZ?$AAA?$AA?$AA@ 00504dd8     libucrt:lcidtoname_downlevel.obj
 0002:00022de8       ??_C@_1M@HOKAOIO@?$AAa?$AAf?$AA?9?$AAZ?$AAA?$AA?$AA@ 00504de8     libucrt:lcidtoname_downlevel.obj
 0002:00022df8       ??_C@_1M@DPCLHLIE@?$AAk?$AAa?$AA?9?$AAG?$AAE?$AA?$AA@ 00504df8     libucrt:lcidtoname_downlevel.obj
 0002:00022e08       ??_C@_1M@BLKMHJBI@?$AAf?$AAo?$AA?9?$AAF?$AAO?$AA?$AA@ 00504e08     libucrt:lcidtoname_downlevel.obj
 0002:00022e18       ??_C@_1M@LGGJAPPB@?$AAh?$AAi?$AA?9?$AAI?$AAN?$AA?$AA@ 00504e18     libucrt:lcidtoname_downlevel.obj
 0002:00022e28       ??_C@_1M@FIKPIHFE@?$AAm?$AAt?$AA?9?$AAM?$AAT?$AA?$AA@ 00504e28     libucrt:lcidtoname_downlevel.obj
 0002:00022e38       ??_C@_1M@HEGGPBFA@?$AAs?$AAe?$AA?9?$AAN?$AAO?$AA?$AA@ 00504e38     libucrt:lcidtoname_downlevel.obj
 0002:00022e48       ??_C@_1M@EIBJEEPA@?$AAm?$AAs?$AA?9?$AAM?$AAY?$AA?$AA@ 00504e48     libucrt:lcidtoname_downlevel.obj
 0002:00022e58       ??_C@_1M@FHLBGMPP@?$AAk?$AAk?$AA?9?$AAK?$AAZ?$AA?$AA@ 00504e58     libucrt:lcidtoname_downlevel.obj
 0002:00022e68       ??_C@_1M@NGJJLCGI@?$AAk?$AAy?$AA?9?$AAK?$AAG?$AA?$AA@ 00504e68     libucrt:lcidtoname_downlevel.obj
 0002:00022e78       ??_C@_1M@GIENNBFC@?$AAs?$AAw?$AA?9?$AAK?$AAE?$AA?$AA@ 00504e78     libucrt:lcidtoname_downlevel.obj
 0002:00022e88       ??_C@_1BG@NDGMJIMJ@?$AAu?$AAz?$AA?9?$AAU?$AAZ?$AA?9?$AAL?$AAa?$AAt?$AAn?$AA?$AA@ 00504e88     libucrt:lcidtoname_downlevel.obj
 0002:00022ea4       ??_C@_1M@IDCCIHBC@?$AAt?$AAt?$AA?9?$AAR?$AAU?$AA?$AA@ 00504ea4     libucrt:lcidtoname_downlevel.obj
 0002:00022eb4       ??_C@_1M@LOICPMOJ@?$AAb?$AAn?$AA?9?$AAI?$AAN?$AA?$AA@ 00504eb4     libucrt:lcidtoname_downlevel.obj
 0002:00022ec4       ??_C@_1M@KPKKNEAH@?$AAp?$AAa?$AA?9?$AAI?$AAN?$AA?$AA@ 00504ec4     libucrt:lcidtoname_downlevel.obj
 0002:00022ed4       ??_C@_1M@PJGPPBOG@?$AAg?$AAu?$AA?9?$AAI?$AAN?$AA?$AA@ 00504ed4     libucrt:lcidtoname_downlevel.obj
 0002:00022ee4       ??_C@_1M@KMKMOPHI@?$AAt?$AAa?$AA?9?$AAI?$AAN?$AA?$AA@ 00504ee4     libucrt:lcidtoname_downlevel.obj
 0002:00022ef4       ??_C@_1M@KFEHEPAC@?$AAt?$AAe?$AA?9?$AAI?$AAN?$AA?$AA@ 00504ef4     libucrt:lcidtoname_downlevel.obj
 0002:00022f04       ??_C@_1M@CDCLMGHI@?$AAk?$AAn?$AA?9?$AAI?$AAN?$AA?$AA@ 00504f04     libucrt:lcidtoname_downlevel.obj
 0002:00022f14       ??_C@_1M@MIODLDKF@?$AAm?$AAl?$AA?9?$AAI?$AAN?$AA?$AA@ 00504f14     libucrt:lcidtoname_downlevel.obj
 0002:00022f24       ??_C@_1M@PBIEACPO@?$AAm?$AAr?$AA?9?$AAI?$AAN?$AA?$AA@ 00504f24     libucrt:lcidtoname_downlevel.obj
 0002:00022f34       ??_C@_1M@NIDEAGPH@?$AAs?$AAa?$AA?9?$AAI?$AAN?$AA?$AA@ 00504f34     libucrt:lcidtoname_downlevel.obj
 0002:00022f44       ??_C@_1M@FHIHCBIO@?$AAm?$AAn?$AA?9?$AAM?$AAN?$AA?$AA@ 00504f44     libucrt:lcidtoname_downlevel.obj
 0002:00022f54       ??_C@_1M@JAIJPENP@?$AAc?$AAy?$AA?9?$AAG?$AAB?$AA?$AA@ 00504f54     libucrt:lcidtoname_downlevel.obj
 0002:00022f64       ??_C@_1M@PHGFBEPN@?$AAg?$AAl?$AA?9?$AAE?$AAS?$AA?$AA@ 00504f64     libucrt:lcidtoname_downlevel.obj
 0002:00022f74       ??_C@_1O@KPIPDNCP@?$AAk?$AAo?$AAk?$AA?9?$AAI?$AAN?$AA?$AA@ 00504f74     libucrt:lcidtoname_downlevel.obj
 0002:00022f84       ??_C@_1O@KNHJLDJA@?$AAs?$AAy?$AAr?$AA?9?$AAS?$AAY?$AA?$AA@ 00504f84     libucrt:lcidtoname_downlevel.obj
 0002:00022f94       ??_C@_1O@MKEKBLAH@?$AAd?$AAi?$AAv?$AA?9?$AAM?$AAV?$AA?$AA@ 00504f94     libucrt:lcidtoname_downlevel.obj
 0002:00022fa4       ??_C@_1O@OHDCKDDF@?$AAq?$AAu?$AAz?$AA?9?$AAB?$AAO?$AA?$AA@ 00504fa4     libucrt:lcidtoname_downlevel.obj
 0002:00022fb4       ??_C@_1M@LEPJNLFD@?$AAn?$AAs?$AA?9?$AAZ?$AAA?$AA?$AA@ 00504fb4     libucrt:lcidtoname_downlevel.obj
 0002:00022fc4       ??_C@_1M@OMLEIIJB@?$AAm?$AAi?$AA?9?$AAN?$AAZ?$AA?$AA@ 00504fc4     libucrt:lcidtoname_downlevel.obj
 0002:00022fd4       ??_C@_1M@PMPEAILG@?$AAa?$AAr?$AA?9?$AAI?$AAQ?$AA?$AA@ 00504fd4     libucrt:lcidtoname_downlevel.obj
 0002:00022fe4       ??_C@_1M@CNKPNOEE@?$AAd?$AAe?$AA?9?$AAC?$AAH?$AA?$AA@ 00504fe4     libucrt:lcidtoname_downlevel.obj
 0002:00022ff4       ??_C@_1M@LKMGMLKO@?$AAe?$AAn?$AA?9?$AAG?$AAB?$AA?$AA@ 00504ff4     libucrt:lcidtoname_downlevel.obj
 0002:00023004       ??_C@_1M@PGKJFFGL@?$AAe?$AAs?$AA?9?$AAM?$AAX?$AA?$AA@ 00505004     libucrt:lcidtoname_downlevel.obj
 0002:00023014       ??_C@_1M@DNNANBDC@?$AAf?$AAr?$AA?9?$AAB?$AAE?$AA?$AA@ 00505014     libucrt:lcidtoname_downlevel.obj
 0002:00023024       ??_C@_1M@HLGMDFHM@?$AAi?$AAt?$AA?9?$AAC?$AAH?$AA?$AA@ 00505024     libucrt:lcidtoname_downlevel.obj
 0002:00023034       ??_C@_1M@CLLBGJH@?$AAn?$AAl?$AA?9?$AAB?$AAE?$AA?$AA@ 00505034     libucrt:lcidtoname_downlevel.obj
 0002:00023044       ??_C@_1M@BODBOGLF@?$AAn?$AAn?$AA?9?$AAN?$AAO?$AA?$AA@ 00505044     libucrt:lcidtoname_downlevel.obj
 0002:00023054       ??_C@_1M@HFFAHKAD@?$AAp?$AAt?$AA?9?$AAP?$AAT?$AA?$AA@ 00505054     libucrt:lcidtoname_downlevel.obj
 0002:00023064       ??_C@_1BG@LNOAKHIE@?$AAs?$AAr?$AA?9?$AAS?$AAP?$AA?9?$AAL?$AAa?$AAt?$AAn?$AA?$AA@ 00505064     libucrt:lcidtoname_downlevel.obj
 0002:00023080       ??_C@_1M@HBMHBGAK@?$AAs?$AAv?$AA?9?$AAF?$AAI?$AA?$AA@ 00505080     libucrt:lcidtoname_downlevel.obj
 0002:00023090       ??_C@_1BG@DGCJGJBE@?$AAa?$AAz?$AA?9?$AAA?$AAZ?$AA?9?$AAC?$AAy?$AAr?$AAl?$AA?$AA@ 00505090     libucrt:lcidtoname_downlevel.obj
 0002:000230ac       ??_C@_1M@KEJDAAHB@?$AAs?$AAe?$AA?9?$AAS?$AAE?$AA?$AA@ 005050ac     libucrt:lcidtoname_downlevel.obj
 0002:000230bc       ??_C@_1M@HEIBJJAD@?$AAm?$AAs?$AA?9?$AAB?$AAN?$AA?$AA@ 005050bc     libucrt:lcidtoname_downlevel.obj
 0002:000230cc       ??_C@_1BG@PBGJMCEM@?$AAu?$AAz?$AA?9?$AAU?$AAZ?$AA?9?$AAC?$AAy?$AAr?$AAl?$AA?$AA@ 005050cc     libucrt:lcidtoname_downlevel.obj
 0002:000230e8       ??_C@_1O@LAOBCMDF@?$AAq?$AAu?$AAz?$AA?9?$AAE?$AAC?$AA?$AA@ 005050e8     libucrt:lcidtoname_downlevel.obj
 0002:000230f8       ??_C@_1M@POEEMAIO@?$AAa?$AAr?$AA?9?$AAE?$AAG?$AA?$AA@ 005050f8     libucrt:lcidtoname_downlevel.obj
 0002:00023108       ??_C@_1M@EFAKDEDL@?$AAz?$AAh?$AA?9?$AAH?$AAK?$AA?$AA@ 00505108     libucrt:lcidtoname_downlevel.obj
 0002:00023118       ??_C@_1M@HKKIJHGI@?$AAd?$AAe?$AA?9?$AAA?$AAT?$AA?$AA@ 00505118     libucrt:lcidtoname_downlevel.obj
 0002:00023128       ??_C@_1M@KBFBEHJF@?$AAe?$AAn?$AA?9?$AAA?$AAU?$AA?$AA@ 00505128     libucrt:lcidtoname_downlevel.obj
 0002:00023138       ??_C@_1M@MNPLFAAH@?$AAe?$AAs?$AA?9?$AAE?$AAS?$AA?$AA@ 00505138     libucrt:lcidtoname_downlevel.obj
 0002:00023148       ??_C@_1M@HJOOJFMA@?$AAf?$AAr?$AA?9?$AAC?$AAA?$AA?$AA@ 00505148     libucrt:lcidtoname_downlevel.obj
 0002:00023158       ??_C@_1BG@JPOFPNAB@?$AAs?$AAr?$AA?9?$AAS?$AAP?$AA?9?$AAC?$AAy?$AAr?$AAl?$AA?$AA@ 00505158     libucrt:lcidtoname_downlevel.obj
 0002:00023174       ??_C@_1M@LNFOCMOB@?$AAs?$AAe?$AA?9?$AAF?$AAI?$AA?$AA@ 00505174     libucrt:lcidtoname_downlevel.obj
 0002:00023184       ??_C@_1O@MGJBOAMB@?$AAq?$AAu?$AAz?$AA?9?$AAP?$AAE?$AA?$AA@ 00505184     libucrt:lcidtoname_downlevel.obj
 0002:00023194       ??_C@_1M@GJINLBOK@?$AAa?$AAr?$AA?9?$AAL?$AAY?$AA?$AA@ 00505194     libucrt:lcidtoname_downlevel.obj
 0002:000231a4       ??_C@_1M@GGMNHJNL@?$AAz?$AAh?$AA?9?$AAS?$AAG?$AA?$AA@ 005051a4     libucrt:lcidtoname_downlevel.obj
 0002:000231b4       ??_C@_1M@HOIKODND@?$AAd?$AAe?$AA?9?$AAL?$AAU?$AA?$AA@ 005051b4     libucrt:lcidtoname_downlevel.obj
 0002:000231c4       ??_C@_1M@DDOCCGFG@?$AAe?$AAn?$AA?9?$AAC?$AAA?$AA?$AA@ 005051c4     libucrt:lcidtoname_downlevel.obj
 0002:000231d4       ??_C@_1M@BNOEMJLF@?$AAe?$AAs?$AA?9?$AAG?$AAT?$AA?$AA@ 005051d4     libucrt:lcidtoname_downlevel.obj
 0002:000231e4       ??_C@_1M@EOGNKEK@?$AAf?$AAr?$AA?9?$AAC?$AAH?$AA?$AA@ 005051e4     libucrt:lcidtoname_downlevel.obj
 0002:000231f4       ??_C@_1M@FLIDJFHL@?$AAh?$AAr?$AA?9?$AAB?$AAA?$AA?$AA@ 005051f4     libucrt:lcidtoname_downlevel.obj
 0002:00023204       ??_C@_1O@FMCELNAJ@?$AAs?$AAm?$AAj?$AA?9?$AAN?$AAO?$AA?$AA@ 00505204     libucrt:lcidtoname_downlevel.obj
 0002:00023214       ??_C@_1M@JHGLJMGJ@?$AAa?$AAr?$AA?9?$AAD?$AAZ?$AA?$AA@ 00505214     libucrt:lcidtoname_downlevel.obj
 0002:00023224       ??_C@_1M@JKKFDCNP@?$AAz?$AAh?$AA?9?$AAM?$AAO?$AA?$AA@ 00505224     libucrt:lcidtoname_downlevel.obj
 0002:00023234       ??_C@_1M@GEEFALPE@?$AAd?$AAe?$AA?9?$AAL?$AAI?$AA?$AA@ 00505234     libucrt:lcidtoname_downlevel.obj
 0002:00023244       ??_C@_1M@IGEOFBG@?$AAe?$AAn?$AA?9?$AAN?$AAZ?$AA?$AA@ 00505244     libucrt:lcidtoname_downlevel.obj
 0002:00023254       ??_C@_1M@KDBONEHP@?$AAe?$AAs?$AA?9?$AAC?$AAR?$AA?$AA@ 00505254     libucrt:lcidtoname_downlevel.obj
 0002:00023264       ??_C@_1M@FHMDOHNN@?$AAf?$AAr?$AA?9?$AAL?$AAU?$AA?$AA@ 00505264     libucrt:lcidtoname_downlevel.obj
 0002:00023274       ??_C@_1BG@NFKKMAFG@?$AAb?$AAs?$AA?9?$AAB?$AAA?$AA?9?$AAL?$AAa?$AAt?$AAn?$AA?$AA@ 00505274     libucrt:lcidtoname_downlevel.obj
 0002:00023290       ??_C@_1O@IMNBEMCI@?$AAs?$AAm?$AAj?$AA?9?$AAS?$AAE?$AA?$AA@ 00505290     libucrt:lcidtoname_downlevel.obj
 0002:000232a0       ??_C@_1M@DHHMBNDP@?$AAa?$AAr?$AA?9?$AAM?$AAA?$AA?$AA@ 005052a0     libucrt:lcidtoname_downlevel.obj
 0002:000232b0       ??_C@_1M@BNBLJCGH@?$AAe?$AAn?$AA?9?$AAI?$AAE?$AA?$AA@ 005052b0     libucrt:lcidtoname_downlevel.obj
 0002:000232c0       ??_C@_1M@GEPAFMDL@?$AAe?$AAs?$AA?9?$AAP?$AAA?$AA?$AA@ 005052c0     libucrt:lcidtoname_downlevel.obj
 0002:000232d0       ??_C@_1M@OJONDMDL@?$AAf?$AAr?$AA?9?$AAM?$AAC?$AA?$AA@ 005052d0     libucrt:lcidtoname_downlevel.obj
 0002:000232e0       ??_C@_1BG@OBCNFJB@?$AAs?$AAr?$AA?9?$AAB?$AAA?$AA?9?$AAL?$AAa?$AAt?$AAn?$AA?$AA@ 005052e0     libucrt:lcidtoname_downlevel.obj
 0002:000232fc       ??_C@_1O@KEMEEGPO@?$AAs?$AAm?$AAa?$AA?9?$AAN?$AAO?$AA?$AA@ 005052fc     libucrt:lcidtoname_downlevel.obj
 0002:0002330c       ??_C@_1M@ELMGFODK@?$AAa?$AAr?$AA?9?$AAT?$AAN?$AA?$AA@ 0050530c     libucrt:lcidtoname_downlevel.obj
 0002:0002331c       ??_C@_1M@BHDLHFAF@?$AAe?$AAn?$AA?9?$AAZ?$AAA?$AA?$AA@ 0050531c     libucrt:lcidtoname_downlevel.obj
 0002:0002332c       ??_C@_1M@BMGIGLIF@?$AAe?$AAs?$AA?9?$AAD?$AAO?$AA?$AA@ 0050532c     libucrt:lcidtoname_downlevel.obj
 0002:0002333c       ??_C@_1BG@CMBHIPBE@?$AAs?$AAr?$AA?9?$AAB?$AAA?$AA?9?$AAC?$AAy?$AAr?$AAl?$AA?$AA@ 0050533c     libucrt:lcidtoname_downlevel.obj
 0002:00023358       ??_C@_1O@HEDBLHNP@?$AAs?$AAm?$AAa?$AA?9?$AAS?$AAE?$AA?$AA@ 00505358     libucrt:lcidtoname_downlevel.obj
 0002:00023368       ??_C@_1M@DAGCADIM@?$AAa?$AAr?$AA?9?$AAO?$AAM?$AA?$AA@ 00505368     libucrt:lcidtoname_downlevel.obj
 0002:00023378       ??_C@_1M@FODLMICG@?$AAe?$AAn?$AA?9?$AAJ?$AAM?$AA?$AA@ 00505378     libucrt:lcidtoname_downlevel.obj
 0002:00023388       ??_C@_1M@DNMLCIHB@?$AAe?$AAs?$AA?9?$AAV?$AAE?$AA?$AA@ 00505388     libucrt:lcidtoname_downlevel.obj
 0002:00023398       ??_C@_1O@EOKHMKJK@?$AAs?$AAm?$AAs?$AA?9?$AAF?$AAI?$AA?$AA@ 00505398     libucrt:lcidtoname_downlevel.obj
 0002:000233a8       ??_C@_1M@CAFJMKOF@?$AAa?$AAr?$AA?9?$AAY?$AAE?$AA?$AA@ 005053a8     libucrt:lcidtoname_downlevel.obj
 0002:000233b8       ??_C@_1M@CBFHIJLI@?$AAe?$AAn?$AA?9?$AAC?$AAB?$AA?$AA@ 005053b8     libucrt:lcidtoname_downlevel.obj
 0002:000233c8       ??_C@_1M@BGNFLDN@?$AAe?$AAs?$AA?9?$AAC?$AAO?$AA?$AA@ 005053c8     libucrt:lcidtoname_downlevel.obj
 0002:000233d8       ??_C@_1O@JMPHMAMC@?$AAs?$AAm?$AAn?$AA?9?$AAF?$AAI?$AA?$AA@ 005053d8     libucrt:lcidtoname_downlevel.obj
 0002:000233e8       ??_C@_1M@JLANABKE@?$AAa?$AAr?$AA?9?$AAS?$AAY?$AA?$AA@ 005053e8     libucrt:lcidtoname_downlevel.obj
 0002:000233f8       ??_C@_1M@HPKGCFGN@?$AAe?$AAn?$AA?9?$AAB?$AAZ?$AA?$AA@ 005053f8     libucrt:lcidtoname_downlevel.obj
 0002:00023408       ??_C@_1M@OLJCMLGM@?$AAe?$AAs?$AA?9?$AAP?$AAE?$AA?$AA@ 00505408     libucrt:lcidtoname_downlevel.obj
 0002:00023418       ??_C@_1M@MKKGFKLE@?$AAa?$AAr?$AA?9?$AAJ?$AAO?$AA?$AA@ 00505418     libucrt:lcidtoname_downlevel.obj
 0002:00023428       ??_C@_1M@EKPGLDNI@?$AAe?$AAn?$AA?9?$AAT?$AAT?$AA?$AA@ 00505428     libucrt:lcidtoname_downlevel.obj
 0002:00023438       ??_C@_1M@OONGHFHE@?$AAe?$AAs?$AA?9?$AAA?$AAR?$AA?$AA@ 00505438     libucrt:lcidtoname_downlevel.obj
 0002:00023448       ??_C@_1M@OOJFGBHE@?$AAa?$AAr?$AA?9?$AAL?$AAB?$AA?$AA@ 00505448     libucrt:lcidtoname_downlevel.obj
 0002:00023458       ??_C@_1M@GCEJHNEG@?$AAe?$AAn?$AA?9?$AAZ?$AAW?$AA?$AA@ 00505458     libucrt:lcidtoname_downlevel.obj
 0002:00023468       ??_C@_1M@JNOCAHJI@?$AAe?$AAs?$AA?9?$AAE?$AAC?$AA?$AA@ 00505468     libucrt:lcidtoname_downlevel.obj
 0002:00023478       ??_C@_1M@JEFHPGGB@?$AAa?$AAr?$AA?9?$AAK?$AAW?$AA?$AA@ 00505478     libucrt:lcidtoname_downlevel.obj
 0002:00023488       ??_C@_1M@MLKIBJOJ@?$AAe?$AAn?$AA?9?$AAP?$AAH?$AA?$AA@ 00505488     libucrt:lcidtoname_downlevel.obj
 0002:00023498       ??_C@_1M@BDNIPEND@?$AAe?$AAs?$AA?9?$AAC?$AAL?$AA?$AA@ 00505498     libucrt:lcidtoname_downlevel.obj
 0002:000234a8       ??_C@_1M@MPNMEKBD@?$AAa?$AAr?$AA?9?$AAA?$AAE?$AA?$AA@ 005054a8     libucrt:lcidtoname_downlevel.obj
 0002:000234b8       ??_C@_1M@KBJALCPI@?$AAe?$AAs?$AA?9?$AAU?$AAY?$AA?$AA@ 005054b8     libucrt:lcidtoname_downlevel.obj
 0002:000234c8       ??_C@_1M@LLCCOAGA@?$AAa?$AAr?$AA?9?$AAB?$AAH?$AA?$AA@ 005054c8     libucrt:lcidtoname_downlevel.obj
 0002:000234d8       ??_C@_1M@PBFNCDEL@?$AAe?$AAs?$AA?9?$AAP?$AAY?$AA?$AA@ 005054d8     libucrt:lcidtoname_downlevel.obj
 0002:000234e8       ??_C@_1M@EDGINPNP@?$AAa?$AAr?$AA?9?$AAQ?$AAA?$AA?$AA@ 005054e8     libucrt:lcidtoname_downlevel.obj
 0002:000234f8       ??_C@_1M@MKDBIIJI@?$AAe?$AAs?$AA?9?$AAB?$AAO?$AA?$AA@ 005054f8     libucrt:lcidtoname_downlevel.obj
 0002:00023508       ??_C@_1M@CPKKEBLD@?$AAe?$AAs?$AA?9?$AAS?$AAV?$AA?$AA@ 00505508     libucrt:lcidtoname_downlevel.obj
 0002:00023518       ??_C@_1M@NDBGMMJL@?$AAe?$AAs?$AA?9?$AAH?$AAN?$AA?$AA@ 00505518     libucrt:lcidtoname_downlevel.obj
 0002:00023528       ??_C@_1M@JIJIBHDP@?$AAe?$AAs?$AA?9?$AAN?$AAI?$AA?$AA@ 00505528     libucrt:lcidtoname_downlevel.obj
 0002:00023538       ??_C@_1M@CGFMKEEK@?$AAe?$AAs?$AA?9?$AAP?$AAR?$AA?$AA@ 00505538     libucrt:lcidtoname_downlevel.obj
 0002:00023548       ??_C@_1O@ICJHKIIK@?$AAz?$AAh?$AA?9?$AAC?$AAH?$AAT?$AA?$AA@ 00505548     libucrt:lcidtoname_downlevel.obj
 0002:00023558       ??_C@_15CLNEJCE@?$AAs?$AAr?$AA?$AA@ 00505558     libucrt:lcidtoname_downlevel.obj
 0002:00023dec       ??_C@_1M@KAHEKEIG@?$AAa?$AAf?$AA?9?$AAz?$AAa?$AA?$AA@ 00505dec     libucrt:lcidtoname_downlevel.obj
 0002:00023dfc       ??_C@_1M@GIECOABL@?$AAa?$AAr?$AA?9?$AAa?$AAe?$AA?$AA@ 00505dfc     libucrt:lcidtoname_downlevel.obj
 0002:00023e0c       ??_C@_1M@BMLMEKGI@?$AAa?$AAr?$AA?9?$AAb?$AAh?$AA?$AA@ 00505e0c     libucrt:lcidtoname_downlevel.obj
 0002:00023e1c       ??_C@_1M@DAPFDGGB@?$AAa?$AAr?$AA?9?$AAd?$AAz?$AA?$AA@ 00505e1c     libucrt:lcidtoname_downlevel.obj
 0002:00023e2c       ??_C@_1M@FJNKGKIG@?$AAa?$AAr?$AA?9?$AAe?$AAg?$AA?$AA@ 00505e2c     libucrt:lcidtoname_downlevel.obj
 0002:00023e3c       ??_C@_1M@FLGKKCLO@?$AAa?$AAr?$AA?9?$AAi?$AAq?$AA?$AA@ 00505e3c     libucrt:lcidtoname_downlevel.obj
 0002:00023e4c       ??_C@_1M@GNDIPALM@?$AAa?$AAr?$AA?9?$AAj?$AAo?$AA?$AA@ 00505e4c     libucrt:lcidtoname_downlevel.obj
 0002:00023e5c       ??_C@_1M@DDMJFMGJ@?$AAa?$AAr?$AA?9?$AAk?$AAw?$AA?$AA@ 00505e5c     libucrt:lcidtoname_downlevel.obj
 0002:00023e6c       ??_C@_1M@EJALMLHM@?$AAa?$AAr?$AA?9?$AAl?$AAb?$AA?$AA@ 00505e6c     libucrt:lcidtoname_downlevel.obj
 0002:00023e7c       ??_C@_1M@MOBDBLOC@?$AAa?$AAr?$AA?9?$AAl?$AAy?$AA?$AA@ 00505e7c     libucrt:lcidtoname_downlevel.obj
 0002:00023e8c       ??_C@_1M@JAOCLHDH@?$AAa?$AAr?$AA?9?$AAm?$AAa?$AA?$AA@ 00505e8c     libucrt:lcidtoname_downlevel.obj
 0002:00023e9c       ??_C@_1M@JHPMKJIE@?$AAa?$AAr?$AA?9?$AAo?$AAm?$AA?$AA@ 00505e9c     libucrt:lcidtoname_downlevel.obj
 0002:00023eac       ??_C@_1M@OEPGHFNH@?$AAa?$AAr?$AA?9?$AAq?$AAa?$AA?$AA@ 00505eac     libucrt:lcidtoname_downlevel.obj
 0002:00023ebc       ??_C@_1M@KJDONENM@?$AAa?$AAr?$AA?9?$AAs?$AAa?$AA?$AA@ 00505ebc     libucrt:lcidtoname_downlevel.obj
 0002:00023ecc       ??_C@_1M@DMJDKLKM@?$AAa?$AAr?$AA?9?$AAs?$AAy?$AA?$AA@ 00505ecc     libucrt:lcidtoname_downlevel.obj
 0002:00023edc       ??_C@_1M@OMFIPEDC@?$AAa?$AAr?$AA?9?$AAt?$AAn?$AA?$AA@ 00505edc     libucrt:lcidtoname_downlevel.obj
 0002:00023eec       ??_C@_1M@IHMHGAON@?$AAa?$AAr?$AA?9?$AAy?$AAe?$AA?$AA@ 00505eec     libucrt:lcidtoname_downlevel.obj
 0002:00023efc       ??_C@_1BG@KDCPGJGB@?$AAa?$AAz?$AA?9?$AAa?$AAz?$AA?9?$AAc?$AAy?$AAr?$AAl?$AA?$AA@ 00505efc     libucrt:lcidtoname_downlevel.obj
 0002:00023f18       ??_C@_1BG@IBCKDDOE@?$AAa?$AAz?$AA?9?$AAa?$AAz?$AA?9?$AAl?$AAa?$AAt?$AAn?$AA?$AA@ 00505f18     libucrt:lcidtoname_downlevel.obj
 0002:00023f34       ??_C@_1M@EGPFDCPD@?$AAb?$AAe?$AA?9?$AAb?$AAy?$AA?$AA@ 00505f34     libucrt:lcidtoname_downlevel.obj
 0002:00023f44       ??_C@_1M@PCMGMCGC@?$AAb?$AAg?$AA?9?$AAb?$AAg?$AA?$AA@ 00505f44     libucrt:lcidtoname_downlevel.obj
 0002:00023f54       ??_C@_1M@BJBMFGOB@?$AAb?$AAn?$AA?9?$AAi?$AAn?$AA?$AA@ 00505f54     libucrt:lcidtoname_downlevel.obj
 0002:00023f64       ??_C@_1BG@EAKMMACD@?$AAb?$AAs?$AA?9?$AAb?$AAa?$AA?9?$AAl?$AAa?$AAt?$AAn?$AA?$AA@ 00505f64     libucrt:lcidtoname_downlevel.obj
 0002:00023f80       ??_C@_1M@KGADAODK@?$AAc?$AAa?$AA?9?$AAe?$AAs?$AA?$AA@ 00505f80     libucrt:lcidtoname_downlevel.obj
 0002:00023f90       ??_C@_1M@COAJPDHI@?$AAc?$AAs?$AA?9?$AAc?$AAz?$AA?$AA@ 00505f90     libucrt:lcidtoname_downlevel.obj
 0002:00023fa0       ??_C@_1M@DHBHFONH@?$AAc?$AAy?$AA?9?$AAg?$AAb?$AA?$AA@ 00505fa0     libucrt:lcidtoname_downlevel.obj
 0002:00023fb0       ??_C@_1M@IMGKELGA@?$AAd?$AAa?$AA?9?$AAd?$AAk?$AA?$AA@ 00505fb0     libucrt:lcidtoname_downlevel.obj
 0002:00023fc0       ??_C@_1M@NNDGDNGA@?$AAd?$AAe?$AA?9?$AAa?$AAt?$AA?$AA@ 00505fc0     libucrt:lcidtoname_downlevel.obj
 0002:00023fd0       ??_C@_1M@IKDBHEEM@?$AAd?$AAe?$AA?9?$AAc?$AAh?$AA?$AA@ 00505fd0     libucrt:lcidtoname_downlevel.obj
 0002:00023fe0       ??_C@_1M@GFFOJMCJ@?$AAd?$AAe?$AA?9?$AAd?$AAe?$AA?$AA@ 00505fe0     libucrt:lcidtoname_downlevel.obj
 0002:00023ff0       ??_C@_1M@MDNLKBPM@?$AAd?$AAe?$AA?9?$AAl?$AAi?$AA?$AA@ 00505ff0     libucrt:lcidtoname_downlevel.obj
 0002:00024000       ??_C@_1M@NJBEEJNL@?$AAd?$AAe?$AA?9?$AAl?$AAu?$AA?$AA@ 00506000     libucrt:lcidtoname_downlevel.obj
 0002:00024010       ??_C@_1O@GNNELBAP@?$AAd?$AAi?$AAv?$AA?9?$AAm?$AAv?$AA?$AA@ 00506010     libucrt:lcidtoname_downlevel.obj
 0002:00024020       ??_C@_1M@EJLEOGAE@?$AAe?$AAl?$AA?9?$AAg?$AAr?$AA?$AA@ 00506020     libucrt:lcidtoname_downlevel.obj
 0002:00024030       ??_C@_1M@GMPONJN@?$AAe?$AAn?$AA?9?$AAa?$AAu?$AA?$AA@ 00506030     libucrt:lcidtoname_downlevel.obj
 0002:00024040       ??_C@_1M@NIDIIPGF@?$AAe?$AAn?$AA?9?$AAb?$AAz?$AA?$AA@ 00506040     libucrt:lcidtoname_downlevel.obj
 0002:00024050       ??_C@_1M@JEHMIMFO@?$AAe?$AAn?$AA?9?$AAc?$AAa?$AA?$AA@ 00506050     libucrt:lcidtoname_downlevel.obj
 0002:00024060       ??_C@_1M@IGMJCDLA@?$AAe?$AAn?$AA?9?$AAc?$AAb?$AA?$AA@ 00506060     libucrt:lcidtoname_downlevel.obj
 0002:00024070       ??_C@_1M@BNFIGBKG@?$AAe?$AAn?$AA?9?$AAg?$AAb?$AA?$AA@ 00506070     libucrt:lcidtoname_downlevel.obj
 0002:00024080       ??_C@_1M@LKIFDIGP@?$AAe?$AAn?$AA?9?$AAi?$AAe?$AA?$AA@ 00506080     libucrt:lcidtoname_downlevel.obj
 0002:00024090       ??_C@_1M@PJKFGCCO@?$AAe?$AAn?$AA?9?$AAj?$AAm?$AA?$AA@ 00506090     libucrt:lcidtoname_downlevel.obj
 0002:000240a0       ??_C@_1M@KPPKEPBO@?$AAe?$AAn?$AA?9?$AAn?$AAz?$AA?$AA@ 005060a0     libucrt:lcidtoname_downlevel.obj
 0002:000240b0       ??_C@_1M@GMDGLDOB@?$AAe?$AAn?$AA?9?$AAp?$AAh?$AA?$AA@ 005060b0     libucrt:lcidtoname_downlevel.obj
 0002:000240c0       ??_C@_1M@ONGIBJNA@?$AAe?$AAn?$AA?9?$AAt?$AAt?$AA?$AA@ 005060c0     libucrt:lcidtoname_downlevel.obj
 0002:000240d0       ??_C@_1M@LLODPCMM@?$AAe?$AAn?$AA?9?$AAu?$AAs?$AA?$AA@ 005060d0     libucrt:lcidtoname_downlevel.obj
 0002:000240e0       ??_C@_1M@LAKFNPAN@?$AAe?$AAn?$AA?9?$AAz?$AAa?$AA?$AA@ 005060e0     libucrt:lcidtoname_downlevel.obj
 0002:000240f0       ??_C@_1M@MFNHNHEO@?$AAe?$AAn?$AA?9?$AAz?$AAw?$AA?$AA@ 005060f0     libucrt:lcidtoname_downlevel.obj
 0002:00024100       ??_C@_1M@EJEINPHM@?$AAe?$AAs?$AA?9?$AAa?$AAr?$AA?$AA@ 00506100     libucrt:lcidtoname_downlevel.obj
 0002:00024110       ??_C@_1M@GNKPCCJA@?$AAe?$AAs?$AA?9?$AAb?$AAo?$AA?$AA@ 00506110     libucrt:lcidtoname_downlevel.obj
 0002:00024120       ??_C@_1M@LEEGFONL@?$AAe?$AAs?$AA?9?$AAc?$AAl?$AA?$AA@ 00506120     libucrt:lcidtoname_downlevel.obj
 0002:00024130       ??_C@_1M@KGPDPBDF@?$AAe?$AAs?$AA?9?$AAc?$AAo?$AA?$AA@ 00506130     libucrt:lcidtoname_downlevel.obj
 0002:00024140       ??_C@_1M@EIAHOHH@?$AAe?$AAs?$AA?9?$AAc?$AAr?$AA?$AA@ 00506140     libucrt:lcidtoname_downlevel.obj
 0002:00024150       ??_C@_1M@LLPGMBIN@?$AAe?$AAs?$AA?9?$AAd?$AAo?$AA?$AA@ 00506150     libucrt:lcidtoname_downlevel.obj
 0002:00024160       ??_C@_1M@DKHMKNJA@?$AAe?$AAs?$AA?9?$AAe?$AAc?$AA?$AA@ 00506160     libucrt:lcidtoname_downlevel.obj
 0002:00024170       ??_C@_1M@GKGFPKAP@?$AAe?$AAs?$AA?9?$AAe?$AAs?$AA?$AA@ 00506170     libucrt:lcidtoname_downlevel.obj
 0002:00024180       ??_C@_1M@LKHKGDLN@?$AAe?$AAs?$AA?9?$AAg?$AAt?$AA?$AA@ 00506180     libucrt:lcidtoname_downlevel.obj
 0002:00024190       ??_C@_1M@HEIIGGJD@?$AAe?$AAs?$AA?9?$AAh?$AAn?$AA?$AA@ 00506190     libucrt:lcidtoname_downlevel.obj
 0002:000241a0       ??_C@_1M@FBDHPPGD@?$AAe?$AAs?$AA?9?$AAm?$AAx?$AA?$AA@ 005061a0     libucrt:lcidtoname_downlevel.obj
 0002:000241b0       ??_C@_1M@DPAGLNDH@?$AAe?$AAs?$AA?9?$AAn?$AAi?$AA?$AA@ 005061b0     libucrt:lcidtoname_downlevel.obj
 0002:000241c0       ??_C@_1M@MDGOPGDD@?$AAe?$AAs?$AA?9?$AAp?$AAa?$AA?$AA@ 005061c0     libucrt:lcidtoname_downlevel.obj
 0002:000241d0       ??_C@_1M@EMAMGBGE@?$AAe?$AAs?$AA?9?$AAp?$AAe?$AA?$AA@ 005061d0     libucrt:lcidtoname_downlevel.obj
 0002:000241e0       ??_C@_1M@IBMCAOEC@?$AAe?$AAs?$AA?9?$AAp?$AAr?$AA?$AA@ 005061e0     libucrt:lcidtoname_downlevel.obj
 0002:000241f0       ??_C@_1M@FGMDIJED@?$AAe?$AAs?$AA?9?$AAp?$AAy?$AA?$AA@ 005061f0     libucrt:lcidtoname_downlevel.obj
 0002:00024200       ??_C@_1M@IIDEOLLL@?$AAe?$AAs?$AA?9?$AAs?$AAv?$AA?$AA@ 00506200     libucrt:lcidtoname_downlevel.obj
 0002:00024210       ??_C@_1M@GAOBIPA@?$AAe?$AAs?$AA?9?$AAu?$AAy?$AA?$AA@ 00506210     libucrt:lcidtoname_downlevel.obj
 0002:00024220       ??_C@_1M@JKFFICHJ@?$AAe?$AAs?$AA?9?$AAv?$AAe?$AA?$AA@ 00506220     libucrt:lcidtoname_downlevel.obj
 0002:00024230       ??_C@_1M@PNMLOJDF@?$AAe?$AAt?$AA?9?$AAe?$AAe?$AA?$AA@ 00506230     libucrt:lcidtoname_downlevel.obj
 0002:00024240       ??_C@_1M@GHHLIKEI@?$AAe?$AAu?$AA?9?$AAe?$AAs?$AA?$AA@ 00506240     libucrt:lcidtoname_downlevel.obj
 0002:00024250       ??_C@_1M@PBNONODE@?$AAf?$AAa?$AA?9?$AAi?$AAr?$AA?$AA@ 00506250     libucrt:lcidtoname_downlevel.obj
 0002:00024260       ??_C@_1M@JEEHPMIL@?$AAf?$AAi?$AA?9?$AAf?$AAi?$AA?$AA@ 00506260     libucrt:lcidtoname_downlevel.obj
 0002:00024270       ??_C@_1M@LMDCNDBA@?$AAf?$AAo?$AA?9?$AAf?$AAo?$AA?$AA@ 00506270     libucrt:lcidtoname_downlevel.obj
 0002:00024280       ??_C@_1M@JKEOHLDK@?$AAf?$AAr?$AA?9?$AAb?$AAe?$AA?$AA@ 00506280     libucrt:lcidtoname_downlevel.obj
 0002:00024290       ??_C@_1M@NOHADPMI@?$AAf?$AAr?$AA?9?$AAc?$AAa?$AA?$AA@ 00506290     libucrt:lcidtoname_downlevel.obj
 0002:000242a0       ??_C@_1M@KDHIHAEC@?$AAf?$AAr?$AA?9?$AAc?$AAh?$AA?$AA@ 005062a0     libucrt:lcidtoname_downlevel.obj
 0002:000242b0       ??_C@_1M@MMBBFGAK@?$AAf?$AAr?$AA?9?$AAf?$AAr?$AA?$AA@ 005062b0     libucrt:lcidtoname_downlevel.obj
 0002:000242c0       ??_C@_1M@PAFNENNF@?$AAf?$AAr?$AA?9?$AAl?$AAu?$AA?$AA@ 005062c0     libucrt:lcidtoname_downlevel.obj
 0002:000242d0       ??_C@_1M@EOHDJGDD@?$AAf?$AAr?$AA?9?$AAm?$AAc?$AA?$AA@ 005062d0     libucrt:lcidtoname_downlevel.obj
 0002:000242e0       ??_C@_1M@FAPLLOPF@?$AAg?$AAl?$AA?9?$AAe?$AAs?$AA?$AA@ 005062e0     libucrt:lcidtoname_downlevel.obj
 0002:000242f0       ??_C@_1M@FOPBFLOO@?$AAg?$AAu?$AA?9?$AAi?$AAn?$AA?$AA@ 005062f0     libucrt:lcidtoname_downlevel.obj
 0002:00024300       ??_C@_1M@KBMCINPM@?$AAh?$AAe?$AA?9?$AAi?$AAl?$AA?$AA@ 00506300     libucrt:lcidtoname_downlevel.obj
 0002:00024310       ??_C@_1M@BBPHKFPJ@?$AAh?$AAi?$AA?9?$AAi?$AAn?$AA?$AA@ 00506310     libucrt:lcidtoname_downlevel.obj
 0002:00024320       ??_C@_1M@PMBNDPHD@?$AAh?$AAr?$AA?9?$AAb?$AAa?$AA?$AA@ 00506320     libucrt:lcidtoname_downlevel.obj
 0002:00024330       ??_C@_1M@BPCKOEGE@?$AAh?$AAr?$AA?9?$AAh?$AAr?$AA?$AA@ 00506330     libucrt:lcidtoname_downlevel.obj
 0002:00024340       ??_C@_1M@GACBMHKE@?$AAh?$AAu?$AA?9?$AAh?$AAu?$AA?$AA@ 00506340     libucrt:lcidtoname_downlevel.obj
 0002:00024350       ??_C@_1M@MILPAJJC@?$AAh?$AAy?$AA?9?$AAa?$AAm?$AA?$AA@ 00506350     libucrt:lcidtoname_downlevel.obj
 0002:00024360       ??_C@_1M@BABBICEC@?$AAi?$AAd?$AA?9?$AAi?$AAd?$AA?$AA@ 00506360     libucrt:lcidtoname_downlevel.obj
 0002:00024370       ??_C@_1M@BIKNHHPF@?$AAi?$AAs?$AA?9?$AAi?$AAs?$AA?$AA@ 00506370     libucrt:lcidtoname_downlevel.obj
 0002:00024380       ??_C@_1M@NMPCJPHE@?$AAi?$AAt?$AA?9?$AAc?$AAh?$AA?$AA@ 00506380     libucrt:lcidtoname_downlevel.obj
 0002:00024390       ??_C@_1M@GHKGFEDF@?$AAi?$AAt?$AA?9?$AAi?$AAt?$AA?$AA@ 00506390     libucrt:lcidtoname_downlevel.obj
 0002:000243a0       ??_C@_1M@NIEJCJJA@?$AAj?$AAa?$AA?9?$AAj?$AAp?$AA?$AA@ 005063a0     libucrt:lcidtoname_downlevel.obj
 0002:000243b0       ??_C@_1M@JILFNBIM@?$AAk?$AAa?$AA?9?$AAg?$AAe?$AA?$AA@ 005063b0     libucrt:lcidtoname_downlevel.obj
 0002:000243c0       ??_C@_1M@PACPMGPH@?$AAk?$AAk?$AA?9?$AAk?$AAz?$AA?$AA@ 005063c0     libucrt:lcidtoname_downlevel.obj
 0002:000243d0       ??_C@_1M@IELFGMHA@?$AAk?$AAn?$AA?9?$AAi?$AAn?$AA?$AA@ 005063d0     libucrt:lcidtoname_downlevel.obj
 0002:000243e0       ??_C@_1O@IBBJHCH@?$AAk?$AAo?$AAk?$AA?9?$AAi?$AAn?$AA?$AA@ 005063e0     libucrt:lcidtoname_downlevel.obj
 0002:000243f0       ??_C@_1M@DMHAEOGC@?$AAk?$AAo?$AA?9?$AAk?$AAr?$AA?$AA@ 005063f0     libucrt:lcidtoname_downlevel.obj
 0002:00024400       ??_C@_1M@HBAHBIGA@?$AAk?$AAy?$AA?9?$AAk?$AAg?$AA?$AA@ 00506400     libucrt:lcidtoname_downlevel.obj
 0002:00024410       ??_C@_1M@KPMILCJG@?$AAl?$AAt?$AA?9?$AAl?$AAt?$AA?$AA@ 00506410     libucrt:lcidtoname_downlevel.obj
 0002:00024420       ??_C@_1M@BDEKKCA@?$AAl?$AAv?$AA?9?$AAl?$AAv?$AA?$AA@ 00506420     libucrt:lcidtoname_downlevel.obj
 0002:00024430       ??_C@_1M@ELCKCCJJ@?$AAm?$AAi?$AA?9?$AAn?$AAz?$AA?$AA@ 00506430     libucrt:lcidtoname_downlevel.obj
 0002:00024440       ??_C@_1M@CBOOLAPA@?$AAm?$AAk?$AA?9?$AAm?$AAk?$AA?$AA@ 00506440     libucrt:lcidtoname_downlevel.obj
 0002:00024450       ??_C@_1M@GPHNBJKN@?$AAm?$AAl?$AA?9?$AAi?$AAn?$AA?$AA@ 00506450     libucrt:lcidtoname_downlevel.obj
 0002:00024460       ??_C@_1M@PABJILIG@?$AAm?$AAn?$AA?9?$AAm?$AAn?$AA?$AA@ 00506460     libucrt:lcidtoname_downlevel.obj
 0002:00024470       ??_C@_1M@FGBKKIPG@?$AAm?$AAr?$AA?9?$AAi?$AAn?$AA?$AA@ 00506470     libucrt:lcidtoname_downlevel.obj
 0002:00024480       ??_C@_1M@NDBPDDAL@?$AAm?$AAs?$AA?9?$AAb?$AAn?$AA?$AA@ 00506480     libucrt:lcidtoname_downlevel.obj
 0002:00024490       ??_C@_1M@OPIHOOPI@?$AAm?$AAs?$AA?9?$AAm?$AAy?$AA?$AA@ 00506490     libucrt:lcidtoname_downlevel.obj
 0002:000244a0       ??_C@_1M@PPDBCNFM@?$AAm?$AAt?$AA?9?$AAm?$AAt?$AA?$AA@ 005064a0     libucrt:lcidtoname_downlevel.obj
 0002:000244b0       ??_C@_1M@KDJDKMDD@?$AAn?$AAb?$AA?9?$AAn?$AAo?$AA?$AA@ 005064b0     libucrt:lcidtoname_downlevel.obj
 0002:000244c0       ??_C@_1M@KFCFLMJP@?$AAn?$AAl?$AA?9?$AAb?$AAe?$AA?$AA@ 005064c0     libucrt:lcidtoname_downlevel.obj
 0002:000244d0       ??_C@_1M@KPOPDDGO@?$AAn?$AAl?$AA?9?$AAn?$AAl?$AA?$AA@ 005064d0     libucrt:lcidtoname_downlevel.obj
 0002:000244e0       ??_C@_1M@LJKPEMLN@?$AAn?$AAn?$AA?9?$AAn?$AAo?$AA?$AA@ 005064e0     libucrt:lcidtoname_downlevel.obj
 0002:000244f0       ??_C@_1M@BDGHHBFL@?$AAn?$AAs?$AA?9?$AAz?$AAa?$AA?$AA@ 005064f0     libucrt:lcidtoname_downlevel.obj
 0002:00024500       ??_C@_1M@IDEHOAP@?$AAp?$AAa?$AA?9?$AAi?$AAn?$AA?$AA@ 00506500     libucrt:lcidtoname_downlevel.obj
 0002:00024510       ??_C@_1M@HDBKGOGH@?$AAp?$AAl?$AA?9?$AAp?$AAl?$AA?$AA@ 00506510     libucrt:lcidtoname_downlevel.obj
 0002:00024520       ??_C@_1M@LJLLCMEH@?$AAp?$AAt?$AA?9?$AAb?$AAr?$AA?$AA@ 00506520     libucrt:lcidtoname_downlevel.obj
 0002:00024530       ??_C@_1M@NCMONAAL@?$AAp?$AAt?$AA?9?$AAp?$AAt?$AA?$AA@ 00506530     libucrt:lcidtoname_downlevel.obj
 0002:00024540       ??_C@_1O@EAKMAJDN@?$AAq?$AAu?$AAz?$AA?9?$AAb?$AAo?$AA?$AA@ 00506540     libucrt:lcidtoname_downlevel.obj
 0002:00024550       ??_C@_1O@BHHPIGDN@?$AAq?$AAu?$AAz?$AA?9?$AAe?$AAc?$AA?$AA@ 00506550     libucrt:lcidtoname_downlevel.obj
 0002:00024560       ??_C@_1O@GBAPEKMJ@?$AAq?$AAu?$AAz?$AA?9?$AAp?$AAe?$AA?$AA@ 00506560     libucrt:lcidtoname_downlevel.obj
 0002:00024570       ??_C@_1M@CLGLEFBO@?$AAr?$AAo?$AA?9?$AAr?$AAo?$AA?$AA@ 00506570     libucrt:lcidtoname_downlevel.obj
 0002:00024580       ??_C@_1M@CEEDODME@?$AAr?$AAu?$AA?9?$AAr?$AAu?$AA?$AA@ 00506580     libucrt:lcidtoname_downlevel.obj
 0002:00024590       ??_C@_1M@HPKKKMPP@?$AAs?$AAa?$AA?9?$AAi?$AAn?$AA?$AA@ 00506590     libucrt:lcidtoname_downlevel.obj
 0002:000245a0       ??_C@_1M@BKMAIGOJ@?$AAs?$AAe?$AA?9?$AAf?$AAi?$AA?$AA@ 005065a0     libucrt:lcidtoname_downlevel.obj
 0002:000245b0       ??_C@_1M@NDPIFLFI@?$AAs?$AAe?$AA?9?$AAn?$AAo?$AA?$AA@ 005065b0     libucrt:lcidtoname_downlevel.obj
 0002:000245c0       ??_C@_1M@DANKKHJ@?$AAs?$AAe?$AA?9?$AAs?$AAe?$AA?$AA@ 005065c0     libucrt:lcidtoname_downlevel.obj
 0002:000245d0       ??_C@_1M@PNBLONPJ@?$AAs?$AAk?$AA?9?$AAs?$AAk?$AA?$AA@ 005065d0     libucrt:lcidtoname_downlevel.obj
 0002:000245e0       ??_C@_1M@LFMODOAL@?$AAs?$AAl?$AA?9?$AAs?$AAi?$AA?$AA@ 005065e0     libucrt:lcidtoname_downlevel.obj
 0002:000245f0       ??_C@_1O@DFKOMPG@?$AAs?$AAm?$AAa?$AA?9?$AAn?$AAo?$AA?$AA@ 005065f0     libucrt:lcidtoname_downlevel.obj
 0002:00024600       ??_C@_1O@NDKPBNNH@?$AAs?$AAm?$AAa?$AA?9?$AAs?$AAe?$AA?$AA@ 00506600     libucrt:lcidtoname_downlevel.obj
 0002:00024610       ??_C@_1O@PLLKBHAB@?$AAs?$AAm?$AAj?$AA?9?$AAn?$AAo?$AA?$AA@ 00506610     libucrt:lcidtoname_downlevel.obj
 0002:00024620       ??_C@_1O@CLEPOGCA@?$AAs?$AAm?$AAj?$AA?9?$AAs?$AAe?$AA?$AA@ 00506620     libucrt:lcidtoname_downlevel.obj
 0002:00024630       ??_C@_1O@DLGJGKMK@?$AAs?$AAm?$AAn?$AA?9?$AAf?$AAi?$AA?$AA@ 00506630     libucrt:lcidtoname_downlevel.obj
 0002:00024640       ??_C@_1O@OJDJGAJC@?$AAs?$AAm?$AAs?$AA?9?$AAf?$AAi?$AA?$AA@ 00506640     libucrt:lcidtoname_downlevel.obj
 0002:00024650       ??_C@_1M@BOFOGHPB@?$AAs?$AAq?$AA?9?$AAa?$AAl?$AA?$AA@ 00506650     libucrt:lcidtoname_downlevel.obj
 0002:00024660       ??_C@_1BG@LJBBIPGB@?$AAs?$AAr?$AA?9?$AAb?$AAa?$AA?9?$AAc?$AAy?$AAr?$AAl?$AA?$AA@ 00506660     libucrt:lcidtoname_downlevel.obj
 0002:0002467c       ??_C@_1BG@JLBENFOE@?$AAs?$AAr?$AA?9?$AAb?$AAa?$AA?9?$AAl?$AAa?$AAt?$AAn?$AA?$AA@ 0050667c     libucrt:lcidtoname_downlevel.obj
 0002:00024698       ??_C@_1BG@KODPNHE@?$AAs?$AAr?$AA?9?$AAs?$AAp?$AA?9?$AAc?$AAy?$AAr?$AAl?$AA?$AA@ 00506698     libucrt:lcidtoname_downlevel.obj
 0002:000246b4       ??_C@_1BG@CIOGKHPB@?$AAs?$AAr?$AA?9?$AAs?$AAp?$AA?9?$AAl?$AAa?$AAt?$AAn?$AA?$AA@ 005066b4     libucrt:lcidtoname_downlevel.obj
 0002:000246d0       ??_C@_1M@NGFJLMAC@?$AAs?$AAv?$AA?9?$AAf?$AAi?$AA?$AA@ 005066d0     libucrt:lcidtoname_downlevel.obj
 0002:000246e0       ??_C@_1M@MPJEJAJC@?$AAs?$AAv?$AA?9?$AAs?$AAe?$AA?$AA@ 005066e0     libucrt:lcidtoname_downlevel.obj
 0002:000246f0       ??_C@_1M@MPNDHLFK@?$AAs?$AAw?$AA?9?$AAk?$AAe?$AA?$AA@ 005066f0     libucrt:lcidtoname_downlevel.obj
 0002:00024700       ??_C@_1O@KOHBJJI@?$AAs?$AAy?$AAr?$AA?9?$AAs?$AAy?$AA?$AA@ 00506700     libucrt:lcidtoname_downlevel.obj
 0002:00024710       ??_C@_1M@LDCEFHA@?$AAt?$AAa?$AA?9?$AAi?$AAn?$AA?$AA@ 00506710     libucrt:lcidtoname_downlevel.obj
 0002:00024720       ??_C@_1M@CNJOFAK@?$AAt?$AAe?$AA?9?$AAi?$AAn?$AA?$AA@ 00506720     libucrt:lcidtoname_downlevel.obj
 0002:00024730       ??_C@_1M@GNAECACD@?$AAt?$AAh?$AA?9?$AAt?$AAh?$AA?$AA@ 00506730     libucrt:lcidtoname_downlevel.obj
 0002:00024740       ??_C@_1M@CHBIHOJO@?$AAt?$AAn?$AA?9?$AAz?$AAa?$AA?$AA@ 00506740     libucrt:lcidtoname_downlevel.obj
 0002:00024750       ??_C@_1M@GCCMIGPJ@?$AAt?$AAr?$AA?9?$AAt?$AAr?$AA?$AA@ 00506750     libucrt:lcidtoname_downlevel.obj
 0002:00024760       ??_C@_1M@CELMCNBK@?$AAt?$AAt?$AA?9?$AAr?$AAu?$AA?$AA@ 00506760     libucrt:lcidtoname_downlevel.obj
 0002:00024770       ??_C@_1M@KLMCELGA@?$AAu?$AAk?$AA?9?$AAu?$AAa?$AA?$AA@ 00506770     libucrt:lcidtoname_downlevel.obj
 0002:00024780       ??_C@_1M@EPAJJAJF@?$AAu?$AAr?$AA?9?$AAp?$AAk?$AA?$AA@ 00506780     libucrt:lcidtoname_downlevel.obj
 0002:00024790       ??_C@_1BG@GEGPMCDJ@?$AAu?$AAz?$AA?9?$AAu?$AAz?$AA?9?$AAc?$AAy?$AAr?$AAl?$AA?$AA@ 00506790     libucrt:lcidtoname_downlevel.obj
 0002:000247ac       ??_C@_1BG@EGGKJILM@?$AAu?$AAz?$AA?9?$AAu?$AAz?$AA?9?$AAl?$AAa?$AAt?$AAn?$AA?$AA@ 005067ac     libucrt:lcidtoname_downlevel.obj
 0002:000247c8       ??_C@_1M@GFOCLFF@?$AAv?$AAi?$AA?9?$AAv?$AAn?$AA?$AA@ 005067c8     libucrt:lcidtoname_downlevel.obj
 0002:000247d8       ??_C@_1M@CPAMEDFI@?$AAx?$AAh?$AA?9?$AAz?$AAa?$AA?$AA@ 005067d8     libucrt:lcidtoname_downlevel.obj
 0002:000247e8       ??_C@_1O@EBKIFIGN@?$AAz?$AAh?$AA?9?$AAc?$AAh?$AAs?$AA?$AA@ 005067e8     libucrt:lcidtoname_downlevel.obj
 0002:000247f8       ??_C@_1O@NMHPGANE@?$AAz?$AAh?$AA?9?$AAc?$AAh?$AAt?$AA?$AA@ 005067f8     libucrt:lcidtoname_downlevel.obj
 0002:00024808       ??_C@_1M@LPINJOMC@?$AAz?$AAh?$AA?9?$AAc?$AAn?$AA?$AA@ 00506808     libucrt:lcidtoname_downlevel.obj
 0002:00024818       ??_C@_1M@OCJEJODD@?$AAz?$AAh?$AA?9?$AAh?$AAk?$AA?$AA@ 00506818     libucrt:lcidtoname_downlevel.obj
 0002:00024828       ??_C@_1M@DNDLJINH@?$AAz?$AAh?$AA?9?$AAm?$AAo?$AA?$AA@ 00506828     libucrt:lcidtoname_downlevel.obj
 0002:00024838       ??_C@_1M@MBFDNDND@?$AAz?$AAh?$AA?9?$AAs?$AAg?$AA?$AA@ 00506838     libucrt:lcidtoname_downlevel.obj
 0002:00024848       ??_C@_1M@IMEPLEPE@?$AAz?$AAh?$AA?9?$AAt?$AAw?$AA?$AA@ 00506848     libucrt:lcidtoname_downlevel.obj
 0002:00024858       ??_C@_1M@BBGHNHJP@?$AAz?$AAu?$AA?9?$AAz?$AAa?$AA?$AA@ 00506858     libucrt:lcidtoname_downlevel.obj
 0002:00024868       __days                     00506868     libucrt:days.obj
 0002:000248a8       __lpdays                   005068a8     libucrt:days.obj
 0002:000248f0       ___acrt_cos_sin_ctable     005068f0     libucrt:cos_sin_ctable.obj
 0002:0002528c       ??_C@_1BA@BALFACEM@?$AAC?$AAO?$AAN?$AAO?$AAU?$AAT?$AA$?$AA?$AA@ 0050728c     libucrt:initcon.obj
 0002:00025450       __infinity                 00507450     libucrt:87tran.obj
 0002:0002545a       __minfinity                0050745a     libucrt:87tran.obj
 0002:00025464       __logemax                  00507464     libucrt:87tran.obj
 0002:0002548a       __OP_EXPjmptab             0050748a     libucrt:87tran.obj
 0002:00025550       ___acrt_log10_table_t      00507550     libucrt:log10_tables.obj
 0002:00025a30       ___acrt_log10_table_cb     00507a30     libucrt:log10_tables.obj
 0002:00025f10       __real@3fe0000000000000    00507f10     libucrt:powhlp.obj
 0002:00025f58       __load_config_used         00507f58     LIBCMT:loadcfg.obj
 0002:000264dc       ??_R4exception@std@@6B@    005084dc     LIBCMT:throw_bad_alloc.obj
 0002:000264f4       ??_R3exception@std@@8      005084f4     LIBCMT:throw_bad_alloc.obj
 0002:00026508       ??_R2exception@std@@8      00508508     LIBCMT:throw_bad_alloc.obj
 0002:00026510       ??_R1A@?0A@EA@exception@std@@8 00508510     LIBCMT:throw_bad_alloc.obj
 0002:00026534       ??_R4bad_alloc@std@@6B@    00508534     LIBCMT:throw_bad_alloc.obj
 0002:0002654c       ??_R3bad_alloc@std@@8      0050854c     LIBCMT:throw_bad_alloc.obj
 0002:00026560       ??_R2bad_alloc@std@@8      00508560     LIBCMT:throw_bad_alloc.obj
 0002:0002656c       ??_R1A@?0A@EA@bad_alloc@std@@8 0050856c     LIBCMT:throw_bad_alloc.obj
 0002:00026590       ??_R4bad_array_new_length@std@@6B@ 00508590     LIBCMT:throw_bad_alloc.obj
 0002:000265a8       ??_R3bad_array_new_length@std@@8 005085a8     LIBCMT:throw_bad_alloc.obj
 0002:000265bc       ??_R2bad_array_new_length@std@@8 005085bc     LIBCMT:throw_bad_alloc.obj
 0002:000265cc       ??_R1A@?0A@EA@bad_array_new_length@std@@8 005085cc     LIBCMT:throw_bad_alloc.obj
 0002:000265f0       ??_R4type_info@@6B@        005085f0     LIBCMT:std_type_info_static.obj
 0002:00026608       ??_R3type_info@@8          00508608     LIBCMT:std_type_info_static.obj
 0002:0002661c       ??_R2type_info@@8          0050861c     LIBCMT:std_type_info_static.obj
 0002:00026624       ??_R1A@?0A@EA@type_info@@8 00508624     LIBCMT:std_type_info_static.obj
 0002:00026648       ??_R4logic_error@std@@6B@  00508648     libcpmt:xthrow.obj
 0002:00026660       ??_R3logic_error@std@@8    00508660     libcpmt:xthrow.obj
 0002:00026674       ??_R2logic_error@std@@8    00508674     libcpmt:xthrow.obj
 0002:00026680       ??_R1A@?0A@EA@logic_error@std@@8 00508680     libcpmt:xthrow.obj
 0002:000266a4       ??_R4invalid_argument@std@@6B@ 005086a4     libcpmt:xthrow.obj
 0002:000266bc       ??_R3invalid_argument@std@@8 005086bc     libcpmt:xthrow.obj
 0002:000266d0       ??_R2invalid_argument@std@@8 005086d0     libcpmt:xthrow.obj
 0002:000266e0       ??_R1A@?0A@EA@invalid_argument@std@@8 005086e0     libcpmt:xthrow.obj
 0002:00026704       ??_R4length_error@std@@6B@ 00508704     libcpmt:xthrow.obj
 0002:0002671c       ??_R3length_error@std@@8   0050871c     libcpmt:xthrow.obj
 0002:00026730       ??_R2length_error@std@@8   00508730     libcpmt:xthrow.obj
 0002:00026740       ??_R1A@?0A@EA@length_error@std@@8 00508740     libcpmt:xthrow.obj
 0002:00026764       ??_R4out_of_range@std@@6B@ 00508764     libcpmt:xthrow.obj
 0002:0002677c       ??_R3out_of_range@std@@8   0050877c     libcpmt:xthrow.obj
 0002:00026790       ??_R2out_of_range@std@@8   00508790     libcpmt:xthrow.obj
 0002:000267a0       ??_R1A@?0A@EA@out_of_range@std@@8 005087a0     libcpmt:xthrow.obj
 0002:000267c4       ??_R4runtime_error@std@@6B@ 005087c4     libcpmt:xthrow.obj
 0002:000267dc       ??_R3runtime_error@std@@8  005087dc     libcpmt:xthrow.obj
 0002:000267f0       ??_R2runtime_error@std@@8  005087f0     libcpmt:xthrow.obj
 0002:000267fc       ??_R1A@?0A@EA@runtime_error@std@@8 005087fc     libcpmt:xthrow.obj
 0002:00026820       ??_R4overflow_error@std@@6B@ 00508820     libcpmt:xthrow.obj
 0002:00026838       ??_R3overflow_error@std@@8 00508838     libcpmt:xthrow.obj
 0002:0002684c       ??_R2overflow_error@std@@8 0050884c     libcpmt:xthrow.obj
 0002:0002685c       ??_R1A@?0A@EA@overflow_error@std@@8 0050885c     libcpmt:xthrow.obj
 0002:00026880       ??_R4bad_function_call@std@@6B@ 00508880     libcpmt:xthrow.obj
 0002:00026898       ??_R3bad_function_call@std@@8 00508898     libcpmt:xthrow.obj
 0002:000268ac       ??_R2bad_function_call@std@@8 005088ac     libcpmt:xthrow.obj
 0002:000268b8       ??_R1A@?0A@EA@bad_function_call@std@@8 005088b8     libcpmt:xthrow.obj
 0002:000268dc       ??_R4regex_error@std@@6B@  005088dc     libcpmt:xthrow.obj
 0002:000268f4       ??_R3regex_error@std@@8    005088f4     libcpmt:xthrow.obj
 0002:00026908       ??_R2regex_error@std@@8    00508908     libcpmt:xthrow.obj
 0002:00026918       ??_R1A@?0A@EA@regex_error@std@@8 00508918     libcpmt:xthrow.obj
 0002:0002693c       ??_R4bad_exception@std@@6B@ 0050893c     libvcruntime:frame.obj
 0002:00026954       ??_R3bad_exception@std@@8  00508954     libvcruntime:frame.obj
 0002:00026968       ??_R2bad_exception@std@@8  00508968     libvcruntime:frame.obj
 0002:00026974       ??_R1A@?0A@EA@bad_exception@std@@8 00508974     libvcruntime:frame.obj
 0002:00026998       ??_R4DNameNode@@6B@        00508998     libvcruntime:undname.obj
 0002:000269b0       ??_R3DNameNode@@8          005089b0     libvcruntime:undname.obj
 0002:000269c4       ??_R2DNameNode@@8          005089c4     libvcruntime:undname.obj
 0002:000269cc       ??_R1A@?0A@EA@DNameNode@@8 005089cc     libvcruntime:undname.obj
 0002:000269f0       ??_R4charNode@@6B@         005089f0     libvcruntime:undname.obj
 0002:00026a08       ??_R3charNode@@8           00508a08     libvcruntime:undname.obj
 0002:00026a1c       ??_R2charNode@@8           00508a1c     libvcruntime:undname.obj
 0002:00026a28       ??_R1A@?0A@EA@charNode@@8  00508a28     libvcruntime:undname.obj
 0002:00026a4c       ??_R4pcharNode@@6B@        00508a4c     libvcruntime:undname.obj
 0002:00026a64       ??_R3pcharNode@@8          00508a64     libvcruntime:undname.obj
 0002:00026a78       ??_R2pcharNode@@8          00508a78     libvcruntime:undname.obj
 0002:00026a84       ??_R1A@?0A@EA@pcharNode@@8 00508a84     libvcruntime:undname.obj
 0002:00026aa8       ??_R4pDNameNode@@6B@       00508aa8     libvcruntime:undname.obj
 0002:00026ac0       ??_R3pDNameNode@@8         00508ac0     libvcruntime:undname.obj
 0002:00026ad4       ??_R2pDNameNode@@8         00508ad4     libvcruntime:undname.obj
 0002:00026ae0       ??_R1A@?0A@EA@pDNameNode@@8 00508ae0     libvcruntime:undname.obj
 0002:00026b04       ??_R4DNameStatusNode@@6B@  00508b04     libvcruntime:undname.obj
 0002:00026b1c       ??_R3DNameStatusNode@@8    00508b1c     libvcruntime:undname.obj
 0002:00026b30       ??_R2DNameStatusNode@@8    00508b30     libvcruntime:undname.obj
 0002:00026b3c       ??_R1A@?0A@EA@DNameStatusNode@@8 00508b3c     libvcruntime:undname.obj
 0002:00026b60       ??_R4pairNode@@6B@         00508b60     libvcruntime:undname.obj
 0002:00026b78       ??_R3pairNode@@8           00508b78     libvcruntime:undname.obj
 0002:00026b8c       ??_R2pairNode@@8           00508b8c     libvcruntime:undname.obj
 0002:00026b98       ??_R1A@?0A@EA@pairNode@@8  00508b98     libvcruntime:undname.obj
 0002:00026cf0       ___safe_se_handler_table   00508cf0     <linker-defined>
 0002:00026fd0       ___rtc_iaa                 00508fd0     LIBCMT:_initsect_.obj
 0002:00027330       ___rtc_izz                 00509330     LIBCMT:_initsect_.obj
 0002:00027434       ___rtc_taa                 00509434     LIBCMT:_initsect_.obj
 0002:00027794       ___rtc_tzz                 00509794     LIBCMT:_initsect_.obj
 0002:00027cd0       __TI2?AVbad_alloc@std@@    00509cd0     LIBCMT:throw_bad_alloc.obj
 0002:00027ce4       __CTA2?AVbad_alloc@std@@   00509ce4     LIBCMT:throw_bad_alloc.obj
 0002:00027cf4       __CT??_R0?AVbad_alloc@std@@@8??0bad_alloc@std@@QAE@ABV01@@Z12 00509cf4     LIBCMT:throw_bad_alloc.obj
 0002:00027d14       __CT??_R0?AVexception@std@@@8??0exception@std@@QAE@ABV01@@Z12 00509d14     LIBCMT:throw_bad_alloc.obj
 0002:00027d34       __TI3?AVbad_array_new_length@std@@ 00509d34     LIBCMT:throw_bad_alloc.obj
 0002:00027d48       __CTA3?AVbad_array_new_length@std@@ 00509d48     LIBCMT:throw_bad_alloc.obj
 0002:00027d5c       __CT??_R0?AVbad_array_new_length@std@@@8??0bad_array_new_length@std@@QAE@ABV01@@Z12 00509d5c     LIBCMT:throw_bad_alloc.obj
 0002:00027da0       __TI3?AVinvalid_argument@std@@ 00509da0     libcpmt:xthrow.obj
 0002:00027db4       __CTA3?AVinvalid_argument@std@@ 00509db4     libcpmt:xthrow.obj
 0002:00027dc8       __CT??_R0?AVinvalid_argument@std@@@8??0invalid_argument@std@@QAE@ABV01@@Z12 00509dc8     libcpmt:xthrow.obj
 0002:00027de8       __CT??_R0?AVlogic_error@std@@@8??0logic_error@std@@QAE@ABV01@@Z12 00509de8     libcpmt:xthrow.obj
 0002:00027e08       __TI3?AVlength_error@std@@ 00509e08     libcpmt:xthrow.obj
 0002:00027e1c       __CTA3?AVlength_error@std@@ 00509e1c     libcpmt:xthrow.obj
 0002:00027e30       __CT??_R0?AVlength_error@std@@@8??0length_error@std@@QAE@ABV01@@Z12 00509e30     libcpmt:xthrow.obj
 0002:00027e50       __TI3?AVout_of_range@std@@ 00509e50     libcpmt:xthrow.obj
 0002:00027e64       __CTA3?AVout_of_range@std@@ 00509e64     libcpmt:xthrow.obj
 0002:00027e78       __CT??_R0?AVout_of_range@std@@@8??0out_of_range@std@@QAE@ABV01@@Z12 00509e78     libcpmt:xthrow.obj
 0002:00027e98       __TI3?AVoverflow_error@std@@ 00509e98     libcpmt:xthrow.obj
 0002:00027eac       __CTA3?AVoverflow_error@std@@ 00509eac     libcpmt:xthrow.obj
 0002:00027ec0       __CT??_R0?AVoverflow_error@std@@@8??0overflow_error@std@@QAE@ABV01@@Z12 00509ec0     libcpmt:xthrow.obj
 0002:00027ee0       __CT??_R0?AVruntime_error@std@@@8??0runtime_error@std@@QAE@ABV01@@Z12 00509ee0     libcpmt:xthrow.obj
 0002:00027f00       __TI2?AVruntime_error@std@@ 00509f00     libcpmt:xthrow.obj
 0002:00027f14       __CTA2?AVruntime_error@std@@ 00509f14     libcpmt:xthrow.obj
 0002:00027f24       __TI2?AVbad_function_call@std@@ 00509f24     libcpmt:xthrow.obj
 0002:00027f38       __CTA2?AVbad_function_call@std@@ 00509f38     libcpmt:xthrow.obj
 0002:00027f48       __CT??_R0?AVbad_function_call@std@@@8??0bad_function_call@std@@QAE@ABV01@@Z12 00509f48     libcpmt:xthrow.obj
 0002:00027f68       __TI3?AVregex_error@std@@  00509f68     libcpmt:xthrow.obj
 0002:00027f7c       __CTA3?AVregex_error@std@@ 00509f7c     libcpmt:xthrow.obj
 0002:00027f90       __CT??_R0?AVregex_error@std@@@8??0regex_error@std@@QAE@ABV01@@Z16 00509f90     libcpmt:xthrow.obj
 0002:000280d0       __TI2?AVbad_exception@std@@ 0050a0d0     libvcruntime:frame.obj
 0002:000280e4       __CTA2?AVbad_exception@std@@ 0050a0e4     libvcruntime:frame.obj
 0002:000280f4       __CT??_R0?AVbad_exception@std@@@8??0bad_exception@std@@QAE@ABV01@@Z12 0050a0f4     libvcruntime:frame.obj
 0003:00000050       ?admin_showtimer_table@@3PAUadmin_table_struct@@A 0050b050     adminfn.obj
 0003:000000ec       ?admin_check_table@@3PAUadmin_table_struct@@A 0050b0ec     adminfn.obj
 0003:00000120       ?admin_show_table@@3PAUadmin_table_struct@@A 0050b120     adminfn.obj
 0003:0000090c       ?admin_add_table@@3PAUadmin_table_struct@@A 0050b90c     adminfn.obj
 0003:00000940       ?admin_setacco_table@@3PAUadmin_table_struct@@A 0050b940     adminfn.obj
 0003:00000a44       ?admin_recreate_table@@3PAUadmin_table_struct@@A 0050ba44     adminfn.obj
 0003:00000a78       ?admin_suspend_table@@3PAUadmin_table_struct@@A 0050ba78     adminfn.obj
 0003:00000ae0       ?admin_unsuspend_table@@3PAUadmin_table_struct@@A 0050bae0     adminfn.obj
 0003:00000b48       ?admin_setcfg_table@@3PAUadmin_table_struct@@A 0050bb48     adminfn.obj
 0003:00000be4       ?admin_reset_table@@3PAUadmin_table_struct@@A 0050bbe4     adminfn.obj
 0003:00000c18       ?admin_set_table@@3PAUadmin_table_struct@@A 0050bc18     adminfn.obj
 0003:00000ce8       ?admin_create_table@@3PAUadmin_table_struct@@A 0050bce8     adminfn.obj
 0003:00000f58       ?admin_delete_table@@3PAUadmin_table_struct@@A 0050bf58     adminfn.obj
 0003:00001028       ?admin_send_table@@3PAUadmin_table_struct@@A 0050c028     adminfn.obj
 0003:0000112c       ?admin_disable_table@@3PAUadmin_table_struct@@A 0050c12c     adminfn.obj
 0003:00001160       ?admin_trace_table@@3PAUadmin_table_struct@@A 0050c160     adminfn.obj
 0003:000011c8       ?admin_kickoff_table@@3PAUadmin_table_struct@@A 0050c1c8     adminfn.obj
 0003:00001230       ?admin_hangup_table@@3PAUadmin_table_struct@@A 0050c230     adminfn.obj
 0003:00001334       ?admin_enable_table@@3PAUadmin_table_struct@@A 0050c334     adminfn.obj
 0003:00001368       ?admin_reload_table@@3PAUadmin_table_struct@@A 0050c368     adminfn.obj
 0003:00001438       ?admin_terminate_table@@3PAUadmin_table_struct@@A 0050c438     adminfn.obj
 0003:000014a0       ?admin_save_table@@3PAUadmin_table_struct@@A 0050c4a0     adminfn.obj
 0003:00001508       ?admin_main_table@@3PAUadmin_table_struct@@A 0050c508     adminfn.obj
 0003:00002004       ?bi_accounts@@3PAUbi_account@@A 0050d004     builtin.obj
 0003:0000201c       ?channel_table@@3PAUchannel_table_type@@A 0050d01c     channel.obj
 0003:00002068       ?config_table@@3PAUconfig_table_type@@A 0050d068     config.obj
 0003:00002dd8       ?memory_stat_names@@3PAPBDA 0050ddd8     memory.obj
 0003:00002e54       ?beacon_str@@3PAEA         0050de54     resync.obj
 0003:00002e64       ?trace_session_id@@3HA     0050de64     sendmsg.obj
 0003:00002e68       ?client_def_table@@3PAUclient_def_table_type@@A 0050de68     sprocket.obj
 0003:00005204       ?num_client_msgs@@3HA      00510204     sprocket.obj
 0003:00005208       ?system_def_table@@3PAUclient_def_table_type@@A 00510208     sprocket.obj
 0003:00005360       ?num_system_msgs@@3HA      00510360     sprocket.obj
 0003:00005364       ?num_usercommand_msgs@@3HA 00510364     sprocket.obj
 0003:00005368       ?usercommand_def_table@@3PAUclient_def_table_type@@A 00510368     sprocket.obj
 0003:00007638       ?tell_cli_str@@3PAEA       00512638     trysync.obj
 0003:00007644       ?detect_str@@3PAEA         00512644     trysync.obj
 0003:00007654       _AddressFamilyInformation  00512654     ws2_32:indef.obj
 0003:0000767c       ___security_cookie_complement 0051267c     LIBCMT:gs_cookie.obj
 0003:00007680       ___security_cookie         00512680     LIBCMT:gs_cookie.obj
 0003:00007690       __fltused                  00512690     LIBCMT:fltused.obj
 0003:00007694       ?_RTC_ErrorLevels@@3PAHA   00512694     LIBCMT:_error_.obj
 0003:000076b0       ___scrt_native_dllmain_reason 005126b0     LIBCMT:utility.obj
 0003:000076b4       ___scrt_default_matherr    005126b4     LIBCMT:matherr.obj
 0003:000076b8       ___isa_enabled             005126b8     LIBCMT:_cpu_disp_.obj
 0003:000076d0       __NLG_Destination          005126d0     libvcruntime:_exsup_.obj
 0003:000076f8       __lookuptrailbytes         005126f8     libucrt:read.obj
 0003:00007830       ___abort_behavior          00512830     libucrt:abort.obj
 0003:00007840       __iob                      00512840     libucrt:_file.obj
 0003:0000790c       ___mb_cur_max              0051290c     libucrt:nlsdata.obj
 0003:00007910       ___acrt_initial_locale_data 00512910     libucrt:nlsdata.obj
 0003:000079ec       ___acrt_initial_locale_pointers 005129ec     libucrt:nlsdata.obj
 0003:000079f8       ___acrt_wide_c_locale_string 005129f8     libucrt:nlsdata.obj
 0003:00007a00       ___badioinfo               00512a00     libucrt:ioinit.obj
 0003:00007a3c       __pctype                   00512a3c     libucrt:ctype.obj
 0003:00007a40       __pwctype                  00512a40     libucrt:ctype.obj
 0003:00007c50       __mbctype                  00512c50     libucrt:mbctype.obj
 0003:00007d88       __mbcasemap                00512d88     libucrt:mbctype.obj
 0003:00007ec0       ___acrt_initial_multibyte_data 00512ec0     libucrt:mbctype.obj
 0003:0000814c       ___acrt_current_multibyte_data 0051314c     libucrt:mbctype.obj
 0003:00008150       ___acrt_lconv_static_decimal 00513150     libucrt:localeconv.obj
 0003:00008154       ___acrt_lconv_static_W_decimal 00513154     libucrt:localeconv.obj
 0003:00008158       ___acrt_lconv_c            00513158     libucrt:localeconv.obj
 0003:000081b8       ___acrt_lconv              005131b8     libucrt:localeconv.obj
 0003:000081bc       ___globallocalestatus      005131bc     libucrt:glstatus.obj
 0003:000081c0       ___dcrt_lowio_console_output_handle 005131c0     libucrt:initcon.obj
 0003:0000830c       ??_R0?AVbad_alloc@std@@@8  0051330c     LIBCMT:throw_bad_alloc.obj
 0003:00008330       ??_R0?AVexception@std@@@8  00513330     LIBCMT:throw_bad_alloc.obj
 0003:00008354       ??_R0?AVbad_array_new_length@std@@@8 00513354     LIBCMT:throw_bad_alloc.obj
 0003:00008384       ??_R0?AVtype_info@@@8      00513384     LIBCMT:std_type_info_static.obj
 0003:000083a0       ??_R0?AVinvalid_argument@std@@@8 005133a0     libcpmt:xthrow.obj
 0003:000083cc       ??_R0?AVlogic_error@std@@@8 005133cc     libcpmt:xthrow.obj
 0003:000083f0       ??_R0?AVlength_error@std@@@8 005133f0     libcpmt:xthrow.obj
 0003:00008418       ??_R0?AVout_of_range@std@@@8 00513418     libcpmt:xthrow.obj
 0003:00008440       ??_R0?AVoverflow_error@std@@@8 00513440     libcpmt:xthrow.obj
 0003:00008468       ??_R0?AVruntime_error@std@@@8 00513468     libcpmt:xthrow.obj
 0003:00008490       ??_R0?AVbad_function_call@std@@@8 00513490     libcpmt:xthrow.obj
 0003:000084bc       ??_R0?AVregex_error@std@@@8 005134bc     libcpmt:xthrow.obj
 0003:000084e0       ??_R0?AVbad_exception@std@@@8 005134e0     libvcruntime:frame.obj
 0003:00008508       ??_R0?AVDNameNode@@@8      00513508     libvcruntime:undname.obj
 0003:00008524       ??_R0?AVcharNode@@@8       00513524     libvcruntime:undname.obj
 0003:00008540       ??_R0?AVpcharNode@@@8      00513540     libvcruntime:undname.obj
 0003:0000855c       ??_R0?AVpDNameNode@@@8     0051355c     libvcruntime:undname.obj
 0003:0000857c       ??_R0?AVDNameStatusNode@@@8 0051357c     libvcruntime:undname.obj
 0003:000085a0       ??_R0?AVpairNode@@@8       005135a0     libvcruntime:undname.obj
 0003:000086c8       ?_OptionsStorage@?1??__local_stdio_printf_options@@9@4_KA 005136c8     md5.obj
 0003:000086d4       ?accounts@@3PAUaccount_node_struct@@A 005136d4     account.obj
 0003:000086d8       ?next_account_id@@3HA      005136d8     account.obj
 0003:000086dc       ?console_account_node@@3Uaccount_node_struct@@A 005136dc     account.obj
 0003:00008700       ?console_account@@3PAUaccount_node_struct@@A 00513700     account.obj
 0003:00008718       ?_OptionsStorage@?1??__local_stdio_scanf_options@@9@4_KA 00513718     account.obj
 0003:00008724       ?admin_constants@@3PAUadmin_constant_struct@@A 00513724     admincons.obj
 0003:00008728       ?nameid_count@@3HA         00513728     adminfn.obj
 0003:0000872c       ?accounts_in_game@@3HA     0051372c     adminfn.obj
 0003:00008730       ?admin_session_id@@3HA     00513730     adminfn.obj
 0003:000087bc       ?maintenance_masks@@3PAPADA 005137bc     async_windows.obj
 0003:000087f8       ?num_maintenance_masks@@3HA 005137f8     async_windows.obj
 0003:000087fc       ?maintenance_buffer@@3PADA 005137fc     async_windows.obj
 0003:00008844       ?buffers@@3PAUbuffer_struct@@A 00513844     bufpool.obj
 0003:00008848       ?next_buffer_id@@3HA       00513848     bufpool.obj
 0003:0000884c       ?csBuffers@@3U_RTL_CRITICAL_SECTION@@A 0051384c     bufpool.obj
 0003:0000c0c0       ?channel_buffers@@3PAUchannel_buffer_node@@A 005170c0     chanbuf.obj
 0003:0001ac10       ?head_buffer@@3HA          00525c10     chanbuf.obj
 0003:0001ac14       ?tail_buffer@@3HA          00525c14     chanbuf.obj
 0003:0001ac18       ?csChannel_buffers@@3U_RTL_CRITICAL_SECTION@@A 00525c18     chanbuf.obj
 0003:0001db48       ?channel@@3PAUchannel_node@@A 00528b48     channel.obj
 0003:0001db78       ?configs@@3PAUconfig_node@@A 00528b78     config.obj
 0003:0001e538       ?csDynamic_config@@3U_RTL_CRITICAL_SECTION@@A 00529538     config.obj
 0003:0001e748       ?queue@@3Usql_queue@@A     00529748     database.obj
 0003:0001e758       ?hMySQLWorker@@3PAXA       00529758     database.obj
 0003:0001e75c       ?state@@3W4sql_worker_state@@A 0052975c     database.obj
 0003:0001e760       ?mysql@@3PAUst_mysql@@A    00529760     database.obj
 0003:0001e764       ?host@@3PADA               00529764     database.obj
 0003:0001e768       ?user@@3PADA               00529768     database.obj
 0003:0001e76c       ?password@@3PADA           0052976c     database.obj
 0003:0001e770       ?db@@3PADA                 00529770     database.obj
 0003:0001e77c       ?dllist@@3PAUdllist_struct@@A 0052977c     dllist.obj
 0003:0001e790       ?game_lock@@3DA            00529790     gamelock.obj
 0003:0001e798       ?reason_str@@3PADA         00529798     gamelock.obj
 0003:0001e97c       ?next_renumber@@3HA        0052997c     garbage.obj
 0003:0001e980       ?next_timer_renumber@@3HA  00529980     garbage.obj
 0003:0001e984       ?next_string_renumber@@3HA 00529984     garbage.obj
 0003:0001e988       ?next_list_renumber@@3HA   00529988     garbage.obj
 0003:0001e98c       ?next_table_renumber@@3HA  0052998c     garbage.obj
 0003:0001e998       ?hInst@@3PAUHINSTANCE__@@A 00529998     interface_windows.obj
 0003:0001e99c       ?window_display@@3HA       0052999c     interface_windows.obj
 0003:0001e9a0       ?hEvent@@3PAXA             005299a0     interface_windows.obj
 0003:0001e9a4       ?hwndTab@@3PAUHWND__@@A    005299a4     interface_windows.obj
 0003:0001e9a8       ?hwndLV@@3PAUHWND__@@A     005299a8     interface_windows.obj
 0003:0001e9ac       ?hwndTab_page@@3PAUHWND__@@A 005299ac     interface_windows.obj
 0003:0001e9b0       ?tab_pages@@3PAPAUHWND__@@A 005299b0     interface_windows.obj
 0003:0001e9bc       ?tab_about@@3PAUHWND__@@A  005299bc     interface_windows.obj
 0003:0001e9c0       ?is_about@@3DA             005299c0     interface_windows.obj
 0003:0001e9c1       ?is_timer_pending@@3DA     005299c1     interface_windows.obj
 0003:0001e9c4       ?hwndMain@@3PAUHWND__@@A   005299c4     interface_windows.obj
 0003:0001e9c8       ?admin_response_buf@@3PADA 005299c8     interface_windows.obj
 0003:0005e9cc       ?len_admin_response_buf@@3HA 005699cc     interface_windows.obj
 0003:0005e9d0       ?console_session_id@@3HA   005699d0     interface_windows.obj
 0003:0005e9d4       ?sessions_logged_on@@3HA   005699d4     interface_windows.obj
 0003:0006b6bc       ?muxServer@@3PAXA          005766bc     intrlock.obj
 0003:0006b6c0       ?csQuit@@3U_RTL_CRITICAL_SECTION@@A 005766c0     intrlock.obj
 0003:0006b6d8       ?quit@@3DA                 005766d8     intrlock.obj
 0003:0006b6e0       ?current_class@@3PAUclass_struct@@A 005766e0     kodbase.obj
 0003:0006b6e4       ?list_nodes@@3PAUlist_node@@A 005766e4     list.obj
 0003:0006b6e8       ?num_nodes@@3HA            005766e8     list.obj
 0003:0006b6ec       ?max_nodes@@3HA            005766ec     list.obj
 0003:0006b6f4       ?lineno@@3HA               005766f4     loadacco.obj
 0003:0006b6f8       ?loadfile@@3Uloaded_file_struct@@A 005766f8     loadgame.obj
 0003:0006b904       ?current_object_id@@3HA    00576904     loadgame.obj
 0003:0006b908       ?current_object_class_id@@3HA 00576908     loadgame.obj
 0003:0006b90c       ?load_game_classes_table_size@@3HA 0057690c     loadgame.obj
 0003:0006b910       ?load_game_classes@@3PAPAUload_game_class_struct@@A 00576910     loadgame.obj
 0003:0006b914       ?load_game_resources@@3PAUishash_table@@A 00576914     loadgame.obj
 0003:0006b918       ?savegame_version@@3HA     00576918     loadgame.obj
 0003:0006b98c       ?mem_files@@3PAUloaded_bof_struct@@A 0057698c     loadkod.obj
 0003:0006b990       ?main_thread_id@@3KA       00576990     main.obj
 0003:0006b998       ?memory_stat@@3Umemory_statistics@@A 00576998     memory.obj
 0003:0006ba1c       ?motd@@3PADA               00576a1c     motd.obj
 0003:0006ba34       ?objects@@3PAUobject_node@@A 00576a34     object.obj
 0003:0006ba38       ?num_objects@@3HA          00576a38     object.obj
 0003:0006ba3c       ?max_objects@@3HA          00576a3c     object.obj
 0003:0006ba48       ?user_table@@3PAUclient_table_node@@A 00576a48     parsecli.obj
 0003:0006ba4c       ?system_table@@3PAUclient_table_node@@A 00576a4c     parsecli.obj
 0003:0006ba50       ?usercommand_table@@3PAUclient_table_node@@A 00576a50     parsecli.obj
 0003:0006ba58       ?cli_list_nodes@@3PATval_type@@A 00576a58     parsecli.obj
 0003:0006babc       ?idcounter@@3HA            00576abc     roomdata.obj
 0003:0006bac0       ?rooms@@3PAPAUroom_node@@A 00576ac0     roomdata.obj
 0003:0006bac8       ?accofile@@3PAU_iobuf@@A   00576ac8     saveacco.obj
 0003:0006bacc       ?savefile@@3PAU_iobuf@@A   00576acc     savegame.obj
 0003:0006bae4       ?dynamic_rsc_count@@3HA    00576ae4     saversc.obj
 0003:0006bb00       ?strfile@@3PAU_iobuf@@A    00576b00     savestr.obj
 0003:0006bb18       ?message_depth@@3HA        00576b18     sendmsg.obj
 0003:0006bb1c       ?bkod@@3PADA               00576b1c     sendmsg.obj
 0003:0006bb20       ?stack@@3PAUkod_stack_type@@A 00576b20     sendmsg.obj
 0003:0017d220       ?kod_stat@@3Ukod_statistics@@A 00688220     sendmsg.obj
 0003:0017e260       ?num_interpreted@@3HA      00689260     sendmsg.obj
 0003:0017e264       ?done@@3HA                 00689264     sendmsg.obj
 0003:0017e268       ?post_q@@3Upost_queue_type@@A 00689268     sendmsg.obj
 0003:00399370       ?ccall_table@@3PAP6AHHPAUlocal_var_type@@HQAUparm_node@@H1@ZA 008a4370     sendmsg.obj
 0003:00399770       ?opcode_table@@3PAP6AXHPAUlocal_var_type@@@ZA 008a4770     sendmsg.obj
 0003:0043dca0       ?epoch@@3EA                00948ca0     session.obj
 0003:0043dca4       ?sessions@@3PAUsession_node@@A 00948ca4     session.obj
 0003:0043dca8       ?num_sessions@@3HA         00948ca8     session.obj
 0003:0043dcac       ?csSessions@@3U_RTL_CRITICAL_SECTION@@A 00948cac     session.obj
 0003:0043dcc4       ?transmitted_bytes@@3HA    00948cc4     session.obj
 0003:004656ac       ?strings@@3PAUstring_node@@A 009706ac     string.obj
 0003:004656b0       ?num_strings@@3HA          009706b0     string.obj
 0003:004656b4       ?max_strings@@3HA          009706b4     string.obj
 0003:004656b8       ?temp_str@@3Ustring_node@@A 009706b8     string.obj
 0003:004656c8       ?num_with_same_ip@@3HA     009706c8     synched.obj
 0003:004656cc       ?check_addr@@3Uin6_addr@@A 009706cc     synched.obj
 0003:004656e0       ?system_obj_id@@3HA        009706e0     system.obj
 0003:004656e4       ?settings_obj_id@@3HA      009706e4     system.obj
 0003:004656e8       ?realtime_obj_id@@3HA      009706e8     system.obj
 0003:004656ec       ?eventengine_obj_id@@3HA   009706ec     system.obj
 0003:004656f4       ?systimers@@3PAUsystimer_struct@@A 009706f4     systimer.obj
 0003:004656f8       ?tables@@3PAUtable_struct@@A 009706f8     table.obj
 0003:004656fc       ?num_tables@@3HA           009706fc     table.obj
 0003:00465700       ?max_num_tables@@3HA       00970700     table.obj
 0003:004674ec       ?timer_heap@@3PAPAUtimer_struct@@A 009724ec     timer.obj
 0003:004674f0       ?num_timer_nodes@@3HA      009724f0     timer.obj
 0003:004674f4       ?next_timer_num@@3HA       009724f4     timer.obj
 0003:004674f8       ?pause_time@@3HA           009724f8     timer.obj
 0003:00467500       ?users@@3PAUuser_struct@@A 00972500     user.obj
 0003:004678d8       ___scrt_current_native_startup_state 009728d8     LIBCMT:utility.obj
 0003:004678dc       ___scrt_native_startup_lock 009728dc     LIBCMT:utility.obj
 0003:00467900       ?__type_info_root_node@@3U__type_info_node@@A 00972900     LIBCMT:tncleanup.obj
 0003:0046790c       ___scrt_debugger_hook_flag 0097290c     LIBCMT:utility_desktop.obj
 0003:00467910       ___isa_available           00972910     LIBCMT:_cpu_disp_.obj
 0003:00467914       ___favor                   00972914     LIBCMT:_cpu_disp_.obj
 0003:0046794c       ?g_OutOfMemoryExceptionCallback@@3P6GPAXXZA 0097294c     libvcruntime:frame.obj
 0003:004679b4       ___pPurecall               009729b4     libvcruntime:purevirt_data.obj
 0003:004679b8       ?pArgList@UnDecorator@@0PAVReplicator@@A 009729b8     libvcruntime:undname.obj
 0003:004679bc       ?pZNameList@UnDecorator@@0PAVReplicator@@A 009729bc     libvcruntime:undname.obj
 0003:004679c0       ?pTemplateArgList@UnDecorator@@0PAVReplicator@@A 009729c0     libvcruntime:undname.obj
 0003:004679c4       ?gName@UnDecorator@@0PBDB  009729c4     libvcruntime:undname.obj
 0003:004679c8       ?name@UnDecorator@@0PBDB   009729c8     libvcruntime:undname.obj
 0003:004679cc       ?outputString@UnDecorator@@0PADA 009729cc     libvcruntime:undname.obj
 0003:004679d0       ?maxStringLength@UnDecorator@@0HA 009729d0     libvcruntime:undname.obj
 0003:004679d4       ?disableFlags@UnDecorator@@0KA 009729d4     libvcruntime:undname.obj
 0003:004679d8       ?fExplicitTemplateParams@UnDecorator@@0_NA 009729d8     libvcruntime:undname.obj
 0003:004679d9       ?fGetTemplateArgumentList@UnDecorator@@0_NA 009729d9     libvcruntime:undname.obj
 0003:004679dc       ?m_pGetParameter@UnDecorator@@0P6APADJ@ZA 009729dc     libvcruntime:undname.obj
 0003:00467a00       ?nodes@?1??make@DNameStatusNode@@SAPAV2@W4DNameStatus@@@Z@4PAV2@A 00972a00     libvcruntime:undname.obj
 0003:00467a3c       ??_B?1??make@DNameStatusNode@@SAPAV1@W4DNameStatus@@@Z@51 00972a3c     libvcruntime:undname.obj
 0003:00468574       __environ_table            00973574     libucrt:environment_initialization.obj
 0003:00468578       __wenviron_table           00973578     libucrt:environment_initialization.obj
 0003:00468580       ___dcrt_initial_wide_environment 00973580     libucrt:environment_initialization.obj
 0003:00468584       ___dcrt_initial_narrow_environment 00973584     libucrt:environment_initialization.obj
 0003:00468590       ___acrt_locale_changed_data 00973590     libucrt:wsetlocale.obj
 0003:00468598       __commode                  00973598     libucrt:ncommode.obj
 0003:0046859c       ___acrt_atexit_table       0097359c     libucrt:onexit.obj
 0003:004685ac       ___acrt_at_quick_exit_table 009735ac     libucrt:onexit.obj
 0003:004685bc       __nstream                  009735bc     libucrt:_file.obj
 0003:004685c0       ___piob                    009735c0     libucrt:_file.obj
 0003:004685c8       __cflush                   009735c8     libucrt:_file.obj
 0003:004685d0       ___acrt_stdout_buffer      009735d0     libucrt:_sftbuf.obj
 0003:004685d4       ___acrt_stderr_buffer      009735d4     libucrt:_sftbuf.obj
 0003:004685d8       ___acrt_current_locale_data 009735d8     libucrt:nlsdata.obj
 0003:004685e0       ___pioinfo                 009735e0     libucrt:ioinit.obj
 0003:00468848       __nhandle                  00973848     libucrt:ioinit.obj
 0003:0046884c       ___fastflag                0097384c     libucrt:fp_flags.obj
 0003:00468af0       ?_timezone@@3V?$dual_state_global@J@__crt_state_management@@A 00973af0     libucrt:timeset.obj
 0003:00468af4       ?_daylight@@3V?$dual_state_global@H@__crt_state_management@@A 00973af4     libucrt:timeset.obj
 0003:00468af8       ?_dstbias@@3V?$dual_state_global@J@__crt_state_management@@A 00973af8     libucrt:timeset.obj
 0003:00468be4       ___mblocalename            00973be4     libucrt:mbctype.obj
 0003:00468be8       ___mbcodepage              00973be8     libucrt:mbctype.obj
 0003:00468bec       ___ismbcodepage            00973bec     libucrt:mbctype.obj
 0003:00468bf0       ___mbulinfo                00973bf0     libucrt:mbctype.obj
 0003:00468c04       ___argc                    00973c04     libucrt:argv_data.obj
 0003:00468c08       ___argv                    00973c08     libucrt:argv_data.obj
 0003:00468c0c       ___wargv                   00973c0c     libucrt:argv_data.obj
 0003:00468c10       __acmdln                   00973c10     libucrt:argv_data.obj
 0003:00468c14       __wcmdln                   00973c14     libucrt:argv_data.obj
 0003:00468c18       __pgmptr                   00973c18     libucrt:argv_data.obj
 0003:00468c1c       __wpgmptr                  00973c1c     libucrt:argv_data.obj
 0003:00468c20       __fmode                    00973c20     libucrt:txtmode.obj
 0003:00468c24       ___acrt_lconv_static_null  00973c24     libucrt:localeconv.obj
 0003:00468c28       ___acrt_lconv_static_W_null 00973c28     libucrt:localeconv.obj
 0003:00468c2c       ___acrt_heap               00973c2c     libucrt:heap_handle.obj
 0003:00468c30       __umaskval                 00973c30     libucrt:umask.obj
 0003:00468c38       ___scrt_ucrt_dll_is_in_use 00973c38     <common>
 0003:00468c44       ___dyn_tls_dtor_callback   00973c44     <common>
 0003:00468c50       ___dyn_tls_init_callback   00973c50     <common>
 0003:00468c5c       __pmatherr                 00973c5c     <common>
 0003:00468c68       ___use_sse2_mathfcns       00973c68     <common>
 0004:00000000       __imp__InitCommonControls@0 00974000     comctl32:COMCTL32.dll
 0004:00000004       __imp__CreateStatusWindowA@16 00974004     comctl32:COMCTL32.dll
 0004:00000008       \177COMCTL32_NULL_THUNK_DATA 00974008     comctl32:COMCTL32.dll
 0004:00000034       __imp__GetStockObject@4    00974034     gdi32:GDI32.dll
 0004:00000038       __imp__CreateFontIndirectA@4 00974038     gdi32:GDI32.dll
 0004:0000003c       \177GDI32_NULL_THUNK_DATA  0097403c     gdi32:GDI32.dll
 0004:00000068       __imp__SetEndOfFile@4      00974068     kernel32:KERNEL32.dll
 0004:0000006c       __imp__SetEnvironmentVariableW@8 0097406c     kernel32:KERNEL32.dll
 0004:00000070       __imp__SetEnvironmentVariableA@8 00974070     kernel32:KERNEL32.dll
 0004:00000074       __imp__FreeEnvironmentStringsW@4 00974074     kernel32:KERNEL32.dll
 0004:00000078       __imp__GetEnvironmentStringsW@0 00974078     kernel32:KERNEL32.dll
 0004:0000007c       __imp__GetCommandLineW@0   0097407c     kernel32:KERNEL32.dll
 0004:00000080       __imp__GetCommandLineA@0   00974080     kernel32:KERNEL32.dll
 0004:00000084       __imp__GetCPInfo@8         00974084     kernel32:KERNEL32.dll
 0004:00000088       __imp__GetOEMCP@0          00974088     kernel32:KERNEL32.dll
 0004:0000008c       __imp__IsValidCodePage@4   0097408c     kernel32:KERNEL32.dll
 0004:00000090       __imp__FindNextFileW@8     00974090     kernel32:KERNEL32.dll
 0004:00000094       __imp__FindFirstFileExW@24 00974094     kernel32:KERNEL32.dll
 0004:00000098       __imp__FindFirstFileExA@24 00974098     kernel32:KERNEL32.dll
 0004:0000009c       __imp__MoveFileExW@12      0097409c     kernel32:KERNEL32.dll
 0004:000000a0       __imp__HeapReAlloc@16      009740a0     kernel32:KERNEL32.dll
 0004:000000a4       __imp__SetFilePointerEx@20 009740a4     kernel32:KERNEL32.dll
 0004:000000a8       __imp__SetConsoleCtrlHandler@8 009740a8     kernel32:KERNEL32.dll
 0004:000000ac       __imp__WaitForSingleObjectEx@12 009740ac     kernel32:KERNEL32.dll
 0004:000000b0       __imp__OutputDebugStringW@4 009740b0     kernel32:KERNEL32.dll
 0004:000000b4       __imp__OutputDebugStringA@4 009740b4     kernel32:KERNEL32.dll
 0004:000000b8       __imp__SetStdHandle@8      009740b8     kernel32:KERNEL32.dll
 0004:000000bc       __imp__EnumSystemLocalesW@8 009740bc     kernel32:KERNEL32.dll
 0004:000000c0       __imp__GetUserDefaultLCID@0 009740c0     kernel32:KERNEL32.dll
 0004:000000c4       __imp__IsValidLocale@8     009740c4     kernel32:KERNEL32.dll
 0004:000000c8       __imp__GetLocaleInfoW@16   009740c8     kernel32:KERNEL32.dll
 0004:000000cc       __imp__LCMapStringW@24     009740cc     kernel32:KERNEL32.dll
 0004:000000d0       __imp__CompareStringW@24   009740d0     kernel32:KERNEL32.dll
 0004:000000d4       __imp__GetFileAttributesExW@12 009740d4     kernel32:KERNEL32.dll
 0004:000000d8       __imp__GetDateFormatW@24   009740d8     kernel32:KERNEL32.dll
 0004:000000dc       __imp__GetFullPathNameA@16 009740dc     kernel32:KERNEL32.dll
 0004:000000e0       __imp__GetFullPathNameW@16 009740e0     kernel32:KERNEL32.dll
 0004:000000e4       __imp__GetCurrentDirectoryW@8 009740e4     kernel32:KERNEL32.dll
 0004:000000e8       __imp__SetCurrentDirectoryW@4 009740e8     kernel32:KERNEL32.dll
 0004:000000ec       __imp__FlushFileBuffers@4  009740ec     kernel32:KERNEL32.dll
 0004:000000f0       __imp__GetStringTypeW@16   009740f0     kernel32:KERNEL32.dll
 0004:000000f4       __imp__GetCurrentThread@0  009740f4     kernel32:KERNEL32.dll
 0004:000000f8       __imp__GetConsoleCP@0      009740f8     kernel32:KERNEL32.dll
 0004:000000fc       __imp__ReadConsoleW@20     009740fc     kernel32:KERNEL32.dll
 0004:00000100       __imp__GetConsoleMode@8    00974100     kernel32:KERNEL32.dll
 0004:00000104       __imp__GetACP@0            00974104     kernel32:KERNEL32.dll
 0004:00000108       __imp__WriteFile@20        00974108     kernel32:KERNEL32.dll
 0004:0000010c       __imp__ReadFile@20         0097410c     kernel32:KERNEL32.dll
 0004:00000110       __imp__WriteConsoleW@20    00974110     kernel32:KERNEL32.dll
 0004:00000114       __imp__GetModuleFileNameA@12 00974114     kernel32:KERNEL32.dll
 0004:00000118       __imp__GetStdHandle@4      00974118     kernel32:KERNEL32.dll
 0004:0000011c       __imp__ExitProcess@4       0097411c     kernel32:KERNEL32.dll
 0004:00000120       __imp__GetModuleHandleExW@12 00974120     kernel32:KERNEL32.dll
 0004:00000124       __imp__FreeLibraryAndExitThread@8 00974124     kernel32:KERNEL32.dll
 0004:00000128       __imp__ResumeThread@4      00974128     kernel32:KERNEL32.dll
 0004:0000012c       __imp__ExitThread@4        0097412c     kernel32:KERNEL32.dll
 0004:00000130       __imp__CreateThread@24     00974130     kernel32:KERNEL32.dll
 0004:00000134       __imp__FileTimeToSystemTime@8 00974134     kernel32:KERNEL32.dll
 0004:00000138       __imp__SystemTimeToTzSpecificLocalTime@12 00974138     kernel32:KERNEL32.dll
 0004:0000013c       __imp__PeekNamedPipe@24    0097413c     kernel32:KERNEL32.dll
 0004:00000140       __imp__GetFileType@4       00974140     kernel32:KERNEL32.dll
 0004:00000144       __imp__GetDriveTypeW@4     00974144     kernel32:KERNEL32.dll
 0004:00000148       __imp__CreateFileW@28      00974148     kernel32:KERNEL32.dll
 0004:0000014c       __imp__TlsFree@4           0097414c     kernel32:KERNEL32.dll
 0004:00000150       __imp__DeleteFileW@4       00974150     kernel32:KERNEL32.dll
 0004:00000154       __imp__HeapSize@12         00974154     kernel32:KERNEL32.dll
 0004:00000158       __imp__GetTimeFormatW@24   00974158     kernel32:KERNEL32.dll
 0004:0000015c       __imp__TlsSetValue@8       0097415c     kernel32:KERNEL32.dll
 0004:00000160       __imp__TlsGetValue@4       00974160     kernel32:KERNEL32.dll
 0004:00000164       __imp__TlsAlloc@0          00974164     kernel32:KERNEL32.dll
 0004:00000168       __imp__InitializeCriticalSectionAndSpinCount@8 00974168     kernel32:KERNEL32.dll
 0004:0000016c       __imp__DeleteCriticalSection@4 0097416c     kernel32:KERNEL32.dll
 0004:00000170       __imp__EncodePointer@4     00974170     kernel32:KERNEL32.dll
 0004:00000174       __imp__SetLastError@4      00974174     kernel32:KERNEL32.dll
 0004:00000178       __imp__InterlockedFlushSList@4 00974178     kernel32:KERNEL32.dll
 0004:0000017c       __imp__InterlockedPushEntrySList@8 0097417c     kernel32:KERNEL32.dll
 0004:00000180       __imp__LoadLibraryExW@12   00974180     kernel32:KERNEL32.dll
 0004:00000184       __imp__GetModuleFileNameW@12 00974184     kernel32:KERNEL32.dll
 0004:00000188       __imp__RtlUnwind@16        00974188     kernel32:KERNEL32.dll
 0004:0000018c       __imp__GetModuleHandleW@4  0097418c     kernel32:KERNEL32.dll
 0004:00000190       __imp__GetStartupInfoW@4   00974190     kernel32:KERNEL32.dll
 0004:00000194       __imp__GetLastError@0      00974194     kernel32:KERNEL32.dll
 0004:00000198       __imp__InitializeCriticalSection@4 00974198     kernel32:KERNEL32.dll
 0004:0000019c       __imp__EnterCriticalSection@4 0097419c     kernel32:KERNEL32.dll
 0004:000001a0       __imp__LeaveCriticalSection@4 009741a0     kernel32:KERNEL32.dll
 0004:000001a4       __imp__CloseHandle@4       009741a4     kernel32:KERNEL32.dll
 0004:000001a8       __imp__ReleaseMutex@4      009741a8     kernel32:KERNEL32.dll
 0004:000001ac       __imp__WaitForSingleObject@8 009741ac     kernel32:KERNEL32.dll
 0004:000001b0       __imp__CreateMutexA@12     009741b0     kernel32:KERNEL32.dll
 0004:000001b4       __imp__Sleep@4             009741b4     kernel32:KERNEL32.dll
 0004:000001b8       __imp__DeleteFileA@4       009741b8     kernel32:KERNEL32.dll
 0004:000001bc       __imp__FindClose@4         009741bc     kernel32:KERNEL32.dll
 0004:000001c0       __imp__FindFirstFileA@8    009741c0     kernel32:KERNEL32.dll
 0004:000001c4       __imp__FindNextFileA@8     009741c4     kernel32:KERNEL32.dll
 0004:000001c8       __imp__CopyFileA@12        009741c8     kernel32:KERNEL32.dll
 0004:000001cc       __imp__SetEvent@4          009741cc     kernel32:KERNEL32.dll
 0004:000001d0       __imp__CreateEventA@16     009741d0     kernel32:KERNEL32.dll
 0004:000001d4       __imp__LoadLibraryA@4      009741d4     kernel32:KERNEL32.dll
 0004:000001d8       __imp__GetCurrentThreadId@0 009741d8     kernel32:KERNEL32.dll
 0004:000001dc       __imp__FormatMessageA@28   009741dc     kernel32:KERNEL32.dll
 0004:000001e0       __imp__QueryPerformanceCounter@4 009741e0     kernel32:KERNEL32.dll
 0004:000001e4       __imp__QueryPerformanceFrequency@4 009741e4     kernel32:KERNEL32.dll
 0004:000001e8       __imp__GetTimeZoneInformation@4 009741e8     kernel32:KERNEL32.dll
 0004:000001ec       __imp__UnhandledExceptionFilter@4 009741ec     kernel32:KERNEL32.dll
 0004:000001f0       __imp__SetUnhandledExceptionFilter@4 009741f0     kernel32:KERNEL32.dll
 0004:000001f4       __imp__GetCurrentProcess@0 009741f4     kernel32:KERNEL32.dll
 0004:000001f8       __imp__TerminateProcess@8  009741f8     kernel32:KERNEL32.dll
 0004:000001fc       __imp__IsProcessorFeaturePresent@4 009741fc     kernel32:KERNEL32.dll
 0004:00000200       __imp__IsDebuggerPresent@0 00974200     kernel32:KERNEL32.dll
 0004:00000204       __imp__RaiseException@16   00974204     kernel32:KERNEL32.dll
 0004:00000208       __imp__MultiByteToWideChar@24 00974208     kernel32:KERNEL32.dll
 0004:0000020c       __imp__WideCharToMultiByte@32 0097420c     kernel32:KERNEL32.dll
 0004:00000210       __imp__HeapAlloc@12        00974210     kernel32:KERNEL32.dll
 0004:00000214       __imp__HeapFree@12         00974214     kernel32:KERNEL32.dll
 0004:00000218       __imp__GetProcessHeap@0    00974218     kernel32:KERNEL32.dll
 0004:0000021c       __imp__VirtualQuery@12     0097421c     kernel32:KERNEL32.dll
 0004:00000220       __imp__FreeLibrary@4       00974220     kernel32:KERNEL32.dll
 0004:00000224       __imp__GetProcAddress@8    00974224     kernel32:KERNEL32.dll
 0004:00000228       __imp__GetCurrentProcessId@0 00974228     kernel32:KERNEL32.dll
 0004:0000022c       __imp__GetSystemTimeAsFileTime@4 0097422c     kernel32:KERNEL32.dll
 0004:00000230       __imp__InitializeSListHead@4 00974230     kernel32:KERNEL32.dll
 0004:00000234       __imp__DecodePointer@4     00974234     kernel32:KERNEL32.dll
 0004:00000238       \177KERNEL32_NULL_THUNK_DATA 00974238     kernel32:KERNEL32.dll
 0004:000002c0       __imp__mysql_real_connect@32 009742c0     libmysql:LIBMYSQL.dll
 0004:000002c4       __imp__mysql_query@8       009742c4     libmysql:LIBMYSQL.dll
 0004:000002c8       __imp__mysql_close@4       009742c8     libmysql:LIBMYSQL.dll
 0004:000002cc       __imp__mysql_stmt_close@4  009742cc     libmysql:LIBMYSQL.dll
 0004:000002d0       __imp__mysql_stmt_bind_param@8 009742d0     libmysql:LIBMYSQL.dll
 0004:000002d4       __imp__mysql_stmt_execute@4 009742d4     libmysql:LIBMYSQL.dll
 0004:000002d8       __imp__mysql_stmt_prepare@12 009742d8     libmysql:LIBMYSQL.dll
 0004:000002dc       __imp__mysql_stmt_init@4   009742dc     libmysql:LIBMYSQL.dll
 0004:000002e0       __imp__mysql_options@12    009742e0     libmysql:LIBMYSQL.dll
 0004:000002e4       __imp__mysql_ping@4        009742e4     libmysql:LIBMYSQL.dll
 0004:000002e8       __imp__mysql_init@4        009742e8     libmysql:LIBMYSQL.dll
 0004:000002ec       \177LIBMYSQL_NULL_THUNK_DATA 009742ec     libmysql:LIBMYSQL.dll
 0004:00000320       __imp__PostThreadMessageA@16 00974320     user32:USER32.dll
 0004:00000324       __imp__GetMessageA@16      00974324     user32:USER32.dll
 0004:00000328       __imp__TranslateMessage@4  00974328     user32:USER32.dll
 0004:0000032c       __imp__DispatchMessageA@4  0097432c     user32:USER32.dll
 0004:00000330       __imp__SendMessageA@16     00974330     user32:USER32.dll
 0004:00000334       __imp__PostMessageA@16     00974334     user32:USER32.dll
 0004:00000338       __imp__DefWindowProcA@16   00974338     user32:USER32.dll
 0004:0000033c       __imp__PostQuitMessage@4   0097433c     user32:USER32.dll
 0004:00000340       __imp__CallWindowProcA@20  00974340     user32:USER32.dll
 0004:00000344       __imp__RegisterClassA@4    00974344     user32:USER32.dll
 0004:00000348       __imp__CreateWindowExA@48  00974348     user32:USER32.dll
 0004:0000034c       __imp__DestroyWindow@4     0097434c     user32:USER32.dll
 0004:00000350       __imp__ShowWindow@8        00974350     user32:USER32.dll
 0004:00000354       __imp__FlashWindow@8       00974354     user32:USER32.dll
 0004:00000358       __imp__SetWindowPos@28     00974358     user32:USER32.dll
 0004:0000035c       __imp__CreateDialogParamA@20 0097435c     user32:USER32.dll
 0004:00000360       __imp__DialogBoxParamA@20  00974360     user32:USER32.dll
 0004:00000364       __imp__EndDialog@8         00974364     user32:USER32.dll
 0004:00000368       __imp__GetDlgItem@8        00974368     user32:USER32.dll
 0004:0000036c       __imp__MsgWaitForMultipleObjects@20 0097436c     user32:USER32.dll
 0004:00000370       __imp__PeekMessageA@20     00974370     user32:USER32.dll
 0004:00000374       __imp__LoadIconA@8         00974374     user32:USER32.dll
 0004:00000378       __imp__GetDesktopWindow@0  00974378     user32:USER32.dll
 0004:0000037c       __imp__SetWindowLongA@12   0097437c     user32:USER32.dll
 0004:00000380       __imp__OffsetRect@12       00974380     user32:USER32.dll
 0004:00000384       __imp__MessageBeep@4       00974384     user32:USER32.dll
 0004:00000388       __imp__MessageBoxA@16      00974388     user32:USER32.dll
 0004:0000038c       __imp__GetWindowRect@8     0097438c     user32:USER32.dll
 0004:00000390       __imp__GetClientRect@8     00974390     user32:USER32.dll
 0004:00000394       __imp__GetWindowTextA@12   00974394     user32:USER32.dll
 0004:00000398       __imp__SetWindowTextA@8    00974398     user32:USER32.dll
 0004:0000039c       __imp__InvalidateRect@12   0097439c     user32:USER32.dll
 0004:000003a0       __imp__UpdateWindow@4      009743a0     user32:USER32.dll
 0004:000003a4       __imp__GetSystemMetrics@4  009743a4     user32:USER32.dll
 0004:000003a8       __imp__TranslateAcceleratorA@12 009743a8     user32:USER32.dll
 0004:000003ac       __imp__DestroyAcceleratorTable@4 009743ac     user32:USER32.dll
 0004:000003b0       __imp__LoadAcceleratorsA@8 009743b0     user32:USER32.dll
 0004:000003b4       __imp__KillTimer@8         009743b4     user32:USER32.dll
 0004:000003b8       __imp__SetTimer@16         009743b8     user32:USER32.dll
 0004:000003bc       __imp__SetFocus@4          009743bc     user32:USER32.dll
 0004:000003c0       __imp__SendDlgItemMessageA@20 009743c0     user32:USER32.dll
 0004:000003c4       __imp__SetDlgItemTextA@12  009743c4     user32:USER32.dll
 0004:000003c8       __imp__SetDlgItemInt@16    009743c8     user32:USER32.dll
 0004:000003cc       \177USER32_NULL_THUNK_DATA 009743cc     user32:USER32.dll
 0004:00000418       __imp__PlaySoundA@12       00974418     winmm:WINMM.dll
 0004:0000041c       \177WINMM_NULL_THUNK_DATA  0097441c     winmm:WINMM.dll
 0004:00000448       __imp__inet_pton@12        00974448     ws2_32:WS2_32.dll
 0004:0000044c       __imp__inet_ntop@16        0097444c     ws2_32:WS2_32.dll
 0004:00000450       \177WS2_32_NULL_THUNK_DATA 00974450     ws2_32:WS2_32.dll
 0004:0000047c       __imp__send@16             0097447c     wsock32:WSOCK32.dll
 0004:00000480       __imp__setsockopt@20       00974480     wsock32:WSOCK32.dll
 0004:00000484       __imp__socket@12           00974484     wsock32:WSOCK32.dll
 0004:00000488       __imp__accept@12           00974488     wsock32:WSOCK32.dll
 0004:0000048c       __imp__recv@16             0097448c     wsock32:WSOCK32.dll
 0004:00000490       __imp__WSAStartup@8        00974490     wsock32:WSOCK32.dll
 0004:00000494       __imp__WSACleanup@0        00974494     wsock32:WSOCK32.dll
 0004:00000498       __imp__WSAAsyncGetHostByAddr@28 00974498     wsock32:WSOCK32.dll
 0004:0000049c       __imp__WSAAsyncSelect@16   0097449c     wsock32:WSOCK32.dll
 0004:000004a0       __imp__listen@8            009744a0     wsock32:WSOCK32.dll
 0004:000004a4       __imp__htons@4             009744a4     wsock32:WSOCK32.dll
 0004:000004a8       __imp__closesocket@4       009744a8     wsock32:WSOCK32.dll
 0004:000004ac       __imp__getpeername@12      009744ac     wsock32:WSOCK32.dll
 0004:000004b0       __imp__bind@12             009744b0     wsock32:WSOCK32.dll
 0004:000004b4       \177WSOCK32_NULL_THUNK_DATA 009744b4     wsock32:WSOCK32.dll
 0004:000004e8       __IMPORT_DESCRIPTOR_GDI32  009744e8     gdi32:GDI32.dll
 0004:000004fc       __IMPORT_DESCRIPTOR_USER32 009744fc     user32:USER32.dll
 0004:00000510       __IMPORT_DESCRIPTOR_WSOCK32 00974510     wsock32:WSOCK32.dll
 0004:00000524       __IMPORT_DESCRIPTOR_WINMM  00974524     winmm:WINMM.dll
 0004:00000538       __IMPORT_DESCRIPTOR_COMCTL32 00974538     comctl32:COMCTL32.dll
 0004:0000054c       __IMPORT_DESCRIPTOR_LIBMYSQL 0097454c     libmysql:LIBMYSQL.dll
 0004:00000560       __IMPORT_DESCRIPTOR_WS2_32 00974560     ws2_32:WS2_32.dll
 0004:00000574       __IMPORT_DESCRIPTOR_KERNEL32 00974574     kernel32:KERNEL32.dll
 0004:00000588       __NULL_IMPORT_DESCRIPTOR   00974588     gdi32:GDI32.dll
 0006:00000000       ___guard_check_icall_fptr  00977000     LIBCMT:guard_support.obj
