 blakserv

 Timestamp is 5aa48e37 (Sat Mar 10 20:02:31 2018)

 Preferred load address is 00400000

 Start         Length     Name                   Class
 0001:00000000 00073d90H .text$mn                CODE
 0001:00073d90 000001d0H .text$x                 CODE
 0002:00000000 000002e0H .idata$5                DATA
 0002:000002e0 00000004H .00cfg                  DATA
 0002:000002e4 00000004H .CRT$XCA                DATA
 0002:000002e8 00000004H .CRT$XCAA               DATA
 0002:000002ec 00000004H .CRT$XCZ                DATA
 0002:000002f0 00000004H .CRT$XIA                DATA
 0002:000002f4 00000004H .CRT$XIAA               DATA
 0002:000002f8 00000004H .CRT$XIAC               DATA
 0002:000002fc 00000010H .CRT$XIC                DATA
 0002:0000030c 00000004H .CRT$XIZ                DATA
 0002:00000310 00000004H .CRT$XPA                DATA
 0002:00000314 00000008H .CRT$XPX                DATA
 0002:0000031c 00000004H .CRT$XPXA               DATA
 0002:00000320 00000004H .CRT$XPZ                DATA
 0002:00000324 00000004H .CRT$XTA                DATA
 0002:00000328 00000008H .CRT$XTZ                DATA
 0002:00000330 000199a4H .rdata                  DATA
 0002:00019cd4 0000026cH .rdata$r                DATA
 0002:00019f40 0000003cH .rdata$sxdata           DATA
 0002:00019f7c 00000344H .rdata$zzzdbg           DATA
 0002:0001a2c0 00000004H .rtc$IAA                DATA
 0002:0001a2c4 00000004H .rtc$IZZ                DATA
 0002:0001a2c8 00000004H .rtc$TAA                DATA
 0002:0001a2cc 00000004H .rtc$TZZ                DATA
 0002:0001a2d0 00000a84H .xdata$x                DATA
 0002:0001ad54 00000000H .edata                  DATA
 0002:0001ad54 000000a0H .idata$2                DATA
 0002:0001adf4 00000014H .idata$3                DATA
 0002:0001ae08 000002e0H .idata$4                DATA
 0002:0001b0e8 00000bceH .idata$6                DATA
 0003:00000000 00006b80H .data                   DATA
 0003:00006b80 00000100H .data$r                 DATA
 0003:00006c80 003a5104H .bss                    DATA
 0004:00000000 0000009cH .gfids$x                DATA
 0004:0000009c 00000090H .gfids$y                DATA
 0005:00000000 000004e0H .rsrc$01                DATA
 0005:000004e0 0000b1e8H .rsrc$02                DATA

  Address         Publics by Value              Rva+Base       Lib:Object

 0000:00000000       ___guard_longjmp_count     00000000     <absolute>
 0000:00000000       ___guard_fids_table        00000000     <absolute>
 0000:00000000       __except_list              00000000     <absolute>
 0000:00000000       ___guard_longjmp_table     00000000     <absolute>
 0000:00000000       ___guard_fids_count        00000000     <absolute>
 0000:00000000       ___guard_iat_count         00000000     <absolute>
 0000:00000000       ___dynamic_value_reloc_table 00000000     <absolute>
 0000:00000000       ___guard_iat_table         00000000     <absolute>
 0000:0000000f       ___safe_se_handler_count   0000000f     <absolute>
 0000:00000100       ___guard_flags             00000100     <absolute>
 0000:00000000       ___ImageBase               00400000     <linker-defined>
 0001:00000000       ___local_stdio_printf_options 00401000 f i md5.obj
 0001:00000010       __vsnprintf_l              00401010 f i md5.obj
 0001:00000050       _sprintf                   00401050 f i md5.obj
 0001:00000070       ___local_stdio_scanf_options 00401070 f i account.obj
 0001:00000080       _sscanf                    00401080 f i account.obj
 0001:000000b0       _fprintf                   004010b0 f i adminfn.obj
 0001:000000e0       _snprintf                  004010e0 f i ccode.obj
 0001:00000120       ??1?$basic_string@DU?$char_traits@D@std@@V?$allocator@D@2@@std@@QAE@XZ 00401120 f i files.obj
 0001:000001a0       ??0?$basic_string@DU?$char_traits@D@std@@V?$allocator@D@2@@std@@QAE@$$QAV01@@Z 004011a0 f i files.obj
 0001:00000240       ?_Reserve@?$vector@V?$basic_string@DU?$char_traits@D@std@@V?$allocator@D@2@@std@@V?$allocator@V?$basic_string@DU?$char_traits@D@std@@V?$allocator@D@2@@std@@@2@@std@@IAEXI@Z 00401240 f i files.obj
 0001:000002d0       ?assign@?$basic_string@DU?$char_traits@D@std@@V?$allocator@D@2@@std@@QAEAAV12@PBDI@Z 004012d0 f i files.obj
 0001:000003d0       ?assign@?$basic_string@DU?$char_traits@D@std@@V?$allocator@D@2@@std@@QAEAAV12@ABV12@II@Z 004013d0 f i files.obj
 0001:000004e0       ?_Reallocate@?$vector@V?$basic_string@DU?$char_traits@D@std@@V?$allocator@D@2@@std@@V?$allocator@V?$basic_string@DU?$char_traits@D@std@@V?$allocator@D@2@@std@@@2@@std@@IAEXI@Z 004014e0 f i files.obj
 0001:000005d0       ?deallocate@?$_Wrap_alloc@V?$allocator@D@std@@@std@@QAEXPADI@Z 004015d0 f i files.obj
 0001:00000620       ?erase@?$basic_string@DU?$char_traits@D@std@@V?$allocator@D@2@@std@@QAEAAV12@II@Z 00401620 f i files.obj
 0001:000006a0       ?deallocate@?$_Wrap_alloc@V?$allocator@V?$basic_string@DU?$char_traits@D@std@@V?$allocator@D@2@@std@@@std@@@std@@QAEXPAV?$basic_string@DU?$char_traits@D@std@@V?$allocator@D@2@@2@I@Z 004016a0 f i files.obj
 0001:00000700       ?_Copy@?$basic_string@DU?$char_traits@D@std@@V?$allocator@D@2@@std@@QAEXII@Z 00401700 f i files.obj
 0001:000008b0       ?allocate@?$_Wrap_alloc@V?$allocator@D@std@@@std@@QAEPADI@Z 004018b0 f i files.obj
 0001:00000900       ??$_Destroy_range1@V?$allocator@V?$basic_string@DU?$char_traits@D@std@@V?$allocator@D@2@@std@@@std@@PAV?$basic_string@DU?$char_traits@D@std@@V?$allocator@D@2@@2@@std@@YAXPAV?$basic_string@DU?$char_traits@D@std@@V?$allocator@D@2@@0@0AAU?$_Wrap_alloc@V?$allocator@V?$basic_string@DU?$char_traits@D@std@@V?$allocator@D@2@@std@@@std@@@0@U?$integral_constant@_N$0A@@0@@Z 00401900 f i files.obj
 0001:000009c0       ??$_Uninitialized_move_al_unchecked1@PAV?$basic_string@DU?$char_traits@D@std@@V?$allocator@D@2@@std@@PAV12@V?$allocator@V?$basic_string@DU?$char_traits@D@std@@V?$allocator@D@2@@std@@@2@@std@@YAPAV?$basic_string@DU?$char_traits@D@std@@V?$allocator@D@2@@0@PAV10@00AAU?$_Wrap_alloc@V?$allocator@V?$basic_string@DU?$char_traits@D@std@@V?$allocator@D@2@@std@@@std@@@0@U_General_ptr_iterator_tag@0@U_Any_tag@0@@Z 004019c0 f i files.obj
 0001:00000ab0       ??1?$vector@V?$basic_string@DU?$char_traits@D@std@@V?$allocator@D@2@@std@@V?$allocator@V?$basic_string@DU?$char_traits@D@std@@V?$allocator@D@2@@std@@@2@@std@@QAE@XZ 00401ab0 f i loadkod.obj
 0001:00000b30       ?ParseClientSendBlakodError@@YAXHHHHH@Z 00401b30 f i parsecli.obj
 0001:00000c20       ?GetCRC16BufferList@@YAGPAUbuffer_struct@@@Z 00401c20 f i session.obj
 0001:00000c70       ?TimerHeapHeapify@@YAXH@Z  00401c70 f i timer.obj
 0001:00000e57       @__security_check_cookie@4 00401e57 f   LIBCMT:_secchk_.obj
 0001:00000e68       ___raise_securityfailure   00401e68 f   LIBCMT:gs_report.obj
 0001:00000e90       ___report_gsfailure        00401e90 f   LIBCMT:gs_report.obj
 0001:00000f8b       ___report_rangecheckfailure 00401f8b f   LIBCMT:gs_report.obj
 0001:00000f97       ___report_securityfailure  00401f97 f   LIBCMT:gs_report.obj
 0001:00001067       ??2@YAPAXI@Z               00402067 f   LIBCMT:new_scalar.obj
 0001:0000109a       ??3@YAXPAX@Z               0040209a f   LIBCMT:delete_scalar.obj
 0001:0000109f       ??3@YAXPAXI@Z              0040209f f   LIBCMT:delete_scalar_size.obj
 0001:000012d3       _WinMainCRTStartup         004022d3 f   LIBCMT:exe_winmain.obj
 0001:000012dd       ??0bad_alloc@std@@QAE@ABV01@@Z 004022dd f i LIBCMT:throw_bad_alloc.obj
 0001:000012f8       ??0bad_alloc@std@@QAE@XZ   004022f8 f i LIBCMT:throw_bad_alloc.obj
 0001:00001310       ??0bad_array_new_length@std@@QAE@ABV01@@Z 00402310 f i LIBCMT:throw_bad_alloc.obj
 0001:0000132b       ??0bad_array_new_length@std@@QAE@XZ 0040232b f i LIBCMT:throw_bad_alloc.obj
 0001:00001343       ??0exception@std@@QAE@ABV01@@Z 00402343 f i LIBCMT:throw_bad_alloc.obj
 0001:0000136f       ?__scrt_throw_std_bad_alloc@@YAXXZ 0040236f f   LIBCMT:throw_bad_alloc.obj
 0001:0000136f       ?_Xbad_alloc@std@@YAXXZ    0040236f f   libcpmt:xthrow.obj
 0001:0000138c       ?__scrt_throw_std_bad_array_new_length@@YAXXZ 0040238c f   LIBCMT:throw_bad_alloc.obj
 0001:000013a9       ?what@exception@std@@UBEPBDXZ 004023a9 f i LIBCMT:throw_bad_alloc.obj
 0001:000013fa       ___scrt_acquire_startup_lock 004023fa f   LIBCMT:utility.obj
 0001:0000142f       ___scrt_initialize_crt     0040242f f   LIBCMT:utility.obj
 0001:00001468       ___scrt_initialize_onexit_tables 00402468 f   LIBCMT:utility.obj
 0001:000014ff       ___scrt_is_nonwritable_in_current_image 004024ff f   LIBCMT:utility.obj
 0001:00001589       ___scrt_release_startup_lock 00402589 f   LIBCMT:utility.obj
 0001:000015a6       ___scrt_uninitialize_crt   004025a6 f   LIBCMT:utility.obj
 0001:000015ce       __onexit                   004025ce f   LIBCMT:utility.obj
 0001:00001609       _atexit                    00402609 f   LIBCMT:utility.obj
 0001:0000161e       ___security_init_cookie    0040261e f   LIBCMT:gs_support.obj
 0001:000016ba       __get_startup_argv_mode    004026ba f   LIBCMT:argv_mode.obj
 0001:000016be       ___scrt_initialize_winrt   004026be f   LIBCMT:utility_desktop.obj
 0001:000016be       __get_startup_commit_mode  004026be f   LIBCMT:commit_mode.obj
 0001:000016be       __matherr                  004026be f   LIBCMT:matherr.obj
 0001:000016be       __get_startup_new_mode     004026be f   LIBCMT:new_mode.obj
 0001:000016be       __get_startup_thread_locale_mode 004026be f   LIBCMT:thread_locale.obj
 0001:000016c1       __get_startup_file_mode    004026c1 f   LIBCMT:file_mode.obj
 0001:000016c7       ?__scrt_initialize_type_info@@YAXXZ 004026c7 f   LIBCMT:tncleanup.obj
 0001:000016d3       __initialize_default_precision 004026d3 f   LIBCMT:default_precision.obj
 0001:000016f4       __initialize_denormal_control 004026f4 f   LIBCMT:denormal_control.obj
 0001:000016f4       ___except_validate_context_record 004026f4 f   libvcruntime:jbcxrval.obj
 0001:000016f4       ___except_validate_jump_buffer 004026f4 f   libvcruntime:jbcxrval.obj
 0001:000016f4       __initialize_invalid_parameter_handler 004026f4 f   LIBCMT:invalid_parameter_handler.obj
 0001:000016f4       @_guard_check_icall_nop@4  004026f4 f   LIBCMT:guard_support.obj
 0001:000016f5       ___scrt_initialize_default_local_stdio_options 004026f5 f   LIBCMT:default_local_stdio_options.obj
 0001:00001712       ___scrt_is_user_matherr_present 00402712 f   LIBCMT:matherr_detection.obj
 0001:0000171e       ___scrt_get_dyn_tls_init_callback 0040271e f   LIBCMT:dyn_tls_init.obj
 0001:00001724       ___scrt_get_dyn_tls_dtor_callback 00402724 f   LIBCMT:dyn_tls_dtor.obj
 0001:0000172a       ___scrt_fastfail           0040272a f   LIBCMT:utility_desktop.obj
 0001:00001845       ___scrt_get_show_window_mode 00402845 f   LIBCMT:utility_desktop.obj
 0001:00001878       ___scrt_is_managed_app     00402878 f   LIBCMT:utility_desktop.obj
 0001:000018bc       ___scrt_set_unhandled_exception_filter 004028bc f   LIBCMT:utility_desktop.obj
 0001:000018c8       ___scrt_unhandled_exception_filter@4 004028c8 f   LIBCMT:utility_desktop.obj
 0001:00001909       __crt_debugger_hook        00402909 f   LIBCMT:utility_desktop.obj
 0001:00001911       __RTC_Initialize           00402911 f   LIBCMT:_initsect_.obj
 0001:0000193c       __RTC_Terminate            0040293c f   LIBCMT:_initsect_.obj
 0001:00001967       @_guard_check_icall@4      00402967 f i LIBCMT:checkcfg.obj
 0001:00001970       __SEH_prolog4              00402970 f   LIBCMT:_sehprolg4_.obj
 0001:000019b6       __SEH_epilog4              004029b6 f   LIBCMT:_sehprolg4_.obj
 0001:000019cb       ??_Etype_info@@UAEPAXI@Z   004029cb f i LIBCMT:std_type_info_static.obj
 0001:000019cb       ??_Gtype_info@@UAEPAXI@Z   004029cb f i LIBCMT:std_type_info_static.obj
 0001:000019ee       ___isa_available_init      004029ee f   LIBCMT:_cpu_disp_.obj
 0001:00001b88       ___scrt_is_ucrt_dll_in_use 00402b88 f   LIBCMT:ucrt_detection.obj
 0001:00001b94       ??0exception@std@@QAE@QBD@Z 00402b94 f i libcpmt:xthrow.obj
 0001:00001bcb       ??0length_error@std@@QAE@ABV01@@Z 00402bcb f i libcpmt:xthrow.obj
 0001:00001be6       ??0length_error@std@@QAE@PBD@Z 00402be6 f i libcpmt:xthrow.obj
 0001:00001c07       ??0logic_error@std@@QAE@ABV01@@Z 00402c07 f i libcpmt:xthrow.obj
 0001:00001c22       ??0out_of_range@std@@QAE@ABV01@@Z 00402c22 f i libcpmt:xthrow.obj
 0001:00001c3d       ??0out_of_range@std@@QAE@PBD@Z 00402c3d f i libcpmt:xthrow.obj
 0001:00001c5e       ??_Elength_error@std@@UAEPAXI@Z 00402c5e f i libcpmt:xthrow.obj
 0001:00001c5e       ??_Ebad_array_new_length@std@@UAEPAXI@Z 00402c5e f i LIBCMT:throw_bad_alloc.obj
 0001:00001c5e       ??_Ebad_exception@std@@UAEPAXI@Z 00402c5e f i libvcruntime:frame.obj
 0001:00001c5e       ??_Gout_of_range@std@@UAEPAXI@Z 00402c5e f i libcpmt:xthrow.obj
 0001:00001c5e       ??_Ebad_alloc@std@@UAEPAXI@Z 00402c5e f i LIBCMT:throw_bad_alloc.obj
 0001:00001c5e       ??_Gbad_exception@std@@UAEPAXI@Z 00402c5e f i libvcruntime:frame.obj
 0001:00001c5e       ??_Gbad_array_new_length@std@@UAEPAXI@Z 00402c5e f i LIBCMT:throw_bad_alloc.obj
 0001:00001c5e       ??_Eexception@std@@UAEPAXI@Z 00402c5e f i LIBCMT:throw_bad_alloc.obj
 0001:00001c5e       ??_Gbad_alloc@std@@UAEPAXI@Z 00402c5e f i LIBCMT:throw_bad_alloc.obj
 0001:00001c5e       ??_Elogic_error@std@@UAEPAXI@Z 00402c5e f i libcpmt:xthrow.obj
 0001:00001c5e       ??_Gexception@std@@UAEPAXI@Z 00402c5e f i LIBCMT:throw_bad_alloc.obj
 0001:00001c5e       ??_Glength_error@std@@UAEPAXI@Z 00402c5e f i libcpmt:xthrow.obj
 0001:00001c5e       ??_Eout_of_range@std@@UAEPAXI@Z 00402c5e f i libcpmt:xthrow.obj
 0001:00001c5e       ??_Glogic_error@std@@UAEPAXI@Z 00402c5e f i libcpmt:xthrow.obj
 0001:00001c8b       ?_Xlength_error@std@@YAXPBD@Z 00402c8b f   libcpmt:xthrow.obj
 0001:00001cab       ?_Xout_of_range@std@@YAXPBD@Z 00402cab f   libcpmt:xthrow.obj
 0001:00001ccc       _IsProcessorFeaturePresent@4 00402ccc f   kernel32:KERNEL32.dll
 0001:00001cd2       ___DestructExceptionObject 00402cd2 f   libvcruntime:frame.obj
 0001:00001d66       ??0bad_exception@std@@QAE@ABV01@@Z 00402d66 f i libvcruntime:frame.obj
 0001:00001d81       ??0bad_exception@std@@QAE@XZ 00402d81 f i libvcruntime:frame.obj
 0001:00001d99       ??1bad_alloc@std@@UAE@XZ   00402d99 f i LIBCMT:throw_bad_alloc.obj
 0001:00001d99       ??1length_error@std@@UAE@XZ 00402d99 f i libcpmt:xthrow.obj
 0001:00001d99       ??1bad_exception@std@@UAE@XZ 00402d99 f i libvcruntime:frame.obj
 0001:00001d99       ??1bad_array_new_length@std@@UAE@XZ 00402d99 f i LIBCMT:throw_bad_alloc.obj
 0001:00001d99       ??1out_of_range@std@@UAE@XZ 00402d99 f i libcpmt:xthrow.obj
 0001:000025c3       ?_CallMemberFunction0@@YGXQAX0@Z 004035c3 f i libvcruntime:frame.obj
 0001:000025c3       ?_CallMemberFunction2@@YGXQAX00H@Z 004035c3 f i libvcruntime:frame.obj
 0001:000025c3       ?_CallMemberFunction1@@YGXQAX00@Z 004035c3 f i libvcruntime:frame.obj
 0001:000025ca       ___AdjustPointer           004035ca f   libvcruntime:frame.obj
 0001:000025ef       ___BuildCatchObject        004035ef f   libvcruntime:frame.obj
 0001:0000267e       ___BuildCatchObjectHelper  0040367e f   libvcruntime:frame.obj
 0001:000027ac       ___FrameUnwindFilter       004037ac f   libvcruntime:frame.obj
 0001:000027f1       ___FrameUnwindToState      004037f1 f   libvcruntime:frame.obj
 0001:000028b9       ___InternalCxxFrameHandler 004038b9 f   libvcruntime:frame.obj
 0001:000029b5       ___TypeMatch               004039b5 f   libvcruntime:frame.obj
 0001:00002a43       ___std_terminate           00403a43 f   libvcruntime:frame.obj
 0001:00002a50       _strchr                    00403a50 f   libvcruntime:strchr.obj
 0001:00002abe       ___from_strstr_to_strchr   00403abe     libvcruntime:strchr.obj
 0001:00002b80       _strstr                    00403b80 f   libvcruntime:strstr.obj
 0001:00002df0       _memmove                   00403df0 f   libvcruntime:memmove.obj
 0001:00003370       _strrchr                   00404370 f   libvcruntime:strrchr.obj
 0001:000034f0       __except_handler4          004044f0 f   libvcruntime:_chandler4_.obj
 0001:00003656       ___std_exception_copy      00404656 f   libvcruntime:std_exception.obj
 0001:000036b9       ___std_exception_destroy   004046b9 f   libvcruntime:std_exception.obj
 0001:000036d8       __CxxThrowException@8      004046d8 f   libvcruntime:throw.obj
 0001:00003746       ___vcrt_initialize         00404746 f   libvcruntime:initialization.obj
 0001:0000376f       ___vcrt_uninitialize       0040476f f   libvcruntime:initialization.obj
 0001:0000378e       ___std_type_info_compare   0040478e f   libvcruntime:std_type_info.obj
 0001:000037d0       _memset                    004047d0 f   libvcruntime:memset.obj
 0001:0000392a       _unexpected                0040492a f   libvcruntime:unexpected.obj
 0001:00003946       ___vcrt_freefls@4          00404946 f   libvcruntime:per_thread_data.obj
 0001:00003962       ___vcrt_getptd             00404962 f   libvcruntime:per_thread_data.obj
 0001:00003970       ___vcrt_getptd_noexit      00404970 f   libvcruntime:per_thread_data.obj
 0001:00003a02       ___vcrt_initialize_ptd     00404a02 f   libvcruntime:per_thread_data.obj
 0001:00003a35       ___vcrt_uninitialize_ptd   00404a35 f   libvcruntime:per_thread_data.obj
 0001:00003a50       __CallSettingFrame@12      00404a50 f   libvcruntime:lowhelpr.obj
 0001:00003a77       __NLG_Return               00404a77     libvcruntime:lowhelpr.obj
 0001:00003a9c       ?_CallCatchBlock2@@YAPAXPAUEHRegistrationNode@@PBU_s_FuncInfo@@PAXHK@Z 00404a9c f   libvcruntime:trnsctrl.obj
 0001:00003afc       ?_CallSETranslator@@YAHPAUEHExceptionRecord@@PAUEHRegistrationNode@@PAX2PBU_s_FuncInfo@@H1@Z 00404afc f   libvcruntime:trnsctrl.obj
 0001:00003bd9       ?_GetRangeOfTrysToCheck@@YAPBU_s_TryBlockMapEntry@@PBU_s_FuncInfo@@HHPAI1@Z 00404bd9 f   libvcruntime:trnsctrl.obj
 0001:00003c51       ?_JumpToContinuation@@YGXPAXPAUEHRegistrationNode@@@Z 00404c51 f   libvcruntime:trnsctrl.obj
 0001:00003c83       ?_UnwindNestedFrames@@YGXPAUEHRegistrationNode@@PAUEHExceptionRecord@@@Z 00404c83 f   libvcruntime:trnsctrl.obj
 0001:00003cd8       __CatchGuardHandler        00404cd8 f   libvcruntime:trnsctrl.obj
 0001:00003d09       __CreateFrameInfo          00404d09 f   libvcruntime:trnsctrl.obj
 0001:00003d2d       __FindAndUnlinkFrame       00404d2d f   libvcruntime:trnsctrl.obj
 0001:00003d77       __IsExceptionObjectToBeDestroyed 00404d77 f   libvcruntime:trnsctrl.obj
 0001:00003d9d       __TranslatorGuardHandler   00404d9d f   libvcruntime:trnsctrl.obj
 0001:00003e3c       ___CxxFrameHandler3        00404e3c f   libvcruntime:trnsctrl.obj
 0001:00003e80       __local_unwind4            00404e80 f   libvcruntime:_exsup4_.obj
 0001:00003f56       __seh_longjmp_unwind4@4    00404f56 f   libvcruntime:_exsup4_.obj
 0001:00003f7e       @_EH4_CallFilterFunc@8     00404f7e f   libvcruntime:_exsup4_.obj
 0001:00003f95       @_EH4_TransferToHandler@8  00404f95 f   libvcruntime:_exsup4_.obj
 0001:00003fae       @_EH4_GlobalUnwind2@8      00404fae f   libvcruntime:_exsup4_.obj
 0001:00003fc7       @_EH4_LocalUnwind@16       00404fc7 f   libvcruntime:_exsup4_.obj
 0001:00003fe1       ___vcrt_initialize_locks   00404fe1 f   libvcruntime:locks.obj
 0001:0000401d       ___vcrt_uninitialize_locks 0040501d f   libvcruntime:locks.obj
 0001:0000404c       ??$__crt_fast_encode_pointer@PAP6AXXZ@@YAPAP6AXXZQAP6AXXZ@Z 0040504c f i LIBCMT:utility.obj
 0001:0000404c       ??$__crt_fast_encode_pointer@PAX@@YAPAXQAX@Z 0040504c f i libvcruntime:winapi_downlevel.obj
 0001:0000418a       ___vcrt_FlsAlloc           0040518a f   libvcruntime:winapi_downlevel.obj
 0001:000041c4       ___vcrt_FlsFree            004051c4 f   libvcruntime:winapi_downlevel.obj
 0001:000041fe       ___vcrt_FlsGetValue        004051fe f   libvcruntime:winapi_downlevel.obj
 0001:00004238       ___vcrt_FlsSetValue        00405238 f   libvcruntime:winapi_downlevel.obj
 0001:00004275       ___vcrt_InitializeCriticalSectionEx 00405275 f   libvcruntime:winapi_downlevel.obj
 0001:000042bb       ___vcrt_initialize_winapi_thunks 004052bb f   libvcruntime:winapi_downlevel.obj
 0001:000042f5       ___vcrt_uninitialize_winapi_thunks 004052f5 f   libvcruntime:winapi_downlevel.obj
 0001:00004327       ___vcrt_initialize_pure_virtual_call_handler 00405327 f   libvcruntime:purevirt_data.obj
 0001:00004350       __global_unwind2           00405350 f   libvcruntime:_exsup_.obj
 0001:000043b5       __local_unwind2            004053b5 f   libvcruntime:_exsup_.obj
 0001:00004439       __abnormal_termination     00405439 f   libvcruntime:_exsup_.obj
 0001:0000445c       __NLG_Notify1              0040545c f   libvcruntime:_exsup_.obj
 0001:00004465       __NLG_Notify               00405465 f   libvcruntime:_exsup_.obj
 0001:0000447c       __NLG_Dispatch2            0040547c     libvcruntime:_exsup_.obj
 0001:0000447c       __NLG_Dispatch             0040547c     libvcruntime:_exsup_.obj
 0001:00004484       __NLG_Call                 00405484 f   libvcruntime:_exsup_.obj
 0001:00004486       __NLG_Return2              00405486     libvcruntime:_exsup_.obj
 0001:00004487       ??$?RV<lambda_ab9923ffb5d694ec0d78876dd103e44f>@@AAV<lambda_481dd5778c961fbcd3b60b650e9b9dc4>@@V<lambda_7923d86c9e3f319b415918ec4b39749c>@@@?$__crt_seh_guarded_call@H@@QAEH$$QAV<lambda_ab9923ffb5d694ec0d78876dd103e44f>@@AAV<lambda_481dd5778c961fbcd3b60b650e9b9dc4>@@$$QAV<lambda_7923d86c9e3f319b415918ec4b39749c>@@@Z 00405487 f i libucrt:output.obj
 0001:000044d8       ??$?RV<lambda_db08b09ef7aa9d4f8620ce68402612bc>@@AAV<lambda_4f2c1eaeead2a5fc776db5b62ea0fb9b>@@V<lambda_3ae262bc35d4ba6a3825c4f6bcaaf95c>@@@?$__crt_seh_guarded_call@H@@QAEH$$QAV<lambda_db08b09ef7aa9d4f8620ce68402612bc>@@AAV<lambda_4f2c1eaeead2a5fc776db5b62ea0fb9b>@@$$QAV<lambda_3ae262bc35d4ba6a3825c4f6bcaaf95c>@@@Z 004054d8 f i libucrt:output.obj
 0001:00004529       ??$__acrt_lock_stream_and_call@V<lambda_481dd5778c961fbcd3b60b650e9b9dc4>@@@@YAHQAU_iobuf@@$$QAV<lambda_481dd5778c961fbcd3b60b650e9b9dc4>@@@Z 00405529 f i libucrt:output.obj
 0001:00004551       ??$__acrt_lock_stream_and_call@V<lambda_4f2c1eaeead2a5fc776db5b62ea0fb9b>@@@@YAHQAU_iobuf@@$$QAV<lambda_4f2c1eaeead2a5fc776db5b62ea0fb9b>@@@Z 00405551 f i libucrt:output.obj
 0001:0000487a       ??$count@D@formatting_buffer@__crt_stdio_output@@QBEIXZ 0040587a f i libucrt:output.obj
 0001:00004892       ??$ensure_buffer_is_big_enough@D@formatting_buffer@__crt_stdio_output@@QAE_NI@Z 00405892 f i libucrt:output.obj
 0001:00004918       ??$is_wide_character_specifier@D@__crt_stdio_output@@YA_N_KDW4length_modifier@0@@Z 00405918 f i libucrt:output.obj
 0001:00004958       ??$is_wide_character_specifier@_W@__crt_stdio_output@@YA_N_K_WW4length_modifier@0@@Z 00405958 f i libucrt:output.obj
 0001:000049a7       ??$scratch_data@D@formatting_buffer@__crt_stdio_output@@QAEPADXZ 004059a7 f i libucrt:output.obj
 0001:000049c5       ??$type_case_integer_parse_into_buffer@I@?$output_processor@DV?$string_output_adapter@D@__crt_stdio_output@@V?$standard_base@DV?$string_output_adapter@D@__crt_stdio_output@@@2@@__crt_stdio_output@@AAEXII_N@Z 004059c5 f i libucrt:output.obj
 0001:000049c5       ??$type_case_integer_parse_into_buffer@I@?$output_processor@_WV?$string_output_adapter@_W@__crt_stdio_output@@V?$standard_base@_WV?$string_output_adapter@_W@__crt_stdio_output@@@2@@__crt_stdio_output@@AAEXII_N@Z 004059c5 f i libucrt:output.obj
 0001:000049c5       ??$type_case_integer_parse_into_buffer@I@?$output_processor@DV?$stream_output_adapter@D@__crt_stdio_output@@V?$standard_base@DV?$stream_output_adapter@D@__crt_stdio_output@@@2@@__crt_stdio_output@@AAEXII_N@Z 004059c5 f i libucrt:output.obj
 0001:000049c5       ??$type_case_integer_parse_into_buffer@I@?$output_processor@_WV?$stream_output_adapter@_W@__crt_stdio_output@@V?$standard_base@_WV?$stream_output_adapter@_W@__crt_stdio_output@@@2@@__crt_stdio_output@@AAEXII_N@Z 004059c5 f i libucrt:output.obj
 0001:00004a3a       ??$type_case_integer_parse_into_buffer@_K@?$output_processor@_WV?$string_output_adapter@_W@__crt_stdio_output@@V?$standard_base@_WV?$string_output_adapter@_W@__crt_stdio_output@@@2@@__crt_stdio_output@@AAEX_KI_N@Z 00405a3a f i libucrt:output.obj
 0001:00004a3a       ??$type_case_integer_parse_into_buffer@_K@?$output_processor@_WV?$stream_output_adapter@_W@__crt_stdio_output@@V?$standard_base@_WV?$stream_output_adapter@_W@__crt_stdio_output@@@2@@__crt_stdio_output@@AAEX_KI_N@Z 00405a3a f i libucrt:output.obj
 0001:00004a3a       ??$type_case_integer_parse_into_buffer@_K@?$output_processor@DV?$string_output_adapter@D@__crt_stdio_output@@V?$standard_base@DV?$string_output_adapter@D@__crt_stdio_output@@@2@@__crt_stdio_output@@AAEX_KI_N@Z 00405a3a f i libucrt:output.obj
 0001:00004a3a       ??$type_case_integer_parse_into_buffer@_K@?$output_processor@DV?$stream_output_adapter@D@__crt_stdio_output@@V?$standard_base@DV?$stream_output_adapter@D@__crt_stdio_output@@@2@@__crt_stdio_output@@AAEX_KI_N@Z 00405a3a f i libucrt:output.obj
 0001:00004ac2       ??$write_multiple_characters@V?$stream_output_adapter@D@__crt_stdio_output@@D@__crt_stdio_output@@YAXABV?$stream_output_adapter@D@0@DHQAH@Z 00405ac2 f i libucrt:output.obj
 0001:00004aee       ??$write_multiple_characters@V?$stream_output_adapter@_W@__crt_stdio_output@@D@__crt_stdio_output@@YAXABV?$stream_output_adapter@_W@0@DHQAH@Z 00405aee f i libucrt:output.obj
 0001:00004b1f       ??$write_multiple_characters@V?$string_output_adapter@D@__crt_stdio_output@@D@__crt_stdio_output@@YAXABV?$string_output_adapter@D@0@DHQAH@Z 00405b1f f i libucrt:output.obj
 0001:00004b4b       ??$write_multiple_characters@V?$string_output_adapter@_W@__crt_stdio_output@@D@__crt_stdio_output@@YAXABV?$string_output_adapter@_W@0@DHQAH@Z 00405b4b f i libucrt:output.obj
 0001:00004b7c       ??0?$common_data@D@__crt_stdio_output@@IAE@XZ 00405b7c f i libucrt:output.obj
 0001:00004bc3       ??0?$common_data@_W@__crt_stdio_output@@IAE@XZ 00405bc3 f i libucrt:output.obj
 0001:00004c0f       ??0?$output_adapter_data@DV?$string_output_adapter@D@__crt_stdio_output@@@__crt_stdio_output@@IAE@ABV?$string_output_adapter@D@1@_KQBDQAU__crt_locale_pointers@@QAD@Z 00405c0f f i libucrt:output.obj
 0001:00004c0f       ??0?$output_adapter_data@DV?$stream_output_adapter@D@__crt_stdio_output@@@__crt_stdio_output@@IAE@ABV?$stream_output_adapter@D@1@_KQBDQAU__crt_locale_pointers@@QAD@Z 00405c0f f i libucrt:output.obj
 0001:00004c4b       ??0?$output_adapter_data@_WV?$stream_output_adapter@_W@__crt_stdio_output@@@__crt_stdio_output@@IAE@ABV?$stream_output_adapter@_W@1@_KQB_WQAU__crt_locale_pointers@@QAD@Z 00405c4b f i libucrt:output.obj
 0001:00004c4b       ??0?$output_adapter_data@_WV?$string_output_adapter@_W@__crt_stdio_output@@@__crt_stdio_output@@IAE@ABV?$string_output_adapter@_W@1@_KQB_WQAU__crt_locale_pointers@@QAD@Z 00405c4b f i libucrt:output.obj
 0001:00004c87       ??0?$output_processor@DV?$stream_output_adapter@D@__crt_stdio_output@@V?$standard_base@DV?$stream_output_adapter@D@__crt_stdio_output@@@2@@__crt_stdio_output@@QAE@ABV?$stream_output_adapter@D@1@_KQBDQAU__crt_locale_pointers@@QAD@Z 00405c87 f i libucrt:output.obj
 0001:00004c87       ??0?$output_processor@DV?$string_output_adapter@D@__crt_stdio_output@@V?$standard_base@DV?$string_output_adapter@D@__crt_stdio_output@@@2@@__crt_stdio_output@@QAE@ABV?$string_output_adapter@D@1@_KQBDQAU__crt_locale_pointers@@QAD@Z 00405c87 f i libucrt:output.obj
 0001:00004cbc       ??0?$output_processor@_WV?$string_output_adapter@_W@__crt_stdio_output@@V?$standard_base@_WV?$string_output_adapter@_W@__crt_stdio_output@@@2@@__crt_stdio_output@@QAE@ABV?$string_output_adapter@_W@1@_KQB_WQAU__crt_locale_pointers@@QAD@Z 00405cbc f i libucrt:output.obj
 0001:00004cbc       ??0?$output_processor@_WV?$stream_output_adapter@_W@__crt_stdio_output@@V?$standard_base@_WV?$stream_output_adapter@_W@__crt_stdio_output@@@2@@__crt_stdio_output@@QAE@ABV?$stream_output_adapter@_W@1@_KQB_WQAU__crt_locale_pointers@@QAD@Z 00405cbc f i libucrt:output.obj
 0001:00004cf1       ??0_LocaleUpdate@@QAE@QAU__crt_locale_pointers@@@Z 00405cf1 f i libucrt:output.obj
 0001:00004d74       ??1formatting_buffer@__crt_stdio_output@@QAE@XZ 00405d74 f i libucrt:output.obj
 0001:00004d8e       ??4?$__crt_unique_heap_ptr@DU__crt_internal_free_policy@@@@QAEAAV0@$$QAV0@@Z 00405d8e f i libucrt:output.obj
 0001:00004f2c       ?crop_zeroes@__crt_stdio_output@@YAXPADQAU__crt_locale_pointers@@@Z 00405f2c f i libucrt:output.obj
 0001:00004f83       ?find_next_state@?$output_processor@DV?$string_output_adapter@D@__crt_stdio_output@@V?$standard_base@DV?$string_output_adapter@D@__crt_stdio_output@@@2@@__crt_stdio_output@@ABE?AW4state@2@DW432@@Z 00405f83 f i libucrt:output.obj
 0001:00004f83       ?find_next_state@?$output_processor@DV?$stream_output_adapter@D@__crt_stdio_output@@V?$standard_base@DV?$stream_output_adapter@D@__crt_stdio_output@@@2@@__crt_stdio_output@@ABE?AW4state@2@DW432@@Z 00405f83 f i libucrt:output.obj
 0001:00004fb5       ?find_next_state@?$output_processor@_WV?$stream_output_adapter@_W@__crt_stdio_output@@V?$standard_base@_WV?$stream_output_adapter@_W@__crt_stdio_output@@@2@@__crt_stdio_output@@ABE?AW4state@2@_WW432@@Z 00405fb5 f i libucrt:output.obj
 0001:00004fb5       ?find_next_state@?$output_processor@_WV?$string_output_adapter@_W@__crt_stdio_output@@V?$standard_base@_WV?$string_output_adapter@_W@__crt_stdio_output@@@2@@__crt_stdio_output@@ABE?AW4state@2@_WW432@@Z 00405fb5 f i libucrt:output.obj
 0001:00004fe9       ?force_decimal_point@__crt_stdio_output@@YAXPADQAU__crt_locale_pointers@@@Z 00405fe9 f i libucrt:output.obj
 0001:00005045       ?parse_int_from_format_string@?$output_processor@DV?$stream_output_adapter@D@__crt_stdio_output@@V?$standard_base@DV?$stream_output_adapter@D@__crt_stdio_output@@@2@@__crt_stdio_output@@AAE_NQAH@Z 00406045 f i libucrt:output.obj
 0001:00005045       ?parse_int_from_format_string@?$output_processor@DV?$string_output_adapter@D@__crt_stdio_output@@V?$standard_base@DV?$string_output_adapter@D@__crt_stdio_output@@@2@@__crt_stdio_output@@AAE_NQAH@Z 00406045 f i libucrt:output.obj
 0001:000050a1       ?parse_int_from_format_string@?$output_processor@_WV?$string_output_adapter@_W@__crt_stdio_output@@V?$standard_base@_WV?$string_output_adapter@_W@__crt_stdio_output@@@2@@__crt_stdio_output@@AAE_NQAH@Z 004060a1 f i libucrt:output.obj
 0001:000050a1       ?parse_int_from_format_string@?$output_processor@_WV?$stream_output_adapter@_W@__crt_stdio_output@@V?$standard_base@_WV?$stream_output_adapter@_W@__crt_stdio_output@@@2@@__crt_stdio_output@@AAE_NQAH@Z 004060a1 f i libucrt:output.obj
 0001:000050ff       ?process@?$output_processor@DV?$stream_output_adapter@D@__crt_stdio_output@@V?$standard_base@DV?$stream_output_adapter@D@__crt_stdio_output@@@2@@__crt_stdio_output@@QAEHXZ 004060ff f i libucrt:output.obj
 0001:0000521b       ?process@?$output_processor@DV?$string_output_adapter@D@__crt_stdio_output@@V?$standard_base@DV?$string_output_adapter@D@__crt_stdio_output@@@2@@__crt_stdio_output@@QAEHXZ 0040621b f i libucrt:output.obj
 0001:00005337       ?process@?$output_processor@_WV?$stream_output_adapter@_W@__crt_stdio_output@@V?$standard_base@_WV?$stream_output_adapter@_W@__crt_stdio_output@@@2@@__crt_stdio_output@@QAEHXZ 00406337 f i libucrt:output.obj
 0001:00005457       ?process@?$output_processor@_WV?$string_output_adapter@_W@__crt_stdio_output@@V?$standard_base@_WV?$string_output_adapter@_W@__crt_stdio_output@@@2@@__crt_stdio_output@@QAEHXZ 00406457 f i libucrt:output.obj
 0001:00005577       ?state_case_flag@?$output_processor@DV?$string_output_adapter@D@__crt_stdio_output@@V?$standard_base@DV?$string_output_adapter@D@__crt_stdio_output@@@2@@__crt_stdio_output@@AAE_NXZ 00406577 f i libucrt:output.obj
 0001:00005577       ?state_case_flag@?$output_processor@DV?$stream_output_adapter@D@__crt_stdio_output@@V?$standard_base@DV?$stream_output_adapter@D@__crt_stdio_output@@@2@@__crt_stdio_output@@AAE_NXZ 00406577 f i libucrt:output.obj
 0001:000055b4       ?state_case_flag@?$output_processor@_WV?$string_output_adapter@_W@__crt_stdio_output@@V?$standard_base@_WV?$string_output_adapter@_W@__crt_stdio_output@@@2@@__crt_stdio_output@@AAE_NXZ 004065b4 f i libucrt:output.obj
 0001:000055b4       ?state_case_flag@?$output_processor@_WV?$stream_output_adapter@_W@__crt_stdio_output@@V?$standard_base@_WV?$stream_output_adapter@_W@__crt_stdio_output@@@2@@__crt_stdio_output@@AAE_NXZ 004065b4 f i libucrt:output.obj
 0001:000055f1       ?state_case_normal@?$output_processor@DV?$stream_output_adapter@D@__crt_stdio_output@@V?$standard_base@DV?$stream_output_adapter@D@__crt_stdio_output@@@2@@__crt_stdio_output@@AAE_NXZ 004065f1 f i libucrt:output.obj
 0001:00005610       ?state_case_normal@?$output_processor@DV?$string_output_adapter@D@__crt_stdio_output@@V?$standard_base@DV?$string_output_adapter@D@__crt_stdio_output@@@2@@__crt_stdio_output@@AAE_NXZ 00406610 f i libucrt:output.obj
 0001:0000562f       ?state_case_normal@?$output_processor@_WV?$stream_output_adapter@_W@__crt_stdio_output@@V?$standard_base@_WV?$stream_output_adapter@_W@__crt_stdio_output@@@2@@__crt_stdio_output@@AAE_NXZ 0040662f f i libucrt:output.obj
 0001:0000564e       ?state_case_normal@?$output_processor@_WV?$string_output_adapter@_W@__crt_stdio_output@@V?$standard_base@_WV?$string_output_adapter@_W@__crt_stdio_output@@@2@@__crt_stdio_output@@AAE_NXZ 0040664e f i libucrt:output.obj
 0001:0000566d       ?state_case_normal_common@?$output_processor@DV?$stream_output_adapter@D@__crt_stdio_output@@V?$standard_base@DV?$stream_output_adapter@D@__crt_stdio_output@@@2@@__crt_stdio_output@@AAE_NXZ 0040666d f i libucrt:output.obj
 0001:00005697       ?state_case_normal_common@?$output_processor@DV?$string_output_adapter@D@__crt_stdio_output@@V?$standard_base@DV?$string_output_adapter@D@__crt_stdio_output@@@2@@__crt_stdio_output@@AAE_NXZ 00406697 f i libucrt:output.obj
 0001:000056c1       ?state_case_normal_common@?$output_processor@_WV?$stream_output_adapter@_W@__crt_stdio_output@@V?$standard_base@_WV?$stream_output_adapter@_W@__crt_stdio_output@@@2@@__crt_stdio_output@@AAE_NXZ 004066c1 f i libucrt:output.obj
 0001:000056dc       ?state_case_normal_common@?$output_processor@_WV?$string_output_adapter@_W@__crt_stdio_output@@V?$standard_base@_WV?$string_output_adapter@_W@__crt_stdio_output@@@2@@__crt_stdio_output@@AAE_NXZ 004066dc f i libucrt:output.obj
 0001:000056f7       ?state_case_normal_tchar@?$output_processor@DV?$stream_output_adapter@D@__crt_stdio_output@@V?$standard_base@DV?$stream_output_adapter@D@__crt_stdio_output@@@2@@__crt_stdio_output@@AAE_ND@Z 004066f7 f i libucrt:output.obj
 0001:00005758       ?state_case_normal_tchar@?$output_processor@DV?$string_output_adapter@D@__crt_stdio_output@@V?$standard_base@DV?$string_output_adapter@D@__crt_stdio_output@@@2@@__crt_stdio_output@@AAE_ND@Z 00406758 f i libucrt:output.obj
 0001:000057b9       ?state_case_precision@?$output_processor@DV?$string_output_adapter@D@__crt_stdio_output@@V?$standard_base@DV?$string_output_adapter@D@__crt_stdio_output@@@2@@__crt_stdio_output@@AAE_NXZ 004067b9 f i libucrt:output.obj
 0001:000057b9       ?state_case_precision@?$output_processor@DV?$stream_output_adapter@D@__crt_stdio_output@@V?$standard_base@DV?$stream_output_adapter@D@__crt_stdio_output@@@2@@__crt_stdio_output@@AAE_NXZ 004067b9 f i libucrt:output.obj
 0001:000057e1       ?state_case_precision@?$output_processor@_WV?$stream_output_adapter@_W@__crt_stdio_output@@V?$standard_base@_WV?$stream_output_adapter@_W@__crt_stdio_output@@@2@@__crt_stdio_output@@AAE_NXZ 004067e1 f i libucrt:output.obj
 0001:000057e1       ?state_case_precision@?$output_processor@_WV?$string_output_adapter@_W@__crt_stdio_output@@V?$standard_base@_WV?$string_output_adapter@_W@__crt_stdio_output@@@2@@__crt_stdio_output@@AAE_NXZ 004067e1 f i libucrt:output.obj
 0001:0000580a       ?state_case_size@?$output_processor@DV?$stream_output_adapter@D@__crt_stdio_output@@V?$standard_base@DV?$stream_output_adapter@D@__crt_stdio_output@@@2@@__crt_stdio_output@@AAE_NXZ 0040680a f i libucrt:output.obj
 0001:00005973       ?state_case_size@?$output_processor@DV?$string_output_adapter@D@__crt_stdio_output@@V?$standard_base@DV?$string_output_adapter@D@__crt_stdio_output@@@2@@__crt_stdio_output@@AAE_NXZ 00406973 f i libucrt:output.obj
 0001:00005adc       ?state_case_size@?$output_processor@_WV?$stream_output_adapter@_W@__crt_stdio_output@@V?$standard_base@_WV?$stream_output_adapter@_W@__crt_stdio_output@@@2@@__crt_stdio_output@@AAE_NXZ 00406adc f i libucrt:output.obj
 0001:00005c58       ?state_case_size@?$output_processor@_WV?$string_output_adapter@_W@__crt_stdio_output@@V?$standard_base@_WV?$string_output_adapter@_W@__crt_stdio_output@@@2@@__crt_stdio_output@@AAE_NXZ 00406c58 f i libucrt:output.obj
 0001:00005dd4       ?state_case_type@?$output_processor@DV?$stream_output_adapter@D@__crt_stdio_output@@V?$standard_base@DV?$stream_output_adapter@D@__crt_stdio_output@@@2@@__crt_stdio_output@@AAE_NXZ 00406dd4 f i libucrt:output.obj
 0001:00006003       ?state_case_type@?$output_processor@DV?$string_output_adapter@D@__crt_stdio_output@@V?$standard_base@DV?$string_output_adapter@D@__crt_stdio_output@@@2@@__crt_stdio_output@@AAE_NXZ 00407003 f i libucrt:output.obj
 0001:00006232       ?state_case_type@?$output_processor@_WV?$stream_output_adapter@_W@__crt_stdio_output@@V?$standard_base@_WV?$stream_output_adapter@_W@__crt_stdio_output@@@2@@__crt_stdio_output@@AAE_NXZ 00407232 f i libucrt:output.obj
 0001:0000648f       ?state_case_type@?$output_processor@_WV?$string_output_adapter@_W@__crt_stdio_output@@V?$standard_base@_WV?$string_output_adapter@_W@__crt_stdio_output@@@2@@__crt_stdio_output@@AAE_NXZ 0040748f f i libucrt:output.obj
 0001:000066ec       ?state_case_width@?$output_processor@DV?$stream_output_adapter@D@__crt_stdio_output@@V?$standard_base@DV?$stream_output_adapter@D@__crt_stdio_output@@@2@@__crt_stdio_output@@AAE_NXZ 004076ec f i libucrt:output.obj
 0001:000066ec       ?state_case_width@?$output_processor@DV?$string_output_adapter@D@__crt_stdio_output@@V?$standard_base@DV?$string_output_adapter@D@__crt_stdio_output@@@2@@__crt_stdio_output@@AAE_NXZ 004076ec f i libucrt:output.obj
 0001:00006717       ?state_case_width@?$output_processor@_WV?$string_output_adapter@_W@__crt_stdio_output@@V?$standard_base@_WV?$string_output_adapter@_W@__crt_stdio_output@@@2@@__crt_stdio_output@@AAE_NXZ 00407717 f i libucrt:output.obj
 0001:00006717       ?state_case_width@?$output_processor@_WV?$stream_output_adapter@_W@__crt_stdio_output@@V?$standard_base@_WV?$stream_output_adapter@_W@__crt_stdio_output@@@2@@__crt_stdio_output@@AAE_NXZ 00407717 f i libucrt:output.obj
 0001:00006743       ?to_integer_size@__crt_stdio_output@@YAIW4length_modifier@1@@Z 00407743 f i libucrt:output.obj
 0001:0000679f       ?type_case_Z@?$output_processor@DV?$string_output_adapter@D@__crt_stdio_output@@V?$standard_base@DV?$string_output_adapter@D@__crt_stdio_output@@@2@@__crt_stdio_output@@AAE_NXZ 0040779f f i libucrt:output.obj
 0001:0000679f       ?type_case_Z@?$output_processor@DV?$stream_output_adapter@D@__crt_stdio_output@@V?$standard_base@DV?$stream_output_adapter@D@__crt_stdio_output@@@2@@__crt_stdio_output@@AAE_NXZ 0040779f f i libucrt:output.obj
 0001:00006802       ?type_case_Z@?$output_processor@_WV?$string_output_adapter@_W@__crt_stdio_output@@V?$standard_base@_WV?$string_output_adapter@_W@__crt_stdio_output@@@2@@__crt_stdio_output@@AAE_NXZ 00407802 f i libucrt:output.obj
 0001:00006802       ?type_case_Z@?$output_processor@_WV?$stream_output_adapter@_W@__crt_stdio_output@@V?$standard_base@_WV?$stream_output_adapter@_W@__crt_stdio_output@@@2@@__crt_stdio_output@@AAE_NXZ 00407802 f i libucrt:output.obj
 0001:00006865       ?type_case_a@?$output_processor@DV?$stream_output_adapter@D@__crt_stdio_output@@V?$standard_base@DV?$stream_output_adapter@D@__crt_stdio_output@@@2@@__crt_stdio_output@@AAE_NXZ 00407865 f i libucrt:output.obj
 0001:00006865       ?type_case_a@?$output_processor@DV?$string_output_adapter@D@__crt_stdio_output@@V?$standard_base@DV?$string_output_adapter@D@__crt_stdio_output@@@2@@__crt_stdio_output@@AAE_NXZ 00407865 f i libucrt:output.obj
 0001:000069bf       ?type_case_a@?$output_processor@_WV?$stream_output_adapter@_W@__crt_stdio_output@@V?$standard_base@_WV?$stream_output_adapter@_W@__crt_stdio_output@@@2@@__crt_stdio_output@@AAE_NXZ 004079bf f i libucrt:output.obj
 0001:000069bf       ?type_case_a@?$output_processor@_WV?$string_output_adapter@_W@__crt_stdio_output@@V?$standard_base@_WV?$string_output_adapter@_W@__crt_stdio_output@@@2@@__crt_stdio_output@@AAE_NXZ 004079bf f i libucrt:output.obj
 0001:00006b31       ?type_case_c_tchar@?$output_processor@DV?$stream_output_adapter@D@__crt_stdio_output@@V?$standard_base@DV?$stream_output_adapter@D@__crt_stdio_output@@@2@@__crt_stdio_output@@AAE_ND@Z 00407b31 f i libucrt:output.obj
 0001:00006b31       ?type_case_c_tchar@?$output_processor@DV?$string_output_adapter@D@__crt_stdio_output@@V?$standard_base@DV?$string_output_adapter@D@__crt_stdio_output@@@2@@__crt_stdio_output@@AAE_ND@Z 00407b31 f i libucrt:output.obj
 0001:00006bc1       ?type_case_c_tchar@?$output_processor@_WV?$string_output_adapter@_W@__crt_stdio_output@@V?$standard_base@_WV?$string_output_adapter@_W@__crt_stdio_output@@@2@@__crt_stdio_output@@AAE_N_W@Z 00407bc1 f i libucrt:output.obj
 0001:00006bc1       ?type_case_c_tchar@?$output_processor@_WV?$stream_output_adapter@_W@__crt_stdio_output@@V?$standard_base@_WV?$stream_output_adapter@_W@__crt_stdio_output@@@2@@__crt_stdio_output@@AAE_N_W@Z 00407bc1 f i libucrt:output.obj
 0001:00006c59       ?type_case_integer@?$output_processor@DV?$string_output_adapter@D@__crt_stdio_output@@V?$standard_base@DV?$string_output_adapter@D@__crt_stdio_output@@@2@@__crt_stdio_output@@AAE_NI_N@Z 00407c59 f i libucrt:output.obj
 0001:00006c59       ?type_case_integer@?$output_processor@DV?$stream_output_adapter@D@__crt_stdio_output@@V?$standard_base@DV?$stream_output_adapter@D@__crt_stdio_output@@@2@@__crt_stdio_output@@AAE_NI_N@Z 00407c59 f i libucrt:output.obj
 0001:00006c59       ?type_case_integer@?$output_processor@_WV?$string_output_adapter@_W@__crt_stdio_output@@V?$standard_base@_WV?$string_output_adapter@_W@__crt_stdio_output@@@2@@__crt_stdio_output@@AAE_NI_N@Z 00407c59 f i libucrt:output.obj
 0001:00006c59       ?type_case_integer@?$output_processor@_WV?$stream_output_adapter@_W@__crt_stdio_output@@V?$standard_base@_WV?$stream_output_adapter@_W@__crt_stdio_output@@@2@@__crt_stdio_output@@AAE_NI_N@Z 00407c59 f i libucrt:output.obj
 0001:00006da3       ?type_case_n@?$output_processor@DV?$string_output_adapter@D@__crt_stdio_output@@V?$standard_base@DV?$string_output_adapter@D@__crt_stdio_output@@@2@@__crt_stdio_output@@AAE_NXZ 00407da3 f i libucrt:output.obj
 0001:00006da3       ?type_case_n@?$output_processor@_WV?$string_output_adapter@_W@__crt_stdio_output@@V?$standard_base@_WV?$string_output_adapter@_W@__crt_stdio_output@@@2@@__crt_stdio_output@@AAE_NXZ 00407da3 f i libucrt:output.obj
 0001:00006da3       ?type_case_n@?$output_processor@_WV?$stream_output_adapter@_W@__crt_stdio_output@@V?$standard_base@_WV?$stream_output_adapter@_W@__crt_stdio_output@@@2@@__crt_stdio_output@@AAE_NXZ 00407da3 f i libucrt:output.obj
 0001:00006da3       ?type_case_n@?$output_processor@DV?$stream_output_adapter@D@__crt_stdio_output@@V?$standard_base@DV?$stream_output_adapter@D@__crt_stdio_output@@@2@@__crt_stdio_output@@AAE_NXZ 00407da3 f i libucrt:output.obj
 0001:00006e17       ?type_case_o@?$output_processor@DV?$string_output_adapter@D@__crt_stdio_output@@V?$standard_base@DV?$string_output_adapter@D@__crt_stdio_output@@@2@@__crt_stdio_output@@AAE_NXZ 00407e17 f i libucrt:output.obj
 0001:00006e17       ?type_case_o@?$output_processor@_WV?$string_output_adapter@_W@__crt_stdio_output@@V?$standard_base@_WV?$string_output_adapter@_W@__crt_stdio_output@@@2@@__crt_stdio_output@@AAE_NXZ 00407e17 f i libucrt:output.obj
 0001:00006e17       ?type_case_o@?$output_processor@DV?$stream_output_adapter@D@__crt_stdio_output@@V?$standard_base@DV?$stream_output_adapter@D@__crt_stdio_output@@@2@@__crt_stdio_output@@AAE_NXZ 00407e17 f i libucrt:output.obj
 0001:00006e17       ?type_case_o@?$output_processor@_WV?$stream_output_adapter@_W@__crt_stdio_output@@V?$standard_base@_WV?$stream_output_adapter@_W@__crt_stdio_output@@@2@@__crt_stdio_output@@AAE_NXZ 00407e17 f i libucrt:output.obj
 0001:00006e36       ?type_case_p@?$output_processor@_WV?$string_output_adapter@_W@__crt_stdio_output@@V?$standard_base@_WV?$string_output_adapter@_W@__crt_stdio_output@@@2@@__crt_stdio_output@@AAE_NXZ 00407e36 f i libucrt:output.obj
 0001:00006e36       ?type_case_p@?$output_processor@_WV?$stream_output_adapter@_W@__crt_stdio_output@@V?$standard_base@_WV?$stream_output_adapter@_W@__crt_stdio_output@@@2@@__crt_stdio_output@@AAE_NXZ 00407e36 f i libucrt:output.obj
 0001:00006e36       ?type_case_p@?$output_processor@DV?$stream_output_adapter@D@__crt_stdio_output@@V?$standard_base@DV?$stream_output_adapter@D@__crt_stdio_output@@@2@@__crt_stdio_output@@AAE_NXZ 00407e36 f i libucrt:output.obj
 0001:00006e36       ?type_case_p@?$output_processor@DV?$string_output_adapter@D@__crt_stdio_output@@V?$standard_base@DV?$string_output_adapter@D@__crt_stdio_output@@@2@@__crt_stdio_output@@AAE_NXZ 00407e36 f i libucrt:output.obj
 0001:00006e4e       ?type_case_s@?$output_processor@DV?$string_output_adapter@D@__crt_stdio_output@@V?$standard_base@DV?$string_output_adapter@D@__crt_stdio_output@@@2@@__crt_stdio_output@@AAE_NXZ 00407e4e f i libucrt:output.obj
 0001:00006e4e       ?type_case_s@?$output_processor@DV?$stream_output_adapter@D@__crt_stdio_output@@V?$standard_base@DV?$stream_output_adapter@D@__crt_stdio_output@@@2@@__crt_stdio_output@@AAE_NXZ 00407e4e f i libucrt:output.obj
 0001:00006ec1       ?type_case_s@?$output_processor@_WV?$string_output_adapter@_W@__crt_stdio_output@@V?$standard_base@_WV?$string_output_adapter@_W@__crt_stdio_output@@@2@@__crt_stdio_output@@AAE_NXZ 00407ec1 f i libucrt:output.obj
 0001:00006ec1       ?type_case_s@?$output_processor@_WV?$stream_output_adapter@_W@__crt_stdio_output@@V?$standard_base@_WV?$stream_output_adapter@_W@__crt_stdio_output@@@2@@__crt_stdio_output@@AAE_NXZ 00407ec1 f i libucrt:output.obj
 0001:00006f35       ?type_case_s_compute_narrow_string_length@?$output_processor@_WV?$string_output_adapter@_W@__crt_stdio_output@@V?$standard_base@_WV?$string_output_adapter@_W@__crt_stdio_output@@@2@@__crt_stdio_output@@ABEHH_W@Z 00407f35 f i libucrt:output.obj
 0001:00006f35       ?type_case_s_compute_narrow_string_length@?$output_processor@_WV?$stream_output_adapter@_W@__crt_stdio_output@@V?$standard_base@_WV?$stream_output_adapter@_W@__crt_stdio_output@@@2@@__crt_stdio_output@@ABEHH_W@Z 00407f35 f i libucrt:output.obj
 0001:00006f75       ?validate@?$stream_output_adapter@D@__crt_stdio_output@@QBE_NXZ 00407f75 f i libucrt:output.obj
 0001:00006f96       ?validate_stream_is_ansi_if_required@?$__acrt_stdio_char_traits@D@@SA_NQAU_iobuf@@@Z 00407f96 f i libucrt:output.obj
 0001:00007018       ?write_character@?$stream_output_adapter@D@__crt_stdio_output@@QBEXDQAH@Z 00408018 f i libucrt:output.obj
 0001:00007055       ?write_character@?$stream_output_adapter@_W@__crt_stdio_output@@QBEX_WQAH@Z 00408055 f i libucrt:output.obj
 0001:00007095       ?write_character@?$string_output_adapter@D@__crt_stdio_output@@QBE_NDQAH@Z 00408095 f i libucrt:output.obj
 0001:000070d7       ?write_character@?$string_output_adapter@_W@__crt_stdio_output@@QBE_N_WQAH@Z 004080d7 f i libucrt:output.obj
 0001:0000711c       ?write_stored_string_tchar@?$output_processor@DV?$stream_output_adapter@D@__crt_stdio_output@@V?$standard_base@DV?$stream_output_adapter@D@__crt_stdio_output@@@2@@__crt_stdio_output@@AAE_ND@Z 0040811c f i libucrt:output.obj
 0001:000071c3       ?write_stored_string_tchar@?$output_processor@DV?$string_output_adapter@D@__crt_stdio_output@@V?$standard_base@DV?$string_output_adapter@D@__crt_stdio_output@@@2@@__crt_stdio_output@@AAE_ND@Z 004081c3 f i libucrt:output.obj
 0001:0000726a       ?write_stored_string_tchar@?$output_processor@_WV?$stream_output_adapter@_W@__crt_stdio_output@@V?$standard_base@_WV?$stream_output_adapter@_W@__crt_stdio_output@@@2@@__crt_stdio_output@@AAE_N_W@Z 0040826a f i libucrt:output.obj
 0001:000072f5       ?write_stored_string_tchar@?$output_processor@_WV?$string_output_adapter@_W@__crt_stdio_output@@V?$standard_base@_WV?$string_output_adapter@_W@__crt_stdio_output@@@2@@__crt_stdio_output@@AAE_N_W@Z 004082f5 f i libucrt:output.obj
 0001:00007380       ?write_string@?$stream_output_adapter@D@__crt_stdio_output@@QBEXQBDHQAH1@Z 00408380 f i libucrt:output.obj
 0001:0000740a       ?write_string@?$stream_output_adapter@_W@__crt_stdio_output@@QBEXQB_WHQAH1@Z 0040840a f i libucrt:output.obj
 0001:00007497       ?write_string@?$string_output_adapter@D@__crt_stdio_output@@QBEXQBDHQAH1@Z 00408497 f i libucrt:output.obj
 0001:0000752a       ?write_string@?$string_output_adapter@_W@__crt_stdio_output@@QBEXQB_WHQAH1@Z 0040852a f i libucrt:output.obj
 0001:000075c4       ___stdio_common_vfprintf   004085c4 f   libucrt:output.obj
 0001:0000763b       ___stdio_common_vfwprintf  0040863b f   libucrt:output.obj
 0001:000076b2       ___stdio_common_vsprintf   004086b2 f   libucrt:output.obj
 0001:000076d6       ___stdio_common_vswprintf  004086d6 f   libucrt:output.obj
 0001:000077bb       _fopen                     004087bb f   libucrt:fopen.obj
 0001:000077d2       __fclose_nolock            004087d2 f   libucrt:fclose.obj
 0001:00007848       _fclose                    00408848 f   libucrt:fclose.obj
 0001:000078c8       _feof                      004088c8 f   libucrt:feoferr.obj
 0001:000078f3       _ferror                    004088f3 f   libucrt:feoferr.obj
 0001:0000791e       __fread_nolock_s           0040891e f   libucrt:fread.obj
 0001:00007aea       _fread                     00408aea f   libucrt:fread.obj
 0001:00007b07       _fread_s                   00408b07 f   libucrt:fread.obj
 0001:00007b9a       ??$assemble_floating_point_ind@N@__crt_strtox@@YAXAAN@Z 00408b9a f i libucrt:input.obj
 0001:00007bc9       ??$assemble_floating_point_infinity@N@__crt_strtox@@YAX_NAAN@Z 00408bc9 f i libucrt:input.obj
 0001:00007c08       ??$assemble_floating_point_qnan@N@__crt_strtox@@YAX_NAAN@Z 00408c08 f i libucrt:input.obj
 0001:00007c47       ??$assemble_floating_point_snan@N@__crt_strtox@@YAX_NAAN@Z 00408c47 f i libucrt:input.obj
 0001:00007c8b       ??$assemble_floating_point_value_t@M@__crt_strtox@@YA?AW4SLD_STATUS@@_NH_KAAM@Z 00408c8b f i libucrt:input.obj
 0001:00007cbb       ??$assemble_floating_point_value_t@N@__crt_strtox@@YA?AW4SLD_STATUS@@_NH_KAAN@Z 00408cbb f i libucrt:input.obj
 0001:00007d1a       ??$assemble_floating_point_zero@N@__crt_strtox@@YAX_NAAN@Z 00408d1a f i libucrt:input.obj
 0001:00007e18       ??$convert_decimal_string_to_floating_type@M@__crt_strtox@@YA?AW4SLD_STATUS@@ABUfloating_point_string@0@AAM@Z 00408e18 f i libucrt:input.obj
 0001:00007e3b       ??$convert_decimal_string_to_floating_type@N@__crt_strtox@@YA?AW4SLD_STATUS@@ABUfloating_point_string@0@AAN@Z 00408e3b f i libucrt:input.obj
 0001:00007e5e       ??$convert_hexadecimal_string_to_floating_type@M@__crt_strtox@@YA?AW4SLD_STATUS@@ABUfloating_point_string@0@AAM@Z 00408e5e f i libucrt:input.obj
 0001:00007e81       ??$convert_hexadecimal_string_to_floating_type@N@__crt_strtox@@YA?AW4SLD_STATUS@@ABUfloating_point_string@0@AAN@Z 00408e81 f i libucrt:input.obj
 0001:00007ea4       ??$is_overflow_condition@_K@__crt_strtox@@YA_NI_K@Z 00408ea4 f i libucrt:input.obj
 0001:00007ee7       ??$make_input_adapter_character_source@V?$string_input_adapter@D@__crt_stdio_input@@@__crt_strtox@@YA?AV?$input_adapter_character_source@V?$string_input_adapter@D@__crt_stdio_input@@@0@QAV?$string_input_adapter@D@__crt_stdio_input@@_KQA_N@Z 00408ee7 f i libucrt:input.obj
 0001:00007f05       ??$parse_floating_point@V?$input_adapter_character_source@V?$string_input_adapter@D@__crt_stdio_input@@@__crt_strtox@@M@__crt_strtox@@YA?AW4SLD_STATUS@@QAU__crt_locale_pointers@@V?$input_adapter_character_source@V?$string_input_adapter@D@__crt_stdio_input@@@0@QAM@Z 00408f05 f i libucrt:input.obj
 0001:00007f80       ??$parse_floating_point@V?$input_adapter_character_source@V?$string_input_adapter@D@__crt_stdio_input@@@__crt_strtox@@N@__crt_strtox@@YA?AW4SLD_STATUS@@QAU__crt_locale_pointers@@V?$input_adapter_character_source@V?$string_input_adapter@D@__crt_stdio_input@@@0@QAN@Z 00408f80 f i libucrt:input.obj
 0001:00007ffb       ??$parse_floating_point_from_source@V?$input_adapter_character_source@V?$string_input_adapter@D@__crt_stdio_input@@@__crt_strtox@@@__crt_strtox@@YA?AW4floating_point_parse_result@0@QAU__crt_locale_pointers@@AAV?$input_adapter_character_source@V?$string_input_adapter@D@__crt_stdio_input@@@0@AAUfloating_point_string@0@@Z 00408ffb f i libucrt:input.obj
 0001:00008462       ??$parse_floating_point_possible_infinity@DV?$input_adapter_character_source@V?$string_input_adapter@D@__crt_stdio_input@@@__crt_strtox@@_K@__crt_strtox@@YA?AW4floating_point_parse_result@0@AADAAV?$input_adapter_character_source@V?$string_input_adapter@D@__crt_stdio_input@@@0@_K@Z 00409462 f i libucrt:input.obj
 0001:00008523       ??$parse_floating_point_possible_nan@DV?$input_adapter_character_source@V?$string_input_adapter@D@__crt_stdio_input@@@__crt_strtox@@_K@__crt_strtox@@YA?AW4floating_point_parse_result@0@AADAAV?$input_adapter_character_source@V?$string_input_adapter@D@__crt_stdio_input@@@0@_K@Z 00409523 f i libucrt:input.obj
 0001:00008635       ??$parse_floating_point_possible_nan_is_ind@DV?$input_adapter_character_source@V?$string_input_adapter@D@__crt_stdio_input@@@__crt_strtox@@@__crt_strtox@@YA_NAADAAV?$input_adapter_character_source@V?$string_input_adapter@D@__crt_stdio_input@@@0@@Z 00409635 f i libucrt:input.obj
 0001:0000866f       ??$parse_floating_point_possible_nan_is_snan@DV?$input_adapter_character_source@V?$string_input_adapter@D@__crt_stdio_input@@@__crt_strtox@@@__crt_strtox@@YA_NAADAAV?$input_adapter_character_source@V?$string_input_adapter@D@__crt_stdio_input@@@0@@Z 0040966f f i libucrt:input.obj
 0001:000086a9       ??$parse_floating_point_write_result@M@__crt_strtox@@YA?AW4SLD_STATUS@@W4floating_point_parse_result@0@ABUfloating_point_string@0@QAM@Z 004096a9 f i libucrt:input.obj
 0001:000087b9       ??$parse_floating_point_write_result@N@__crt_strtox@@YA?AW4SLD_STATUS@@W4floating_point_parse_result@0@ABUfloating_point_string@0@QAN@Z 004097b9 f i libucrt:input.obj
 0001:000088bd       ??$parse_integer@_KV?$input_adapter_character_source@V?$string_input_adapter@D@__crt_stdio_input@@@__crt_strtox@@@__crt_strtox@@YA_KQAU__crt_locale_pointers@@V?$input_adapter_character_source@V?$string_input_adapter@D@__crt_stdio_input@@@0@H_N@Z 004098bd f i libucrt:input.obj
 0001:00008b6e       ??$process_floating_point_specifier_t@M@?$input_processor@DV?$string_input_adapter@D@__crt_stdio_input@@@__crt_stdio_input@@AAE_NXZ 00409b6e f i libucrt:input.obj
 0001:00008bd6       ??$process_floating_point_specifier_t@N@?$input_processor@DV?$string_input_adapter@D@__crt_stdio_input@@@__crt_stdio_input@@AAE_NXZ 00409bd6 f i libucrt:input.obj
 0001:00008c3e       ??$process_string_specifier_tchar@D@?$input_processor@DV?$string_input_adapter@D@__crt_stdio_input@@@__crt_stdio_input@@AAE_NW4conversion_mode@1@D@Z 00409c3e f i libucrt:input.obj
 0001:00008da0       ??$process_string_specifier_tchar@_W@?$input_processor@DV?$string_input_adapter@D@__crt_stdio_input@@@__crt_stdio_input@@AAE_NW4conversion_mode@1@_W@Z 00409da0 f i libucrt:input.obj
 0001:00008f0c       ??$skip_whitespace@Vstring_input_adapter@__crt_stdio_input@@D@__crt_stdio_input@@YAHAAV?$string_input_adapter@D@0@QAU__crt_locale_pointers@@@Z 00409f0c f i libucrt:input.obj
 0001:00008f3b       ??$write_floating_point@M@?$input_processor@DV?$string_input_adapter@D@__crt_stdio_input@@@__crt_stdio_input@@AAE_NABM@Z 00409f3b f i libucrt:input.obj
 0001:00008f72       ??$write_floating_point@N@?$input_processor@DV?$string_input_adapter@D@__crt_stdio_input@@@__crt_stdio_input@@AAE_NABN@Z 00409f72 f i libucrt:input.obj
 0001:00008faf       ??0?$format_string_parser@D@__crt_stdio_input@@QAE@_KQBE@Z 00409faf f i libucrt:input.obj
 0001:00008ff9       ??0?$input_adapter_character_source@V?$string_input_adapter@D@__crt_stdio_input@@@__crt_strtox@@QAE@QAV?$string_input_adapter@D@__crt_stdio_input@@_KQA_N@Z 00409ff9 f i libucrt:input.obj
 0001:0000902a       ??0?$input_processor@DV?$string_input_adapter@D@__crt_stdio_input@@@__crt_stdio_input@@QAE@ABV?$string_input_adapter@D@1@_KQBDQAU__crt_locale_pointers@@QAD@Z 0040a02a f i libucrt:input.obj
 0001:0000909c       ?advance@?$format_string_parser@D@__crt_stdio_input@@QAE_NXZ 0040a09c f i libucrt:input.obj
 0001:000091bc       ?as_double@floating_point_value@__crt_strtox@@QBEAANXZ 0040a1bc f i libucrt:input.obj
 0001:000091e1       ?as_float@floating_point_value@__crt_strtox@@QBEAAMXZ 0040a1e1 f i libucrt:input.obj
 0001:00009206       ?assemble_floating_point_infinity@__crt_strtox@@YAX_NABVfloating_point_value@1@@Z 0040a206 f i libucrt:input.obj
 0001:00009240       ?assemble_floating_point_value@__crt_strtox@@YA?AW4SLD_STATUS@@_KH_N1ABVfloating_point_value@1@@Z 0040a240 f i libucrt:input.obj
 0001:0000958c       ?assemble_floating_point_value_from_big_integer@__crt_strtox@@YA?AW4SLD_STATUS@@ABUbig_integer@1@I_N1ABVfloating_point_value@1@@Z 0040a58c f i libucrt:input.obj
 0001:0000971a       ?assemble_floating_point_zero@__crt_strtox@@YAX_NABVfloating_point_value@1@@Z 0040a71a f i libucrt:input.obj
 0001:0000974e       ?convert_decimal_string_to_floating_type_common@__crt_strtox@@YA?AW4SLD_STATUS@@ABUfloating_point_string@1@ABVfloating_point_value@1@@Z 0040a74e f i libucrt:input.obj
 0001:0000b511       ?convert_hexadecimal_string_to_floating_type_common@__crt_strtox@@YA?AW4SLD_STATUS@@ABUfloating_point_string@1@ABVfloating_point_value@1@@Z 0040c511 f i libucrt:input.obj
 0001:0000b5bd       ?denormal_mantissa_mask@floating_point_value@__crt_strtox@@QBE_KXZ 0040c5bd f i libucrt:input.obj
 0001:0000b5e0       ?divide@__crt_strtox@@YA_KAAUbig_integer@1@ABU21@@Z 0040c5e0 f i libucrt:input.obj
 0001:0000ba8e       ?get@?$input_adapter_character_source@V?$string_input_adapter@D@__crt_stdio_input@@@__crt_strtox@@QAEDXZ 0040ca8e f i libucrt:input.obj
 0001:0000bac8       ?get@?$string_input_adapter@D@__crt_stdio_input@@QAEHXZ 0040cac8 f i libucrt:input.obj
 0001:0000bade       ?invert@?$scanset_buffer@E@__crt_stdio_input@@QAEXXZ 0040cade f i libucrt:input.obj
 0001:0000bafc       ?is_character_allowed_in_string@?$input_processor@DV?$string_input_adapter@D@__crt_stdio_input@@@__crt_stdio_input@@ABE_NW4conversion_mode@2@H@Z 0040cafc f i libucrt:input.obj
 0001:0000bb42       ?length@?$format_string_parser@D@__crt_stdio_input@@QBEIXZ 0040cb42 f i libucrt:input.obj
 0001:0000bb83       ?normal_mantissa_mask@floating_point_value@__crt_strtox@@QBE_KXZ 0040cb83 f i libucrt:input.obj
 0001:0000bb9a       ?process@?$input_processor@DV?$string_input_adapter@D@__crt_stdio_input@@@__crt_stdio_input@@QAEHXZ 0040cb9a f i libucrt:input.obj
 0001:0000bc1f       ?process_character_count_specifier@?$input_processor@DV?$string_input_adapter@D@__crt_stdio_input@@@__crt_stdio_input@@AAE_NXZ 0040cc1f f i libucrt:input.obj
 0001:0000bc39       ?process_conversion_specifier@?$input_processor@DV?$string_input_adapter@D@__crt_stdio_input@@@__crt_stdio_input@@AAE_NXZ 0040cc39 f i libucrt:input.obj
 0001:0000bcad       ?process_floating_point_specifier@?$input_processor@DV?$string_input_adapter@D@__crt_stdio_input@@@__crt_stdio_input@@AAE_NXZ 0040ccad f i libucrt:input.obj
 0001:0000bcdd       ?process_integer_specifier@?$input_processor@DV?$string_input_adapter@D@__crt_stdio_input@@@__crt_stdio_input@@AAE_NI_N@Z 0040ccdd f i libucrt:input.obj
 0001:0000bd43       ?process_literal_character@?$input_processor@DV?$string_input_adapter@D@__crt_stdio_input@@@__crt_stdio_input@@AAE_NXZ 0040cd43 f i libucrt:input.obj
 0001:0000bd79       ?process_literal_character_tchar@?$input_processor@DV?$string_input_adapter@D@__crt_stdio_input@@@__crt_stdio_input@@AAE_ND@Z 0040cd79 f i libucrt:input.obj
 0001:0000bdcf       ?process_state@?$input_processor@DV?$string_input_adapter@D@__crt_stdio_input@@@__crt_stdio_input@@AAE_NXZ 0040cdcf f i libucrt:input.obj
 0001:0000be05       ?process_string_specifier@?$input_processor@DV?$string_input_adapter@D@__crt_stdio_input@@@__crt_stdio_input@@AAE_NW4conversion_mode@2@@Z 0040ce05 f i libucrt:input.obj
 0001:0000be4d       ?process_whitespace@?$input_processor@DV?$string_input_adapter@D@__crt_stdio_input@@@__crt_stdio_input@@AAE_NXZ 0040ce4d f i libucrt:input.obj
 0001:0000be6a       ?restore_state@?$input_adapter_character_source@V?$string_input_adapter@D@__crt_stdio_input@@@__crt_strtox@@QAE_N_K@Z 0040ce6a f i libucrt:input.obj
 0001:0000be8f       ?scan_conversion_specifier@?$format_string_parser@D@__crt_stdio_input@@AAE_NXZ 0040ce8f f i libucrt:input.obj
 0001:0000bffa       ?scan_optional_field_width@?$format_string_parser@D@__crt_stdio_input@@AAE_NXZ 0040cffa f i libucrt:input.obj
 0001:0000c099       ?scan_optional_length_modifier@?$format_string_parser@D@__crt_stdio_input@@AAEXXZ 0040d099 f i libucrt:input.obj
 0001:0000c1b9       ?scan_optional_literal_character_trail_bytes_tchar@?$format_string_parser@D@__crt_stdio_input@@AAE_ND@Z 0040d1b9 f i libucrt:input.obj
 0001:0000c20e       ?scan_optional_wide_modifier@?$format_string_parser@D@__crt_stdio_input@@AAEXXZ 0040d20e f i libucrt:input.obj
 0001:0000c22c       ?scan_scanset_range@?$format_string_parser@D@__crt_stdio_input@@AAE_NXZ 0040d22c f i libucrt:input.obj
 0001:0000c333       ?set@?$scanset_buffer@E@__crt_stdio_input@@QAEXE@Z 0040d333 f i libucrt:input.obj
 0001:0000c35e       ?set_wide_for_c_s_or_scanset@?$format_string_parser@D@__crt_stdio_input@@AAEXXZ 0040d35e f i libucrt:input.obj
 0001:0000c37e       ?test@?$scanset_buffer@E@__crt_stdio_input@@QBE_NE@Z 0040d37e f i libucrt:input.obj
 0001:0000c3af       ?to_floating_point_length@__crt_stdio_input@@YAIW4length_modifier@1@@Z 0040d3af f i libucrt:input.obj
 0001:0000c3d2       ?to_integer_length@__crt_stdio_input@@YAIW4length_modifier@1@@Z 0040d3d2 f i libucrt:input.obj
 0001:0000c42a       ?unget@?$input_adapter_character_source@V?$string_input_adapter@D@__crt_stdio_input@@@__crt_strtox@@QAEXD@Z 0040d42a f i libucrt:input.obj
 0001:0000c46b       ?unget@?$string_input_adapter@D@__crt_stdio_input@@QAEXH@Z 0040d46b f i libucrt:input.obj
 0001:0000c48a       ?validate@?$format_string_parser@D@__crt_stdio_input@@QBE_NXZ 0040d48a f i libucrt:input.obj
 0001:0000c4a6       ?validate@?$input_adapter_character_source@V?$string_input_adapter@D@__crt_stdio_input@@@__crt_strtox@@QBE_NXZ 0040d4a6 f i libucrt:input.obj
 0001:0000c4c7       ?validate@?$string_input_adapter@D@__crt_stdio_input@@QAE_NXZ 0040d4c7 f i libucrt:input.obj
 0001:0000c4e9       ?write_character@?$input_processor@DV?$string_input_adapter@D@__crt_stdio_input@@@__crt_stdio_input@@AAE_NQA_WIAAPA_WAAID@Z 0040d4e9 f i libucrt:input.obj
 0001:0000c55a       ?write_integer@?$input_processor@DV?$string_input_adapter@D@__crt_stdio_input@@@__crt_stdio_input@@AAE_N_K_N@Z 0040d55a f i libucrt:input.obj
 0001:0000c5d1       ___stdio_common_vsscanf    0040d5d1 f   libucrt:input.obj
 0001:0000c5f5       __chvalidchk_l             0040d5f5 f i libucrt:input.obj
 0001:0000c61f       __ischartype_l             0040d61f f i libucrt:input.obj
 0001:0000c652       _strtok                    0040d652 f   libucrt:strtok.obj
 0001:0000c735       _fgets                     0040d735 f   libucrt:fgets.obj
 0001:0000ca0e       __tolower_l                0040da0e f   libucrt:tolower_toupper.obj
 0001:0000ca28       __toupper_l                0040da28 f   libucrt:tolower_toupper.obj
 0001:0000ca42       _tolower                   0040da42 f   libucrt:tolower_toupper.obj
 0001:0000ca72       _toupper                   0040da72 f   libucrt:tolower_toupper.obj
 0001:0000caa2       ??$?RV<lambda_11b4f7b0d3157825a5656a18eba1ae27>@@AAV<lambda_b51c0495177f500e782686251704ae76>@@V<lambda_cf89b47920b5017557bfe891e78aca36>@@@?$__crt_seh_guarded_call@I@@QAEI$$QAV<lambda_11b4f7b0d3157825a5656a18eba1ae27>@@AAV<lambda_b51c0495177f500e782686251704ae76>@@$$QAV<lambda_cf89b47920b5017557bfe891e78aca36>@@@Z 0040daa2 f i libucrt:fwrite.obj
 0001:0000caf3       ??$__acrt_lock_stream_and_call@V<lambda_b51c0495177f500e782686251704ae76>@@@@YAIQAU_iobuf@@$$QAV<lambda_b51c0495177f500e782686251704ae76>@@@Z 0040daf3 f i libucrt:fwrite.obj
 0001:0000cb61       __fwrite_nolock            0040db61 f   libucrt:fwrite.obj
 0001:0000ccda       _fwrite                    0040dcda f   libucrt:fwrite.obj
 0001:0000cd32       ??$is_overflow_condition@K@__crt_strtox@@YA_NIK@Z 0040dd32 f i libucrt:atox.obj
 0001:0000cd65       ??$parse_integer@KV?$c_string_character_source@D@__crt_strtox@@@__crt_strtox@@YAKQAU__crt_locale_pointers@@V?$c_string_character_source@D@0@H_N@Z 0040dd65 f i libucrt:atox.obj
 0001:0000cf8d       ??$parse_integer@KV?$c_string_character_source@_W@__crt_strtox@@@__crt_strtox@@YAKQAU__crt_locale_pointers@@V?$c_string_character_source@_W@0@H_N@Z 0040df8d f i libucrt:atox.obj
 0001:0000d672       ??$parse_integer@_KV?$c_string_character_source@D@__crt_strtox@@@__crt_strtox@@YA_KQAU__crt_locale_pointers@@V?$c_string_character_source@D@0@H_N@Z 0040e672 f i libucrt:atox.obj
 0001:0000d918       ?unget@?$c_string_character_source@D@__crt_strtox@@QAEXD@Z 0040e918 f i libucrt:atox.obj
 0001:0000d940       ?unget@?$c_string_character_source@_W@__crt_strtox@@QAEX_W@Z 0040e940 f i libucrt:atox.obj
 0001:0000d96c       ?validate@?$c_string_character_source@D@__crt_strtox@@QBE_NXZ 0040e96c f i libucrt:atox.obj
 0001:0000d96c       ?validate@?$stream_output_adapter@_W@__crt_stdio_output@@QBE_NXZ 0040e96c f i libucrt:output.obj
 0001:0000d96c       ?validate@?$c_string_character_source@_W@__crt_strtox@@QBE_NXZ 0040e96c f i libucrt:atox.obj
 0001:0000d96c       ?validate@?$string_output_adapter@D@__crt_stdio_output@@QBE_NXZ 0040e96c f i libucrt:output.obj
 0001:0000d96c       ?validate@?$string_output_adapter@_W@__crt_stdio_output@@QBE_NXZ 0040e96c f i libucrt:output.obj
 0001:0000d987       _atol                      0040e987 f   libucrt:atox.obj
 0001:0000d987       _atoi                      0040e987 f   libucrt:atox.obj
 0001:0000d9b1       _malloc                    0040e9b1 f   libucrt:malloc.obj
 0001:0000d9bc       _rand                      0040e9bc f   libucrt:rand.obj
 0001:0000d9dd       ??$make_c_string_character_source@DPAPAD@__crt_strtox@@YA?AV?$c_string_character_source@D@0@QBDQAPAD@Z 0040e9dd f i libucrt:strtox.obj
 0001:0000d9dd       ??$make_c_string_character_source@D$$T@__crt_strtox@@YA?AV?$c_string_character_source@D@0@QBD$$T@Z 0040e9dd f i libucrt:atox.obj
 0001:0000d9dd       ??$make_c_string_character_source@_WPAPA_W@__crt_strtox@@YA?AV?$c_string_character_source@_W@0@QB_WQAPA_W@Z 0040e9dd f i libucrt:strtox.obj
 0001:0000d9f8       _strtol                    0040e9f8 f   libucrt:strtox.obj
 0001:0000da24       _strtoull                  0040ea24 f   libucrt:strtox.obj
 0001:0000da50       _wcstol                    0040ea50 f   libucrt:strtox.obj
 0001:0000da7c       ___acrt_stdio_flush_nolock 0040ea7c f   libucrt:fflush.obj
 0001:0000dae2       __fflush_nolock            0040eae2 f   libucrt:fflush.obj
 0001:0000db29       __flushall                 0040eb29 f   libucrt:fflush.obj
 0001:0000dc0a       _fflush                    0040ec0a f   libucrt:fflush.obj
 0001:0000e058       ??$loctotime@AAGAAGAAGAAGAAGAAGH@?$__crt_integer_traits@_J@@SA_JAAG00000$$QAH@Z 0040f058 f i libucrt:stat.obj
 0001:0000e44e       __stat64i32                0040f44e f   libucrt:stat.obj
 0001:0000e52d       ??Rthread_parameter_free_policy@?A0xe57bf005@@QAEXQAU__acrt_thread_parameter@@@Z 0040f52d f i libucrt:thread.obj
 0001:0000e604       __beginthread              0040f604 f   libucrt:thread.obj
 0001:0000e690       __endthread                0040f690 f   libucrt:thread.obj
 0001:0000e698       __endthreadex              0040f698 f   libucrt:thread.obj
 0001:0000e6a6       __strdup                   0040f6a6 f   libucrt:strdup.obj
 0001:0000e6a6       _strdup                    0040f6a6 f   libucrt:strdup.obj
 0001:0000e6fc       _free                      0040f6fc f   libucrt:free.obj
 0001:0000e701       ___acrt_call_reportfault   0040f701 f   libucrt:invalid_parameter.obj
 0001:0000e83c       ___acrt_initialize_invalid_parameter_handler 0040f83c f   libucrt:invalid_parameter.obj
 0001:0000e850       __invalid_parameter        0040f850 f   libucrt:invalid_parameter.obj
 0001:0000e8cb       __invalid_parameter_noinfo 0040f8cb f   libucrt:invalid_parameter.obj
 0001:0000e8db       __invalid_parameter_noinfo_noreturn 0040f8db f   libucrt:invalid_parameter.obj
 0001:0000e8f8       __invoke_watson            0040f8f8 f   libucrt:invalid_parameter.obj
 0001:0000e930       _strncpy                   0040f930 f   libucrt:strncpy.obj
 0001:0000ec2b       ___acrt_initialize_thread_local_exit_callback 0040fc2b f   libucrt:exit.obj
 0001:0000ec3a       __c_exit                   0040fc3a f   libucrt:exit.obj
 0001:0000ec49       __cexit                    0040fc49 f   libucrt:exit.obj
 0001:0000ec58       __exit                     0040fc58 f   libucrt:exit.obj
 0001:0000ec6e       __register_thread_local_exe_atexit_callback 0040fc6e f   libucrt:exit.obj
 0001:0000eca6       _exit                      0040fca6 f   libucrt:exit.obj
 0001:0000f208       __ftelli64_nolock          00410208 f   libucrt:ftell.obj
 0001:0000f213       _ftell                     00410213 f   libucrt:ftell.obj
 0001:0000f882       ??$ftprintf@PAU_iobuf@@PB_WABQB_WABQB_WABI@?$__crt_char_traits@_W@@SAH$$QAPAU_iobuf@@$$QAPB_WABQB_W2ABI@Z 00410882 f i libucrt:assert.obj
 0001:0000f961       __vfwprintf_l              00410961 f i libucrt:assert.obj
 0001:0000f986       __vswprintf_c_l            00410986 f i libucrt:assert.obj
 0001:0000f9b5       __wassert                  004109b5 f   libucrt:assert.obj
 0001:0000f9fd       _fwprintf                  004109fd f i libucrt:assert.obj
 0001:0000fa18       _swprintf                  00410a18 f i libucrt:assert.obj
 0001:0000fa36       ?LongLongSub@@YAJ_J0PA_J@Z 00410a36 f i libucrt:fseek.obj
 0001:0000fcf0       _fseek                     00410cf0 f   libucrt:fseek.obj
 0001:0000fd0b       ??$?RV<lambda_a048d3beccc847880fc8490e18b82769>@@AAV<lambda_ec61778202f4f5fc7e7711acc23c3bca>@@V<lambda_f7496a158712204296dd6628a163878e>@@@?$__crt_seh_guarded_call@P6AXH@Z@@QAEP6AXH@Z$$QAV<lambda_a048d3beccc847880fc8490e18b82769>@@AAV<lambda_ec61778202f4f5fc7e7711acc23c3bca>@@$$QAV<lambda_f7496a158712204296dd6628a163878e>@@@Z 00410d0b f i libucrt:signal.obj
 0001:0000fd65       ??$__acrt_lock_and_call@V<lambda_ec61778202f4f5fc7e7711acc23c3bca>@@@@YAP6AXH@ZW4__acrt_lock_id@@$$QAV<lambda_ec61778202f4f5fc7e7711acc23c3bca>@@@Z 00410d65 f i libucrt:signal.obj
 0001:0000fed6       ___acrt_get_sigabrt_handler 00410ed6 f   libucrt:signal.obj
 0001:0000feed       ___acrt_initialize_signal_handlers 00410eed f   libucrt:signal.obj
 0001:0000ff28       ___fpecode                 00410f28 f   libucrt:signal.obj
 0001:0000ff31       _raise                     00410f31 f   libucrt:signal.obj
 0001:00010139       _signal                    00411139 f   libucrt:signal.obj
 0001:000102eb       _calloc                    004112eb f   libucrt:calloc.obj
 0001:000102f6       _realloc                   004112f6 f   libucrt:realloc.obj
 0001:00010301       _rename                    00411301 f   libucrt:rename.obj
 0001:000103c7       _roundf                    004113c7 f   libucrt:roundf.obj
 0001:00010419       _fmaxf                     00411419 f   libucrt:fmaxf.obj
 0001:00010475       _fminf                     00411475 f   libucrt:fminf.obj
 0001:000104d1       __Strftime_l               004114d1 f   libucrt:strftime.obj
 0001:00010600       _strftime                  00411600 f   libucrt:strftime.obj
 0001:0001069e       __time64                   0041169e f   libucrt:time.obj
 0001:0001096a       __localtime64              0041196a f   libucrt:localtime.obj
 0001:00010991       ?initialize@?$dual_state_global@P6AXPB_W00II@Z@__crt_state_management@@QAEXQ6AXPB_W00II@Z@Z 00411991 f i libucrt:invalid_parameter.obj
 0001:00010991       ?initialize@?$dual_state_global@P6AHI@Z@__crt_state_management@@QAEXQ6AHI@Z@Z 00411991 f i libucrt:new_handler.obj
 0001:00010991       ?initialize@?$dual_state_global@PAU__crt_locale_data@@@__crt_state_management@@QAEXQAU__crt_locale_data@@@Z 00411991 f i libucrt:initialization.obj
 0001:00010991       ?initialize@?$dual_state_global@P6AHPAU_exception@@@Z@__crt_state_management@@QAEXQ6AHPAU_exception@@@Z@Z 00411991 f i libucrt:matherr.obj
 0001:00010991       ?initialize@?$dual_state_global@H@__crt_state_management@@QAEXH@Z 00411991 f i libucrt:timeset.obj
 0001:00010991       ?initialize@?$dual_state_global@P6AXH@Z@__crt_state_management@@QAEXQ6AXH@Z@Z 00411991 f i libucrt:signal.obj
 0001:00010991       ?initialize@?$dual_state_global@J@__crt_state_management@@QAEXJ@Z 00411991 f i libucrt:timeset.obj
 0001:00010991       ?initialize@?$dual_state_global@PAPAD@__crt_state_management@@QAEXQAPAD@Z 00411991 f i libucrt:environment_initialization.obj
 0001:000109c2       ___acrt_initialize_new_handler 004119c2 f   libucrt:new_handler.obj
 0001:000109d6       __callnewh                 004119d6 f   libucrt:new_handler.obj
 0001:00010a1a       __query_new_handler        00411a1a f   libucrt:new_handler.obj
 0001:00010a6c       __seh_filter_exe           00411a6c f   libucrt:exception_filter.obj
 0001:00010bdf       __query_app_type           00411bdf f   libucrt:report_runtime_error.obj
 0001:00010be5       __set_app_type             00411be5 f   libucrt:report_runtime_error.obj
 0001:00010bf4       ??$__crt_fast_encode_pointer@P6AHPAU_exception@@@Z@@YAP6AHPAU_exception@@@ZQ6AH0@Z@Z 00411bf4 f i libucrt:matherr.obj
 0001:00010bf4       ??$__crt_fast_encode_pointer@P6AXH@Z@@YAP6AXH@ZQ6AXH@Z@Z 00411bf4 f i libucrt:signal.obj
 0001:00010bf4       ??$__crt_fast_encode_pointer@P6GXPAXK0@Z@@YAP6GXPAXK0@ZQ6GX0K0@Z@Z 00411bf4 f i libucrt:exit.obj
 0001:00010bf4       ??$__crt_fast_encode_pointer@P6AHXZ@@YAP6AHXZQ6AHXZ@Z 00411bf4 f i libucrt:onexit.obj
 0001:00010c13       ___acrt_has_user_matherr   00411c13 f   libucrt:matherr.obj
 0001:00010c2c       ___acrt_initialize_user_matherr 00411c2c f   libucrt:matherr.obj
 0001:00010c40       ___acrt_invoke_user_matherr 00411c40 f   libucrt:matherr.obj
 0001:00010c89       ___setusermatherr          00411c89 f   libucrt:matherr.obj
 0001:00010f37       ___acrt_allocate_buffer_for_argv 00411f37 f   libucrt:argv_parsing.obj
 0001:00010f8c       __configure_narrow_argv    00411f8c f   libucrt:argv_parsing.obj
 0001:0001119e       ??$uninitialize@A6AXAAPAPA_W@Z@?$dual_state_global@PAPA_W@__crt_state_management@@QAEXA6AXAAPAPA_W@Z@Z 0041219e f i libucrt:environment_initialization.obj
 0001:0001119e       ??$uninitialize@A6AXAAPAPAD@Z@?$dual_state_global@PAPAD@__crt_state_management@@QAEXA6AXAAPAPAD@Z@Z 0041219e f i libucrt:environment_initialization.obj
 0001:00011214       ___dcrt_get_or_create_narrow_environment_nolock 00412214 f   libucrt:environment_initialization.obj
 0001:00011219       ___dcrt_uninitialize_environments_nolock 00412219 f   libucrt:environment_initialization.obj
 0001:00011250       __initialize_narrow_environment 00412250 f   libucrt:environment_initialization.obj
 0001:00011255       __get_narrow_winmain_command_line 00412255 f   libucrt:argv_winmain.obj
 0001:000112a8       __initterm                 004122a8 f   libucrt:initterm.obj
 0001:00011304       __initterm_e               00412304 f   libucrt:initterm.obj
 0001:00011349       __get_fmode                00412349 f   libucrt:setmode.obj
 0001:00011375       __set_fmode                00412375 f   libucrt:setmode.obj
 0001:000113b2       __setmode_nolock           004123b2 f   libucrt:setmode.obj
 0001:00011483       ___acrt_set_locale_changed 00412483 f   libucrt:wsetlocale.obj
 0001:0001148e       ___acrt_uninitialize_locale 0041248e f   libucrt:wsetlocale.obj
 0001:000114e0       __configthreadlocale       004124e0 f   libucrt:wsetlocale.obj
 0001:00011542       __query_new_mode           00412542 f   libucrt:new_mode.obj
 0001:00011548       __set_new_mode             00412548 f   libucrt:new_mode.obj
 0001:00011577       ___p__commode              00412577 f   libucrt:ncommode.obj
 0001:0001157d       ??$?RV<lambda_800076c951b434888f4765a74a194fcc>@@AAV<lambda_4e60a939b0d047cfe11ddc22648dfba9>@@V<lambda_6dbb1268764f43b569ce7b67e331d33a>@@@?$__crt_seh_guarded_call@H@@QAEH$$QAV<lambda_800076c951b434888f4765a74a194fcc>@@AAV<lambda_4e60a939b0d047cfe11ddc22648dfba9>@@$$QAV<lambda_6dbb1268764f43b569ce7b67e331d33a>@@@Z 0041257d f i libucrt:onexit.obj
 0001:000115ce       ??$?RV<lambda_995298e7d72eb4c2aab26c0585b3abe5>@@AAV<lambda_275893d493268fdec8709772e3fcec0e>@@V<lambda_293819299cbf9a7022e18b56a874bb5c>@@@?$__crt_seh_guarded_call@H@@QAEH$$QAV<lambda_995298e7d72eb4c2aab26c0585b3abe5>@@AAV<lambda_275893d493268fdec8709772e3fcec0e>@@$$QAV<lambda_293819299cbf9a7022e18b56a874bb5c>@@@Z 004125ce f i libucrt:onexit.obj
 0001:0001161f       ??$__acrt_lock_and_call@V<lambda_275893d493268fdec8709772e3fcec0e>@@@@YAHW4__acrt_lock_id@@$$QAV<lambda_275893d493268fdec8709772e3fcec0e>@@@Z 0041261f f i libucrt:onexit.obj
 0001:00011647       ??$__acrt_lock_and_call@V<lambda_4e60a939b0d047cfe11ddc22648dfba9>@@@@YAHW4__acrt_lock_id@@$$QAV<lambda_4e60a939b0d047cfe11ddc22648dfba9>@@@Z 00412647 f i libucrt:onexit.obj
 0001:000118d0       __crt_atexit               004128d0 f   libucrt:onexit.obj
 0001:000118e6       __execute_onexit_table     004128e6 f   libucrt:onexit.obj
 0001:00011903       __initialize_onexit_table  00412903 f   libucrt:onexit.obj
 0001:00011940       __register_onexit_function 00412940 f   libucrt:onexit.obj
 0001:00011990       __should_initialize_environment 00412990 f   LIBCMT:env_mode.obj
 0001:00011990       ___acrt_uninitialize_command_line 00412990 f   libucrt:argv_data.obj
 0001:00011a58       ___acrt_initialize         00412a58 f   libucrt:initialization.obj
 0001:00011a6a       ___acrt_uninitialize       00412a6a f   libucrt:initialization.obj
 0001:00011a7c       __controlfp_s              00412a7c f   libucrt:contrlfp.obj
 0001:00011adb       _terminate                 00412adb f   libucrt:terminate.obj
 0001:00011b17       ___ascii_stricmp           00412b17 f   libucrt:stricmp.obj
 0001:00011b52       __stricmp                  00412b52 f   libucrt:stricmp.obj
 0001:00011b52       _stricmp                   00412b52 f   libucrt:stricmp.obj
 0001:00011b9a       __stricmp_l                00412b9a f   libucrt:stricmp.obj
 0001:00011c34       __strnicmp                 00412c34 f   libucrt:strnicmp.obj
 0001:00011c34       _strnicmp                  00412c34 f   libucrt:strnicmp.obj
 0001:00011ca0       __strnicmp_l               00412ca0 f   libucrt:strnicmp.obj
 0001:000123e1       __open                     004133e1 f   libucrt:open.obj
 0001:000123e1       _open                      004133e1 f   libucrt:open.obj
 0001:000123f9       __sopen_nolock             004133f9 f   libucrt:open.obj
 0001:0001244a       __sopen_s                  0041344a f   libucrt:open.obj
 0001:0001246a       __wsopen_nolock            0041346a f   libucrt:open.obj
 0001:00012c7b       _read                      00413c7b f   libucrt:read.obj
 0001:00012c7b       __read                     00413c7b f   libucrt:read.obj
 0001:00012d8e       __read_nolock              00413d8e f   libucrt:read.obj
 0001:00013143       ??$?RV<lambda_123407a5e2ac06da108355a851863b7a>@@AAV<lambda_2fe9b910cf3cbf4a0ab98a02ba45b3ec>@@V<lambda_ae55bdf541ad94d75914d381c370e64d>@@@?$__crt_seh_guarded_call@H@@QAEH$$QAV<lambda_123407a5e2ac06da108355a851863b7a>@@AAV<lambda_2fe9b910cf3cbf4a0ab98a02ba45b3ec>@@$$QAV<lambda_ae55bdf541ad94d75914d381c370e64d>@@@Z 00414143 f i libucrt:close.obj
 0001:000131c5       ??$__acrt_lowio_lock_fh_and_call@V<lambda_2fe9b910cf3cbf4a0ab98a02ba45b3ec>@@@@YAHH$$QAV<lambda_2fe9b910cf3cbf4a0ab98a02ba45b3ec>@@@Z 004141c5 f i libucrt:close.obj
 0001:000131ed       __close                    004141ed f   libucrt:close.obj
 0001:000131ed       _close                     004141ed f   libucrt:close.obj
 0001:0001326c       __close_nolock             0041426c f   libucrt:close.obj
 0001:00013308       _unlink                    00414308 f   libucrt:unlink.obj
 0001:00013308       __unlink                   00414308 f   libucrt:unlink.obj
 0001:00013313       _remove                    00414313 f   libucrt:unlink.obj
 0001:00013360       __access                   00414360 f   libucrt:access.obj
 0001:00013360       _access                    00414360 f   libucrt:access.obj
 0001:00013378       __access_s                 00414378 f   libucrt:access.obj
 0001:0001395d       _write                     0041495d f   libucrt:write.obj
 0001:0001395d       __write                    0041495d f   libucrt:write.obj
 0001:00013a48       __write_nolock             00414a48 f   libucrt:write.obj
 0001:00013c54       _strcpy_s                  00414c54 f   libucrt:strcpy_s.obj
 0001:00013cae       __free_base                00414cae f   libucrt:free_base.obj
 0001:00013ce8       __malloc_base              00414ce8 f   libucrt:malloc_base.obj
 0001:00013d36       _abort                     00414d36 f   libucrt:abort.obj
 0001:00013d79       __calloc_base              00414d79 f   libucrt:calloc_base.obj
 0001:00013dd6       __isdigit_l                00414dd6 f i libucrt:_ctype.obj
 0001:00013e0e       __isspace_l                00414e0e f i libucrt:_ctype.obj
 0001:00013e46       _isdigit                   00414e46 f i libucrt:_ctype.obj
 0001:00013e73       _isspace                   00414e73 f i libucrt:_ctype.obj
 0001:00013ea0       ___acrt_errno_from_os_error 00414ea0 f   libucrt:errno.obj
 0001:00013ee3       ___acrt_errno_map_os_error 00414ee3 f   libucrt:errno.obj
 0001:00013f06       ___doserrno                00414f06 f   libucrt:errno.obj
 0001:00013f19       __errno                    00414f19 f   libucrt:errno.obj
 0001:00013f2c       __mbtowc_l                 00414f2c f   libucrt:mbtowc.obj
 0001:00014026       _mbtowc                    00415026 f   libucrt:mbtowc.obj
 0001:00014040       __wctomb_s_l               00415040 f   libucrt:wctomb.obj
 0001:00014161       _wctomb_s                  00415161 f   libucrt:wctomb.obj
 0001:0001417e       _strnlen                   0041517e f   libucrt:strnlen.obj
 0001:000142a5       _wcsnlen                   004152a5 f   libucrt:strnlen.obj
 0001:0001445c       ??$?RV<lambda_3518db117f0e7cdb002338c5d3c47b6c>@@AAV<lambda_b2ea41f6bbb362cd97d94c6828d90b61>@@V<lambda_abdedf541bb04549bc734292b4a045d4>@@@?$__crt_seh_guarded_call@X@@QAEX$$QAV<lambda_3518db117f0e7cdb002338c5d3c47b6c>@@AAV<lambda_b2ea41f6bbb362cd97d94c6828d90b61>@@$$QAV<lambda_abdedf541bb04549bc734292b4a045d4>@@@Z 0041545c f i libucrt:per_thread_data.obj
 0001:000144ac       ??$?RV<lambda_51b6e8b1eb166f2a3faf91f424b38130>@@AAV<lambda_6250bd4b2a391816dd638c3bf72b0bcb>@@V<lambda_0b5a4a3e68152e1d9b943535f5f47bed>@@@?$__crt_seh_guarded_call@X@@QAEX$$QAV<lambda_51b6e8b1eb166f2a3faf91f424b38130>@@AAV<lambda_6250bd4b2a391816dd638c3bf72b0bcb>@@$$QAV<lambda_0b5a4a3e68152e1d9b943535f5f47bed>@@@Z 004154ac f i libucrt:per_thread_data.obj
 0001:0001450d       ??$?RV<lambda_5b71d36f03204c0beab531769a5b5694>@@AAV<lambda_be2b3da3f62db62e9dad5dc70221a656>@@V<lambda_8f9ce462984622f9bf76b59e2aaaf805>@@@?$__crt_seh_guarded_call@X@@QAEX$$QAV<lambda_5b71d36f03204c0beab531769a5b5694>@@AAV<lambda_be2b3da3f62db62e9dad5dc70221a656>@@$$QAV<lambda_8f9ce462984622f9bf76b59e2aaaf805>@@@Z 0041550d f i libucrt:per_thread_data.obj
 0001:00014558       ??$?RV<lambda_9df27f884b057bc3edfc946cb5b7cf47>@@AAV<lambda_e69574bed617af4e071282c136b37893>@@V<lambda_cc0d902bcbbeb830f749456577db4721>@@@?$__crt_seh_guarded_call@X@@QAEX$$QAV<lambda_9df27f884b057bc3edfc946cb5b7cf47>@@AAV<lambda_e69574bed617af4e071282c136b37893>@@$$QAV<lambda_cc0d902bcbbeb830f749456577db4721>@@@Z 00415558 f i libucrt:per_thread_data.obj
 0001:000145a0       ??$__acrt_lock_and_call@V<lambda_6250bd4b2a391816dd638c3bf72b0bcb>@@@@YAXW4__acrt_lock_id@@$$QAV<lambda_6250bd4b2a391816dd638c3bf72b0bcb>@@@Z 004155a0 f i libucrt:per_thread_data.obj
 0001:000145c8       ??$__acrt_lock_and_call@V<lambda_b2ea41f6bbb362cd97d94c6828d90b61>@@@@YAXW4__acrt_lock_id@@$$QAV<lambda_b2ea41f6bbb362cd97d94c6828d90b61>@@@Z 004155c8 f i libucrt:per_thread_data.obj
 0001:000145f0       ??$__acrt_lock_and_call@V<lambda_be2b3da3f62db62e9dad5dc70221a656>@@@@YAXW4__acrt_lock_id@@$$QAV<lambda_be2b3da3f62db62e9dad5dc70221a656>@@@Z 004155f0 f i libucrt:per_thread_data.obj
 0001:00014618       ??$__acrt_lock_and_call@V<lambda_e69574bed617af4e071282c136b37893>@@@@YAXW4__acrt_lock_id@@$$QAV<lambda_e69574bed617af4e071282c136b37893>@@@Z 00415618 f i libucrt:per_thread_data.obj
 0001:000147ce       ___acrt_getptd             004157ce f   libucrt:per_thread_data.obj
 0001:00014852       ___acrt_getptd_noexit      00415852 f   libucrt:per_thread_data.obj
 0001:000148d7       ___acrt_initialize_ptd     004158d7 f   libucrt:per_thread_data.obj
 0001:00014903       ___acrt_uninitialize_ptd   00415903 f   libucrt:per_thread_data.obj
 0001:0001491d       ___acrt_update_locale_info 0041591d f   libucrt:locale_update.obj
 0001:0001494a       ___acrt_update_multibyte_info 0041594a f   libucrt:locale_update.obj
 0001:00014977       ?__acrt_fp_classify@@YA?AW4__acrt_fp_class@@ABN@Z 00415977 f i libucrt:cvt.obj
 0001:000149e3       ?__acrt_fp_is_negative@@YA_NABN@Z 004159e3 f i libucrt:cvt.obj
 0001:00015242       ___acrt_fp_format          00416242 f   libucrt:cvt.obj
 0001:000153be       __fputwc_nolock            004163be f   libucrt:fputwc.obj
 0001:000154e4       __fileno                   004164e4 f   libucrt:fileno.obj
 0001:0001550a       ___acrt_initialize_stdio   0041650a f   libucrt:_file.obj
 0001:000155d2       ___acrt_iob_func           004165d2 f   libucrt:_file.obj
 0001:000155e2       ___acrt_uninitialize_stdio 004165e2 f   libucrt:_file.obj
 0001:0001562e       __lock_file                0041662e f   libucrt:_file.obj
 0001:00015642       __unlock_file              00416642 f   libucrt:_file.obj
 0001:00015656       __fputc_nolock             00416656 f   libucrt:fputc.obj
 0001:0001567f       __get_printf_count_output  0041667f f   libucrt:printf_count_output.obj
 0001:00015694       ___acrt_stdio_begin_temporary_buffering_nolock 00416694 f   libucrt:_sftbuf.obj
 0001:00015749       ___acrt_stdio_end_temporary_buffering_nolock 00416749 f   libucrt:_sftbuf.obj
 0001:000158ee       ___acrt_initialize_lowio   004168ee f   libucrt:ioinit.obj
 0001:00015944       ___acrt_uninitialize_lowio 00416944 f   libucrt:ioinit.obj
 0001:00015970       ?__acrt_stdio_allocate_stream@@YA?AV__crt_stdio_stream@@XZ 00416970 f   libucrt:stream.obj
 0001:000159cf       ?__acrt_stdio_free_stream@@YAXV__crt_stdio_stream@@@Z 004169cf f   libucrt:stream.obj
 0001:00015acd       ??$__acrt_stdio_parse_mode@D@@YA?AU__acrt_stdio_stream_mode@@QBD@Z 00416acd f i libucrt:openfile.obj
 0001:00015d84       ?__acrt_stdio_parse_mode_D@@YA_NAAU__acrt_stdio_stream_mode@@@Z 00416d84 f i libucrt:openfile.obj
 0001:00015d9f       ?__acrt_stdio_parse_mode_T@@YA_NAAU__acrt_stdio_stream_mode@@@Z 00416d9f f i libucrt:openfile.obj
 0001:00015dbe       ?__acrt_stdio_parse_mode_b@@YA_NAAU__acrt_stdio_stream_mode@@@Z 00416dbe f i libucrt:openfile.obj
 0001:00015dde       ?__acrt_stdio_parse_mode_c@@YA_NAAU__acrt_stdio_stream_mode@@AA_N@Z 00416dde f i libucrt:openfile.obj
 0001:00015e00       ?__acrt_stdio_parse_mode_n@@YA_NAAU__acrt_stdio_stream_mode@@AA_N@Z 00416e00 f i libucrt:openfile.obj
 0001:00015e22       ?__acrt_stdio_parse_mode_plus@@YA_NAAU__acrt_stdio_stream_mode@@AA_N@Z 00416e22 f i libucrt:openfile.obj
 0001:00015e57       ?__acrt_stdio_parse_mode_t@@YA_NAAU__acrt_stdio_stream_mode@@@Z 00416e57 f i libucrt:openfile.obj
 0001:00015e77       __openfile                 00416e77 f   libucrt:openfile.obj
 0001:00015e82       ___acrt_stdio_free_buffer_nolock 00416e82 f   libucrt:_freebuf.obj
 0001:00016041       ___acrt_stdio_refill_and_read_narrow_nolock 00417041 f   libucrt:_filbuf.obj
 0001:0001604c       ___pctype_func             0041704c f   libucrt:ctype.obj
 0001:00016072       _iswctype                  00417072 f   libucrt:iswctype.obj
 0001:000160d1       __isctype_l                004170d1 f   libucrt:isctype.obj
 0001:000161a3       __fgetc_nolock             004171a3 f   libucrt:fgetc.obj
 0001:000161df       __getc_nolock              004171df f   libucrt:fgetc.obj
 0001:000161ea       _fegetround                004171ea f   libucrt:fegetround.obj
 0001:000161f5       ___acrt_strtok_s_novalidation 004171f5 f   libucrt:strtok_s.obj
 0001:000162d4       __isleadbyte_l             004172d4 f i libucrt:_wctype.obj
 0001:0001652a       ___acrt_LCMapStringA       0041752a f   libucrt:lcmapstringa.obj
 0001:00016575       __freea_crt                00417575 f i libucrt:lcmapstringa.obj
 0001:0001695b       ___acrt_stdio_flush_and_write_narrow_nolock 0041795b f   libucrt:_flsbuf.obj
 0001:00016966       ___acrt_stdio_flush_and_write_wide_nolock 00417966 f   libucrt:_flsbuf.obj
 0001:00016971       ___acrt_initialize_locks   00417971 f   libucrt:locks.obj
 0001:000169b2       ___acrt_lock               004179b2 f   libucrt:locks.obj
 0001:000169c9       ___acrt_uninitialize_locks 004179c9 f   libucrt:locks.obj
 0001:000169fa       ___acrt_unlock             004179fa f   libucrt:locks.obj
 0001:00016a11       ??$?RV<lambda_61cee617f5178ae960314fd4d05640a0>@@AAV<lambda_6978c1fb23f02e42e1d9e99668cc68aa>@@V<lambda_9cd88cf8ad10232537feb2133f08c833>@@@?$__crt_seh_guarded_call@H@@QAEH$$QAV<lambda_61cee617f5178ae960314fd4d05640a0>@@AAV<lambda_6978c1fb23f02e42e1d9e99668cc68aa>@@$$QAV<lambda_9cd88cf8ad10232537feb2133f08c833>@@@Z 00417a11 f i libucrt:commit.obj
 0001:00016aa9       ??$__acrt_lowio_lock_fh_and_call@V<lambda_6978c1fb23f02e42e1d9e99668cc68aa>@@@@YAHH$$QAV<lambda_6978c1fb23f02e42e1d9e99668cc68aa>@@@Z 00417aa9 f i libucrt:commit.obj
 0001:00016ad1       __commit                   00417ad1 f   libucrt:commit.obj
 0001:00016b6d       __getdrive                 00417b6d f   libucrt:drive.obj
 0001:00016cf1       __wfullpath                00417cf1 f   libucrt:fullpath.obj
 0001:00016d47       _wcspbrk                   00417d47 f   libucrt:wcspbrk.obj
 0001:00016d8c       __wcsicmp                  00417d8c f   libucrt:wcsicmp.obj
 0001:00016e21       __wcsicmp_l                00417e21 f   libucrt:wcsicmp.obj
 0001:00016f01       ___acrt_copy_path_to_wide_string 00417f01 f   libucrt:string_utilities.obj
 0001:00017130       ___acrt_AreFileApisANSI@0  00418130 f   libucrt:winapi_thunks.obj
 0001:0001717e       ___acrt_CompareStringEx@36 0041817e f   libucrt:winapi_thunks.obj
 0001:000171f2       ___acrt_FlsAlloc@4         004181f2 f   libucrt:winapi_thunks.obj
 0001:00017248       ___acrt_FlsFree@4          00418248 f   libucrt:winapi_thunks.obj
 0001:0001729e       ___acrt_FlsGetValue@4      0041829e f   libucrt:winapi_thunks.obj
 0001:000172f4       ___acrt_FlsSetValue@8      004182f4 f   libucrt:winapi_thunks.obj
 0001:0001734d       ___acrt_GetDateFormatEx@28 0041834d f   libucrt:winapi_thunks.obj
 0001:000173cf       ___acrt_GetFileInformationByHandleEx@16 004183cf f   libucrt:winapi_thunks.obj
 0001:00017432       ___acrt_GetSystemTimePreciseAsFileTime@4 00418432 f   libucrt:winapi_thunks.obj
 0001:00017488       ___acrt_GetTimeFormatEx@24 00418488 f   libucrt:winapi_thunks.obj
 0001:000174f8       ___acrt_InitializeCriticalSectionEx@12 004184f8 f   libucrt:winapi_thunks.obj
 0001:0001755a       ___acrt_LCMapStringEx@36   0041855a f   libucrt:winapi_thunks.obj
 0001:000175e2       ___acrt_LocaleNameToLCID@8 004185e2 f   libucrt:winapi_thunks.obj
 0001:0001763e       ___acrt_MessageBoxW@16     0041863e f   libucrt:winapi_thunks.obj
 0001:00017687       ___acrt_RoInitialize@4     00418687 f   libucrt:winapi_thunks.obj
 0001:000176d9       ___acrt_RoUninitialize@0   004186d9 f   libucrt:winapi_thunks.obj
 0001:00017722       ___acrt_can_show_message_box 00418722 f   libucrt:winapi_thunks.obj
 0001:0001773b       ___acrt_get_parent_window  0041873b f   libucrt:winapi_thunks.obj
 0001:000177ba       ___acrt_initialize_winapi_thunks 004187ba f   libucrt:winapi_thunks.obj
 0001:000177e0       ___acrt_is_interactive     004187e0 f   libucrt:winapi_thunks.obj
 0001:00017886       ___acrt_is_packaged_app    00418886 f   libucrt:winapi_thunks.obj
 0001:0001790d       ___acrt_uninitialize_winapi_thunks 0041890d f   libucrt:winapi_thunks.obj
 0001:00017943       ___acrt_lowio_create_handle_array 00418943 f   libucrt:osfinfo.obj
 0001:000179bd       ___acrt_lowio_destroy_handle_array 004189bd f   libucrt:osfinfo.obj
 0001:000179f2       ___acrt_lowio_ensure_fh_exists 004189f2 f   libucrt:osfinfo.obj
 0001:00017a8a       ___acrt_lowio_lock_fh      00418a8a f   libucrt:osfinfo.obj
 0001:00017aad       ___acrt_lowio_set_os_handle 00418aad f   libucrt:osfinfo.obj
 0001:00017b41       ___acrt_lowio_unlock_fh    00418b41 f   libucrt:osfinfo.obj
 0001:00017b64       __alloc_osfhnd             00418b64 f   libucrt:osfinfo.obj
 0001:00017c76       __free_osfhnd              00418c76 f   libucrt:osfinfo.obj
 0001:00017d07       __get_osfhandle            00418d07 f   libucrt:osfinfo.obj
 0001:00017d71       ??$__crt_time_elapsed_leap_years@H@@YAHH@Z 00418d71 f i libucrt:loctotime.obj
 0001:00017dab       ??$__crt_time_is_leap_year@H@@YA_NH@Z 00418dab f i libucrt:loctotime.obj
 0001:00017fce       ?__crt_time_is_day_valid@@YA_NHHH@Z 00418fce f i libucrt:loctotime.obj
 0001:00018015       ___loctotime64_t           00419015 f   libucrt:loctotime.obj
 0001:000181a3       __lseeki64                 004191a3 f   libucrt:lseek.obj
 0001:000181be       __lseeki64_nolock          004191be f   libucrt:lseek.obj
 0001:000182c6       __itow_s                   004192c6 f   libucrt:xtoa.obj
 0001:000182fb       __set_error_mode           004192fb f   libucrt:set_error_mode.obj
 0001:0001833a       _wcscat_s                  0041933a f   libucrt:wcscat_s.obj
 0001:000183af       _wcscpy_s                  004193af f   libucrt:wcscpy_s.obj
 0001:000184fc       _wcsncat_s                 004194fc f   libucrt:wcsncat_s.obj
 0001:00018602       ___acrt_show_wide_message_box 00419602 f   libucrt:crtmbox.obj
 0001:0001860d       ??$?RV<lambda_d92cfe8357b99225085016881b624cb0>@@AAV<lambda_b721fa326cdb32351d23dfa67958c160>@@V<lambda_42d75b0848218ec137fa420c8ba9fdf9>@@@?$__crt_seh_guarded_call@H@@QAEH$$QAV<lambda_d92cfe8357b99225085016881b624cb0>@@AAV<lambda_b721fa326cdb32351d23dfa67958c160>@@$$QAV<lambda_42d75b0848218ec137fa420c8ba9fdf9>@@@Z 0041960d f i libucrt:setvbuf.obj
 0001:0001865e       ??$__acrt_lock_stream_and_call@V<lambda_b721fa326cdb32351d23dfa67958c160>@@@@YAHQAU_iobuf@@$$QAV<lambda_b721fa326cdb32351d23dfa67958c160>@@@Z 0041965e f i libucrt:setvbuf.obj
 0001:00018753       _setvbuf                   00419753 f   libucrt:setvbuf.obj
 0001:000187c9       __realloc_base             004197c9 f   libucrt:realloc_base.obj
 0001:00018832       __wrename                  00419832 f   libucrt:wrename.obj
 0001:0001885f       __fd_int                   0041985f f   libucrt:_test.obj
 0001:0001892e       __fdtest                   0041992e f   libucrt:_test.obj
 0001:00019b2f       __Wcsftime_l               0041ab2f f   libucrt:wcsftime.obj
 0001:00019cb0       ___acrt_initialize_timeset 0041acb0 f   libucrt:timeset.obj
 0001:00019ce7       ___daylight                0041ace7 f   libucrt:timeset.obj
 0001:00019ced       ___dstbias                 0041aced f   libucrt:timeset.obj
 0001:00019cf3       ___timezone                0041acf3 f   libucrt:timeset.obj
 0001:00019cf9       ___tzname                  0041acf9 f   libucrt:timeset.obj
 0001:00019cff       __get_daylight             0041acff f   libucrt:timeset.obj
 0001:00019d2b       __get_dstbias              0041ad2b f   libucrt:timeset.obj
 0001:00019d57       __get_timezone             0041ad57 f   libucrt:timeset.obj
 0001:00019f74       ___getgmtimebuf            0041af74 f   libucrt:gmtime.obj
 0001:00019fb2       __gmtime64_s               0041afb2 f   libucrt:gmtime.obj
 0001:0001a704       ___tzset                   0041b704 f   libucrt:tzset.obj
 0001:0001a755       __isindst                  0041b755 f   libucrt:tzset.obj
 0001:0001ab61       ??1?$argument_list@D@?A0xb0e4b824@@QAE@XZ 0041bb61 f i libucrt:argv_wildcards.obj
 0001:0001ab86       ?append@?$argument_list@D@?A0xb0e4b824@@QAEHQAD@Z 0041bb86 f i libucrt:argv_wildcards.obj
 0001:0001abbb       ?expand_if_necessary@?$argument_list@D@?A0xb0e4b824@@AAEHXZ 0041bbbb f i libucrt:argv_wildcards.obj
 0001:0001ac42       ___acrt_expand_narrow_argv_wildcards 0041bc42 f   libucrt:argv_wildcards.obj
 0001:0001ac4d       ??$?RV<lambda_978dc153c237d78434369da87b74ff60>@@AAV<lambda_ad1ced32f4ac17aa236e5ef05d6b3b7c>@@V<lambda_4a8533e2866a575feecb8298ce776b0d>@@@?$__crt_seh_guarded_call@X@@QAEX$$QAV<lambda_978dc153c237d78434369da87b74ff60>@@AAV<lambda_ad1ced32f4ac17aa236e5ef05d6b3b7c>@@$$QAV<lambda_4a8533e2866a575feecb8298ce776b0d>@@@Z 0041bc4d f i libucrt:mbctype.obj
 0001:0001ac90       ??$__acrt_lock_and_call@V<lambda_ad1ced32f4ac17aa236e5ef05d6b3b7c>@@@@YAXW4__acrt_lock_id@@$$QAV<lambda_ad1ced32f4ac17aa236e5ef05d6b3b7c>@@@Z 0041bc90 f i libucrt:mbctype.obj
 0001:0001b127       ___acrt_initialize_multibyte 0041c127 f   libucrt:mbctype.obj
 0001:0001b145       ___acrt_update_thread_multibyte_data 0041c145 f   libucrt:mbctype.obj
 0001:0001b1e7       __setmbcp_nolock           0041c1e7 f   libucrt:mbctype.obj
 0001:0001b431       __ismbblead                0041c431 f   libucrt:ismbbyte.obj
 0001:0001b449       ___acrt_initialize_command_line 0041c449 f   libucrt:argv_data.obj
 0001:0001b499       ___dcrt_get_narrow_environment_from_os 0041c499 f   libucrt:get_environment_from_os.obj
 0001:0001b85c       ___dcrt_set_variable_in_narrow_environment_nolock 0041c85c f   libucrt:setenv.obj
 0001:0001b867       ____lc_codepage_func       0041c867 f   libucrt:initctype.obj
 0001:0001b88e       ___acrt_locale_free_monetary 0041c88e f   libucrt:initmon.obj
 0001:0001b98c       ___acrt_locale_free_numeric 0041c98c f   libucrt:initnum.obj
 0001:0001ba31       ___acrt_locale_free_time   0041ca31 f   libucrt:inittime.obj
 0001:0001bb15       ___acrt_GetStringTypeA     0041cb15 f   libucrt:getstringtypea.obj
 0001:0001bc32       ___acrt_add_locale_ref     0041cc32 f   libucrt:locale_refcounting.obj
 0001:0001bcaf       ___acrt_free_locale        0041ccaf f   libucrt:locale_refcounting.obj
 0001:0001bdf9       ___acrt_locale_add_lc_time_reference 0041cdf9 f   libucrt:locale_refcounting.obj
 0001:0001be22       ___acrt_locale_free_lc_time_if_unreferenced 0041ce22 f   libucrt:locale_refcounting.obj
 0001:0001be52       ___acrt_locale_release_lc_time_reference 0041ce52 f   libucrt:locale_refcounting.obj
 0001:0001be7b       ___acrt_release_locale_ref 0041ce7b f   libucrt:locale_refcounting.obj
 0001:0001befc       ___acrt_update_thread_locale_data 0041cefc f   libucrt:locale_refcounting.obj
 0001:0001bf73       __updatetlocinfoEx_nolock  0041cf73 f   libucrt:locale_refcounting.obj
 0001:0001bfc3       __recalloc                 0041cfc3 f   libucrt:recalloc.obj
 0001:0001bfce       __recalloc_base            0041cfce f   libucrt:recalloc.obj
 0001:0001c03b       ___acrt_initialize_heap    0041d03b f   libucrt:heap_handle.obj
 0001:0001c04c       ___acrt_uninitialize_heap  0041d04c f   libucrt:heap_handle.obj
 0001:0001c056       ___acrt_execute_initializers 0041d056 f   libucrt:shared_initialization.obj
 0001:0001c0d9       ___acrt_execute_uninitializers 0041d0d9 f   libucrt:shared_initialization.obj
 0001:0001c1d1       __clearfp                  0041d1d1 f   libucrt:ieee87.obj
 0001:0001c2af       __control87                0041d2af f   libucrt:ieee87.obj
 0001:0001c650       ___ascii_strnicmp          0041d650 f   libucrt:_strnicm.obj
 0001:0001c6b1       __chsize_nolock            0041d6b1 f   libucrt:chsize.obj
 0001:0001c842       __isatty                   0041d842 f   libucrt:isatty.obj
 0001:0001c898       __wremove                  0041d898 f   libucrt:wunlink.obj
 0001:0001c8c0       __waccess_s                0041d8c0 f   libucrt:waccess.obj
 0001:0001c980       __putwch_nolock            0041d980 f   libucrt:putwch.obj
 0001:0001c9c5       ___acrt_fp_strflt_to_string 0041d9c5 f   libucrt:_fptostr.obj
 0001:0001ca81       ??0scoped_fp_state_reset@?A0x48fbfdd4@@QAE@XZ 0041da81 f i libucrt:cfout.obj
 0001:0001caab       ___acrt_fltout             0041daab f   libucrt:cfout.obj
 0001:0001dec8       __fcloseall                0041eec8 f   libucrt:closeall.obj
 0001:0001df70       _strncmp                   0041ef70 f   libucrt:strncmp.obj
 0001:0001dfe8       ___acrt_stdio_allocate_buffer_nolock 0041efe8 f   libucrt:_getbuf.obj
 0001:0001e2e8       __getfpcontrolword         0041f2e8 f   libucrt:_fenvutils.obj
 0001:0001e32b       __getfpstatusword          0041f32b f   libucrt:_fenvutils.obj
 0001:0001e3d3       __setfpcontrolword         0041f3d3 f   libucrt:_fenvutils.obj
 0001:0001e453       __setfpstatusword          0041f453 f   libucrt:_fenvutils.obj
 0001:0001e4d3       ___strncnt                 0041f4d3 f   libucrt:strncnt.obj
 0001:0001e735       __wgetcwd                  0041f735 f   libucrt:getcwd.obj
 0001:0001e751       __towlower_l               0041f751 f   libucrt:towlower.obj
 0001:0001e8d6       ___acrt_DownlevelLocaleNameToLCID 0041f8d6 f   libucrt:lcidtoname_downlevel.obj
 0001:0001ea7b       __mbstowcs_s_l             0041fa7b f   libucrt:mbstowcs.obj
 0001:0001eccb       _getenv_s                  0041fccb f   libucrt:getenv.obj
 0001:0001ed87       _strncpy_s                 0041fd87 f   libucrt:strncpy_s.obj
 0001:0001ee80       _qsort                     0041fe80 f   libucrt:qsort.obj
 0001:0001f220       _strpbrk                   00420220 f   libucrt:strpbrk.obj
 0001:0001f260       __mbsdec                   00420260 f   libucrt:mbsdec.obj
 0001:0001f277       __mbsdec_l                 00420277 f   libucrt:mbsdec.obj
 0001:0001f313       __strnicoll                00420313 f   libucrt:strnicol.obj
 0001:0001f33c       __strnicoll_l              0042033c f   libucrt:strnicol.obj
 0001:0001f406       __msize                    00420406 f   libucrt:msize.obj
 0001:0001f439       ___set_fpsr_sse2           00420439 f   libucrt:fpctrl.obj
 0001:0001f4af       __clrfp                    004204af f   libucrt:fpctrl.obj
 0001:0001f4c2       __ctrlfp                   004204c2 f   libucrt:fpctrl.obj
 0001:0001f4ee       __set_statfp               004204ee f   libucrt:fpctrl.obj
 0001:0001f549       __statfp                   00420549 f   libucrt:fpctrl.obj
 0001:0001f55b       ___dcrt_lowio_initialize_console_output 0042055b f   libucrt:initcon.obj
 0001:0001f57a       ___dcrt_terminate_console_output 0042057a f   libucrt:initcon.obj
 0001:0001f591       _fegetenv                  00420591 f   libucrt:fegetenv.obj
 0001:0001f5ae       _fesetenv                  004205ae f   libucrt:fesetenv.obj
 0001:0001f5f7       _feholdexcept              004205f7 f   libucrt:feholdexcept.obj
 0001:0001f650       _log10                     00420650 f   libucrt:log10.obj
 0001:0001f690       __CIlog10                  00420690 f   libucrt:log10.obj
 0001:0001f6cb       __CIlog10_default          004206cb f   libucrt:log10.obj
 0001:0001f6df       __log10_default            004206df     libucrt:log10.obj
 0001:0001f7a0       _ceil                      004207a0 f   libucrt:ceil_pentium4.obj
 0001:0001f7e0       __ceil_pentium4            004207e0 f   libucrt:ceil_pentium4.obj
 0001:0001f8bd       ___acrt_LCMapStringW       004208bd f   libucrt:lcmapstringw.obj
 0001:0001fba3       ___acrt_CompareStringA     00420ba3 f   libucrt:comparestringa.obj
 0001:0001fbeb       ___acrt_initialize_sse2    00420beb f   libucrt:mathfcns.obj
 0001:0001fc00       __CIlog10_pentium4         00420c00 f   libucrt:log10_pentium4.obj
 0001:0001fc18       __log10_pentium4           00420c18     libucrt:log10_pentium4.obj
 0001:0001fea1       __fFEXP                    00420ea1     libucrt:87tran.obj
 0001:0001fef8       __rtinfpopse               00420ef8     libucrt:87tran.obj
 0001:0001fefa       __rtinfnpopse              00420efa     libucrt:87tran.obj
 0001:0001ff0a       __fFLN                     00420f0a     libucrt:87tran.obj
 0001:0001ffbf       __rtinfpop                 00420fbf     libucrt:87tran.obj
 0001:0001ffc1       __rtinfnpop                00420fc1     libucrt:87tran.obj
 0001:0001ffde       __ffexpm1                  00420fde     libucrt:87tran.obj
 0001:00020090       __trandisp1                00421090 f   libucrt:87disp.obj
 0001:000200f7       __trandisp2                004210f7 f   libucrt:87disp.obj
 0001:00020183       __rttospopde               00421183     libucrt:87disp.obj
 0001:00020188       __rttospop                 00421188     libucrt:87disp.obj
 0001:0002018a       __rtnospop                 0042118a     libucrt:87disp.obj
 0001:0002018c       __rttosnpop                0042118c     libucrt:87disp.obj
 0001:0002018d       __rtnospopde               0042118d     libucrt:87disp.obj
 0001:00020194       __rtzeropop                00421194     libucrt:87disp.obj
 0001:00020196       __rtzeronpop               00421196     libucrt:87disp.obj
 0001:0002019b       __rtzerospop               0042119b     libucrt:87disp.obj
 0001:000201a8       __rtonepop                 004211a8     libucrt:87disp.obj
 0001:000201aa       __rtonenpop                004211aa     libucrt:87disp.obj
 0001:000201af       __tosnan1                  004211af     libucrt:87disp.obj
 0001:000201da       __nosnan2                  004211da     libucrt:87disp.obj
 0001:000201dc       __tosnan2                  004211dc     libucrt:87disp.obj
 0001:00020204       __nan2                     00421204     libucrt:87disp.obj
 0001:00020243       __rtindfpop                00421243     libucrt:87disp.obj
 0001:00020245       __rtindfnpop               00421245     libucrt:87disp.obj
 0001:00020256       __rttosnpopde              00421256     libucrt:87disp.obj
 0001:00020260       __rtatan2inf               00421260     libucrt:87disp.obj
 0001:0002027d       __rtchsifneg               0042127d     libucrt:87disp.obj
 0001:00020290       __twoToTOS                 00421290 f   libucrt:common.obj
 0001:000202a5       __load_CW                  004212a5 f   libucrt:common.obj
 0001:000202bc       __convertTOStoQNaN         004212bc f   libucrt:common.obj
 0001:000202d5       __fload_withFB             004212d5 f   libucrt:common.obj
 0001:00020318       __checkTOS_withFB          00421318 f   libucrt:common.obj
 0001:0002032e       __fast_exit                0042132e f   libucrt:common.obj
 0001:0002033b       __math_exit                0042133b f   libucrt:common.obj
 0001:00020365       __check_overflow_exit      00421365 f   libucrt:common.obj
 0001:00020379       __check_range_exit         00421379 f   libucrt:common.obj
 0001:00020420       __startTwoArgErrorHandling 00421420 f   libucrt:genexcep.obj
 0001:00020437       __startOneArgErrorHandling 00421437 f   libucrt:genexcep.obj
 0001:00020473       ___libm_error_support      00421473 f   libucrt:libm_error.obj
 0001:0002068b       __ceil_default             0042168b f   libucrt:ceil.obj
 0001:00020744       __d_inttype                00421744 f   libucrt:powhlp.obj
 0001:000207ae       __powhlp                   004217ae f   libucrt:powhlp.obj
 0001:000208d9       __87except                 004218d9 f   libucrt:87except.obj
 0001:000209e4       __frnd                     004219e4 f   libucrt:frnd.obj
 0001:000209fa       __errcode                  004219fa f   libucrt:fpexcept.obj
 0001:00020a2e       __except1                  00421a2e f   libucrt:fpexcept.obj
 0001:00020afc       __handle_exc               00421afc f   libucrt:fpexcept.obj
 0001:00020cdc       __raise_exc                00421cdc f   libucrt:fpexcept.obj
 0001:00020cff       __raise_exc_ex             00421cff f   libucrt:fpexcept.obj
 0001:00020ff0       __set_errno_from_matherr   00421ff0 f   libucrt:fpexcept.obj
 0001:0002101f       __umatherr                 0042201f f   libucrt:fpexcept.obj
 0001:000210c1       __decomp                   004220c1 f   libucrt:util.obj
 0001:00021195       __set_exp                  00422195 f   libucrt:util.obj
 0001:000211c4       __sptype                   004221c4 f   libucrt:util.obj
 0001:00021222       __fpclass                  00422222 f   libucrt:ieeemisc.obj
 0001:000212c6       __EH_prolog3_catch         004222c6 f   LIBCMT:ehprolg3.obj
 0001:00021300       __FindPESection            00422300 f   LIBCMT:pesect.obj
 0001:00021350       __IsNonwritableInCurrentImage 00422350 f   LIBCMT:pesect.obj
 0001:00021410       __ValidateImageBase        00422410 f   LIBCMT:pesect.obj
 0001:00021450       __aulldvrm                 00422450 f   LIBCMT:ulldvrm.obj
 0001:000214f0       __allmul                   004224f0 f   LIBCMT:llmul.obj
 0001:00021530       __allshl                   00422530 f   LIBCMT:llshl.obj
 0001:00021550       __aullshr                  00422550 f   LIBCMT:ullshr.obj
 0001:00021570       __SEH_prolog4_GS           00422570 f   LIBCMT:_sehprolg4gs_.obj
 0001:000215b9       __SEH_epilog4_GS           004225b9 f   LIBCMT:_sehprolg4gs_.obj
 0001:000215d0       __alldiv                   004225d0 f   LIBCMT:lldiv.obj
 0001:00021680       __alloca_probe             00422680 f   LIBCMT:chkstk.obj
 0001:00021680       __chkstk                   00422680 f   LIBCMT:chkstk.obj
 0001:000216b0       __alldvrm                  004226b0 f   LIBCMT:lldvrm.obj
 0001:00021790       __allrem                   00422790 f   LIBCMT:llrem.obj
 0001:00021850       __alloca_probe_16          00422850 f   LIBCMT:alloca16.obj
 0001:00021866       __alloca_probe_8           00422866     LIBCMT:alloca16.obj
 0001:00021880       __ftol2_sse                00422880 f   LIBCMT:_ftol2_.obj
 0001:00021889       __ftol2_pentium4           00422889 f   LIBCMT:_ftol2_.obj
 0001:0002189c       __ftol2_sse_excpt          0042289c f   LIBCMT:_ftol2_.obj
 0001:000218c0       __ftol2                    004228c0 f   LIBCMT:_ftol2_.obj
 0001:00021936       _RtlUnwind@16              00422936 f   kernel32:KERNEL32.dll
 0001:00021940       _memcpy                    00422940 f   libvcruntime:memcpy.obj
 0001:00021eb4       _wcsrchr                   00422eb4 f   libvcruntime:wcsrchr.obj
 0001:00021f60       ?CRC32@@YAIPBDH@Z          00422f60 f   crc.obj
 0001:00021f90       ?CRC32Incremental@@YAIIPBDH@Z 00422f90 f   crc.obj
 0001:00021fc0       ?MDStringBytes@@YAXPADPAEI@Z 00422fc0 f   md5.obj
 0001:00022030       ?MDString@@YAXPADPAE@Z     00423030 f   md5.obj
 0001:00022b90       ?RscFileLoad@@YA_NPADP6A_N0HH0@Z@Z 00423b90 f   rscload.obj
 0001:00022bd0       ?CompactAccounts@@YAXXZ    00423bd0 f   account.obj
 0001:00022c20       ?DeleteAccountIfUnused@@YAXPAUaccount_node_struct@@@Z 00423c20 f   account.obj
 0001:00022c30       ?DeleteAccountsIfUnused@@YAXXZ 00423c30 f   account.obj
 0001:00022c60       ?DeleteAccountAndAssociatedUsersByID@@YAXH@Z 00423c60 f   account.obj
 0001:00022d60       ?ForEachAccountWithString@@YAXP6AXPAUaccount_node_struct@@PAD@Z1@Z 00423d60 f   account.obj
 0001:00022dc0       ?ForEachAccount@@YAXP6AXPAUaccount_node_struct@@@Z@Z 00423dc0 f   account.obj
 0001:00022de0       ?DoneLoadAccounts@@YAXXZ   00423de0 f   account.obj
 0001:00022df0       ?AccountLogoff@@YAXPAUaccount_node_struct@@@Z 00423df0 f   account.obj
 0001:00022e00       ?AccountLoginByName@@YAPAUaccount_node_struct@@PAD@Z 00423e00 f   account.obj
 0001:00022f90       ?GetAccountByName@@YAPAUaccount_node_struct@@PAD@Z 00423f90 f   account.obj
 0001:00022fd0       ?GetAccountByID@@YAPAUaccount_node_struct@@H@Z 00423fd0 f   account.obj
 0001:00022ff0       ?GetActiveAccountCount@@YAHXZ 00423ff0 f   account.obj
 0001:00023020       ?SuspendAccountRelative@@YADPAUaccount_node_struct@@H@Z 00424020 f   account.obj
 0001:00023060       ?SuspendAccountAbsolute@@YADPAUaccount_node_struct@@H@Z 00424060 f   account.obj
 0001:00023150       ?SetAccountEmail@@YAXPAUaccount_node_struct@@PAD@Z 00424150 f   account.obj
 0001:00023210       ?SetAccountPasswordAlreadyEncrypted@@YAXPAUaccount_node_struct@@PAD@Z 00424210 f   account.obj
 0001:000232d0       ?SetAccountPassword@@YAXPAUaccount_node_struct@@PAD@Z 004242d0 f   account.obj
 0001:000233c0       ?SetAccountName@@YAXPAUaccount_node_struct@@PAD@Z 004243c0 f   account.obj
 0001:00023480       ?DeleteAccount@@YADH@Z     00424480 f   account.obj
 0001:00023600       ?LoadAccount@@YAXHPAD00HHHH@Z 00424600 f   account.obj
 0001:00023810       ?RecreateAccountSecurePassword@@YAHHPAD00H@Z 00424810 f   account.obj
 0001:00023ad0       ?CreateAccountSecurePassword@@YAHPAD00H@Z 00424ad0 f   account.obj
 0001:00023e00       ?CreateAccount@@YADPAD00HPAH@Z 00424e00 f   account.obj
 0001:00024060       ?AccountValidateEmail@@YA_NPAD@Z 00425060 f   account.obj
 0001:00024090       ?InsertAccount@@YAXPAUaccount_node_struct@@@Z 00425090 f   account.obj
 0001:000240d0       ?GetUsedGuestAccounts@@YAHXZ 004250d0 f   account.obj
 0001:000240f0       ?CountUsedGuestAccounts@@YAXPAUsession_node@@@Z 004250f0 f   account.obj
 0001:00024120       ?SetNextAccountID@@YAXH@Z  00425120 f   account.obj
 0001:00024130       ?GetNextAccountID@@YAHXZ   00425130 f   account.obj
 0001:00024140       ?GetConsoleAccount@@YAPAUaccount_node_struct@@XZ 00425140 f   account.obj
 0001:00024150       ?ResetAccount@@YAXXZ       00425150 f   account.obj
 0001:00024230       ?InitAccount@@YAXXZ        00425230 f   account.obj
 0001:00024350       ?AdminInputChar@@YAXPAUsession_node@@D@Z 00425350 f   admin.obj
 0001:00024430       ?AdminProcessSessionBuffer@@YAXPAUsession_node@@@Z 00425430 f   admin.obj
 0001:000244e0       ?AdminExit@@YAXPAUsession_node@@@Z 004254e0 f   admin.obj
 0001:000244f0       ?AdminInit@@YAXPAUsession_node@@@Z 004254f0 f   admin.obj
 0001:00024520       ?LookupAdminConstant@@YADPBDPAH@Z 00425520 f   admincons.obj
 0001:00024560       ?LoadAdminConstants@@YAXXZ 00425560 f   admincons.obj
 0001:00024790       ?AddAdminConstant@@YAXPADH@Z 00425790 f   admincons.obj
 0001:00024850       ?ResetAdminConstants@@YAXXZ 00425850 f   admincons.obj
 0001:000248b0       ?AdminMark@@YAXHQA_KHQAUparm_node@@@Z 004258b0 f   adminfn.obj
 0001:000248f0       ?AdminRead@@YAXHQA_KHQAUparm_node@@@Z 004258f0 f   adminfn.obj
 0001:00024bb0       ?AdminSayEachAdminSession@@YAXPAUsession_node@@@Z 00425bb0 f   adminfn.obj
 0001:00024c50       ?AdminSay@@YAXHQA_KHQAUparm_node@@@Z 00425c50 f   adminfn.obj
 0001:00024c80       ?AdminEnableSysTimer@@YAXHQA_KHQAUparm_node@@@Z 00425c80 f   adminfn.obj
 0001:00024cc0       ?AdminDisableSysTimer@@YAXHQA_KHQAUparm_node@@@Z 00425cc0 f   adminfn.obj
 0001:00024d00       ?AdminReloadPackages@@YAXHQA_KHQAUparm_node@@@Z 00425d00 f   adminfn.obj
 0001:00024d60       ?AdminReloadMotd@@YAXHQA_KHQAUparm_node@@@Z 00425d60 f   adminfn.obj
 0001:00024dd0       ?AdminReloadGameEachSession@@YAXPAUsession_node@@@Z 00425dd0 f   adminfn.obj
 0001:00024df0       ?AdminDeleteUnusedAccounts@@YAXHQA_KHQAUparm_node@@@Z 00425df0 f   adminfn.obj
 0001:00024ef0       ?AdminReloadGame@@YAXHQA_KHQAUparm_node@@@Z 00425ef0 f   adminfn.obj
 0001:00025040       ?AdminReloadSystem@@YAXHQA_KHQAUparm_node@@@Z 00426040 f   adminfn.obj
 0001:00025180       ?AdminHangupSession@@YAXHQA_KHQAUparm_node@@@Z 00426180 f   adminfn.obj
 0001:00025210       ?AdminHangupAccount@@YAXHQA_KHQAUparm_node@@@Z 00426210 f   adminfn.obj
 0001:00025350       ?AdminBlockIP@@YAXHQA_KHQAUparm_node@@@Z 00426350 f   adminfn.obj
 0001:00025400       ?AdminHangupUser@@YAXHQA_KHQAUparm_node@@@Z 00426400 f   adminfn.obj
 0001:00025530       ?AdminHangupEachSession@@YAXPAUsession_node@@@Z 00426530 f   adminfn.obj
 0001:00025560       ?AdminHangupAll@@YAXHQA_KHQAUparm_node@@@Z 00426560 f   adminfn.obj
 0001:00025580       ?AdminKickoffAccount@@YAXHQA_KHQAUparm_node@@@Z 00426580 f   adminfn.obj
 0001:00025610       ?AdminKickoffEachSession@@YAXPAUsession_node@@@Z 00426610 f   adminfn.obj
 0001:00025640       ?AdminKickoffAll@@YAXHQA_KHQAUparm_node@@@Z 00426640 f   adminfn.obj
 0001:00025660       ?AdminAddCredits@@YAXHQA_KHQAUparm_node@@@Z 00426660 f   adminfn.obj
 0001:000256b0       ?AdminTraceOffMessage@@YAXHQA_KHQAUparm_node@@@Z 004266b0 f   adminfn.obj
 0001:00025770       ?AdminTraceOnMessage@@YAXHQA_KHQAUparm_node@@@Z 00426770 f   adminfn.obj
 0001:00025830       ?AdminSendClass@@YAXHQA_KHQAUparm_node@@@Z 00426830 f   adminfn.obj
 0001:000258f0       ?AdminSendUsers@@YAXHQA_KHQAUparm_node@@@Z 004268f0 f   adminfn.obj
 0001:00025990       ?AdminSendObject@@YAXHQA_KHQAUparm_node@@@Z 00426990 f   adminfn.obj
 0001:00025c70       ?AdminSendList@@YAXHQA_KHQAUparm_node@@@Z 00426c70 f   adminfn.obj
 0001:00025da0       ?AdminSendInt@@YAXHQA_KHQAUparm_node@@@Z 00426da0 f   adminfn.obj
 0001:00025e50       ?AdminCheckUserLoggedOn@@YAXPAUsession_node@@@Z 00426e50 f   adminfn.obj
 0001:00025e90       ?AdminDeleteUser@@YAXHQA_KHQAUparm_node@@@Z 00426e90 f   adminfn.obj
 0001:00025f20       ?AdminDeleteAccount@@YAXHQA_KHQAUparm_node@@@Z 00426f20 f   adminfn.obj
 0001:00025f90       ?AdminDeleteTimer@@YAXHQA_KHQAUparm_node@@@Z 00426f90 f   adminfn.obj
 0001:00025ff0       ?AdminCreateResource@@YAXHQA_KHQAUparm_node@@@Z 00426ff0 f   adminfn.obj
 0001:00026080       ?AdminCreateTimer@@YAXHQA_KHQAUparm_node@@@Z 00427080 f   adminfn.obj
 0001:000260e0       ?AdminCreateTable@@YAXHQA_KHQAUparm_node@@@Z 004270e0 f   adminfn.obj
 0001:00026140       ?AdminCreateListNode@@YAXHQA_KHQAUparm_node@@@Z 00427140 f   adminfn.obj
 0001:00026250       ?AdminCreateObject@@YAXHQA_KHQAUparm_node@@@Z 00427250 f   adminfn.obj
 0001:000262c0       ?AdminCreateDM@@YAXHQA_KHQAUparm_node@@@Z 004272c0 f   adminfn.obj
 0001:00026320       ?AdminCreateAdmin@@YAXHQA_KHQAUparm_node@@@Z 00427320 f   adminfn.obj
 0001:00026380       ?AdminCreateEscapedConvict@@YAXHQA_KHQAUparm_node@@@Z 00427380 f   adminfn.obj
 0001:000263e0       ?AdminCreateUser@@YAXHQA_KHQAUparm_node@@@Z 004273e0 f   adminfn.obj
 0001:00026440       ?AdminAddUserToEachAccount@@YAXHQA_KHQAUparm_node@@@Z 00427440 f   adminfn.obj
 0001:00026480       ?AdminResetHighestTimed@@YAXHQA_KHQAUparm_node@@@Z 00427480 f   adminfn.obj
 0001:00026590       ?AdminRecreateAutomated@@YAXHQA_KHQAUparm_node@@@Z 00427590 f   adminfn.obj
 0001:00026600       ?AdminCreateAutomated@@YAXHQA_KHQAUparm_node@@@Z 00427600 f   adminfn.obj
 0001:00026700       ?AdminCreateAccount@@YAXHQA_KHQAUparm_node@@@Z 00427700 f   adminfn.obj
 0001:00026870       ?AdminUnsuspendAccount@@YAXHQA_KHQAUparm_node@@@Z 00427870 f   adminfn.obj
 0001:00026950       ?AdminUnsuspendUser@@YAXHQA_KHQAUparm_node@@@Z 00427950 f   adminfn.obj
 0001:00026a00       ?AdminSuspendAccount@@YAXHQA_KHQAUparm_node@@@Z 00427a00 f   adminfn.obj
 0001:00026b40       ?AdminSuspendUser@@YAXHQA_KHQAUparm_node@@@Z 00427b40 f   adminfn.obj
 0001:00026c30       ?AdminSetConfigStr@@YAXHQA_KHQAUparm_node@@@Z 00427c30 f   adminfn.obj
 0001:00026d00       ?AdminSetConfigBool@@YAXHQA_KHQAUparm_node@@@Z 00427d00 f   adminfn.obj
 0001:00026e50       ?AdminSetConfigInt@@YAXHQA_KHQAUparm_node@@@Z 00427e50 f   adminfn.obj
 0001:00026f20       ?AdminSetAccountObject@@YAXHQA_KHQAUparm_node@@@Z 00427f20 f   adminfn.obj
 0001:00026fe0       ?AdminSetAccountCredits@@YAXHQA_KHQAUparm_node@@@Z 00427fe0 f   adminfn.obj
 0001:00027030       ?AdminSetAccountEmail@@YAXHQA_KHQAUparm_node@@@Z 00428030 f   adminfn.obj
 0001:000270f0       ?AdminSetAccountPassword@@YAXHQA_KHQAUparm_node@@@Z 004280f0 f   adminfn.obj
 0001:00027150       ?AdminSetAccountName@@YAXHQA_KHQAUparm_node@@@Z 00428150 f   adminfn.obj
 0001:000271f0       ?AdminSetObject@@YAXHQA_KHQAUparm_node@@@Z 004281f0 f   adminfn.obj
 0001:00027330       ?AdminSetClass@@YAXHQA_KHQAUparm_node@@@Z 00428330 f   adminfn.obj
 0001:00027430       ?AdminShowProtocol@@YAXHQA_KHQAUparm_node@@@Z 00428430 f   adminfn.obj
 0001:00027560       ?AdminShowReferencesEachTable@@YAXHH@Z 00428560 f   adminfn.obj
 0001:00027680       ?AdminShowReferencesEachList@@YAXHH@Z 00428680 f   adminfn.obj
 0001:00027780       ?AdminShowReferencesEachObject@@YAXPAUobject_node@@@Z 00428780 f   adminfn.obj
 0001:000278a0       ?AdminShowReferences@@YAXHQA_KHQAUparm_node@@@Z 004288a0 f   adminfn.obj
 0001:000279d0       ?AdminShowName@@YAXHQA_KHQAUparm_node@@@Z 004289d0 f   adminfn.obj
 0001:00027a10       ?AdminPrintNameID@@YAXPAUnameid_struct@@@Z 00428a10 f   adminfn.obj
 0001:00027a40       ?AdminShowNameIDs@@YAXHQA_KHQAUparm_node@@@Z 00428a40 f   adminfn.obj
 0001:00027a70       ?AdminShowTable@@YAXHQA_KHQAUparm_node@@@Z 00428a70 f   adminfn.obj
 0001:00027b80       ?AdminShowTransmitted@@YAXHQA_KHQAUparm_node@@@Z 00428b80 f   adminfn.obj
 0001:00027ba0       ?AdminShowConstant@@YAXHQA_KHQAUparm_node@@@Z 00428ba0 f   adminfn.obj
 0001:00027bf0       ?AdminShowOnePackage@@YAXPAUdllist_struct@@@Z 00428bf0 f   adminfn.obj
 0001:00027c10       ?AdminShowPackages@@YAXHQA_KHQAUparm_node@@@Z 00428c10 f   adminfn.obj
 0001:00027c40       ?AdminShowMatches@@YAXHQA_KHQAUparm_node@@@Z 00428c40 f   adminfn.obj
 0001:000280e0       ?AdminShowInstances@@YAXHQA_KHQAUparm_node@@@Z 004290e0 f   adminfn.obj
 0001:000281b0       ?AdminShowClass@@YAXHQA_KHQAUparm_node@@@Z 004291b0 f   adminfn.obj
 0001:00028390       ?AdminShowMessage@@YAXHQA_KHQAUparm_node@@@Z 00429390 f   adminfn.obj
 0001:000286e0       ?AdminShowCalls@@YAXHQA_KHQAUparm_node@@@Z 004296e0 f   adminfn.obj
 0001:000294e0       ?AdminShowEachSysTimer@@YAXPAUsystimer_struct@@@Z 0042a4e0 f   adminfn.obj
 0001:000295c0       ?AdminShowSysTimers@@YAXHQA_KHQAUparm_node@@@Z 0042a5c0 f   adminfn.obj
 0001:00029610       ?AdminShowString@@YAXHQA_KHQAUparm_node@@@Z 0042a610 f   adminfn.obj
 0001:00029690       ?AdminShowOneConfigNode@@YAXPAUconfig_node@@PBD1@Z 0042a690 f   adminfn.obj
 0001:00029770       ?AdminShowConfiguration@@YAXHQA_KHQAUparm_node@@@Z 0042a770 f   adminfn.obj
 0001:000297a0       ?AdminShowTime@@YAXHQA_KHQAUparm_node@@@Z 0042a7a0 f   adminfn.obj
 0001:000297d0       ?AdminShowOneTimer@@YAXPAUtimer_struct@@@Z 0042a7d0 f   adminfn.obj
 0001:00029850       ?AdminShowTimerObjectID@@YAXHQA_KHQAUparm_node@@@Z 0042a850 f   adminfn.obj
 0001:000298d0       ?AdminShowTimerMessageID@@YAXHQA_KHQAUparm_node@@@Z 0042a8d0 f   adminfn.obj
 0001:00029980       ?AdminShowTimer@@YAXHQA_KHQAUparm_node@@@Z 0042a980 f   adminfn.obj
 0001:000299f0       ?AdminShowTimers@@YAXHQA_KHQAUparm_node@@@Z 0042a9f0 f   adminfn.obj
 0001:00029a60       ?AdminCheckTimerHeap@@YAXHQA_KHQAUparm_node@@@Z 0042aa60 f   adminfn.obj
 0001:00029ad0       ?AdminShowDynamicResources@@YAXHQA_KHQAUparm_node@@@Z 0042aad0 f   adminfn.obj
 0001:00029b00       ?AdminPrintResource@@YAXPAUresource_struct@@@Z 0042ab00 f   adminfn.obj
 0001:00029b40       ?AdminShowResource@@YAXHQA_KHQAUparm_node@@@Z 0042ab40 f   adminfn.obj
 0001:00029c50       ?AdminShowOneAccountIfSuspended@@YAXPAUaccount_node_struct@@@Z 0042ac50 f   adminfn.obj
 0001:00029c70       ?AdminShowSuspended@@YAXHQA_KHQAUparm_node@@@Z 0042ac70 f   adminfn.obj
 0001:00029cd0       ?AdminShowOneAccount@@YAXPAUaccount_node_struct@@@Z 0042acd0 f   adminfn.obj
 0001:00029dc0       ?AdminShowAccountHeader@@YAXXZ 0042adc0 f   adminfn.obj
 0001:00029df0       ?AdminShowAccount@@YAXHQA_KHQAUparm_node@@@Z 0042adf0 f   adminfn.obj
 0001:00029f20       ?AdminPrintAccountByEmail@@YAXPAUaccount_node_struct@@PAD@Z 0042af20 f   adminfn.obj
 0001:00029f70       ?AdminShowAccByEmail@@YAXHQA_KHQAUparm_node@@@Z 0042af70 f   adminfn.obj
 0001:00029fb0       ?AdminShowOneAccountIfActive@@YAXPAUaccount_node_struct@@@Z 0042afb0 f   adminfn.obj
 0001:00029fd0       ?AdminShowActive@@YAXHQA_KHQAUparm_node@@@Z 0042afd0 f   adminfn.obj
 0001:0002a070       ?AdminShowAccounts@@YAXHQA_KHQAUparm_node@@@Z 0042b070 f   adminfn.obj
 0001:0002a0c0       ?AdminShowUsage@@YAXHQA_KHQAUparm_node@@@Z 0042b0c0 f   adminfn.obj
 0001:0002a110       ?AdminShowUser@@YAXHQA_KHQAUparm_node@@@Z 0042b110 f   adminfn.obj
 0001:0002a1b0       ?AdminShowOneUser@@YAXPAUuser_struct@@@Z 0042b1b0 f   adminfn.obj
 0001:0002a290       ?AdminShowUserHeader@@YAXXZ 0042b290 f   adminfn.obj
 0001:0002a2c0       ?AdminShowUsers@@YAXHQA_KHQAUparm_node@@@Z 0042b2c0 f   adminfn.obj
 0001:0002a310       ?AdminShowListParen@@YAXHH@Z 0042b310 f   adminfn.obj
 0001:0002a4c0       ?AdminShowList@@YAXHQA_KHQAUparm_node@@@Z 0042b4c0 f   adminfn.obj
 0001:0002a4f0       ?AdminShowListNode@@YAXHQA_KHQAUparm_node@@@Z 0042b4f0 f   adminfn.obj
 0001:0002a590       ?AdminShowObject@@YAXHQA_KHQAUparm_node@@@Z 0042b590 f   adminfn.obj
 0001:0002a740       ?AdminShowObjects@@YAXHQA_KHQAUparm_node@@@Z 0042b740 f   adminfn.obj
 0001:0002a8f0       ?AdminShowBlockers@@YAXHQA_KHQAUparm_node@@@Z 0042b8f0 f   adminfn.obj
 0001:0002aa00       ?AdminShowRoomTable@@YAXHQA_KHQAUparm_node@@@Z 0042ba00 f   adminfn.obj
 0001:0002aa10       ?AdminShowCalledClass@@YAXPAUclass_struct@@@Z 0042ba10 f   adminfn.obj
 0001:0002aaf0       ?AdminShowCalled@@YAXHQA_KHQAUparm_node@@@Z 0042baf0 f   adminfn.obj
 0001:0002ac30       ?AdminShowMemory@@YAXHQA_KHQAUparm_node@@@Z 0042bc30 f   adminfn.obj
 0001:0002acd0       ?AdminShowStatus@@YAXHQA_KHQAUparm_node@@@Z 0042bcd0 f   adminfn.obj
 0001:0002b0f0       ?AdminPage@@YAXHQA_KHQAUparm_node@@@Z 0042c0f0 f   adminfn.obj
 0001:0002b180       ?AdminMail@@YAXHQA_KHQAUparm_node@@@Z 0042c180 f   adminfn.obj
 0001:0002b2b0       ?AdminUnlock@@YAXHQA_KHQAUparm_node@@@Z 0042c2b0 f   adminfn.obj
 0001:0002b320       ?AdminLock@@YAXHQA_KHQAUparm_node@@@Z 0042c320 f   adminfn.obj
 0001:0002b420       ?AdminWhoEachSession@@YAXPAUsession_node@@@Z 0042c420 f   adminfn.obj
 0001:0002b5c0       ?AdminWho@@YAXHQA_KHQAUparm_node@@@Z 0042c5c0 f   adminfn.obj
 0001:0002b600       ?AdminSaveOneConfigNode@@YAXPAUconfig_node@@PBD1@Z 0042c600 f   adminfn.obj
 0001:0002b830       ?AdminSaveConfiguration@@YAXHQA_KHQAUparm_node@@@Z 0042c830 f   adminfn.obj
 0001:0002b8e0       ?AdminSaveGame@@YAXHQA_KHQAUparm_node@@@Z 0042c8e0 f   adminfn.obj
 0001:0002b9d0       ?AdminGarbage@@YAXHQA_KHQAUparm_node@@@Z 0042c9d0 f   adminfn.obj
 0001:0002bac0       ?AdminTerminateSave@@YAXHQA_KHQAUparm_node@@@Z 0042cac0 f   adminfn.obj
 0001:0002bba0       ?AdminTerminateNoSave@@YAXHQA_KHQAUparm_node@@@Z 0042cba0 f   adminfn.obj
 0001:0002bbe0       ?AdminHelp@@YAXHHQAUadmin_table_struct@@@Z 0042cbe0 f   adminfn.obj
 0001:0002bcb0       ?AdminIsValidBlakParm@@YADTval_type@@@Z 0042ccb0 f   adminfn.obj
 0001:0002bd50       ?AdminTable@@YAXHQAUadmin_table_struct@@HPAD@Z 0042cd50 f   adminfn.obj
 0001:0002c4f0       ?DoAdminCommand@@YAXPAD@Z  0042d4f0 f   adminfn.obj
 0001:0002c530       ?SendSessionAdminText@@YAXHPBDZZ 0042d530 f   adminfn.obj
 0001:0002c5c0       ?SendAdminBuffer@@YAXPADH@Z 0042d5c0 f   adminfn.obj
 0001:0002c6e0       ?AdminSendBufferList@@YAXXZ 0042d6e0 f   adminfn.obj
 0001:0002c7d0       ?AdminBufferSend@@YAXPADH@Z 0042d7d0 f   adminfn.obj
 0001:0002c7f0       ?to_lowercase@@YAPADPAD@Z  0042d7f0 f   adminfn.obj
 0001:0002c830       ?TryAdminCommand@@YAXHPAD@Z 0042d830 f   adminfn.obj
 0001:0002c910       ?AdminDeleteEachUserObject@@YAXPAUuser_struct@@@Z 0042d910 f   adminfn.obj
 0001:0002c930       ?AsyncSocketRead@@YAXI@Z   0042d930 f   async.obj
 0001:0002cae0       ?AsyncSocketWrite@@YAXI@Z  0042dae0 f   async.obj
 0001:0002cc40       ?AsyncSocketClose@@YAXI@Z  0042dc40 f   async.obj
 0001:0002cc70       ?AsyncEachSessionNameLookup@@YAXPAUsession_node@@@Z 0042dc70 f   async.obj
 0001:0002cce0       ?AsyncNameLookup@@YAXPAXH@Z 0042dce0 f   async.obj
 0001:0002cd10       ?AcceptSocketConnections@@YAXHH@Z 0042dd10 f   async.obj
 0001:0002cf50       ?AsyncSocketStart@@YAXXZ   0042df50 f   async.obj
 0001:0002d040       ?CheckMaintenanceMask@@YADPAUsockaddr_in6@@H@Z 0042e040 f   async_windows.obj
 0001:0002d0e0       ?AsyncSocketSelect@@YAXIHH@Z 0042e0e0 f   async_windows.obj
 0001:0002d1c0       ?AsyncSocketAccept@@YAXIHHH@Z 0042e1c0 f   async_windows.obj
 0001:0002d4c0       ?ExitAsyncConnections@@YAXXZ 0042e4c0 f   async_windows.obj
 0001:0002d4e0       ?InitAsyncConnections@@YAXXZ 0042e4e0 f   async_windows.obj
 0001:0002d680       ?ForEachResource@@YAXP6AXPAUresource_struct@@@Z@Z 0042e680 f   blakres.obj
 0001:0002d6d0       ?GetResourceStrByLanguageID@@YAPADHH@Z 0042e6d0 f   blakres.obj
 0001:0002d730       ?DynamicResourceChangeNotify@@YAXPAUsession_node@@@Z 0042e730 f   blakres.obj
 0001:0002d800       ?ChangeDynamicResource@@YAXPAUresource_struct@@PADH@Z 0042e800 f   blakres.obj
 0001:0002d8e0       ?SetResourceName@@YAXHPAD@Z 0042e8e0 f   blakres.obj
 0001:0002d9d0       ?AddResource@@YAXHHPAD@Z   0042e9d0 f   blakres.obj
 0001:0002dac0       ?ResetResource@@YAXXZ      0042eac0 f   blakres.obj
 0001:0002dc70       ?InitResource@@YAXXZ       0042ec70 f   blakres.obj
 0001:0002ddf0       ?GetRsbMD5@@YAPADXZ        0042edf0 f   blakres.obj
 0001:0002de00       ?SaveRsbMD5@@YAXPAD@Z      0042ee00 f   blakres.obj
 0001:0002de10       ?GetResourceByName@@YAPAUresource_struct@@PBD@Z 0042ee10 f   blakres.obj
 0001:0002de60       ?GetResourceByID@@YAPAUresource_struct@@H@Z 0042ee60 f   blakres.obj
 0001:0002de90       ?IsResourceByID@@YADH@Z    0042ee90 f   blakres.obj
 0001:0002dec0       ?AddDynamicResource@@YAHPAD@Z 0042eec0 f   blakres.obj
 0001:0002df30       ?ForEachDynamicRsc@@YAXP6AXPAUresource_struct@@@Z@Z 0042ef30 f   blakres.obj
 0001:0002df80       ?BuildBannedIPBlocks@@YAXPAD@Z 0042ef80 f   block.obj
 0001:0002e160       ?DeleteAllBlocks@@YAXXZ    0042f160 f   block.obj
 0001:0002e1a0       ?CheckBlockList@@YA_NPAUin6_addr@@@Z 0042f1a0 f   block.obj
 0001:0002e1e0       ?DeleteBlock@@YAXPAUin6_addr@@@Z 0042f1e0 f   block.obj
 0001:0002e240       ?FindBlock@@YAPAUblock_node_struct@@PAUin6_addr@@@Z 0042f240 f   block.obj
 0001:0002e290       ?AddBlock@@YAXHPAUin6_addr@@@Z 0042f290 f   block.obj
 0001:0002e330       ?DeleteBufferList@@YAXPAUbuffer_struct@@@Z 0042f330 f   bufpool.obj
 0001:0002e3a0       ?CopyBufferList@@YAPAUbuffer_struct@@PAU1@@Z 0042f3a0 f   bufpool.obj
 0001:0002e520       ?InitBufferPool@@YAXXZ     0042f520 f   bufpool.obj
 0001:0002e540       ?DeleteBuffer@@YAXPAUbuffer_struct@@@Z 0042f540 f   bufpool.obj
 0001:0002e590       ?AddToBufferList@@YAPAUbuffer_struct@@PAU1@PAXH@Z 0042f590 f   bufpool.obj
 0001:0002e740       ?AddByteToBufferList@@YAPAUbuffer_struct@@PAU1@D@Z 0042f740 f   bufpool.obj
 0001:0002e760       ?GetBuffer@@YAPAUbuffer_struct@@XZ 0042f760 f   bufpool.obj
 0001:0002e890       ?ResetBufferPool@@YAXXZ    0042f890 f   bufpool.obj
 0001:0002e920       ?CreateBuiltInAccounts@@YAXXZ 0042f920 f   builtin.obj
 0001:0002ea70       ?C_SetClassVar@@YAHHPAUlocal_var_type@@HQAUparm_node@@H1@Z 0042fa70 f   ccode.obj
 0001:0002ef60       ?C_GetSessionIP@@YAHHPAUlocal_var_type@@HQAUparm_node@@H1@Z 0042ff60 f   ccode.obj
 0001:0002f130       ?C_RecordStat@@YAHHPAUlocal_var_type@@HQAUparm_node@@H1@Z 00430130 f   ccode.obj
 0001:000320d0       ?C_StringToNumber@@YAHHPAUlocal_var_type@@HQAUparm_node@@H1@Z 004330d0 f   ccode.obj
 0001:00032290       ?C_IsObject@@YAHHPAUlocal_var_type@@HQAUparm_node@@H1@Z 00433290 f   ccode.obj
 0001:000323f0       ?C_RecycleUser@@YAHHPAUlocal_var_type@@HQAUparm_node@@H1@Z 004333f0 f   ccode.obj
 0001:000325d0       ?C_IsTable@@YAHHPAUlocal_var_type@@HQAUparm_node@@H1@Z 004335d0 f   ccode.obj
 0001:00032750       ?C_DeleteTable@@YAHHPAUlocal_var_type@@HQAUparm_node@@H1@Z 00433750 f   ccode.obj
 0001:000328b0       ?C_DeleteTableEntry@@YAHHPAUlocal_var_type@@HQAUparm_node@@H1@Z 004338b0 f   ccode.obj
 0001:00032b00       ?C_GetTableEntry@@YAHHPAUlocal_var_type@@HQAUparm_node@@H1@Z 00433b00 f   ccode.obj
 0001:00032d50       ?C_AddTableEntry@@YAHHPAUlocal_var_type@@HQAUparm_node@@H1@Z 00433d50 f   ccode.obj
 0001:00033150       ?C_CreateTable@@YAHHPAUlocal_var_type@@HQAUparm_node@@H1@Z 00434150 f   ccode.obj
 0001:000332c0       ?C_Bound@@YAHHPAUlocal_var_type@@HQAUparm_node@@H1@Z 004342c0 f   ccode.obj
 0001:000336c0       ?C_Sqrt@@YAHHPAUlocal_var_type@@HQAUparm_node@@H1@Z 004346c0 f   ccode.obj
 0001:00033850       ?C_Abs@@YAHHPAUlocal_var_type@@HQAUparm_node@@H1@Z 00434850 f   ccode.obj
 0001:000339b0       ?C_Random@@YAHHPAUlocal_var_type@@HQAUparm_node@@H1@Z 004349b0 f   ccode.obj
 0001:00033c90       ?C_GetTickCount@@YAHHPAUlocal_var_type@@HQAUparm_node@@H1@Z 00434c90 f   ccode.obj
 0001:00033cb0       ?C_GetTime@@YAHHPAUlocal_var_type@@HQAUparm_node@@H1@Z 00434cb0 f   ccode.obj
 0001:00033cd0       ?C_GetTimeZoneOffset@@YAHHPAUlocal_var_type@@HQAUparm_node@@H1@Z 00434cd0 f   ccode.obj
 0001:00033ce0       ?C_ListCopy@@YAHHPAUlocal_var_type@@HQAUparm_node@@H1@Z 00434ce0 f   ccode.obj
 0001:00033e30       ?C_GetListElemByClass@@YAHHPAUlocal_var_type@@HQAUparm_node@@H1@Z 00434e30 f   ccode.obj
 0001:000340d0       ?C_GetListNode@@YAHHPAUlocal_var_type@@HQAUparm_node@@H1@Z 004350d0 f   ccode.obj
 0001:00034500       ?C_GetAllListNodesByClass@@YAHHPAUlocal_var_type@@HQAUparm_node@@H1@Z 00435500 f   ccode.obj
 0001:00034910       ?C_FindListElem@@YAHHPAUlocal_var_type@@HQAUparm_node@@H1@Z 00435910 f   ccode.obj
 0001:00034b70       ?C_DelLastListElem@@YAHHPAUlocal_var_type@@HQAUparm_node@@H1@Z 00435b70 f   ccode.obj
 0001:00034cb0       ?C_DelListElem@@YAHHPAUlocal_var_type@@HQAUparm_node@@H1@Z 00435cb0 f   ccode.obj
 0001:00034f60       ?C_SwapListElem@@YAHHPAUlocal_var_type@@HQAUparm_node@@H1@Z 00435f60 f   ccode.obj
 0001:00035380       ?C_InsertListElem@@YAHHPAUlocal_var_type@@HQAUparm_node@@H1@Z 00436380 f   ccode.obj
 0001:000357a0       ?C_SetNth@@YAHHPAUlocal_var_type@@HQAUparm_node@@H1@Z 004367a0 f   ccode.obj
 0001:00035b80       ?C_SetFirst@@YAHHPAUlocal_var_type@@HQAUparm_node@@H1@Z 00436b80 f   ccode.obj
 0001:00035e00       ?C_IsList@@YAHHPAUlocal_var_type@@HQAUparm_node@@H1@Z 00436e00 f   ccode.obj
 0001:00035f40       ?C_List@@YAHHPAUlocal_var_type@@HQAUparm_node@@H1@Z 00436f40 f   ccode.obj
 0001:000360b0       ?C_IsListMatch@@YAHHPAUlocal_var_type@@HQAUparm_node@@H1@Z 004370b0 f   ccode.obj
 0001:00036360       ?C_Nth@@YAHHPAUlocal_var_type@@HQAUparm_node@@H1@Z 00437360 f   ccode.obj
 0001:00036620       ?C_Last@@YAHHPAUlocal_var_type@@HQAUparm_node@@H1@Z 00437620 f   ccode.obj
 0001:00036760       ?C_Length@@YAHHPAUlocal_var_type@@HQAUparm_node@@H1@Z 00437760 f   ccode.obj
 0001:000368b0       ?C_Rest@@YAHHPAUlocal_var_type@@HQAUparm_node@@H1@Z 004378b0 f   ccode.obj
 0001:00036a60       ?C_First@@YAHHPAUlocal_var_type@@HQAUparm_node@@H1@Z 00437a60 f   ccode.obj
 0001:00036c10       ?C_Cons@@YAHHPAUlocal_var_type@@HQAUparm_node@@H1@Z 00437c10 f   ccode.obj
 0001:00036e70       ?C_AppendListElem@@YAHHPAUlocal_var_type@@HQAUparm_node@@H1@Z 00437e70 f   ccode.obj
 0001:000370d0       ?C_GetStepTowardsBSP@@YAHHPAUlocal_var_type@@HQAUparm_node@@H1@Z 004380d0 f   ccode.obj
 0001:00038200       ?C_GetRandomPointBSP@@YAHHPAUlocal_var_type@@HQAUparm_node@@H1@Z 00439200 f   ccode.obj
 0001:00038b70       ?C_BlockerClearBSP@@YAHHPAUlocal_var_type@@HQAUparm_node@@H1@Z 00439b70 f   ccode.obj
 0001:00038d20       ?C_BlockerRemoveBSP@@YAHHPAUlocal_var_type@@HQAUparm_node@@H1@Z 00439d20 f   ccode.obj
 0001:00038ff0       ?C_BlockerMoveBSP@@YAHHPAUlocal_var_type@@HQAUparm_node@@H1@Z 00439ff0 f   ccode.obj
 0001:000398c0       ?C_BlockerAddBSP@@YAHHPAUlocal_var_type@@HQAUparm_node@@H1@Z 0043a8c0 f   ccode.obj
 0001:0003a190       ?C_MoveSectorBSP@@YAHHPAUlocal_var_type@@HQAUparm_node@@H1@Z 0043b190 f   ccode.obj
 0001:0003a8a0       ?C_ChangeTextureBSP@@YAHHPAUlocal_var_type@@HQAUparm_node@@H1@Z 0043b8a0 f   ccode.obj
 0001:0003ae40       ?C_LineOfSightBSP@@YAHHPAUlocal_var_type@@HQAUparm_node@@H1@Z 0043be40 f   ccode.obj
 0001:0003bcc0       ?C_LineOfSightView@@YAHHPAUlocal_var_type@@HQAUparm_node@@H1@Z 0043ccc0 f   ccode.obj
 0001:0003c9a0       ?C_CanMoveInRoomBSP@@YAHHPAUlocal_var_type@@HQAUparm_node@@H1@Z 0043d9a0 f   ccode.obj
 0001:0003d9d0       ?C_GetLocationInfoBSP@@YAHHPAUlocal_var_type@@HQAUparm_node@@H1@Z 0043e9d0 f   ccode.obj
 0001:0003eab0       ?C_RoomData@@YAHHPAUlocal_var_type@@HQAUparm_node@@H1@Z 0043fab0 f   ccode.obj
 0001:0003ed00       ?C_FreeRoom@@YAHHPAUlocal_var_type@@HQAUparm_node@@H1@Z 0043fd00 f   ccode.obj
 0001:0003eeb0       ?C_LoadRoom@@YAHHPAUlocal_var_type@@HQAUparm_node@@H1@Z 0043feb0 f   ccode.obj
 0001:0003eff0       ?C_IsTimer@@YAHHPAUlocal_var_type@@HQAUparm_node@@H1@Z 0043fff0 f   ccode.obj
 0001:0003f140       ?C_GetTimeRemaining@@YAHHPAUlocal_var_type@@HQAUparm_node@@H1@Z 00440140 f   ccode.obj
 0001:0003f310       ?C_DeleteTimer@@YAHHPAUlocal_var_type@@HQAUparm_node@@H1@Z 00440310 f   ccode.obj
 0001:0003f460       ?C_CreateTimer@@YAHHPAUlocal_var_type@@HQAUparm_node@@H1@Z 00440460 f   ccode.obj
 0001:0003f8b0       ?C_StringConsistsOf@@YAHHPAUlocal_var_type@@HQAUparm_node@@H1@Z 004408b0 f   ccode.obj
 0001:0003fb50       ?C_StringLength@@YAHHPAUlocal_var_type@@HQAUparm_node@@H1@Z 00440b50 f   ccode.obj
 0001:0003fc90       ?C_IsString@@YAHHPAUlocal_var_type@@HQAUparm_node@@H1@Z 00440c90 f   ccode.obj
 0001:0003fdd0       ?C_CreateString@@YAHHPAUlocal_var_type@@HQAUparm_node@@H1@Z 00440dd0 f   ccode.obj
 0001:0003fdf0       ?C_AppendTempString@@YAHHPAUlocal_var_type@@HQAUparm_node@@H1@Z 00440df0 f   ccode.obj
 0001:000400b0       ?C_GetTempString@@YAHHPAUlocal_var_type@@HQAUparm_node@@H1@Z 004410b0 f   ccode.obj
 0001:000400c0       ?C_ClearTempString@@YAHHPAUlocal_var_type@@HQAUparm_node@@H1@Z 004410c0 f   ccode.obj
 0001:000400e0       ?C_SetString@@YAHHPAUlocal_var_type@@HQAUparm_node@@H1@Z 004410e0 f   ccode.obj
 0001:000406d0       ?C_ParseString@@YAHHPAUlocal_var_type@@HQAUparm_node@@H1@Z 004416d0 f   ccode.obj
 0001:00040c20       ?C_SetResource@@YAHHPAUlocal_var_type@@HQAUparm_node@@H1@Z 00441c20 f   ccode.obj
 0001:00040f80       ?FuzzyBufferContain@@YA_NPBDH0H@Z 00441f80 f   ccode.obj
 0001:00040fe0       ?C_StringContain@@YAHHPAUlocal_var_type@@HQAUparm_node@@H1@Z 00441fe0 f   ccode.obj
 0001:000414e0       ?C_StringSubstitute@@YAHHPAUlocal_var_type@@HQAUparm_node@@H1@Z 004424e0 f   ccode.obj
 0001:00041bf0       ?FuzzyBufferEqual@@YA_NPBDH0H@Z 00442bf0 f   ccode.obj
 0001:00041cf0       ?FuzzyCollapseString@@YAXPADPBDH@Z 00442cf0 f   ccode.obj
 0001:00041d80       ?C_StringEqual@@YAHHPAUlocal_var_type@@HQAUparm_node@@H1@Z 00442d80 f   ccode.obj
 0001:00042280       ?LookupString@@YA_NTval_type@@PBDPAPBDPAH@Z 00443280 f   ccode.obj
 0001:000423f0       ?C_GetClass@@YAHHPAUlocal_var_type@@HQAUparm_node@@H1@Z 004433f0 f   ccode.obj
 0001:00042570       ?C_CreateObject@@YAHHPAUlocal_var_type@@HQAUparm_node@@H1@Z 00443570 f   ccode.obj
 0001:000426c0       ?C_SendListMessageByClassBreak@@YAHHPAUlocal_var_type@@HQAUparm_node@@H1@Z 004436c0 f   ccode.obj
 0001:00042d20       ?C_SendListMessageByClass@@YAHHPAUlocal_var_type@@HQAUparm_node@@H1@Z 00443d20 f   ccode.obj
 0001:00043380       ?C_SendListMessageBreak@@YAHHPAUlocal_var_type@@HQAUparm_node@@H1@Z 00444380 f   ccode.obj
 0001:00043870       ?C_SendListMessage@@YAHHPAUlocal_var_type@@HQAUparm_node@@H1@Z 00444870 f   ccode.obj
 0001:00043d60       ?C_PostMessage@@YAHHPAUlocal_var_type@@HQAUparm_node@@H1@Z 00444d60 f   ccode.obj
 0001:00044120       ?C_SendMessage@@YAHHPAUlocal_var_type@@HQAUparm_node@@H1@Z 00445120 f   ccode.obj
 0001:000444f0       ?C_DumpStack@@YAHHPAUlocal_var_type@@HQAUparm_node@@H1@Z 004454f0 f   ccode.obj
 0001:00044550       ?C_GetInactiveTime@@YAHHPAUlocal_var_type@@HQAUparm_node@@H1@Z 00445550 f   ccode.obj
 0001:00044720       ?C_Debug@@YAHHPAUlocal_var_type@@HQAUparm_node@@H1@Z 00445720 f   ccode.obj
 0001:00044d10       ?C_GodLog@@YAHHPAUlocal_var_type@@HQAUparm_node@@H1@Z 00445d10 f   ccode.obj
 0001:000452d0       ?C_ClearPacket@@YAHHPAUlocal_var_type@@HQAUparm_node@@H1@Z 004462d0 f   ccode.obj
 0001:000452f0       ?C_SendCopyPacket@@YAHHPAUlocal_var_type@@HQAUparm_node@@H1@Z 004462f0 f   ccode.obj
 0001:00045440       ?C_SendPacket@@YAHHPAUlocal_var_type@@HQAUparm_node@@H1@Z 00446440 f   ccode.obj
 0001:000455a0       ?C_AddPacket@@YAHHPAUlocal_var_type@@HQAUparm_node@@H1@Z 004465a0 f   ccode.obj
 0001:00045970       ?C_LoadGame@@YAHHPAUlocal_var_type@@HQAUparm_node@@H1@Z 00446970 f   ccode.obj
 0001:00045b40       ?C_SaveGame@@YAHHPAUlocal_var_type@@HQAUparm_node@@H1@Z 00446b40 f   ccode.obj
 0001:00045c80       ?C_Invalid@@YAHHPAUlocal_var_type@@HQAUparm_node@@H1@Z 00446c80 f   ccode.obj
 0001:00045c90       ?stristr@@YAPBDPBD0@Z      00446c90 f   ccode.obj
 0001:00045d00       ?DoneChannelBuffer@@YAXXZ  00446d00 f   chanbuf.obj
 0001:00045d20       ?GetChannelBuffer@@YAPAUchannel_buffer_node@@XZ 00446d20 f   chanbuf.obj
 0001:00045d40       ?IsNewChannelText@@YADXZ   00446d40 f   chanbuf.obj
 0001:00045d70       ?WriteChannelBuffer@@YAXHPAD@Z 00446d70 f   chanbuf.obj
 0001:00045e60       ?InitChannelBuffer@@YAXXZ  00446e60 f   chanbuf.obj
 0001:00045e80       ?CreateFileChannel@@YAPAU_iobuf@@H@Z 00446e80 f   channel.obj
 0001:00045f40       ?WriteStrChannel@@YAXHPAD@Z 00446f40 f   channel.obj
 0001:00046020       ?CloseDefaultChannels@@YAXXZ 00447020 f   channel.obj
 0001:00046050       ?OpenDefaultChannels@@YAXXZ 00447050 f   channel.obj
 0001:000460b0       ?bprintf@@YAXPBDZZ         004470b0 f   channel.obj
 0001:00046190       ?FlushDefaultChannels@@YAXXZ 00447190 f   channel.obj
 0001:000461c0       ?gprintf@@YAXPBDZZ         004471c0 f   channel.obj
 0001:00046300       ?dprintf@@YAXPBDZZ         00447300 f   channel.obj
 0001:000463d0       ?aprintf@@YAXPBDZZ         004473d0 f   channel.obj
 0001:00046470       ?eprintf@@YAXPBDZZ         00447470 f   channel.obj
 0001:00046500       ?lprintf@@YAXPBDZZ         00447500 f   channel.obj
 0001:000465e0       ?GetSourceLine@@YAHPAUclass_struct@@PAD@Z 004475e0 f   class.obj
 0001:00046630       ?SetOneClassPropertyNames@@YAXPAUclass_struct@@@Z 00447630 f   class.obj
 0001:00046730       ?SetClassPropertyNames@@YAXXZ 00447730 f   class.obj
 0001:000467e0       ?AddClassPropertyName@@YAXPAUclass_struct@@PADH@Z 004477e0 f   class.obj
 0001:000468b0       ?SetOneClassVariables@@YAXPAUclass_struct@@0@Z 004478b0 f   class.obj
 0001:00046920       ?SetClassVariables@@YAXXZ  00447920 f   class.obj
 0001:00046990       ?SetClassesSuperPtr@@YAXXZ 00447990 f   class.obj
 0001:00046a30       ?SetClassName@@YAXHPAD@Z   00447a30 f   class.obj
 0001:00046b20       ?AddClass@@YAXHPAUbof_class_header@@PAD1PAUbof_dstring@@PAUbof_line_table@@PAUbof_class_props@@@Z 00447b20 f   class.obj
 0001:00046d10       ?ResetClass@@YAXXZ         00447d10 f   class.obj
 0001:00046f90       ?InitClass@@YAXXZ          00447f90 f   class.obj
 0001:00047110       ?GetClassByID@@YAPAUclass_struct@@H@Z 00448110 f   class.obj
 0001:00047140       ?ForEachClass@@YAXP6AXPAUclass_struct@@@Z@Z 00448140 f   class.obj
 0001:00047180       ?GetClassDebugStr@@YAPBDPAUclass_struct@@H@Z 00448180 f   class.obj
 0001:000471b0       ?GetPropertyIDByName@@YAHPAUclass_struct@@PBD@Z 004481b0 f   class.obj
 0001:000471f0       ?GetPropertyNameByID@@YAPBDPAUclass_struct@@H@Z 004481f0 f   class.obj
 0001:00047230       ?GetClassVarIDByName@@YAHPAUclass_struct@@PBD@Z 00448230 f   class.obj
 0001:00047270       ?GetClassVarNameByID@@YAPADPAUclass_struct@@H@Z 00448270 f   class.obj
 0001:000472a0       ?GetClassByName@@YAPAUclass_struct@@PBD@Z 004482a0 f   class.obj
 0001:000472f0       ?ClientHangupToBlakod@@YAXPAUsession_node@@@Z 004482f0 f   commcli.obj
 0001:00047360       ?AddShortToPacket@@YAXF@Z  00448360 f   commcli.obj
 0001:00047380       ?InitCommCli@@YAXXZ        00448380 f   commcli.obj
 0001:00047390       ?ClearPacket@@YAXXZ        00448390 f   commcli.obj
 0001:000473b0       ?SendCopyPacket@@YAXH@Z    004483b0 f   commcli.obj
 0001:000473d0       ?AddBlakodToPacket@@YAXTval_type@@0@Z 004483d0 f   commcli.obj
 0001:000475c0       ?AddIntToPacket@@YAXH@Z    004485c0 f   commcli.obj
 0001:000475e0       ?SendBlakodBeginSystemEvent@@YAXH@Z 004485e0 f   commcli.obj
 0001:00047640       ?AddStringToPacket@@YAXHPBD@Z 00448640 f   commcli.obj
 0001:00047680       ?AddByteToPacket@@YAXE@Z   00448680 f   commcli.obj
 0001:000476a0       ?SendBlakodEndSystemEvent@@YAXH@Z 004486a0 f   commcli.obj
 0001:00047700       ?SecurePacketBufferList@@YAXHPAUbuffer_struct@@@Z 00448700 f   commcli.obj
 0001:00047810       ?SendPacket@@YAXH@Z        00448810 f   commcli.obj
 0001:00047840       ?LoadConfigLine@@YAHPADHPBDH@Z 00448840 f   config.obj
 0001:00047aa0       ?LoadConfig@@YAXXZ         00448aa0 f   config.obj
 0001:00047bc0       ?UnlockDynamicConfig@@YAXXZ 00448bc0 f   config.obj
 0001:00047bd0       ?LockDynamicConfig@@YAXXZ  00448bd0 f   config.obj
 0001:00047be0       ?AddConfig@@YAPBDHPBDHH@Z  00448be0 f   config.obj
 0001:00047ea0       ?ResetConfig@@YAXXZ        00448ea0 f   config.obj
 0001:00047eb0       ?InitConfig@@YAXXZ         00448eb0 f   config.obj
 0001:00047f00       ?SetConfigBool@@YAXHD@Z    00448f00 f   config.obj
 0001:00047fb0       ?GetConfigIDByGroupAndName@@YAHPAD0@Z 00448fb0 f   config.obj
 0001:00048030       ?ForEachConfigNode@@YAXP6AXPAUconfig_node@@PBD1@Z@Z 00449030 f   config.obj
 0001:00048070       ?SetConfigInt@@YAXHH@Z     00449070 f   config.obj
 0001:00048120       ?UnlockConfigStr@@YAXXZ    00449120 f   config.obj
 0001:00048130       ?LockConfigStr@@YAPADH@Z   00449130 f   config.obj
 0001:000481c0       ?GetConfigByID@@YAPAUconfig_node@@H@Z 004491c0 f   config.obj
 0001:000481f0       ?SetConfigStr@@YAXHPAD@Z   004491f0 f   config.obj
 0001:00048350       ?ConfigBool@@YADH@Z        00449350 f   config.obj
 0001:000483e0       ?ConfigInt@@YAHH@Z         004493e0 f   config.obj
 0001:00048470       ?ConfigStr@@YAPADH@Z       00449470 f   config.obj
 0001:000484f0       ?_MySQLWriteGuildDisband@@YAXPAUsql_record_guilddisband@@H@Z 004494f0 f   database.obj
 0001:00048580       ?_MySQLWriteGuild@@YAXPAUsql_record_guild@@H@Z 00449580 f   database.obj
 0001:000486c0       ?_MySQLWritePlayerSuicide@@YAXPAUsql_record_playersuicide@@H@Z 004496c0 f   database.obj
 0001:00048780       ?_MySQLWritePlayer@@YAXPAUsql_record_player@@H@Z 00449780 f   database.obj
 0001:00048aa0       ?_MySQLWritePlayerDeath@@YAXPAUsql_record_playerdeath@@H@Z 00449aa0 f   database.obj
 0001:00048c60       ?_MySQLWritePlayerAssessDamage@@YAXPAUsql_record_playerassessdamage@@H@Z 00449c60 f   database.obj
 0001:00048e60       ?_MySQLWritePlayerLogin@@YAXPAUsql_record_playerlogin@@H@Z 00449e60 f   database.obj
 0001:00048fc0       ?_MySQLWriteMoneyCreated@@YAXPAUsql_record_moneycreated@@H@Z 00449fc0 f   database.obj
 0001:00049040       ?_MySQLWriteTotalMoney@@YAXPAUsql_record_totalmoney@@H@Z 0044a040 f   database.obj
 0001:000490c0       ?_MySQLWriteSaveGame@@YAXPAUsql_record_savegame@@H@Z 0044a0c0 f   database.obj
 0001:00049280       ?_MySQLWriteNode@@YAXPAUsql_queue_node@@H@Z 0044a280 f   database.obj
 0001:00049300       ?_MySQLCallProc@@YAXPADQAUst_mysql_bind@@@Z 0044a300 f   database.obj
 0001:00049360       ?_MySQLDequeue@@YAHH@Z     0044a360 f   database.obj
 0001:000493d0       ?_MySQLEnqueue@@YAHPAUsql_queue_node@@@Z 0044a3d0 f   database.obj
 0001:00049450       ?_MySQLVerifySchema@@YAXXZ 0044a450 f   database.obj
 0001:000495f0       ?_MySQLWorker@@YAXPAX@Z    0044a5f0 f   database.obj
 0001:000498e0       ?MySQLRecordPlayerLogin@@YAHPAD00@Z 0044a8e0 f   database.obj
 0001:000499c0       ?MySQLEnd@@YAXXZ           0044a9c0 f   database.obj
 0001:000499d0       ?MySQLInit@@YAXPAD000@Z    0044a9d0 f   database.obj
 0001:00049a50       ?MySQLRecordGuild@@YAHPAD00@Z 0044aa50 f   database.obj
 0001:00049b30       ?MySQLRecordGuildDisband@@YAHPAD@Z 0044ab30 f   database.obj
 0001:00049bc0       ?MySQLRecordPlayerAssessDamage@@YAHPAD0HHHH0@Z 0044abc0 f   database.obj
 0001:00049cc0       ?MySQLRecordPlayerSuicide@@YAHHPAD@Z 0044acc0 f   database.obj
 0001:00049d60       ?MySQLRecordPlayer@@YAHHPAD000HHHHHHHH@Z 0044ad60 f   database.obj
 0001:00049f00       ?MySQLRecordMoneyCreated@@YAHH@Z 0044af00 f   database.obj
 0001:00049f80       ?MySQLRecordTotalMoney@@YAHH@Z 0044af80 f   database.obj
 0001:0004a000       ?MySQLRecordPlayerDeath@@YAHPAD000H@Z 0044b000 f   database.obj
 0001:0004a110       ?DebugHeapAll@@YAXXZ       0044b110 f   debug.obj
 0001:0004a130       ?InitDebug@@YAXXZ          0044b130 f   debug.obj
 0001:0004a1a0       ?DebugCheckHeap@@YAXXZ     0044b1a0 f   debug.obj
 0001:0004a1b0       ?ForEachNewDLFile@@YAXPAUsession_node@@P6AXPADHHH@Z@Z 0044b1b0 f   dllist.obj
 0001:0004a210       ?CountNewDLFile@@YAHPAUsession_node@@@Z 0044b210 f   dllist.obj
 0001:0004a250       ?AddOrUpdateDLlist@@YAXPADHHH@Z 0044b250 f   dllist.obj
 0001:0004a2f0       ?AddDLlist@@YAXPADHHH@Z    0044b2f0 f   dllist.obj
 0001:0004a3d0       ?InitDLlist@@YAXXZ         0044b3d0 f   dllist.obj
 0001:0004a3e0       ?ForEachDLlist@@YAXP6AXPAUdllist_struct@@@Z@Z 0044b3e0 f   dllist.obj
 0001:0004a420       ?AddBuiltInDLlist@@YAXXZ   0044b420 f   dllist.obj
 0001:0004a650       ?ResetDLlist@@YAXXZ        0044b650 f   dllist.obj
 0001:0004a690       ?BlakMoveFile@@YA_NPBD0@Z  0044b690 f   files.obj
 0001:0004a750       ?FindMatchingFiles@@YA_NPBDPAV?$vector@V?$basic_string@DU?$char_traits@D@std@@V?$allocator@D@2@@std@@V?$allocator@V?$basic_string@DU?$char_traits@D@std@@V?$allocator@D@2@@std@@@2@@std@@@Z 0044b750 f   files.obj
 0001:0004a940       ?GetSecurityRedbookID@@YAHXZ 0044b940 f   game.obj
 0001:0004a950       ?UpdateSecurityRedbook@@YAXXZ 0044b950 f   game.obj
 0001:0004aaa0       ?GameDMCommand@@YAXPAUsession_node@@HPAD@Z 0044baa0 f   game.obj
 0001:0004acd0       ?GameSendSystemEnter@@YAXPAUsession_node@@@Z 0044bcd0 f   game.obj
 0001:0004ad30       ?GameSendEachUserChoice@@YAXPAUuser_struct@@@Z 0044bd30 f   game.obj
 0001:0004aea0       ?GameTryGetUser@@YAXPAUsession_node@@@Z 0044bea0 f   game.obj
 0001:0004b220       ?GameStartUser@@YAXPAUsession_node@@PAUuser_struct@@@Z 0044c220 f   game.obj
 0001:0004b370       ?GameProtocolParse@@YAXPAUsession_node@@PAUclient_msg@@@Z 0044c370 f   game.obj
 0001:0004b7b0       ?GameEchoPing@@YAXPAUsession_node@@@Z 0044c7b0 f   game.obj
 0001:0004b860       ?GameSyncInputChar@@YAXPAUsession_node@@D@Z 0044c860 f   game.obj
 0001:0004b940       ?GameSyncProcessSessionBuffer@@YAXPAUsession_node@@@Z 0044c940 f   game.obj
 0001:0004ba00       ?GameSyncInit@@YAXPAUsession_node@@@Z 0044ca00 f   game.obj
 0001:0004ba60       ?GameSendResync@@YAXPAUsession_node@@@Z 0044ca60 f   game.obj
 0001:0004bac0       ?GameRandomStreamsStep@@YAIPAUsession_node@@@Z 0044cac0 f   game.obj
 0001:0004bb50       ?GameProcessSessionBuffer@@YAXPAUsession_node@@@Z 0044cb50 f   game.obj
 0001:0004bdf0       ?GameProcessSessionTimer@@YAXPAUsession_node@@@Z 0044cdf0 f   game.obj
 0001:0004bef0       ?GameExit@@YAXPAUsession_node@@@Z 0044cef0 f   game.obj
 0001:0004bfc0       ?GameInit@@YAXPAUsession_node@@@Z 0044cfc0 f   game.obj
 0001:0004c0d0       ?GetSecurityRedbook@@YAPADXZ 0044d0d0 f   game.obj
 0001:0004c0f0       ?GameClientExit@@YAXPAUsession_node@@@Z 0044d0f0 f   game.obj
 0001:0004c140       ?InitGameLock@@YAXXZ       0044d140 f   gamelock.obj
 0001:0004c150       ?SetGameLock@@YAXPAD@Z     0044d150 f   gamelock.obj
 0001:0004c170       ?SetGameUnlock@@YAXXZ      0044d170 f   gamelock.obj
 0001:0004c180       ?GetGameLockedReason@@YAPADXZ 0044d180 f   gamelock.obj
 0001:0004c190       ?IsGameLocked@@YADXZ       0044d190 f   gamelock.obj
 0001:0004c1a0       ?CompactString@@YAXPAUstring_node@@H@Z 0044d1a0 f   garbage.obj
 0001:0004c1d0       ?ResetStringReference@@YAXPATval_type@@@Z 0044d1d0 f   garbage.obj
 0001:0004c260       ?RenumberString@@YAXPAUstring_node@@H@Z 0044d260 f   garbage.obj
 0001:0004c280       ?MarkString@@YAXH@Z        0044d280 f   garbage.obj
 0001:0004c2d0       ?ClearStringGarbageRef@@YAXPAUstring_node@@H@Z 0044d2d0 f   garbage.obj
 0001:0004c2e0       ?CompactTimer@@YAXPAUtimer_struct@@@Z 0044d2e0 f   garbage.obj
 0001:0004c2f0       ?ResetTimerReference@@YAXPATval_type@@@Z 0044d2f0 f   garbage.obj
 0001:0004c360       ?RenumberTimer@@YAXPAUtimer_struct@@@Z 0044d360 f   garbage.obj
 0001:0004c380       ?RenumberTableTimerStringReferences@@YAXPAUtable_struct@@H@Z 0044d380 f   garbage.obj
 0001:0004c4c0       ?RenumberListNodeTimerStringReferences@@YAXPAUlist_node@@H@Z 0044d4c0 f   garbage.obj
 0001:0004c510       ?RenumberObjectTimerStringReferences@@YAXPAUobject_node@@@Z 0044d510 f   garbage.obj
 0001:0004c5c0       ?CompactObject@@YAXPAUobject_node@@@Z 0044d5c0 f   garbage.obj
 0001:0004c5d0       ?ResetObjectReference@@YADPATval_type@@@Z 0044d5d0 f   garbage.obj
 0001:0004c610       ?RenumberTimerObjectReferences@@YAXPAUtimer_struct@@@Z 0044d610 f   garbage.obj
 0001:0004c680       ?RenumberSessionObjectReferences@@YAXPAUsession_node@@@Z 0044d680 f   garbage.obj
 0001:0004c6d0       ?RenumberUserObjectReferences@@YAXPAUuser_struct@@@Z 0044d6d0 f   garbage.obj
 0001:0004c700       ?RenumberTableObjectReferences@@YAXPAUtable_struct@@H@Z 0044d700 f   garbage.obj
 0001:0004c860       ?RenumberListNodeObjectReferences@@YAXPAUlist_node@@H@Z 0044d860 f   garbage.obj
 0001:0004c9b0       ?RenumberObjectReferences@@YAXPAUobject_node@@@Z 0044d9b0 f   garbage.obj
 0001:0004cb00       ?RenumberBlockerObjects@@YAXPAUroom_node@@@Z 0044db00 f   garbage.obj
 0001:0004cbb0       ?RenumberObject@@YAXPAUobject_node@@@Z 0044dbb0 f   garbage.obj
 0001:0004cbd0       ?DeleteUnreferencedObject@@YAXPAUobject_node@@@Z 0044dbd0 f   garbage.obj
 0001:0004cbf0       ?MarkTableObject@@YAXH@Z   0044dbf0 f   garbage.obj
 0001:0004cca0       ?MarkListNodeObject@@YAXH@Z 0044dca0 f   garbage.obj
 0001:0004cd80       ?MarkObject@@YAXH@Z        0044dd80 f   garbage.obj
 0001:0004ce10       ?MarkUserObjectNodes@@YAXPAUuser_struct@@@Z 0044de10 f   garbage.obj
 0001:0004ce20       ?ClearObjectGarbageRef@@YAXPAUobject_node@@@Z 0044de20 f   garbage.obj
 0001:0004ce30       ?DeleteUnreferencedTable@@YAXPAUtable_struct@@H@Z 0044de30 f   garbage.obj
 0001:0004ce50       ?CompactTable@@YAXPAUtable_struct@@H@Z 0044de50 f   garbage.obj
 0001:0004ce70       ?RenumberTableReferences@@YAXPATval_type@@@Z 0044de70 f   garbage.obj
 0001:0004cf60       ?RenumberListNodeTableReferences@@YAXPAUlist_node@@H@Z 0044df60 f   garbage.obj
 0001:0004cfa0       ?RenumberTable@@YAXPAUtable_struct@@H@Z 0044dfa0 f   garbage.obj
 0001:0004cfc0       ?ClearTableGarbageRef@@YAXPAUtable_struct@@H@Z 0044dfc0 f   garbage.obj
 0001:0004cfd0       ?CompactListNode@@YAXPAUlist_node@@H@Z 0044dfd0 f   garbage.obj
 0001:0004cff0       ?RenumberListNodeReferences@@YAXPATval_type@@@Z 0044dff0 f   garbage.obj
 0001:0004d0c0       ?RenumberTableListNodeReferences@@YAXPAUtable_struct@@H@Z 0044e0c0 f   garbage.obj
 0001:0004d1e0       ?RenumberObjectContainerReferences@@YAXPAUobject_node@@@Z 0044e1e0 f   garbage.obj
 0001:0004d220       ?RenumberListNode@@YAXPAUlist_node@@H@Z 0044e220 f   garbage.obj
 0001:0004d240       ?MarkListNode@@YAXH@Z      0044e240 f   garbage.obj
 0001:0004d2e0       ?MarkTableListNode@@YAXH@Z 0044e2e0 f   garbage.obj
 0001:0004d380       ?MarkObjectListNodesAndTables@@YAXPAUobject_node@@@Z 0044e380 f   garbage.obj
 0001:0004d3d0       ?ClearListNodeGarbageRef@@YAXPAUlist_node@@H@Z 0044e3d0 f   garbage.obj
 0001:0004d3e0       ?GarbageWarnAdminSession@@YAXPAUsession_node@@@Z 0044e3e0 f   garbage.obj
 0001:0004d420       ?GarbageKickoffGamePick@@YAXPAUsession_node@@@Z 0044e420 f   garbage.obj
 0001:0004d450       ?GarbageCollect@@YAXXZ     0044e450 f   garbage.obj
 0001:0004dfc0       ?InterfaceUpdateAdmin@@YAXXZ 0044efc0 f   interface_windows.obj
 0001:0004e020       ?InterfaceAddAdminBuffer@@YAXPADH@Z 0044f020 f   interface_windows.obj
 0001:0004e070       ?InterfaceSendBytes@@YAXPADH@Z 0044f070 f   interface_windows.obj
 0001:0004e0e0       ?InterfaceSendBufferList@@YAXPAUbuffer_struct@@@Z 0044f0e0 f   interface_windows.obj
 0001:0004e170       ?InterfaceAdminResponseProc@@YGJPAUHWND__@@IIJ@Z 0044f170 f   interface_windows.obj
 0001:0004e1c0       ?InterfaceAdminInputProc@@YGJPAUHWND__@@IIJ@Z 0044f1c0 f   interface_windows.obj
 0001:0004e310       ?InterfaceTabPageCommand@@YAXPAUHWND__@@H0I@Z 0044f310 f   interface_windows.obj
 0001:0004e3b0       ?InterfaceDialogTabPage@@YGHPAUHWND__@@IIJ@Z 0044f3b0 f   interface_windows.obj
 0001:0004e400       ?InterfaceDialogAbout@@YGHPAUHWND__@@IIJ@Z 0044f400 f   interface_windows.obj
 0001:0004e470       ?InterfaceDialogMotd@@YGHPAUHWND__@@IIJ@Z 0044f470 f   interface_windows.obj
 0001:0004e5a0       ?CenterWindow@@YAXPAUHWND__@@0@Z 0044f5a0 f   interface_windows.obj
 0001:0004e6b0       ?InterfaceReloadSystem@@YAXXZ 0044f6b0 f   interface_windows.obj
 0001:0004e7c0       ?InterfaceSave@@YAXXZ      0044f7c0 f   interface_windows.obj
 0001:0004e920       ?InterfaceCheckChannels@@YAXXZ 0044f920 f   interface_windows.obj
 0001:0004eae0       ?InterfaceDrawText@@YAXPAUHWND__@@@Z 0044fae0 f   interface_windows.obj
 0001:0004ecc0       ?InterfaceCommand@@YAXPAUHWND__@@H0I@Z 0044fcc0 f   interface_windows.obj
 0001:0004ee00       ?InterfaceCreateListControl@@YAXXZ 0044fe00 f   interface_windows.obj
 0001:0004ef10       ?InterfaceSetup@@YAXXZ     0044ff10 f   interface_windows.obj
 0001:0004f170       ?InterfaceTabChange@@YAXXZ 00450170 f   interface_windows.obj
 0001:0004f1d0       ?InterfaceSetTab@@YAXH@Z   004501d0 f   interface_windows.obj
 0001:0004f270       ?InterfaceCreateTabControl@@YAXPAUHWND__@@@Z 00450270 f   interface_windows.obj
 0001:0004f490       ?InterfaceCreate@@YAXPAUHWND__@@IJ@Z 00450490 f   interface_windows.obj
 0001:0004f4a0       ?StartupComplete@@YAXXZ    004504a0 f   interface_windows.obj
 0001:0004f650       ?InterfaceLogoff@@YAXPAUsession_node@@@Z 00450650 f   interface_windows.obj
 0001:0004f6a0       ?InterfaceLogon@@YAXPAUsession_node@@@Z 004506a0 f   interface_windows.obj
 0001:0004f6f0       ?InterfaceUpdateList@@YAXH@Z 004506f0 f   interface_windows.obj
 0001:0004f8d0       ?InterfaceRemoveList@@YAXH@Z 004508d0 f   interface_windows.obj
 0001:0004f920       ?InterfaceAddList@@YAXH@Z  00450920 f   interface_windows.obj
 0001:0004fb10       ?InterfaceWindowProc@@YGJPAUHWND__@@IIJ@Z 00450b10 f   interface_windows.obj
 0001:00050000       ?InterfaceThread@@YAXPAX@Z 00451000 f   interface_windows.obj
 0001:00050150       ?StoreInstanceData@@YAXPAUHINSTANCE__@@H@Z 00451150 f   interface_windows.obj
 0001:00050160       ?InitInterface@@YAXXZ      00451160 f   interface_windows.obj
 0001:000501c0       ?FatalErrorShow@@YAXPBDH0@Z 004511c0 f   interface_windows.obj
 0001:00050220       ?StartupPrintf@@YAXPBDZZ   00451220 f   interface_windows.obj
 0001:000502b0       ?InterfaceUpdateChannel@@YAXXZ 004512b0 f   interface_windows.obj
 0001:000502f0       ?StartAsyncSession@@YAXPAUsession_node@@@Z 004512f0 f   interface_windows.obj
 0001:00050320       ?InterfaceUpdateSession@@YAXPAUsession_node@@@Z 00451320 f   interface_windows.obj
 0001:00050370       ?StartAsyncSocketAccept@@YAXIH@Z 00451370 f   interface_windows.obj
 0001:000503b0       ?InterfaceSignalConsole@@YAXXZ 004513b0 f   interface_windows.obj
 0001:000503f0       ?GetUsedSessions@@YAHXZ    004513f0 f   interface_windows.obj
 0001:00050400       ?InterfaceUpdate@@YAXXZ    00451400 f   interface_windows.obj
 0001:00050440       ?InitInterfaceLocks@@YAXXZ 00451440 f   intrlock.obj
 0001:00050470       ?GetQuit@@YADXZ            00451470 f   intrlock.obj
 0001:000504a0       ?TryEnterServerLock@@YADXZ 004514a0 f   intrlock.obj
 0001:000504c0       ?SignalSession@@YAXH@Z     004514c0 f   intrlock.obj
 0001:000504e0       ?LeaveServerLock@@YAXXZ    004514e0 f   intrlock.obj
 0001:000504f0       ?EnterServerLock@@YAXXZ    004514f0 f   intrlock.obj
 0001:00050500       ?SetQuit@@YAXXZ            00451500 f   intrlock.obj
 0001:00050530       ?ISHashFind@@YAPBDPAUishash_table@@H@Z 00451530 f   intstringhash.obj
 0001:00050570       ?ISHashInsert@@YAXPAUishash_table@@HPBD@Z 00451570 f   intstringhash.obj
 0001:00050680       ?FreeISHash@@YAXPAUishash_table@@@Z 00451680 f   intstringhash.obj
 0001:00050730       ?CreateISHash@@YAPAUishash_table@@H@Z 00451730 f   intstringhash.obj
 0001:00050830       ?LoadKodbaseResource@@YAXPADH@Z 00451830 f   kodbase.obj
 0001:00050840       ?LoadKodbaseParameter@@YAXPADH@Z 00451840 f   kodbase.obj
 0001:00050850       ?LoadKodbaseMessage@@YAXPADH@Z 00451850 f   kodbase.obj
 0001:00050860       ?LoadKodbaseClassVariable@@YAXPADH@Z 00451860 f   kodbase.obj
 0001:00050940       ?LoadKodbaseProperty@@YAXPADH@Z 00451940 f   kodbase.obj
 0001:00050970       ?LoadKodbaseClass@@YAXPADH@Z 00451970 f   kodbase.obj
 0001:000509d0       ?LoadKodbase@@YAXXZ        004519d0 f   kodbase.obj
 0001:00050dd0       ?LoadList@@YADHTval_type@@0@Z 00451dd0 f   list.obj
 0001:00050e10       ?AllocateListNode@@YAHXZ   00451e10 f   list.obj
 0001:00050ec0       ?ClearList@@YAXXZ          00451ec0 f   list.obj
 0001:00050f40       ?InitList@@YAXXZ           00451f40 f   list.obj
 0001:00050fb0       ?SetNumListNodes@@YAXH@Z   00451fb0 f   list.obj
 0001:00050fc0       ?ForEachListNode@@YAXP6AXPAUlist_node@@H@Z@Z 00451fc0 f   list.obj
 0001:00050ff0       ?MoveListNode@@YAXHH@Z     00451ff0 f   list.obj
 0001:00051090       ?SendNthListMessage@@YAHHH_NHHQAUparm_node@@@Z 00452090 f   list.obj
 0001:000511f0       ?SendListMessage@@YAHH_NHHQAUparm_node@@@Z 004521f0 f   list.obj
 0001:00051300       ?IsListMatch@@YAHHH@Z      00452300 f   list.obj
 0001:000514f0       ?SwapListElem@@YAHHHH@Z    004524f0 f   list.obj
 0001:00051600       ?Rest@@YAHH@Z              00452600 f   list.obj
 0001:00051640       ?SetNth@@YAHHHTval_type@@@Z 00452640 f   list.obj
 0001:00051720       ?DelListElem@@YAHTval_type@@0@Z 00452720 f   list.obj
 0001:00051810       ?FindListElem@@YAHTval_type@@0@Z 00452810 f   list.obj
 0001:000518c0       ?Nth@@YAHHH@Z              004528c0 f   list.obj
 0001:00051990       ?GetListNode@@YAHTval_type@@H0@Z 00452990 f   list.obj
 0001:00051af0       ?SendFirstListMessage@@YAHH_NHHQAUparm_node@@@Z 00452af0 f   list.obj
 0001:00051c90       ?SendFirstListMessageByClass@@YAHHH_NHHQAUparm_node@@@Z 00452c90 f   list.obj
 0001:00051f90       ?GetAllListNodesByClass@@YAHHHH@Z 00452f90 f   list.obj
 0001:000522a0       ?ListCopy@@YAHH@Z          004532a0 f   list.obj
 0001:000524f0       ?First@@YAHH@Z             004534f0 f   list.obj
 0001:00052530       ?DelLastListElem@@YAHTval_type@@@Z 00453530 f   list.obj
 0001:00052600       ?SendNthListMessageByClass@@YAHHHH_NHHQAUparm_node@@@Z 00453600 f   list.obj
 0001:00052850       ?SetFirst@@YAHHTval_type@@@Z 00453850 f   list.obj
 0001:00052890       ?AppendListElem@@YAHTval_type@@0@Z 00453890 f   list.obj
 0001:00052a60       ?InsertListElem@@YAHHHTval_type@@@Z 00453a60 f   list.obj
 0001:00052c70       ?Length@@YAHH@Z            00453c70 f   list.obj
 0001:00052ce0       ?Last@@YAHH@Z              00453ce0 f   list.obj
 0001:00052da0       ?SendListMessageByClass@@YAHHH_NHHQAUparm_node@@@Z 00453da0 f   list.obj
 0001:00053080       ?GetListElemByClass@@YAHTval_type@@H@Z 00454080 f   list.obj
 0001:00053200       ?GetListNodesUsed@@YAHXZ   00454200 f   list.obj
 0001:00053210       ?GetListNodeByID@@YAPAUlist_node@@H@Z 00454210 f   list.obj
 0001:00053240       ?Cons@@YAHTval_type@@0@Z   00454240 f   list.obj
 0001:00053310       ?ResetList@@YAXXZ          00454310 f   list.obj
 0001:00053320       ?IsListNodeByID@@YADH@Z    00454320 f   list.obj
 0001:00053340       ?LoadLineAccount@@YADPAD0000000@Z 00454340 f   loadacco.obj
 0001:00053520       ?LoadAccounts@@YADPAD@Z    00454520 f   loadacco.obj
 0001:00053720       ?LoadControlFile@@YADPAH@Z 00454720 f   loadall.obj
 0001:000538e0       ?LoadFromKod@@YADH@Z       004548e0 f   loadall.obj
 0001:00053990       ?LoadAllButAccountAtTime@@YADPAD@Z 00454990 f   loadall.obj
 0001:00053c00       ?LoadAll@@YADXZ            00454c00 f   loadall.obj
 0001:00053dd0       ?LoadAllButAccount@@YADXZ  00454dd0 f   loadall.obj
 0001:00053e90       ?LoadGameTranslateVal@@YAXPATval_type@@@Z 00454e90 f   loadgame.obj
 0001:00053f90       ?GetLoadGameResourceByID@@YAPBDH@Z 00454f90 f   loadgame.obj
 0001:00053fc0       ?GetLoadGamePropertyNameByID@@YAPADPAUload_game_class_struct@@H@Z 00454fc0 f   loadgame.obj
 0001:00053fe0       ?GetLoadGameClassByID@@YAPAUload_game_class_struct@@H@Z 00454fe0 f   loadgame.obj
 0001:00054010       ?CreateLoadGameResource@@YAXHPAD@Z 00455010 f   loadgame.obj
 0001:00054020       ?CreateLoadGameClass@@YAPAUload_game_class_struct@@HPADH@Z 00455020 f   loadgame.obj
 0001:00054150       ?LoadGameResource@@YADXZ   00455150 f   loadgame.obj
 0001:00054260       ?LoadAddPropertyName@@YAXPAUload_game_class_struct@@HPAD@Z 00455260 f   loadgame.obj
 0001:00054310       ?LoadGameClass@@YADXZ      00455310 f   loadgame.obj
 0001:000544e0       ?LoadGameUser@@YADXZ       004554e0 f   loadgame.obj
 0001:00054570       ?LoadGameTimer@@YADXZ      00455570 f   loadgame.obj
 0001:000546f0       ?LoadGameTables@@YADXZ     004556f0 f   loadgame.obj
 0001:00054920       ?LoadGameListNodes@@YADXZ  00455920 f   loadgame.obj
 0001:00054a60       ?LoadGameObject@@YADXZ     00455a60 f   loadgame.obj
 0001:00054c20       ?LoadGameBuiltInObjects@@YADXZ 00455c20 f   loadgame.obj
 0001:00054d90       ?LoadGameVersion@@YADXZ    00455d90 f   loadgame.obj
 0001:00054de0       ?LoadGameParse@@YADPAD@Z   00455de0 f   loadgame.obj
 0001:00054f50       ?LoadGameClose@@YAXXZ      00455f50 f   loadgame.obj
 0001:00054f60       ?LoadGameOpen@@YADPAD@Z    00455f60 f   loadgame.obj
 0001:00054f80       ?LoadGame@@YADPAD@Z        00455f80 f   loadgame.obj
 0001:00055310       ?FindMessages@@YAXPADHPAUbof_dispatch@@@Z 00456310 f   loadkod.obj
 0001:00055460       ?FindClasses@@YAXPAD0@Z    00456460 f   loadkod.obj
 0001:000554f0       ?AddFileMem@@YAXPAD0H@Z    004564f0 f   loadkod.obj
 0001:000555b0       ?LoadBofName@@YADPAD@Z     004565b0 f   loadkod.obj
 0001:00055770       ?ResetLoadBof@@YAXXZ       00456770 f   loadkod.obj
 0001:000557e0       ?LoadBof@@YAXXZ            004567e0 f   loadkod.obj
 0001:00055c70       ?InitLoadBof@@YAXXZ        00456c70 f   loadkod.obj
 0001:00055c90       ?LoadDynamicRscName@@YADPAD@Z 00456c90 f   loadrsc.obj
 0001:00055e40       ?EachLoadRsc@@YA_NPADHH0@Z 00456e40 f   loadrsc.obj
 0001:00055e60       ?LoadRSBHash@@YAXPAD@Z     00456e60 f   loadrsc.obj
 0001:00055f60       ?LoadRsc@@YAXXZ            00456f60 f   loadrsc.obj
 0001:00056260       ?LoadDynamicRsc@@YAXPAD@Z  00457260 f   loadrsc.obj
 0001:00056280       ?LoadBlakodStrings@@YADPAD@Z 00457280 f   loadstr.obj
 0001:00056330       _WinMain@16                00457330 f   main.obj
 0001:000563a0       ?SignalHandler@@YAXH@Z     004573a0 f   main.obj
 0001:000563c0       ?GetLastErrorStr@@YAPADXZ  004573c0 f   main.obj
 0001:000563f0       ?MainReloadGameData@@YAXXZ 004573f0 f   main.obj
 0001:00056510       ?MainExitServer@@YAXXZ     00457510 f   main_windows.obj
 0001:00056770       ?MainServer@@YAXXZ         00457770 f   main_windows.obj
 0001:00056c20       ?MaintenanceInputChar@@YAXPAUsession_node@@D@Z 00457c20 f   maintenance.obj
 0001:00056d10       ?MaintenanceProcessSessionBuffer@@YAXPAUsession_node@@@Z 00457d10 f   maintenance.obj
 0001:00056dc0       ?MaintenanceExit@@YAXPAUsession_node@@@Z 00457dc0 f   maintenance.obj
 0001:00056dd0       ?MaintenanceInit@@YAXPAUsession_node@@@Z 00457dd0 f   maintenance.obj
 0001:00056de0       ?FreeMemorySIMD@@YAXHPAXH@Z 00457de0 f   memory.obj
 0001:00056e00       ?AllocateMemorySIMD@@YAPAXHH@Z 00457e00 f   memory.obj
 0001:00056e20       ?AllocateMemoryCallocDebug@@YAPAXHHHPBDH@Z 00457e20 f   memory.obj
 0001:00056ea0       ?InitMemory@@YAXXZ         00457ea0 f   memory.obj
 0001:00056f10       ?ResizeMemory@@YAPAXHPAXHH@Z 00457f10 f   memory.obj
 0001:00056f90       ?GetMemoryTotal@@YAHXZ     00457f90 f   memory.obj
 0001:00057030       ?GetMemoryStatName@@YAPBDH@Z 00458030 f   memory.obj
 0001:00057040       ?GetNumMemoryStats@@YAHXZ  00458040 f   memory.obj
 0001:00057050       ?GetMemoryStats@@YAPAUmemory_statistics@@XZ 00458050 f   memory.obj
 0001:00057060       ?FreeMemoryX@@YAXHPAPAXH@Z 00458060 f   memory.obj
 0001:000570b0       ?AllocateMemoryDebug@@YAPAXHHPBDH@Z 004580b0 f   memory.obj
 0001:00057130       ?SetEachClassMessagesPropagate@@YAXPAUclass_struct@@@Z 00458130 f   message.obj
 0001:00057210       ?ResetMessageClass@@YAXPAUclass_struct@@@Z 00458210 f   message.obj
 0001:00057290       ?InitMessage@@YAXXZ        00458290 f   message.obj
 0001:000572b0       ?ResetMessage@@YAXXZ       004582b0 f   message.obj
 0001:00057310       ?SetMessagesPropagate@@YAXXZ 00458310 f   message.obj
 0001:00057350       ?AddMessage@@YAXHHHPADH@Z  00458350 f   message.obj
 0001:00057440       ?SetClassNumMessages@@YAXHH@Z 00458440 f   message.obj
 0001:00057500       ?GetMessageByID@@YAPAUmessage_struct@@HHPAPAUclass_struct@@@Z 00458500 f   message.obj
 0001:00057590       ?GetMessageByName@@YAPAUmessage_struct@@HPADPAPAUclass_struct@@@Z 00458590 f   message.obj
 0001:000575f0       ?GetNumMessageHashCollisions@@YAHXZ 004585f0 f   message.obj
 0001:00057600       ?LoadMotdName@@YADPAD@Z    00458600 f   motd.obj
 0001:00057730       ?InitMotd@@YAXXZ           00458730 f   motd.obj
 0001:00057740       ?SetMotd@@YAXPAD@Z         00458740 f   motd.obj
 0001:000578e0       ?GetMotd@@YAPADXZ          004588e0 f   motd.obj
 0001:00057950       ?GetMotdLength@@YAHXZ      00458950 f   motd.obj
 0001:000579e0       ?ResetLoadMotd@@YAXXZ      004589e0 f   motd.obj
 0001:00057a20       ?LoadMotd@@YAXXZ           00458a20 f   motd.obj
 0001:00057ba0       ?MutexClose@@YA_NPAX@Z     00458ba0 f   mutex_windows.obj
 0001:00057bb0       ?MutexAcquire@@YA_NPAX@Z   00458bb0 f   mutex_windows.obj
 0001:00057bd0       ?MutexCreate@@YAPAXXZ      00458bd0 f   mutex_windows.obj
 0001:00057be0       ?MutexRelease@@YA_NPAX@Z   00458be0 f   mutex_windows.obj
 0001:00057bf0       ?MutexAcquireWithTimeout@@YA_NPAXH@Z 00458bf0 f   mutex_windows.obj
 0001:00057c00       ?GetNameIDNode@@YAPAUnameid_struct@@H@Z 00458c00 f   nameid.obj
 0001:00057c30       ?ResetNameID@@YAXXZ        00458c30 f   nameid.obj
 0001:00057cf0       ?InitNameID@@YAXXZ         00458cf0 f   nameid.obj
 0001:00057d70       ?CreateNameID@@YAXPADH@Z   00458d70 f   nameid.obj
 0001:00057f00       ?GetNameByID@@YAPADH@Z     00458f00 f   nameid.obj
 0001:00057f30       ?GetIDByName@@YAHPBD@Z     00458f30 f   nameid.obj
 0001:00057f60       ?ForEachNameID@@YAXP6AXPAUnameid_struct@@@Z@Z 00458f60 f   nameid.obj
 0001:00057fb0       ?SetObjectProperties@@YAXHPAUclass_struct@@@Z 00458fb0 f   object.obj
 0001:00058040       ?GetObjectByIDEvenDeleted@@YAPAUobject_node@@H@Z 00459040 f   object.obj
 0001:00058070       ?AllocateObject@@YAHH@Z    00459070 f   object.obj
 0001:000581f0       ?InitObject@@YAXXZ         004591f0 f   object.obj
 0001:00058260       ?LoadObject@@YADHPAD@Z     00459260 f   object.obj
 0001:00058300       ?SetObjectPropertyByName@@YADHPADTval_type@@@Z 00459300 f   object.obj
 0001:00058400       ?ClearObject@@YAXXZ        00459400 f   object.obj
 0001:00058480       ?MoveObject@@YAXHH@Z       00459480 f   object.obj
 0001:00058570       ?SetNumObjects@@YAXH@Z     00459570 f   object.obj
 0001:00058580       ?DeleteBlakodObject@@YAXH@Z 00459580 f   object.obj
 0001:00058620       ?GetObjectByIDQuietly@@YAPAUobject_node@@H@Z 00459620 f   object.obj
 0001:00058650       ?IsObjectByID@@YADH@Z      00459650 f   object.obj
 0001:00058680       ?GetObjectsUsed@@YAHXZ     00459680 f   object.obj
 0001:00058690       ?ResetObject@@YAXXZ        00459690 f   object.obj
 0001:000587c0       ?ForEachObject@@YAXP6AXPAUobject_node@@@Z@Z 004597c0 f   object.obj
 0001:00058800       ?GetObjectByID@@YAPAUobject_node@@H@Z 00459800 f   object.obj
 0001:00058880       ?CreateObject@@YAHHHQAUparm_node@@@Z 00459880 f   object.obj
 0001:00058950       ?ParseClientSendBlakod@@YAXHHPAEHQAUclient_table_node@@@Z 00459950 f   parsecli.obj
 0001:000591f0       ?LoadParseClientTables@@YAXXZ 0045a1f0 f   parsecli.obj
 0001:00059290       ?InitParseClient@@YAXXZ    0045a290 f   parsecli.obj
 0001:000592a0       ?ClientToBlakodUser@@YAXPAUsession_node@@HPAD@Z 0045a2a0 f   parsecli.obj
 0001:000592c0       ?GameMessageCount@@YAXE@Z  0045a2c0 f   parsecli.obj
 0001:000592e0       ?AllocateParseClientListNodes@@YAXXZ 0045a2e0 f   parsecli.obj
 0001:00059390       ?ResyncInputChar@@YAXPAUsession_node@@D@Z 0045a390 f   resync.obj
 0001:00059470       ?ResyncProcessSessionBuffer@@YAXPAUsession_node@@@Z 0045a470 f   resync.obj
 0001:000594c0       ?ResyncProcessSessionTimer@@YAXPAUsession_node@@@Z 0045a4c0 f   resync.obj
 0001:000594e0       ?ResyncExit@@YAXPAUsession_node@@@Z 0045a4e0 f   resync.obj
 0001:000594f0       ?ResyncInit@@YAXPAUsession_node@@@Z 0045a4f0 f   resync.obj
 0001:00059520       ?BSPFreeRoom@@YAXPAUroom_type@@@Z 0045a520 f   roofile.obj
 0001:00059700       ?BSPLoadRoom@@YA_NPADPAUroom_type@@@Z 0045a700 f   roofile.obj
 0001:0005a9c0       ?BSPCanMoveInRoomTree@@YA_NPBUBspNode@@PBUV2@@1PAPAUWall@@@Z 0045b9c0 f   roofile.obj
 0001:0005b1d0       ?BSPLineOfSightTree@@YA_NPBUBspNode@@PBUV3@@1@Z 0045c1d0 f   roofile.obj
 0001:0005bc70       ?BSPMoveSector@@YAXPAUroom_type@@I_NMM@Z 0045cc70 f   roofile.obj
 0001:0005be80       ?BSPBlockerClear@@YAXPAUroom_type@@@Z 0045ce80 f   roofile.obj
 0001:0005bec0       ?BSPBlockerRemove@@YA_NPAUroom_type@@H@Z 0045cec0 f   roofile.obj
 0001:0005bf10       ?BSPChangeTexture@@YAXPAUroom_type@@IGI@Z 0045cf10 f   roofile.obj
 0001:0005c060       ?BSPLineOfSightView@@YA_NPAUV2@@0H@Z 0045d060 f   roofile.obj
 0001:0005c190       ?BSPGetLocationInfo@@YA_NPAUroom_type@@PAUV2@@IPAIPAM33PAPAUBspLeaf@@@Z 0045d190 f   roofile.obj
 0001:0005c2e0       ?BSPGetHeight@@YA_NPAUroom_type@@PAUV2@@PAM22PAPAUBspLeaf@@@Z 0045d2e0 f   roofile.obj
 0001:0005c480       ?BSPBlockerAdd@@YA_NPAUroom_type@@HPAUV2@@@Z 0045d480 f   roofile.obj
 0001:0005c520       ?BSPGetRandomPoint@@YA_NPAUroom_type@@HPAUV2@@@Z 0045d520 f   roofile.obj
 0001:0005c690       ?BSPBlockerMove@@YA_NPAUroom_type@@HPAUV2@@@Z 0045d690 f   roofile.obj
 0001:0005c6e0       ?BSPCanMoveInRoom@@YA_NPAUroom_type@@PAUV2@@1H_NPAPAUWall@@@Z 0045d6e0 f   roofile.obj
 0001:0005c950       ?BSPLineOfSight@@YA_NPAUroom_type@@PAUV3@@1@Z 0045d950 f   roofile.obj
 0001:0005cb50       ?BSPGetStepTowards@@YA_NPAUroom_type@@PAUV2@@11PAIH@Z 0045db50 f   roofile.obj
 0001:0005d1a0       ?ExitRooms@@YAXXZ          0045e1a0 f   roomdata.obj
 0001:0005d1d0       ?InitRooms@@YAXXZ          0045e1d0 f   roomdata.obj
 0001:0005d230       ?ForEachRoom@@YAXP6AXPAUroom_node@@@Z@Z 0045e230 f   roomdata.obj
 0001:0005d260       ?LoadRoom@@YAHH@Z          0045e260 f   roomdata.obj
 0001:0005d420       ?UnloadRoom@@YAXPAUroom_node@@@Z 0045e420 f   roomdata.obj
 0001:0005d4f0       ?ResetRooms@@YAXXZ         0045e4f0 f   roomdata.obj
 0001:0005d770       ?PrintRoomTable@@YAXXZ     0045e770 f   roomdata.obj
 0001:0005d7f0       ?GetRoomDataByID@@YAPAUroom_node@@H@Z 0045e7f0 f   roomdata.obj
 0001:0005d830       ?SaveEachAccount@@YAXPAUaccount_node_struct@@@Z 0045e830 f   saveacco.obj
 0001:0005d8c0       ?SaveAccounts@@YADPAD@Z    0045e8c0 f   saveacco.obj
 0001:0005d910       ?SaveAll@@YAHXZ            0045e910 f   saveall.obj
 0001:0005dca0       ?SaveControlFile@@YAXH@Z   0045eca0 f   saveall.obj
 0001:0005dfc0       ?SaveEachUser@@YAXPAUuser_struct@@@Z 0045efc0 f   savegame.obj
 0001:0005e0d0       ?SaveUsers@@YAXXZ          0045f0d0 f   savegame.obj
 0001:0005e100       ?SaveEachTimer@@YAXPAUtimer_struct@@@Z 0045f100 f   savegame.obj
 0001:0005e290       ?SaveTimers@@YAXXZ         0045f290 f   savegame.obj
 0001:0005e2c0       ?SaveEachTable@@YAXPAUtable_struct@@H@Z 0045f2c0 f   savegame.obj
 0001:0005e450       ?SaveTables@@YAXXZ         0045f450 f   savegame.obj
 0001:0005e540       ?SaveEachListNode@@YAXPAUlist_node@@H@Z 0045f540 f   savegame.obj
 0001:0005e600       ?SaveListNodes@@YAXXZ      0045f600 f   savegame.obj
 0001:0005e6f0       ?SaveEachObject@@YAXPAUobject_node@@@Z 0045f6f0 f   savegame.obj
 0001:0005e900       ?SaveObjects@@YAXXZ        0045f900 f   savegame.obj
 0001:0005e940       ?SaveBuiltInObjects@@YAXXZ 0045f940 f   savegame.obj
 0001:0005eca0       ?SaveEachResource@@YAXPAUresource_struct@@@Z 0045fca0 f   savegame.obj
 0001:0005ed80       ?SaveResources@@YAXXZ      0045fd80 f   savegame.obj
 0001:0005ed90       ?SaveEachClass@@YAXPAUclass_struct@@@Z 0045fd90 f   savegame.obj
 0001:0005ef00       ?SaveClasses@@YAXXZ        0045ff00 f   savegame.obj
 0001:0005ef40       ?SaveGameVersion@@YAXXZ    0045ff40 f   savegame.obj
 0001:0005f000       ?SaveGameFlushBuffer@@YAXXZ 00460000 f   savegame.obj
 0001:0005f050       ?SaveGameCopyStringBuffer@@YAXPBD@Z 00460050 f   savegame.obj
 0001:0005f110       ?SaveGameCopyByteBuffer@@YAXD@Z 00460110 f   savegame.obj
 0001:0005f160       ?SaveGameCopyIntBuffer@@YAXH@Z 00460160 f   savegame.obj
 0001:0005f1b0       ?SaveGame@@YADPADH@Z       004601b0 f   savegame.obj
 0001:0005f340       ?SaveRscFlushBuffer@@YAXXZ 00460340 f   saversc.obj
 0001:0005f390       ?SaveRscCopyStringBuffer@@YAXPBD@Z 00460390 f   saversc.obj
 0001:0005f450       ?SaveRscCopyIntBuffer@@YAXH@Z 00460450 f   saversc.obj
 0001:0005f4a0       ?SaveEachDynamicRsc@@YAXPAUresource_struct@@@Z 004604a0 f   saversc.obj
 0001:0005f570       ?CountEachDynamicRsc@@YAXPAUresource_struct@@@Z 00460570 f   saversc.obj
 0001:0005f580       ?SaveDynamicRsc@@YADPAD@Z  00460580 f   saversc.obj
 0001:0005f770       ?SaveStrFlushBuffer@@YAXXZ 00460770 f   savestr.obj
 0001:0005f7c0       ?SaveStrCopySnodBuffer@@YAXPAUstring_node@@@Z 004607c0 f   savestr.obj
 0001:0005f870       ?SaveStrCopyIntBuffer@@YAXH@Z 00460870 f   savestr.obj
 0001:0005f8c0       ?SaveEachString@@YAXPAUstring_node@@H@Z 004608c0 f   savestr.obj
 0001:0005f930       ?SaveStrings@@YADPAD@Z     00460930 f   savestr.obj
 0001:0005fb60       ?CreateOpcodeTable@@YAXXZ  00460b60 f   sendmsg.obj
 0001:0005fdb0       ?InterpretIsClassConst_P@@YAXHPAUlocal_var_type@@@Z 00460db0 f   sendmsg.obj
 0001:00060010       ?InterpretIsClassConst_L@@YAXHPAUlocal_var_type@@@Z 00461010 f   sendmsg.obj
 0001:00060240       ?InterpretIsClass_P@@YAXHPAUlocal_var_type@@@Z 00461240 f   sendmsg.obj
 0001:000605e0       ?InterpretIsClass_L@@YAXHPAUlocal_var_type@@@Z 004615e0 f   sendmsg.obj
 0001:00060930       ?InterpretBinaryBitOr_P@@YAXHPAUlocal_var_type@@@Z 00461930 f   sendmsg.obj
 0001:00060c10       ?InterpretBinaryBitOr_L@@YAXHPAUlocal_var_type@@@Z 00461c10 f   sendmsg.obj
 0001:00060ee0       ?InterpretBinaryBitAnd_P@@YAXHPAUlocal_var_type@@@Z 00461ee0 f   sendmsg.obj
 0001:000611c0       ?InterpretBinaryBitAnd_L@@YAXHPAUlocal_var_type@@@Z 004621c0 f   sendmsg.obj
 0001:00061480       ?InterpretBinaryGEq_P@@YAXHPAUlocal_var_type@@@Z 00462480 f   sendmsg.obj
 0001:00061770       ?InterpretBinaryGEq_L@@YAXHPAUlocal_var_type@@@Z 00462770 f   sendmsg.obj
 0001:00061a40       ?InterpretBinaryLEq_P@@YAXHPAUlocal_var_type@@@Z 00462a40 f   sendmsg.obj
 0001:00061d30       ?InterpretBinaryLEq_L@@YAXHPAUlocal_var_type@@@Z 00462d30 f   sendmsg.obj
 0001:00062000       ?InterpretBinaryGreater_P@@YAXHPAUlocal_var_type@@@Z 00463000 f   sendmsg.obj
 0001:000622f0       ?InterpretBinaryGreater_L@@YAXHPAUlocal_var_type@@@Z 004632f0 f   sendmsg.obj
 0001:000625c0       ?InterpretBinaryLess_P@@YAXHPAUlocal_var_type@@@Z 004635c0 f   sendmsg.obj
 0001:000628b0       ?InterpretBinaryLess_L@@YAXHPAUlocal_var_type@@@Z 004638b0 f   sendmsg.obj
 0001:00062b80       ?InterpretBinaryNEq_P@@YAXHPAUlocal_var_type@@@Z 00463b80 f   sendmsg.obj
 0001:00062e50       ?InterpretBinaryNEq_L@@YAXHPAUlocal_var_type@@@Z 00463e50 f   sendmsg.obj
 0001:00063100       ?InterpretBinaryEqual_P@@YAXHPAUlocal_var_type@@@Z 00464100 f   sendmsg.obj
 0001:000633d0       ?InterpretBinaryEqual_L@@YAXHPAUlocal_var_type@@@Z 004643d0 f   sendmsg.obj
 0001:00063680       ?InterpretBinaryOr_P@@YAXHPAUlocal_var_type@@@Z 00464680 f   sendmsg.obj
 0001:00063980       ?InterpretBinaryOr_L@@YAXHPAUlocal_var_type@@@Z 00464980 f   sendmsg.obj
 0001:00063c60       ?InterpretBinaryAnd_P@@YAXHPAUlocal_var_type@@@Z 00464c60 f   sendmsg.obj
 0001:00063f60       ?InterpretBinaryAnd_L@@YAXHPAUlocal_var_type@@@Z 00464f60 f   sendmsg.obj
 0001:00064240       ?InterpretBinaryMod_P@@YAXHPAUlocal_var_type@@@Z 00465240 f   sendmsg.obj
 0001:00064580       ?InterpretBinaryMod_L@@YAXHPAUlocal_var_type@@@Z 00465580 f   sendmsg.obj
 0001:00064890       ?InterpretBinaryDiv_P@@YAXHPAUlocal_var_type@@@Z 00465890 f   sendmsg.obj
 0001:00064be0       ?InterpretBinaryDiv_L@@YAXHPAUlocal_var_type@@@Z 00465be0 f   sendmsg.obj
 0001:00064ef0       ?InterpretBinaryMul_P@@YAXHPAUlocal_var_type@@@Z 00465ef0 f   sendmsg.obj
 0001:000651d0       ?InterpretBinaryMul_L@@YAXHPAUlocal_var_type@@@Z 004661d0 f   sendmsg.obj
 0001:000654a0       ?InterpretBinarySub_P@@YAXHPAUlocal_var_type@@@Z 004664a0 f   sendmsg.obj
 0001:00065790       ?InterpretBinarySub_L@@YAXHPAUlocal_var_type@@@Z 00466790 f   sendmsg.obj
 0001:00065a60       ?InterpretBinaryAdd_P@@YAXHPAUlocal_var_type@@@Z 00466a60 f   sendmsg.obj
 0001:00065d40       ?InterpretBinaryAdd_L@@YAXHPAUlocal_var_type@@@Z 00466d40 f   sendmsg.obj
 0001:00066010       ?InterpretUnaryPreDec@@YAXHPAUlocal_var_type@@@Z 00467010 f   sendmsg.obj
 0001:000662f0       ?InterpretUnaryPreInc@@YAXHPAUlocal_var_type@@@Z 004672f0 f   sendmsg.obj
 0001:000665d0       ?InterpretUnaryPostDec@@YAXHPAUlocal_var_type@@@Z 004675d0 f   sendmsg.obj
 0001:000668b0       ?InterpretUnaryPostInc@@YAXHPAUlocal_var_type@@@Z 004678b0 f   sendmsg.obj
 0001:00066b90       ?InterpretUnaryBitNot_P@@YAXHPAUlocal_var_type@@@Z 00467b90 f   sendmsg.obj
 0001:00066d40       ?InterpretUnaryBitNot_L@@YAXHPAUlocal_var_type@@@Z 00467d40 f   sendmsg.obj
 0001:00066ed0       ?InterpretUnaryNone_P@@YAXHPAUlocal_var_type@@@Z 00467ed0 f   sendmsg.obj
 0001:00067050       ?InterpretUnaryNone_L@@YAXHPAUlocal_var_type@@@Z 00468050 f   sendmsg.obj
 0001:000671b0       ?InterpretUnaryNeg_P@@YAXHPAUlocal_var_type@@@Z 004681b0 f   sendmsg.obj
 0001:00067360       ?InterpretUnaryNeg_L@@YAXHPAUlocal_var_type@@@Z 00468360 f   sendmsg.obj
 0001:000674f0       ?InterpretUnaryNot_P@@YAXHPAUlocal_var_type@@@Z 004684f0 f   sendmsg.obj
 0001:000676a0       ?InterpretUnaryNot_L@@YAXHPAUlocal_var_type@@@Z 004686a0 f   sendmsg.obj
 0001:00067830       ?InterpretCallStoreProperty@@YAXHPAUlocal_var_type@@@Z 00468830 f   sendmsg.obj
 0001:00067d60       ?InterpretCallStoreLocal@@YAXHPAUlocal_var_type@@@Z 00468d60 f   sendmsg.obj
 0001:000681e0       ?InterpretCallStoreNone@@YAXHPAUlocal_var_type@@@Z 004691e0 f   sendmsg.obj
 0001:00068620       ?InterpretGotoIfFalseClassVar@@YAXHPAUlocal_var_type@@@Z 00469620 f   sendmsg.obj
 0001:00068700       ?InterpretGotoIfFalseProperty@@YAXHPAUlocal_var_type@@@Z 00469700 f   sendmsg.obj
 0001:00068740       ?InterpretGotoIfFalseLocal@@YAXHPAUlocal_var_type@@@Z 00469740 f   sendmsg.obj
 0001:00068770       ?InterpretGotoIfFalseConstant@@YAXHPAUlocal_var_type@@@Z 00469770 f   sendmsg.obj
 0001:00068790       ?InterpretGotoIfTrueClassVar@@YAXHPAUlocal_var_type@@@Z 00469790 f   sendmsg.obj
 0001:00068870       ?InterpretGotoIfTrueProperty@@YAXHPAUlocal_var_type@@@Z 00469870 f   sendmsg.obj
 0001:000688b0       ?InterpretGotoIfTrueLocal@@YAXHPAUlocal_var_type@@@Z 004698b0 f   sendmsg.obj
 0001:000688e0       ?InterpretGotoIfTrueConstant@@YAXHPAUlocal_var_type@@@Z 004698e0 f   sendmsg.obj
 0001:00068900       ?InterpretGotoUncond@@YAXHPAUlocal_var_type@@@Z 00469900 f   sendmsg.obj
 0001:00068920       ?InterpretAtMessage@@YAHHPAUclass_struct@@PAUmessage_struct@@HQAUparm_node@@PATval_type@@@Z 00469920 f   sendmsg.obj
 0001:00068ec0       ?SendClassMessage@@YAXPAUobject_node@@@Z 00469ec0 f   sendmsg.obj
 0001:00068f40       ?TraceInfo@@YAXHPADHHQAUparm_node@@@Z 00469f40 f   sendmsg.obj
 0001:00069140       ?IsInterpreting@@YADXZ     0046a140 f   sendmsg.obj
 0001:00069150       ?InitBkodInterpret@@YAXXZ  0046a150 f   sendmsg.obj
 0001:00069510       ?SendBlakodMessage@@YAHHHHQAUparm_node@@@Z 0046a510 f   sendmsg.obj
 0001:000698b0       ?BlakodDebugInfo@@YAPADXZ  0046a8b0 f   sendmsg.obj
 0001:00069950       ?PostBlakodMessage@@YAXHHHQAUparm_node@@@Z 0046a950 f   sendmsg.obj
 0001:00069a40       ?BlakodStackInfo@@YAPADXZ  0046aa40 f   sendmsg.obj
 0001:00069e30       ?InitTimeProfiling@@YAXXZ  0046ae30 f   sendmsg.obj
 0001:00069e40       ?EndTimeProfiling@@YAXXZ   0046ae40 f   sendmsg.obj
 0001:00069e50       ?SendTopLevelBlakodMessage@@YAHHHHQAUparm_node@@@Z 0046ae50 f   sendmsg.obj
 0001:0006a0b0       ?SendBlakodClassMessage@@YAHHHHQAUparm_node@@@Z 0046b0b0 f   sendmsg.obj
 0001:0006a120       ?InitProfiling@@YAXXZ      0046b120 f   sendmsg.obj
 0001:0006a250       ?GetKodStats@@YAPAUkod_statistics@@XZ 0046b250 f   sendmsg.obj
 0001:0006a260       ?SessionAddBufferList@@YAXPAUsession_node@@PAUbuffer_struct@@@Z 0046b260 f   session.obj
 0001:0006a340       ?SendBufferList@@YAXPAUsession_node@@PAUbuffer_struct@@@Z 0046b340 f   session.obj
 0001:0006a4c0       ?SendGameClientBufferList@@YAXPAUsession_node@@PAUbuffer_struct@@D@Z 0046b4c0 f   session.obj
 0001:0006a520       ?SendGameClient@@YAXPAUsession_node@@PADGH@Z 0046b520 f   session.obj
 0001:0006a5e0       ?SendClientStr@@YAXHPAD@Z  0046b5e0 f   session.obj
 0001:0006a610       ?GetSessionReadBytes@@YAHPAUsession_node@@@Z 0046b610 f   session.obj
 0001:0006a640       ?ProcessSessionTimer@@YAXPAUsession_node@@@Z 0046b640 f   session.obj
 0001:0006a6b0       ?ProcessSessionBuffer@@YAXPAUsession_node@@@Z 0046b6b0 f   session.obj
 0001:0006a730       ?VerifiedLoginSession@@YAXH@Z 0046b730 f   session.obj
 0001:0006a780       ?PollSessions@@YAXXZ       0046b780 f   session.obj
 0001:0006a800       ?CloseSession@@YAXH@Z      0046b800 f   session.obj
 0001:0006aa50       ?CloseConnection@@YAXUconnection_node@@@Z 0046ba50 f   session.obj
 0001:0006aa70       ?ClearSessionTimer@@YAXPAUsession_node@@@Z 0046ba70 f   session.obj
 0001:0006aa80       ?ExitSessionState@@YAXPAUsession_node@@@Z 0046ba80 f   session.obj
 0001:0006aac0       ?AllocateSession@@YAPAUsession_node@@XZ 0046bac0 f   session.obj
 0001:0006ac50       ?ResetTransmittedBytes@@YAXXZ 0046bc50 f   session.obj
 0001:0006ac60       ?InitSession@@YAXXZ        0046bc60 f   session.obj
 0001:0006ad50       ?CloseAllSessions@@YAXXZ   0046bd50 f   session.obj
 0001:0006b050       ?HangupSessionNow@@YAXPAUsession_node@@@Z 0046c050 f   session.obj
 0001:0006b090       ?NewEpoch@@YAXXZ           0046c090 f   session.obj
 0001:0006b0b0       ?PeekSessionBytes@@YADPAUsession_node@@HPAX@Z 0046c0b0 f   session.obj
 0001:0006b170       ?SendBytes@@YAXPAUsession_node@@PADH@Z 0046c170 f   session.obj
 0001:0006b280       ?GetEpoch@@YAHXZ           0046c280 f   session.obj
 0001:0006b290       ?SetSessionTimer@@YAXPAUsession_node@@H@Z 0046c290 f   session.obj
 0001:0006b2b0       ?InitSessionState@@YAXPAUsession_node@@H@Z 0046c2b0 f   session.obj
 0001:0006b380       ?CreateSession@@YAPAUsession_node@@Uconnection_node@@@Z 0046c380 f   session.obj
 0001:0006b450       ?EnterSessionLock@@YAXXZ   0046c450 f   session.obj
 0001:0006b460       ?LeaveSessionLock@@YAXXZ   0046c460 f   session.obj
 0001:0006b470       ?GetSessionBySocket@@YAPAUsession_node@@I@Z 0046c470 f   session.obj
 0001:0006b4c0       ?SendClient@@YAXHPADG@Z    0046c4c0 f   session.obj
 0001:0006b550       ?SendClientBufferList@@YAXHPAUbuffer_struct@@@Z 0046c550 f   session.obj
 0001:0006b5e0       ?GetStateName@@YAPBDPAUsession_node@@@Z 0046c5e0 f   session.obj
 0001:0006b6d0       ?GetTransmittedBytes@@YAHXZ 0046c6d0 f   session.obj
 0001:0006b6e0       ?SetSessionState@@YAXPAUsession_node@@H@Z 0046c6e0 f   session.obj
 0001:0006b730       ?ReadSessionBytes@@YADPAUsession_node@@HPAX@Z 0046c730 f   session.obj
 0001:0006b8c0       ?GetSessionByID@@YAPAUsession_node@@H@Z 0046c8c0 f   session.obj
 0001:0006b8e0       ?PollSession@@YAXH@Z       0046c8e0 f   session.obj
 0001:0006b9a0       ?ForEachSession@@YAXP6AXPAUsession_node@@@Z@Z 0046c9a0 f   session.obj
 0001:0006b9f0       ?GetSessionByAccount@@YAPAUsession_node@@PAUaccount_node_struct@@@Z 0046c9f0 f   session.obj
 0001:0006ba40       ?HangupSession@@YAXPAUsession_node@@@Z 0046ca40 f   session.obj
 0001:0006ba60       ?GetParseClientTable@@YAPAUclient_table_node@@H@Z 0046ca60 f   sprocket.obj
 0001:0006ba90       ?InitSprocket@@YAXXZ       0046ca90 f   sprocket.obj
 0001:0006bbb0       ?AllocateString@@YAHXZ     0046cbb0 f   string.obj
 0001:0006bc70       ?GetNumStrings@@YAHXZ      0046cc70 f   string.obj
 0001:0006bc80       ?CreateStringWithLen@@YAHPBDH@Z 0046cc80 f   string.obj
 0001:0006bd40       ?InitString@@YAXXZ         0046cd40 f   string.obj
 0001:0006bde0       ?LoadBlakodString@@YADPAU_iobuf@@HH@Z 0046cde0 f   string.obj
 0001:0006bed0       ?SetNumStrings@@YAXH@Z     0046ced0 f   string.obj
 0001:0006bee0       ?ForEachString@@YAXP6AXPAUstring_node@@H@Z@Z 0046cee0 f   string.obj
 0001:0006bf10       ?MoveStringNode@@YAXHH@Z   0046cf10 f   string.obj
 0001:0006c030       ?FreeString@@YAXH@Z        0046d030 f   string.obj
 0001:0006c0b0       ?AppendTempString@@YAXPBDH@Z 0046d0b0 f   string.obj
 0001:0006c100       ?ClearTempString@@YAXXZ    0046d100 f   string.obj
 0001:0006c120       ?AppendNumToTempString@@YAXH@Z 0046d120 f   string.obj
 0001:0006c1b0       ?SetString@@YAXPAUstring_node@@PADH@Z 0046d1b0 f   string.obj
 0001:0006c2a0       ?CreateString@@YAHPBD@Z    0046d2a0 f   string.obj
 0001:0006c2b0       ?GetStringByID@@YAPAUstring_node@@H@Z 0046d2b0 f   string.obj
 0001:0006c2e0       ?GetStringsUsed@@YAHXZ     0046d2e0 f   string.obj
 0001:0006c2f0       ?ResetString@@YAXXZ        0046d2f0 f   string.obj
 0001:0006c3c0       ?SetTempString@@YAXPADH@Z  0046d3c0 f   string.obj
 0001:0006c3f0       ?IsStringByID@@YADH@Z      0046d3f0 f   string.obj
 0001:0006c410       ?GetTempString@@YAPAUstring_node@@XZ 0046d410 f   string.obj
 0001:0006c420       ?SIHashFindByValue@@YAPBDPAUsihash_table@@H@Z 0046d420 f   stringinthash.obj
 0001:0006c460       ?SIHashInsert@@YAXPAUsihash_table@@PBDH@Z 0046d460 f   stringinthash.obj
 0001:0006c580       ?SIHashFind@@YADPAUsihash_table@@PBDPAH@Z 0046d580 f   stringinthash.obj
 0001:0006c5e0       ?FreeSIHash@@YAXPAUsihash_table@@@Z 0046d5e0 f   stringinthash.obj
 0001:0006c690       ?CreateSIHash@@YAPAUsihash_table@@H@Z 0046d690 f   stringinthash.obj
 0001:0006c790       ?SynchedSendDLFileInfo@@YAXPADHHH@Z 0046d790 f   synched.obj
 0001:0006c830       ?SynchedGotoGame@@YAXPAUsession_node@@H@Z 0046d830 f   synched.obj
 0001:0006cdb0       ?SynchedSendMenuChoice@@YAXPAUsession_node@@@Z 0046ddb0 f   synched.obj
 0001:0006ce90       ?SynchedDoMenu@@YAXPAUsession_node@@@Z 0046de90 f   synched.obj
 0001:0006cf00       ?LogUserData@@YAXPAUsession_node@@@Z 0046df00 f   synched.obj
 0001:0006d3a0       ?SynchedSendClientPatchOldClassic@@YAXPAUsession_node@@@Z 0046e3a0 f   synched.obj
 0001:0006d6f0       ?SynchedSendClientPatchOgre@@YAXPAUsession_node@@@Z 0046e6f0 f   synched.obj
 0001:0006dad0       ?SynchedSendClientPatchClassic@@YAXPAUsession_node@@@Z 0046ead0 f   synched.obj
 0001:0006deb0       ?SynchedSendGetClient@@YAXPAUsession_node@@@Z 0046eeb0 f   synched.obj
 0001:0006e050       ?SendSynchedMessage@@YAXPAUsession_node@@PADD@Z 0046f050 f   synched.obj
 0001:0006e100       ?SynchedAcceptLogin@@YAXPAUsession_node@@PAD1@Z 0046f100 f   synched.obj
 0001:0006e660       ?CheckIPAddress@@YAXPAUsession_node@@@Z 0046f660 f   synched.obj
 0001:0006e690       ?SynchedProtocolParse@@YAXPAUsession_node@@PAUclient_msg@@@Z 0046f690 f   synched.obj
 0001:0006eb30       ?SynchedInit@@YAXPAUsession_node@@@Z 0046fb30 f   synched.obj
 0001:0006ec50       ?SynchedProcessSessionBuffer@@YAXPAUsession_node@@@Z 0046fc50 f   synched.obj
 0001:0006ee30       ?VerifyLogin@@YAXPAUsession_node@@@Z 0046fe30 f   synched.obj
 0001:0006f0c0       ?SynchedExit@@YAXPAUsession_node@@@Z 004700c0 f   synched.obj
 0001:0006f0d0       ?SynchedProcessSessionTimer@@YAXPAUsession_node@@@Z 004700d0 f   synched.obj
 0001:0006f140       ?SetEventEngineObjectID@@YAXH@Z 00470140 f   system.obj
 0001:0006f150       ?SetRealTimeObjectID@@YAXH@Z 00470150 f   system.obj
 0001:0006f160       ?SetSettingsObjectID@@YAXH@Z 00470160 f   system.obj
 0001:0006f170       ?GetEventEngineObjectID@@YAHXZ 00470170 f   system.obj
 0001:0006f180       ?GetSettingsObjectID@@YAHXZ 00470180 f   system.obj
 0001:0006f190       ?GetRealTimeObjectID@@YAHXZ 00470190 f   system.obj
 0001:0006f1a0       ?SetBuiltInObjectIDByClass@@YAXHH@Z 004701a0 f   system.obj
 0001:0006f1e0       ?SetSystemObjectID@@YAXH@Z 004701e0 f   system.obj
 0001:0006f1f0       ?SetBuiltInObjectID@@YAXHH@Z 004701f0 f   system.obj
 0001:0006f230       ?CreateBuiltInObjects@@YAXXZ 00470230 f   system.obj
 0001:0006f280       ?GetSystemObjectID@@YAHXZ  00470280 f   system.obj
 0001:0006f290       ?GetBuiltInObjectID@@YAHH@Z 00470290 f   system.obj
 0001:0006f2d0       ?ProcessOneSysTimer@@YAXPAUsystimer_struct@@@Z 004702d0 f   systimer.obj
 0001:0006f3e0       ?CreateInitialSysTimers@@YAXXZ 004703e0 f   systimer.obj
 0001:0006f7f0       ?CreateSysTimer@@YAXHHH@Z  004707f0 f   systimer.obj
 0001:0006f8c0       ?ProcessSysTimer@@YAXH@Z   004708c0 f   systimer.obj
 0001:0006fb20       ?ResetSysTimer@@YAXXZ      00470b20 f   systimer.obj
 0001:0006fb50       ?InitSysTimer@@YAXXZ       00470b50 f   systimer.obj
 0001:0006fb70       ?DisableSysTimer@@YADH@Z   00470b70 f   systimer.obj
 0001:0006fba0       ?EnableSysTimer@@YADH@Z    00470ba0 f   systimer.obj
 0001:0006fbd0       ?ForEachSysTimer@@YAXP6AXPAUsystimer_struct@@@Z@Z 00470bd0 f   systimer.obj
 0001:0006fc00       ?GetTableHash@@YAITval_type@@@Z 00470c00 f   table.obj
 0001:0006fd60       ?EqualTableEntry@@YADTval_type@@0@Z 00470d60 f   table.obj
 0001:0006ff90       ?ResizeTable@@YAXH@Z       00470f90 f   table.obj
 0001:00070140       ?AllocateTableEntry@@YAPAUhash_struct@@Tval_type@@0@Z 00471140 f   table.obj
 0001:000701a0       ?AllocateTable@@YAHXZ      004711a0 f   table.obj
 0001:00070390       ?GetBufferHash@@YAIPBDI@Z  00471390 f   table.obj
 0001:000703e0       ?InitTables@@YAXXZ         004713e0 f   table.obj
 0001:00070450       ?MoveTable@@YAXHH@Z        00471450 f   table.obj
 0001:00070530       ?DeleteTable@@YAXH@Z       00471530 f   table.obj
 0001:000705d0       ?SetNumTables@@YAXH@Z      004715d0 f   table.obj
 0001:000705e0       ?ForEachTable@@YAXP6AXPAUtable_struct@@H@Z@Z 004715e0 f   table.obj
 0001:00070610       ?GetTableEntry@@YAHHTval_type@@@Z 00471610 f   table.obj
 0001:000706a0       ?InsertTable@@YAXHTval_type@@0@Z 004716a0 f   table.obj
 0001:00070790       ?DeleteTableEntry@@YAXHTval_type@@@Z 00471790 f   table.obj
 0001:000708d0       ?CreateTable@@YAHH@Z       004718d0 f   table.obj
 0001:000709a0       ?ResetTables@@YAXXZ        004719a0 f   table.obj
 0001:00070a40       ?GetTableByID@@YAPAUtable_struct@@H@Z 00471a40 f   table.obj
 0001:00070a70       ?GetTablesUsed@@YAHXZ      00471a70 f   table.obj
 0001:00070a80       ?GetTagName@@YAPBDTval_type@@@Z 00471a80 f   term.obj
 0001:00070b50       ?GetDataName@@YAPBDTval_type@@@Z 00471b50 f   term.obj
 0001:00070c60       ?GetDataNum@@YAHHPBD@Z     00471c60 f   term.obj
 0001:00070d50       ?GetTagNum@@YAHPBD@Z       00471d50 f   term.obj
 0001:00070e90       ?cprintf@@YAXHPBDZZ        00471e90 f   term.obj
 0001:00070f10       ?MessagePeek@@YAHPAUtagMSG@@PAUHWND__@@III@Z 00471f10 f   thdmsgqueue_windows.obj
 0001:00070f20       ?WaitForAnyMessageWithTimeout@@YA_N_J@Z 00471f20 f   thdmsgqueue_windows.obj
 0001:00070f40       ?MessagePost@@YAHKIIJ@Z    00471f40 f   thdmsgqueue_windows.obj
 0001:00070f80       ?InitTime@@YAXXZ           00471f80 f   time.obj
 0001:00070f90       ?ShortTimeStr@@YAPBD_J@Z   00471f90 f   time.obj
 0001:00070fe0       ?GetTimeZoneOffset@@YAHXZ  00471fe0 f   time.obj
 0001:00071080       ?GetMicroCountDouble@@YANXZ 00472080 f   time.obj
 0001:00071100       ?GetMilliCount@@YA_KXZ     00472100 f   time.obj
 0001:00071180       ?RelativeTimeStr@@YAPBDH@Z 00472180 f   time.obj
 0001:000712d0       ?TimeStr@@YAPBD_J@Z        004722d0 f   time.obj
 0001:00071330       ?GetTime@@YAHXZ            00472330 f   time.obj
 0001:00071340       ?TimerActivate@@YAXXZ      00472340 f   timer.obj
 0001:000713d0       ?ResetLastMessageTimes@@YAXPAUsession_node@@@Z 004723d0 f   timer.obj
 0001:00071400       ?ReallocTimerNodes@@YAXXZ  00472400 f   timer.obj
 0001:000714f0       ?TimerHeapRemove@@YAXH@Z   004724f0 f   timer.obj
 0001:00071650       ?InitTimer@@YAXXZ          00472650 f   timer.obj
 0001:00071710       ?ServiceTimers@@YAXXZ      00472710 f   timer.obj
 0001:00071c60       ?LoadTimer@@YADHHPADH@Z    00472c60 f   timer.obj
 0001:00071e90       ?ClearTimer@@YAXXZ         00472e90 f   timer.obj
 0001:00071eb0       ?InMainLoop@@YADXZ         00472eb0 f   timer.obj
 0001:00071ec0       ?SetNumTimers@@YAXH@Z      00472ec0 f   timer.obj
 0001:00071ed0       ?PauseTimers@@YAXXZ        00472ed0 f   timer.obj
 0001:00071f10       ?TimerHeapCheck@@YA_NHH@Z  00472f10 f   timer.obj
 0001:00071fb0       ?ForEachTimerMatchingObjID@@YAXP6AXPAUtimer_struct@@@ZH@Z 00472fb0 f   timer.obj
 0001:00071ff0       ?DeleteTimer@@YADH@Z       00472ff0 f   timer.obj
 0001:00072040       ?CreateTimer@@YAHHHH@Z     00473040 f   timer.obj
 0001:000721d0       ?GetTimerByID@@YAPAUtimer_struct@@H@Z 004731d0 f   timer.obj
 0001:00072210       ?ResetTimer@@YAXXZ         00473210 f   timer.obj
 0001:00072230       ?UnpauseTimers@@YAXXZ      00473230 f   timer.obj
 0001:000722f0       ?ForEachTimer@@YAXP6AXPAUtimer_struct@@@Z@Z 004732f0 f   timer.obj
 0001:00072320       ?GetNumActiveTimers@@YAHXZ 00473320 f   timer.obj
 0001:00072330       ?ForEachTimerMatchingMsgID@@YAXP6AXPAUtimer_struct@@@ZH@Z 00473330 f   timer.obj
 0001:00072370       ?TrySyncInputChar@@YAXPAUsession_node@@D@Z 00473370 f   trysync.obj
 0001:00072430       ?TrySyncProcessSessionTimer@@YAXPAUsession_node@@@Z 00473430 f   trysync.obj
 0001:000724f0       ?TrySyncExit@@YAXPAUsession_node@@@Z 004734f0 f   trysync.obj
 0001:00072500       ?TrySyncProcessSessionBuffer@@YAXPAUsession_node@@@Z 00473500 f   trysync.obj
 0001:00072570       ?TrySyncInit@@YAXPAUsession_node@@@Z 00473570 f   trysync.obj
 0001:000725b0       ?InitUser@@YAXXZ           004735b0 f   user.obj
 0001:000725c0       ?LoadUser@@YAXHH@Z         004735c0 f   user.obj
 0001:000725d0       ?ClearUser@@YAXXZ          004735d0 f   user.obj
 0001:00072610       ?CountUserByAccountID@@YAHH@Z 00473610 f   user.obj
 0001:00072640       ?GetFirstUserByAccountID@@YAPAUuser_struct@@H@Z 00473640 f   user.obj
 0001:00072660       ?AssociateUser@@YADHH@Z    00473660 f   user.obj
 0001:000726f0       ?CreateNewUser@@YAPAUuser_struct@@HH@Z 004736f0 f   user.obj
 0001:00072830       ?GetUserByName@@YAPAUuser_struct@@PAD@Z 00473830 f   user.obj
 0001:00072900       ?ForEachUser@@YAXP6AXPAUuser_struct@@@Z@Z 00473900 f   user.obj
 0001:00072920       ?DeleteUserByObjectID@@YAHH@Z 00473920 f   user.obj
 0001:000729a0       ?GetUserByObjectID@@YAPAUuser_struct@@H@Z 004739a0 f   user.obj
 0001:000729c0       ?CreateUseronAccount@@YAXPAUaccount_node_struct@@@Z 004739c0 f   user.obj
 0001:000729d0       ?ResetUser@@YAXXZ          004739d0 f   user.obj
 0001:00072a10       ?ChangeUserAccountID@@YAXHH@Z 00473a10 f   user.obj
 0001:00072a30       ?DeleteUserByAccountID@@YAHH@Z 00473a30 f   user.obj
 0001:00072ab0       ?ForEachUserByAccountID@@YAXP6AXPAUuser_struct@@@ZH@Z 00473ab0 f   user.obj
 0001:00072ae0       ?BlakServNameString@@YAPBDXZ 00473ae0 f   version.obj
 0001:00072af0       ?BlakServLongVersionString@@YAPBDXZ 00473af0 f   version.obj
 0001:00072b00       __aullrem                  00473b00 f   LIBCMT:ullrem.obj
 0001:00072b80       __ftoui3                   00473b80 f   LIBCMT:_ftol3_.obj
 0001:00072b8f       __ftoul3                   00473b8f f   LIBCMT:_ftol3_.obj
 0001:00072b9e       __ftol3                    00473b9e f   LIBCMT:_ftol3_.obj
 0001:00072bab       __ftol3_NaN                00473bab f   LIBCMT:_ftol3_.obj
 0001:00072bc3       __ftol3_work               00473bc3 f   LIBCMT:_ftol3_.obj
 0001:00072c49       __ftol3_common             00473c49 f   LIBCMT:_ftol3_.obj
 0001:00072d0b       __ftol3_arg_error          00473d0b f   LIBCMT:_ftol3_.obj
 0001:00072d1d       __ftol3_except             00473d1d f   LIBCMT:_ftol3_.obj
 0001:00072d61       __dtoui3                   00473d61 f   LIBCMT:_ftol3_.obj
 0001:00072d70       __dtoul3                   00473d70 f   LIBCMT:_ftol3_.obj
 0001:00072d7f       __dtol3                    00473d7f f   LIBCMT:_ftol3_.obj
 0001:00072d8c       __dtol3_NaN                00473d8c f   LIBCMT:_ftol3_.obj
 0001:00072da9       __dtol3_work               00473da9 f   LIBCMT:_ftol3_.obj
 0001:00072e90       __ultod3                   00473e90 f   LIBCMT:_ftol3_.obj
 0001:00072ed0       __ltod3                    00473ed0 f   LIBCMT:_ftol3_.obj
 0001:00072f00       _atan2                     00473f00 f   libucrt:87ctriga.obj
 0001:00072f0a       __CIatan2                  00473f0a f   libucrt:87ctriga.obj
 0001:00072f20       __libm_sse2_cos_precise    00473f20 f   libucrt:cos_sse2_precise.obj
 0001:000730e0       __libm_sse2_sin_precise    004740e0 f   libucrt:sin_sse2_precise.obj
 0001:000732b0       __libm_sse2_sqrt_precise   004742b0 f   libucrt:sqrt_sse2_precise.obj
 0001:000733cc       __fFATN2                   004743cc     libucrt:87triga.obj
 0001:0007341c       __rtpiby2                  0047441c     libucrt:87triga.obj
 0001:00073460       __cintrindisp2             00474460 f   libucrt:87cdisp.obj
 0001:000734a4       __cintrindisp1             004744a4 f   libucrt:87cdisp.obj
 0001:000734e7       __ctrandisp2               004744e7 f   libucrt:87cdisp.obj
 0001:00073676       __ctrandisp1               00474676 f   libucrt:87cdisp.obj
 0001:000736a9       __fload                    004746a9 f   libucrt:87cdisp.obj
 0001:000736f0       _cos                       004746f0 f   libucrt:cos.obj
 0001:00073730       __CIcos                    00474730 f   libucrt:cos.obj
 0001:0007376b       __CIcos_default            0047476b f   libucrt:cos.obj
 0001:0007377f       __cos_default              0047477f     libucrt:cos.obj
 0001:00073820       _sin                       00474820 f   libucrt:sin.obj
 0001:00073860       __CIsin                    00474860 f   libucrt:sin.obj
 0001:0007389b       __CIsin_default            0047489b f   libucrt:sin.obj
 0001:000738af       __sin_default              004748af     libucrt:sin.obj
 0001:00073950       __CIsqrt                   00474950 f   libucrt:sqrt.obj
 0001:00073964       _sqrt                      00474964     libucrt:sqrt.obj
 0001:00073a10       __CIcos_pentium4           00474a10 f   libucrt:cos_pentium4.obj
 0001:00073a28       __cos_pentium4             00474a28     libucrt:cos_pentium4.obj
 0001:00073bc0       __CIsin_pentium4           00474bc0 f   libucrt:sin_pentium4.obj
 0001:00073bd8       __sin_pentium4             00474bd8     libucrt:sin_pentium4.obj
 0002:00000000       __imp__InitCommonControls@0 00475000     comctl32:COMCTL32.dll
 0002:00000004       __imp__CreateStatusWindowA@16 00475004     comctl32:COMCTL32.dll
 0002:00000008       \177COMCTL32_NULL_THUNK_DATA 00475008     comctl32:COMCTL32.dll
 0002:0000000c       __imp__GetStockObject@4    0047500c     gdi32:GDI32.dll
 0002:00000010       __imp__CreateFontIndirectA@4 00475010     gdi32:GDI32.dll
 0002:00000014       \177GDI32_NULL_THUNK_DATA  00475014     gdi32:GDI32.dll
 0002:00000018       __imp__SetEndOfFile@4      00475018     kernel32:KERNEL32.dll
 0002:0000001c       __imp__GetProcessHeap@0    0047501c     kernel32:KERNEL32.dll
 0002:00000020       __imp__SetEnvironmentVariableA@8 00475020     kernel32:KERNEL32.dll
 0002:00000024       __imp__FreeEnvironmentStringsW@4 00475024     kernel32:KERNEL32.dll
 0002:00000028       __imp__GetEnvironmentStringsW@0 00475028     kernel32:KERNEL32.dll
 0002:0000002c       __imp__GetCommandLineW@0   0047502c     kernel32:KERNEL32.dll
 0002:00000030       __imp__GetCommandLineA@0   00475030     kernel32:KERNEL32.dll
 0002:00000034       __imp__GetCPInfo@8         00475034     kernel32:KERNEL32.dll
 0002:00000038       __imp__GetOEMCP@0          00475038     kernel32:KERNEL32.dll
 0002:0000003c       __imp__IsValidCodePage@4   0047503c     kernel32:KERNEL32.dll
 0002:00000040       __imp__FindFirstFileExA@24 00475040     kernel32:KERNEL32.dll
 0002:00000044       __imp__MoveFileExW@12      00475044     kernel32:KERNEL32.dll
 0002:00000048       __imp__HeapReAlloc@16      00475048     kernel32:KERNEL32.dll
 0002:0000004c       __imp__WaitForSingleObjectEx@12 0047504c     kernel32:KERNEL32.dll
 0002:00000050       __imp__OutputDebugStringW@4 00475050     kernel32:KERNEL32.dll
 0002:00000054       __imp__SetFilePointerEx@20 00475054     kernel32:KERNEL32.dll
 0002:00000058       __imp__SetStdHandle@8      00475058     kernel32:KERNEL32.dll
 0002:0000005c       __imp__LCMapStringW@24     0047505c     kernel32:KERNEL32.dll
 0002:00000060       __imp__CompareStringW@24   00475060     kernel32:KERNEL32.dll
 0002:00000064       __imp__DeleteFileW@4       00475064     kernel32:KERNEL32.dll
 0002:00000068       __imp__GetDateFormatW@24   00475068     kernel32:KERNEL32.dll
 0002:0000006c       __imp__GetFullPathNameW@16 0047506c     kernel32:KERNEL32.dll
 0002:00000070       __imp__GetCurrentDirectoryW@8 00475070     kernel32:KERNEL32.dll
 0002:00000074       __imp__FlushFileBuffers@4  00475074     kernel32:KERNEL32.dll
 0002:00000078       __imp__GetStringTypeW@16   00475078     kernel32:KERNEL32.dll
 0002:0000007c       __imp__HeapAlloc@12        0047507c     kernel32:KERNEL32.dll
 0002:00000080       __imp__HeapFree@12         00475080     kernel32:KERNEL32.dll
 0002:00000084       __imp__GetConsoleCP@0      00475084     kernel32:KERNEL32.dll
 0002:00000088       __imp__ReadConsoleW@20     00475088     kernel32:KERNEL32.dll
 0002:0000008c       __imp__GetConsoleMode@8    0047508c     kernel32:KERNEL32.dll
 0002:00000090       __imp__GetACP@0            00475090     kernel32:KERNEL32.dll
 0002:00000094       __imp__WriteFile@20        00475094     kernel32:KERNEL32.dll
 0002:00000098       __imp__WideCharToMultiByte@32 00475098     kernel32:KERNEL32.dll
 0002:0000009c       __imp__MultiByteToWideChar@24 0047509c     kernel32:KERNEL32.dll
 0002:000000a0       __imp__SetConsoleCtrlHandler@8 004750a0     kernel32:KERNEL32.dll
 0002:000000a4       __imp__WriteConsoleW@20    004750a4     kernel32:KERNEL32.dll
 0002:000000a8       __imp__GetModuleFileNameW@12 004750a8     kernel32:KERNEL32.dll
 0002:000000ac       __imp__GetModuleFileNameA@12 004750ac     kernel32:KERNEL32.dll
 0002:000000b0       __imp__GetStdHandle@4      004750b0     kernel32:KERNEL32.dll
 0002:000000b4       __imp__ReadFile@20         004750b4     kernel32:KERNEL32.dll
 0002:000000b8       __imp__ExitProcess@4       004750b8     kernel32:KERNEL32.dll
 0002:000000bc       __imp__GetModuleHandleExW@12 004750bc     kernel32:KERNEL32.dll
 0002:000000c0       __imp__FreeLibraryAndExitThread@8 004750c0     kernel32:KERNEL32.dll
 0002:000000c4       __imp__ResumeThread@4      004750c4     kernel32:KERNEL32.dll
 0002:000000c8       __imp__ExitThread@4        004750c8     kernel32:KERNEL32.dll
 0002:000000cc       __imp__CreateThread@24     004750cc     kernel32:KERNEL32.dll
 0002:000000d0       __imp__FileTimeToSystemTime@8 004750d0     kernel32:KERNEL32.dll
 0002:000000d4       __imp__GetFileAttributesExW@12 004750d4     kernel32:KERNEL32.dll
 0002:000000d8       __imp__HeapSize@12         004750d8     kernel32:KERNEL32.dll
 0002:000000dc       __imp__GetTimeFormatW@24   004750dc     kernel32:KERNEL32.dll
 0002:000000e0       __imp__SystemTimeToTzSpecificLocalTime@12 004750e0     kernel32:KERNEL32.dll
 0002:000000e4       __imp__PeekNamedPipe@24    004750e4     kernel32:KERNEL32.dll
 0002:000000e8       __imp__GetFileType@4       004750e8     kernel32:KERNEL32.dll
 0002:000000ec       __imp__GetDriveTypeW@4     004750ec     kernel32:KERNEL32.dll
 0002:000000f0       __imp__CreateFileW@28      004750f0     kernel32:KERNEL32.dll
 0002:000000f4       __imp__LoadLibraryExW@12   004750f4     kernel32:KERNEL32.dll
 0002:000000f8       __imp__GetProcAddress@8    004750f8     kernel32:KERNEL32.dll
 0002:000000fc       __imp__FreeLibrary@4       004750fc     kernel32:KERNEL32.dll
 0002:00000100       __imp__TlsFree@4           00475100     kernel32:KERNEL32.dll
 0002:00000104       __imp__TlsSetValue@8       00475104     kernel32:KERNEL32.dll
 0002:00000108       __imp__TlsGetValue@4       00475108     kernel32:KERNEL32.dll
 0002:0000010c       __imp__TlsAlloc@0          0047510c     kernel32:KERNEL32.dll
 0002:00000110       __imp__InitializeCriticalSectionAndSpinCount@8 00475110     kernel32:KERNEL32.dll
 0002:00000114       __imp__DeleteCriticalSection@4 00475114     kernel32:KERNEL32.dll
 0002:00000118       __imp__RtlUnwind@16        00475118     kernel32:KERNEL32.dll
 0002:0000011c       __imp__GetLastError@0      0047511c     kernel32:KERNEL32.dll
 0002:00000120       __imp__EnterCriticalSection@4 00475120     kernel32:KERNEL32.dll
 0002:00000124       __imp__LeaveCriticalSection@4 00475124     kernel32:KERNEL32.dll
 0002:00000128       __imp__InitializeCriticalSection@4 00475128     kernel32:KERNEL32.dll
 0002:0000012c       __imp__CreateMutexA@12     0047512c     kernel32:KERNEL32.dll
 0002:00000130       __imp__WaitForSingleObject@8 00475130     kernel32:KERNEL32.dll
 0002:00000134       __imp__ReleaseMutex@4      00475134     kernel32:KERNEL32.dll
 0002:00000138       __imp__Sleep@4             00475138     kernel32:KERNEL32.dll
 0002:0000013c       __imp__CloseHandle@4       0047513c     kernel32:KERNEL32.dll
 0002:00000140       __imp__FindFirstFileA@8    00475140     kernel32:KERNEL32.dll
 0002:00000144       __imp__FindNextFileA@8     00475144     kernel32:KERNEL32.dll
 0002:00000148       __imp__FindClose@4         00475148     kernel32:KERNEL32.dll
 0002:0000014c       __imp__CopyFileA@12        0047514c     kernel32:KERNEL32.dll
 0002:00000150       __imp__DeleteFileA@4       00475150     kernel32:KERNEL32.dll
 0002:00000154       __imp__SetEvent@4          00475154     kernel32:KERNEL32.dll
 0002:00000158       __imp__LoadLibraryA@4      00475158     kernel32:KERNEL32.dll
 0002:0000015c       __imp__CreateEventA@16     0047515c     kernel32:KERNEL32.dll
 0002:00000160       __imp__GetCurrentThreadId@0 00475160     kernel32:KERNEL32.dll
 0002:00000164       __imp__FormatMessageA@28   00475164     kernel32:KERNEL32.dll
 0002:00000168       __imp__GetTimeZoneInformation@4 00475168     kernel32:KERNEL32.dll
 0002:0000016c       __imp__QueryPerformanceFrequency@4 0047516c     kernel32:KERNEL32.dll
 0002:00000170       __imp__QueryPerformanceCounter@4 00475170     kernel32:KERNEL32.dll
 0002:00000174       __imp__UnhandledExceptionFilter@4 00475174     kernel32:KERNEL32.dll
 0002:00000178       __imp__SetUnhandledExceptionFilter@4 00475178     kernel32:KERNEL32.dll
 0002:0000017c       __imp__GetCurrentProcess@0 0047517c     kernel32:KERNEL32.dll
 0002:00000180       __imp__TerminateProcess@8  00475180     kernel32:KERNEL32.dll
 0002:00000184       __imp__IsProcessorFeaturePresent@4 00475184     kernel32:KERNEL32.dll
 0002:00000188       __imp__GetCurrentProcessId@0 00475188     kernel32:KERNEL32.dll
 0002:0000018c       __imp__GetSystemTimeAsFileTime@4 0047518c     kernel32:KERNEL32.dll
 0002:00000190       __imp__InitializeSListHead@4 00475190     kernel32:KERNEL32.dll
 0002:00000194       __imp__IsDebuggerPresent@0 00475194     kernel32:KERNEL32.dll
 0002:00000198       __imp__GetStartupInfoW@4   00475198     kernel32:KERNEL32.dll
 0002:0000019c       __imp__GetModuleHandleW@4  0047519c     kernel32:KERNEL32.dll
 0002:000001a0       __imp__EncodePointer@4     004751a0     kernel32:KERNEL32.dll
 0002:000001a4       __imp__RaiseException@16   004751a4     kernel32:KERNEL32.dll
 0002:000001a8       __imp__SetLastError@4      004751a8     kernel32:KERNEL32.dll
 0002:000001ac       __imp__DecodePointer@4     004751ac     kernel32:KERNEL32.dll
 0002:000001b0       \177KERNEL32_NULL_THUNK_DATA 004751b0     kernel32:KERNEL32.dll
 0002:000001b4       __imp__mysql_real_connect@32 004751b4     libmysql:LIBMYSQL.dll
 0002:000001b8       __imp__mysql_options@12    004751b8     libmysql:LIBMYSQL.dll
 0002:000001bc       __imp__mysql_init@4        004751bc     libmysql:LIBMYSQL.dll
 0002:000001c0       __imp__mysql_stmt_execute@4 004751c0     libmysql:LIBMYSQL.dll
 0002:000001c4       __imp__mysql_stmt_bind_param@8 004751c4     libmysql:LIBMYSQL.dll
 0002:000001c8       __imp__mysql_query@8       004751c8     libmysql:LIBMYSQL.dll
 0002:000001cc       __imp__mysql_stmt_close@4  004751cc     libmysql:LIBMYSQL.dll
 0002:000001d0       __imp__mysql_stmt_prepare@12 004751d0     libmysql:LIBMYSQL.dll
 0002:000001d4       __imp__mysql_stmt_init@4   004751d4     libmysql:LIBMYSQL.dll
 0002:000001d8       __imp__mysql_close@4       004751d8     libmysql:LIBMYSQL.dll
 0002:000001dc       __imp__mysql_ping@4        004751dc     libmysql:LIBMYSQL.dll
 0002:000001e0       \177LIBMYSQL_NULL_THUNK_DATA 004751e0     libmysql:LIBMYSQL.dll
 0002:000001e4       __imp__PostThreadMessageA@16 004751e4     user32:USER32.dll
 0002:000001e8       __imp__InvalidateRect@12   004751e8     user32:USER32.dll
 0002:000001ec       __imp__UpdateWindow@4      004751ec     user32:USER32.dll
 0002:000001f0       __imp__SetDlgItemInt@16    004751f0     user32:USER32.dll
 0002:000001f4       __imp__GetDesktopWindow@0  004751f4     user32:USER32.dll
 0002:000001f8       __imp__PostQuitMessage@4   004751f8     user32:USER32.dll
 0002:000001fc       __imp__KillTimer@8         004751fc     user32:USER32.dll
 0002:00000200       __imp__GetDlgItem@8        00475200     user32:USER32.dll
 0002:00000204       __imp__GetClientRect@8     00475204     user32:USER32.dll
 0002:00000208       __imp__LoadIconA@8         00475208     user32:USER32.dll
 0002:0000020c       __imp__CreateDialogParamA@20 0047520c     user32:USER32.dll
 0002:00000210       __imp__SendMessageA@16     00475210     user32:USER32.dll
 0002:00000214       __imp__SetDlgItemTextA@12  00475214     user32:USER32.dll
 0002:00000218       __imp__SendDlgItemMessageA@20 00475218     user32:USER32.dll
 0002:0000021c       __imp__TranslateMessage@4  0047521c     user32:USER32.dll
 0002:00000220       __imp__SetFocus@4          00475220     user32:USER32.dll
 0002:00000224       __imp__CreateWindowExA@48  00475224     user32:USER32.dll
 0002:00000228       __imp__FlashWindow@8       00475228     user32:USER32.dll
 0002:0000022c       __imp__DefWindowProcA@16   0047522c     user32:USER32.dll
 0002:00000230       __imp__MsgWaitForMultipleObjects@20 00475230     user32:USER32.dll
 0002:00000234       __imp__PeekMessageA@20     00475234     user32:USER32.dll
 0002:00000238       __imp__GetMessageA@16      00475238     user32:USER32.dll
 0002:0000023c       __imp__DispatchMessageA@4  0047523c     user32:USER32.dll
 0002:00000240       __imp__GetWindowRect@8     00475240     user32:USER32.dll
 0002:00000244       __imp__DestroyWindow@4     00475244     user32:USER32.dll
 0002:00000248       __imp__SetWindowPos@28     00475248     user32:USER32.dll
 0002:0000024c       __imp__PostMessageA@16     0047524c     user32:USER32.dll
 0002:00000250       __imp__EndDialog@8         00475250     user32:USER32.dll
 0002:00000254       __imp__GetSystemMetrics@4  00475254     user32:USER32.dll
 0002:00000258       __imp__MessageBeep@4       00475258     user32:USER32.dll
 0002:0000025c       __imp__DialogBoxParamA@20  0047525c     user32:USER32.dll
 0002:00000260       __imp__ShowWindow@8        00475260     user32:USER32.dll
 0002:00000264       __imp__OffsetRect@12       00475264     user32:USER32.dll
 0002:00000268       __imp__TranslateAcceleratorA@12 00475268     user32:USER32.dll
 0002:0000026c       __imp__SetTimer@16         0047526c     user32:USER32.dll
 0002:00000270       __imp__SetWindowLongA@12   00475270     user32:USER32.dll
 0002:00000274       __imp__CallWindowProcA@20  00475274     user32:USER32.dll
 0002:00000278       __imp__DestroyAcceleratorTable@4 00475278     user32:USER32.dll
 0002:0000027c       __imp__GetWindowTextA@12   0047527c     user32:USER32.dll
 0002:00000280       __imp__LoadAcceleratorsA@8 00475280     user32:USER32.dll
 0002:00000284       __imp__SetWindowTextA@8    00475284     user32:USER32.dll
 0002:00000288       __imp__MessageBoxA@16      00475288     user32:USER32.dll
 0002:0000028c       __imp__RegisterClassA@4    0047528c     user32:USER32.dll
 0002:00000290       \177USER32_NULL_THUNK_DATA 00475290     user32:USER32.dll
 0002:00000294       __imp__PlaySoundA@12       00475294     winmm:WINMM.dll
 0002:00000298       \177WINMM_NULL_THUNK_DATA  00475298     winmm:WINMM.dll
 0002:0000029c       __imp__inet_ntop@16        0047529c     ws2_32:WS2_32.dll
 0002:000002a0       __imp__inet_pton@12        004752a0     ws2_32:WS2_32.dll
 0002:000002a4       \177WS2_32_NULL_THUNK_DATA 004752a4     ws2_32:WS2_32.dll
 0002:000002a8       __imp__listen@8            004752a8     wsock32:WSOCK32.dll
 0002:000002ac       __imp__closesocket@4       004752ac     wsock32:WSOCK32.dll
 0002:000002b0       __imp__bind@12             004752b0     wsock32:WSOCK32.dll
 0002:000002b4       __imp__getpeername@12      004752b4     wsock32:WSOCK32.dll
 0002:000002b8       __imp__send@16             004752b8     wsock32:WSOCK32.dll
 0002:000002bc       __imp__accept@12           004752bc     wsock32:WSOCK32.dll
 0002:000002c0       __imp__WSACleanup@0        004752c0     wsock32:WSOCK32.dll
 0002:000002c4       __imp__WSAAsyncSelect@16   004752c4     wsock32:WSOCK32.dll
 0002:000002c8       __imp__socket@12           004752c8     wsock32:WSOCK32.dll
 0002:000002cc       __imp__recv@16             004752cc     wsock32:WSOCK32.dll
 0002:000002d0       __imp__htons@4             004752d0     wsock32:WSOCK32.dll
 0002:000002d4       __imp__WSAStartup@8        004752d4     wsock32:WSOCK32.dll
 0002:000002d8       __imp__setsockopt@20       004752d8     wsock32:WSOCK32.dll
 0002:000002dc       \177WSOCK32_NULL_THUNK_DATA 004752dc     wsock32:WSOCK32.dll
 0002:000002e0       ___guard_check_icall_fptr  004752e0     LIBCMT:guard_support.obj
 0002:000002e4       ___xc_a                    004752e4     LIBCMT:initializers.obj
 0002:000002ec       ___xc_z                    004752ec     LIBCMT:initializers.obj
 0002:000002f0       ___xi_a                    004752f0     LIBCMT:initializers.obj
 0002:000002fc       ___acrt_stdio_initializer  004752fc     libucrt:stdio_initializer.obj
 0002:00000300       ___acrt_timeset_initializer 00475300     libucrt:timeset_initializer.obj
 0002:00000304       ___acrt_multibyte_initializer 00475304     libucrt:multibyte_initializer.obj
 0002:00000308       ___acrt_tran_sse2_initializer 00475308     libucrt:sse2_initializer.obj
 0002:0000030c       ___xi_z                    0047530c     LIBCMT:initializers.obj
 0002:00000310       ___xp_a                    00475310     LIBCMT:initializers.obj
 0002:00000314       ___acrt_locale_terminator  00475314     libucrt:locale_initializer.obj
 0002:00000318       ___dcrt_console_output_terminator 00475318     libucrt:console_output_initializer.obj
 0002:0000031c       ___acrt_stdio_terminator   0047531c     libucrt:stdio_initializer.obj
 0002:00000320       ___xp_z                    00475320     LIBCMT:initializers.obj
 0002:00000324       ___xt_a                    00475324     LIBCMT:initializers.obj
 0002:00000328       ___xt_z                    00475328     LIBCMT:initializers.obj
 0002:00000330       _in6addr_any               00475330     ws2_32:indef.obj
 0002:0000034c       ??_7exception@std@@6B@     0047534c     LIBCMT:throw_bad_alloc.obj
 0002:00000354       ??_C@_0BC@EOODALEL@Unknown?5exception?$AA@ 00475354     LIBCMT:throw_bad_alloc.obj
 0002:0000036c       ??_7bad_alloc@std@@6B@     0047536c     LIBCMT:throw_bad_alloc.obj
 0002:00000374       ??_C@_0P@GHFPNOJB@bad?5allocation?$AA@ 00475374     LIBCMT:throw_bad_alloc.obj
 0002:00000388       ??_7bad_array_new_length@std@@6B@ 00475388     LIBCMT:throw_bad_alloc.obj
 0002:00000390       ??_C@_0BF@KINCDENJ@bad?5array?5new?5length?$AA@ 00475390     LIBCMT:throw_bad_alloc.obj
 0002:000003ac       ??_7type_info@@6B@         004753ac     LIBCMT:std_type_info_static.obj
 0002:000003b4       ??_7logic_error@std@@6B@   004753b4     libcpmt:xthrow.obj
 0002:000003c0       ??_7length_error@std@@6B@  004753c0     libcpmt:xthrow.obj
 0002:000003cc       ??_7out_of_range@std@@6B@  004753cc     libcpmt:xthrow.obj
 0002:000003d4       __pDestructExceptionObject 004753d4     libvcruntime:frame.obj
 0002:000003dc       ??_7bad_exception@std@@6B@ 004753dc     libvcruntime:frame.obj
 0002:000003e4       ??_C@_0O@DPKOEFFH@bad?5exception?$AA@ 004753e4     libvcruntime:frame.obj
 0002:00000424       ??_C@_1BC@DNHGCMLG@?$AAa?$AAd?$AAv?$AAa?$AAp?$AAi?$AA3?$AA2?$AA?$AA@ 00475424     libvcruntime:winapi_downlevel.obj
 0002:00000438       ??_C@_1DM@KHCHBNEB@?$AAa?$AAp?$AAi?$AA?9?$AAm?$AAs?$AA?9?$AAw?$AAi?$AAn?$AA?9?$AAc?$AAo?$AAr?$AAe?$AA?9?$AAf?$AAi?$AAb?$AAe?$AAr?$AAs?$AA?9?$AAl?$AA1?$AA?9?$AA1?$AA?9?$AA1?$AA?$AA@ 00475438     libvcruntime:winapi_downlevel.obj
 0002:00000474       ??_C@_1DK@LPPGFMPP@?$AAa?$AAp?$AAi?$AA?9?$AAm?$AAs?$AA?9?$AAw?$AAi?$AAn?$AA?9?$AAc?$AAo?$AAr?$AAe?$AA?9?$AAs?$AAy?$AAn?$AAc?$AAh?$AA?9?$AAl?$AA1?$AA?9?$AA2?$AA?9?$AA0?$AA?$AA@ 00475474     libvcruntime:winapi_downlevel.obj
 0002:000004b0       ??_C@_1BC@GDMECMAK@?$AAk?$AAe?$AAr?$AAn?$AAe?$AAl?$AA3?$AA2?$AA?$AA@ 004754b0     libvcruntime:winapi_downlevel.obj
 0002:000004cc       ??_C@_08KNHFBNJ@FlsAlloc?$AA@ 004754cc     libvcruntime:winapi_downlevel.obj
 0002:000004e0       ??_C@_07PEJMOBNF@FlsFree?$AA@ 004754e0     libvcruntime:winapi_downlevel.obj
 0002:000004f0       ??_C@_0M@GDNOONDI@FlsGetValue?$AA@ 004754f0     libvcruntime:winapi_downlevel.obj
 0002:00000504       ??_C@_0M@JCPCPOEF@FlsSetValue?$AA@ 00475504     libvcruntime:winapi_downlevel.obj
 0002:00000518       ??_C@_0BM@HCFOFFN@InitializeCriticalSectionEx?$AA@ 00475518     libvcruntime:winapi_downlevel.obj
 0002:000006c8       ??_C@_08EHJDFFNH@__based?$CI?$AA@ 004756c8     libvcruntime:undname.obj
 0002:000006d4       ??_C@_07KOLFKCDI@__cdecl?$AA@ 004756d4     libvcruntime:undname.obj
 0002:000006dc       ??_C@_08GHMPAG@__pascal?$AA@ 004756dc     libvcruntime:undname.obj
 0002:000006e8       ??_C@_09IFJBGAPI@__stdcall?$AA@ 004756e8     libvcruntime:undname.obj
 0002:000006f4       ??_C@_0L@NPHFGOKO@__thiscall?$AA@ 004756f4     libvcruntime:undname.obj
 0002:00000700       ??_C@_0L@JMKHOMEK@__fastcall?$AA@ 00475700     libvcruntime:undname.obj
 0002:0000070c       ??_C@_0N@BCKKPABJ@__vectorcall?$AA@ 0047570c     libvcruntime:undname.obj
 0002:0000071c       ??_C@_09HIJEGCPM@__clrcall?$AA@ 0047571c     libvcruntime:undname.obj
 0002:00000728       ??_C@_06GHPCKEAG@__eabi?$AA@ 00475728     libvcruntime:undname.obj
 0002:00000730       ??_C@_07JOMMBBKO@__ptr64?$AA@ 00475730     libvcruntime:undname.obj
 0002:00000738       ??_C@_0L@PILCLIHE@__restrict?$AA@ 00475738     libvcruntime:undname.obj
 0002:00000744       ??_C@_0M@GFIIJFMG@__unaligned?$AA@ 00475744     libvcruntime:undname.obj
 0002:00000750       ??_C@_09DHDLOLLB@restrict?$CI?$AA@ 00475750     libvcruntime:undname.obj
 0002:0000075c       ??_C@_04NIHEBCM@?5new?$AA@ 0047575c     libvcruntime:undname.obj
 0002:00000764       ??_C@_07FPCDHGMM@?5delete?$AA@ 00475764     libvcruntime:undname.obj
 0002:0000076c       ??_C@_01NEMOKFLO@?$DN?$AA@ 0047576c     libvcruntime:undname.obj
 0002:00000770       ??_C@_02GPIOPFAK@?$DO?$DO?$AA@ 00475770     libvcruntime:undname.obj
 0002:00000774       ??_C@_02FODMEDOG@?$DM?$DM?$AA@ 00475774     libvcruntime:undname.obj
 0002:00000778       ??_C@_01DCLJPIOD@?$CB?$AA@ 00475778     libvcruntime:undname.obj
 0002:0000077c       ??_C@_02EGOFBIJA@?$DN?$DN?$AA@ 0047577c     libvcruntime:undname.obj
 0002:00000780       ??_C@_02FDNJECIE@?$CB?$DN?$AA@ 00475780     libvcruntime:undname.obj
 0002:00000784       ??_C@_02GPECMEKF@?$FL?$FN?$AA@ 00475784     libvcruntime:undname.obj
 0002:00000788       ??_C@_08LHJFAFGD@operator?$AA@ 00475788     libvcruntime:undname.obj
 0002:00000794       ??_C@_02HBOOOICD@?9?$DO?$AA@ 00475794     libvcruntime:undname.obj
 0002:00000798       ??_C@_01NBENCBCI@?$CK?$AA@ 00475798     libvcruntime:undname.obj
 0002:0000079c       ??_C@_02ECNGHCIF@?$CL?$CL?$AA@ 0047579c     libvcruntime:undname.obj
 0002:000007a0       ??_C@_02BAABKJLB@?9?9?$AA@ 004757a0     libvcruntime:undname.obj
 0002:000007a4       ??_C@_01JOAMLHOP@?9?$AA@   004757a4     libvcruntime:undname.obj
 0002:000007a8       ??_C@_01MIFGBAGJ@?$CL?$AA@ 004757a8     libvcruntime:undname.obj
 0002:000007ac       ??_C@_03MNHNFDLC@?9?$DO?$CK?$AA@ 004757ac     libvcruntime:undname.obj
 0002:000007b0       ??_C@_01KMDKNFGN@?1?$AA@   004757b0     libvcruntime:undname.obj
 0002:000007b4       ??_C@_01FGNFDNOH@?$CF?$AA@ 004757b4     libvcruntime:undname.obj
 0002:000007b8       ??_C@_01MNNFJEPP@?$DM?$AA@ 004757b8     libvcruntime:undname.obj
 0002:000007bc       ??_C@_02EHCHHCKH@?$DM?$DN?$AA@ 004757bc     libvcruntime:undname.obj
 0002:000007c0       ??_C@_01PPODPGHN@?$DO?$AA@ 004757c0     libvcruntime:undname.obj
 0002:000007c4       ??_C@_02EEKDKGMJ@?$DO?$DN?$AA@ 004757c4     libvcruntime:undname.obj
 0002:000007c8       ??_C@_02HCKGKOFO@?$CI?$CJ?$AA@ 004757c8     libvcruntime:undname.obj
 0002:000007cc       ??_C@_01PJKLJHI@?$HO?$AA@  004757cc     libvcruntime:undname.obj
 0002:000007d0       ??_C@_01JKBOJNNK@?$FO?$AA@ 004757d0     libvcruntime:undname.obj
 0002:000007d4       ??_C@_01DNKMNLPK@?$HM?$AA@ 004757d4     libvcruntime:undname.obj
 0002:000007d8       ??_C@_02PPKAJPJL@?$CG?$CG?$AA@ 004757d8     libvcruntime:undname.obj
 0002:000007dc       ??_C@_02NONPIBCD@?$HM?$HM?$AA@ 004757dc     libvcruntime:undname.obj
 0002:000007e0       ??_C@_02FPIMKNGF@?$CK?$DN?$AA@ 004757e0     libvcruntime:undname.obj
 0002:000007e4       ??_C@_02FOEOMHFC@?$CL?$DN?$AA@ 004757e4     libvcruntime:undname.obj
 0002:000007e8       ??_C@_02FKMDLLOA@?9?$DN?$AA@ 004757e8     libvcruntime:undname.obj
 0002:000007ec       ??_C@_02FJEHGPIO@?1?$DN?$AA@ 004757ec     libvcruntime:undname.obj
 0002:000007f0       ??_C@_02FENAOKFI@?$CF?$DN?$AA@ 004757f0     libvcruntime:undname.obj
 0002:000007f4       ??_C@_03IKFCCPFF@?$DO?$DO?$DN?$AA@ 004757f4     libvcruntime:undname.obj
 0002:000007f8       ??_C@_03CDNPDDLA@?$DM?$DM?$DN?$AA@ 004757f8     libvcruntime:undname.obj
 0002:000007fc       ??_C@_02FGJGFEAB@?$CG?$DN?$AA@ 004757fc     libvcruntime:undname.obj
 0002:00000800       ??_C@_02DHLNPPGH@?$HM?$DN?$AA@ 00475800     libvcruntime:undname.obj
 0002:00000804       ??_C@_02MHEGNOJ@?$FO?$DN?$AA@ 00475804     libvcruntime:undname.obj
 0002:00000808       ??_C@_09IFPLHPGF@?$GAvftable?8?$AA@ 00475808     libvcruntime:undname.obj
 0002:00000814       ??_C@_09BLBHBJP@?$GAvbtable?8?$AA@ 00475814     libvcruntime:undname.obj
 0002:00000820       ??_C@_07FEEIOKP@?$GAvcall?8?$AA@ 00475820     libvcruntime:undname.obj
 0002:00000828       ??_C@_08LLFFHHDJ@?$GAtypeof?8?$AA@ 00475828     libvcruntime:undname.obj
 0002:00000834       ??_C@_0BF@KDPPACIK@?$GAlocal?5static?5guard?8?$AA@ 00475834     libvcruntime:undname.obj
 0002:0000084c       ??_C@_08OBABFOLI@?$GAstring?8?$AA@ 0047584c     libvcruntime:undname.obj
 0002:00000858       ??_C@_0BD@JDLKDPAB@?$GAvbase?5destructor?8?$AA@ 00475858     libvcruntime:undname.obj
 0002:0000086c       ??_C@_0BN@DEGPLNFK@?$GAvector?5deleting?5destructor?8?$AA@ 0047586c     libvcruntime:undname.obj
 0002:0000088c       ??_C@_0BO@OBMKPJIG@?$GAdefault?5constructor?5closure?8?$AA@ 0047588c     libvcruntime:undname.obj
 0002:000008ac       ??_C@_0BN@IMDCHIKM@?$GAscalar?5deleting?5destructor?8?$AA@ 004758ac     libvcruntime:undname.obj
 0002:000008cc       ??_C@_0BO@PFGOCPJJ@?$GAvector?5constructor?5iterator?8?$AA@ 004758cc     libvcruntime:undname.obj
 0002:000008ec       ??_C@_0BN@LFPFMEDL@?$GAvector?5destructor?5iterator?8?$AA@ 004758ec     libvcruntime:undname.obj
 0002:0000090c       ??_C@_0CE@IKBNEHA@?$GAvector?5vbase?5constructor?5iterat@ 0047590c     libvcruntime:undname.obj
 0002:00000930       ??_C@_0BL@NILFHHPC@?$GAvirtual?5displacement?5map?8?$AA@ 00475930     libvcruntime:undname.obj
 0002:0000094c       ??_C@_0CB@JONCMFFK@?$GAeh?5vector?5constructor?5iterator?8@ 0047594c     libvcruntime:undname.obj
 0002:00000970       ??_C@_0CA@GCEOPDGL@?$GAeh?5vector?5destructor?5iterator?8?$AA@ 00475970     libvcruntime:undname.obj
 0002:00000990       ??_C@_0CH@OOJPLCPH@?$GAeh?5vector?5vbase?5constructor?5ite@ 00475990     libvcruntime:undname.obj
 0002:000009b8       ??_C@_0BL@LLKPOHJI@?$GAcopy?5constructor?5closure?8?$AA@ 004759b8     libvcruntime:undname.obj
 0002:000009d4       ??_C@_0BA@KBCDOMBN@?$GAudt?5returning?8?$AA@ 004759d4     libvcruntime:undname.obj
 0002:000009e4       ??_C@_03KLGMFNMG@?$GAEH?$AA@ 004759e4     libvcruntime:undname.obj
 0002:000009e8       ??_C@_05KHLCHHI@?$GARTTI?$AA@ 004759e8     libvcruntime:undname.obj
 0002:000009f0       ??_C@_0BA@KKLDJDLB@?$GAlocal?5vftable?8?$AA@ 004759f0     libvcruntime:undname.obj
 0002:00000a00       ??_C@_0CE@IIHCMGGL@?$GAlocal?5vftable?5constructor?5closu@ 00475a00     libvcruntime:undname.obj
 0002:00000a24       ??_C@_06FHBGPFGH@?5new?$FL?$FN?$AA@ 00475a24     libvcruntime:undname.obj
 0002:00000a2c       ??_C@_09LBNFPBCA@?5delete?$FL?$FN?$AA@ 00475a2c     libvcruntime:undname.obj
 0002:00000a38       ??_C@_0P@HJKNJFNN@?$GAomni?5callsig?8?$AA@ 00475a38     libvcruntime:undname.obj
 0002:00000a48       ??_C@_0BL@CNOONJFP@?$GAplacement?5delete?5closure?8?$AA@ 00475a48     libvcruntime:undname.obj
 0002:00000a64       ??_C@_0BN@CKNJLHMB@?$GAplacement?5delete?$FL?$FN?5closure?8?$AA@ 00475a64     libvcruntime:undname.obj
 0002:00000a84       ??_C@_0CG@CFDHKGGD@?$GAmanaged?5vector?5constructor?5iter@ 00475a84     libvcruntime:undname.obj
 0002:00000aac       ??_C@_0CF@IMGKMJNO@?$GAmanaged?5vector?5destructor?5itera@ 00475aac     libvcruntime:undname.obj
 0002:00000ad4       ??_C@_0CG@HLDDJMAG@?$GAeh?5vector?5copy?5constructor?5iter@ 00475ad4     libvcruntime:undname.obj
 0002:00000afc       ??_C@_0CM@FCBBDIGB@?$GAeh?5vector?5vbase?5copy?5constructo@ 00475afc     libvcruntime:undname.obj
 0002:00000b28       ??_C@_0BL@CLIPGLGB@?$GAdynamic?5initializer?5for?5?8?$AA@ 00475b28     libvcruntime:undname.obj
 0002:00000b44       ??_C@_0CB@PDBIFEP@?$GAdynamic?5atexit?5destructor?5for?5?8@ 00475b44     libvcruntime:undname.obj
 0002:00000b68       ??_C@_0CD@CGAJBKEJ@?$GAvector?5copy?5constructor?5iterato@ 00475b68     libvcruntime:undname.obj
 0002:00000b8c       ??_C@_0CJ@GJELGAMM@?$GAvector?5vbase?5copy?5constructor?5i@ 00475b8c     libvcruntime:undname.obj
 0002:00000bb8       ??_C@_0CL@FGIJHLCE@?$GAmanaged?5vector?5copy?5constructor@ 00475bb8     libvcruntime:undname.obj
 0002:00000be4       ??_C@_0BM@PMGGMLDN@?$GAlocal?5static?5thread?5guard?8?$AA@ 00475be4     libvcruntime:undname.obj
 0002:00000c00       ??_C@_0N@BDNMDMOL@operator?5?$CC?$CC?5?$AA@ 00475c00     libvcruntime:undname.obj
 0002:00000c10       ??_C@_0BC@DAFEJGAK@?5Type?5Descriptor?8?$AA@ 00475c10     libvcruntime:undname.obj
 0002:00000c24       ??_C@_0BM@LDKODKLH@?5Base?5Class?5Descriptor?5at?5?$CI?$AA@ 00475c24     libvcruntime:undname.obj
 0002:00000c40       ??_C@_0BD@LGICGFMM@?5Base?5Class?5Array?8?$AA@ 00475c40     libvcruntime:undname.obj
 0002:00000c54       ??_C@_0BN@MECKDCOJ@?5Class?5Hierarchy?5Descriptor?8?$AA@ 00475c54     libvcruntime:undname.obj
 0002:00000c74       ??_C@_0BK@CFCOFLF@?5Complete?5Object?5Locator?8?$AA@ 00475c74     libvcruntime:undname.obj
 0002:00000c90       _standard_lookup_table     00475c90     libucrt:output.obj
 0002:00000cec       ??_C@_06OJHGLDPL@?$CInull?$CJ?$AA@ 00475cec     libucrt:output.obj
 0002:00000cf4       ??_C@_1O@CEDCILHN@?$AA?$CI?$AAn?$AAu?$AAl?$AAl?$AA?$CJ?$AA?$AA@ 00475cf4     libucrt:output.obj
 0002:00000d08       ?large_power_data@?1??multiply_by_power_of_ten@__crt_strtox@@YA_NAAUbig_integer@2@I@Z@4QBIB 00475d08     libucrt:input.obj
 0002:00001610       ?large_power_indices@?1??multiply_by_power_of_ten@__crt_strtox@@YA_NAAUbig_integer@2@I@Z@4QBUunpack_index@?1??12@YA_N0I@Z@B 00476610     libucrt:input.obj
 0002:000016a8       ?small_powers_of_ten@?6??multiply_by_power_of_ten@__crt_strtox@@YA_NAAUbig_integer@2@I@Z@4QBIB 004766a8     libucrt:input.obj
 0002:000016d0       ??_C@_1GE@DPGDJKLM@?$AAm?$AAi?$AAn?$AAk?$AAe?$AAr?$AAn?$AAe?$AAl?$AA?2?$AAc?$AAr?$AAt?$AAs?$AA?2?$AAu?$AAc?$AAr?$AAt?$AA?2?$AAi?$AAn?$AAc?$AA?2?$AAc?$AAo?$AAr?$AAe?$AAc?$AAr?$AAt?$AA_@ 004766d0     libucrt:input.obj
 0002:00001738       ??_C@_1FM@FELNCOBF@?$AA_?$AA_?$AAc?$AAr?$AAt?$AA_?$AAs?$AAt?$AAr?$AAt?$AAo?$AAx?$AA?3?$AA?3?$AAf?$AAl?$AAo?$AAa?$AAt?$AAi?$AAn?$AAg?$AA_?$AAp?$AAo?$AAi?$AAn?$AAt?$AA_?$AAv?$AAa?$AAl@ 00476738     libucrt:input.obj
 0002:00001794       ??_C@_1BG@GEMHBGAF@?$AA_?$AAi?$AAs?$AA_?$AAd?$AAo?$AAu?$AAb?$AAl?$AAe?$AA?$AA@ 00476794     libucrt:input.obj
 0002:000017b0       ??_C@_1FK@JOJELFFO@?$AA_?$AA_?$AAc?$AAr?$AAt?$AA_?$AAs?$AAt?$AAr?$AAt?$AAo?$AAx?$AA?3?$AA?3?$AAf?$AAl?$AAo?$AAa?$AAt?$AAi?$AAn?$AAg?$AA_?$AAp?$AAo?$AAi?$AAn?$AAt?$AA_?$AAv?$AAa?$AAl@ 004767b0     libucrt:input.obj
 0002:0000180c       ??_C@_1BI@BANMPGJI@?$AA?$CB?$AA_?$AAi?$AAs?$AA_?$AAd?$AAo?$AAu?$AAb?$AAl?$AAe?$AA?$AA@ 0047680c     libucrt:input.obj
 0002:00001828       ?constraints@?1??is_length_valid@__crt_stdio_input@@YA_NW4conversion_mode@2@W4length_modifier@2@@Z@4QAY0M@$$CBEA 00476828     libucrt:input.obj
 0002:000018a0       ?inf_uppercase@?2???$parse_floating_point_possible_infinity@DV?$input_adapter_character_source@V?$string_input_adapter@D@__crt_stdio_input@@@__crt_strtox@@_K@__crt_strtox@@YA?AW4floating_point_parse_result@1@AADAAV?$input_adapter_character_source@V?$string_input_adapter@D@__crt_stdio_input@@@1@_K@Z@4QBDB 004768a0     libucrt:input.obj
 0002:000018a4       ?inf_lowercase@?2???$parse_floating_point_possible_infinity@DV?$input_adapter_character_source@V?$string_input_adapter@D@__crt_stdio_input@@@__crt_strtox@@_K@__crt_strtox@@YA?AW4floating_point_parse_result@1@AADAAV?$input_adapter_character_source@V?$string_input_adapter@D@__crt_stdio_input@@@1@_K@Z@4QBDB 004768a4     libucrt:input.obj
 0002:000018a8       ?inity_uppercase@?5???$parse_floating_point_possible_infinity@DV?$input_adapter_character_source@V?$string_input_adapter@D@__crt_stdio_input@@@__crt_strtox@@_K@__crt_strtox@@YA?AW4floating_point_parse_result@1@AADAAV?$input_adapter_character_source@V?$string_input_adapter@D@__crt_stdio_input@@@1@_K@Z@4QBDB 004768a8     libucrt:input.obj
 0002:000018b0       ?inity_lowercase@?5???$parse_floating_point_possible_infinity@DV?$input_adapter_character_source@V?$string_input_adapter@D@__crt_stdio_input@@@__crt_strtox@@_K@__crt_strtox@@YA?AW4floating_point_parse_result@1@AADAAV?$input_adapter_character_source@V?$string_input_adapter@D@__crt_stdio_input@@@1@_K@Z@4QBDB 004768b0     libucrt:input.obj
 0002:000018b8       ?uppercase@?2???$parse_floating_point_possible_nan@DV?$input_adapter_character_source@V?$string_input_adapter@D@__crt_stdio_input@@@__crt_strtox@@_K@__crt_strtox@@YA?AW4floating_point_parse_result@1@AADAAV?$input_adapter_character_source@V?$string_input_adapter@D@__crt_stdio_input@@@1@_K@Z@4QBDB 004768b8     libucrt:input.obj
 0002:000018bc       ?lowercase@?2???$parse_floating_point_possible_nan@DV?$input_adapter_character_source@V?$string_input_adapter@D@__crt_stdio_input@@@__crt_strtox@@_K@__crt_strtox@@YA?AW4floating_point_parse_result@1@AADAAV?$input_adapter_character_source@V?$string_input_adapter@D@__crt_stdio_input@@@1@_K@Z@4QBDB 004768bc     libucrt:input.obj
 0002:000018c0       ?uppercase@?1???$parse_floating_point_possible_nan_is_snan@DV?$input_adapter_character_source@V?$string_input_adapter@D@__crt_stdio_input@@@__crt_strtox@@@__crt_strtox@@YA_NAADAAV?$input_adapter_character_source@V?$string_input_adapter@D@__crt_stdio_input@@@1@@Z@4QBDB 004768c0     libucrt:input.obj
 0002:000018c8       ?lowercase@?1???$parse_floating_point_possible_nan_is_snan@DV?$input_adapter_character_source@V?$string_input_adapter@D@__crt_stdio_input@@@__crt_strtox@@@__crt_strtox@@YA_NAADAAV?$input_adapter_character_source@V?$string_input_adapter@D@__crt_stdio_input@@@1@@Z@4QBDB 004768c8     libucrt:input.obj
 0002:000018d0       ?uppercase@?1???$parse_floating_point_possible_nan_is_ind@DV?$input_adapter_character_source@V?$string_input_adapter@D@__crt_stdio_input@@@__crt_strtox@@@__crt_strtox@@YA_NAADAAV?$input_adapter_character_source@V?$string_input_adapter@D@__crt_stdio_input@@@1@@Z@4QBDB 004768d0     libucrt:input.obj
 0002:000018d4       ?lowercase@?1???$parse_floating_point_possible_nan_is_ind@DV?$input_adapter_character_source@V?$string_input_adapter@D@__crt_stdio_input@@@__crt_strtox@@@__crt_strtox@@YA_NAADAAV?$input_adapter_character_source@V?$string_input_adapter@D@__crt_stdio_input@@@1@@Z@4QBDB 004768d4     libucrt:input.obj
 0002:000018d8       ??_C@_19DOGDICKI@?$AA?4?$AAe?$AAx?$AAe?$AA?$AA@ 004768d8     libucrt:stat.obj
 0002:000018e4       ??_C@_19BDKLHPGC@?$AA?4?$AAc?$AAm?$AAd?$AA?$AA@ 004768e4     libucrt:stat.obj
 0002:000018f0       ??_C@_19PINKOIBI@?$AA?4?$AAb?$AAa?$AAt?$AA?$AA@ 004768f0     libucrt:stat.obj
 0002:000018fc       ??_C@_19CDGLJBOD@?$AA?4?$AAc?$AAo?$AAm?$AA?$AA@ 004768fc     libucrt:stat.obj
 0002:00001908       ??_C@_17BAAFHAL@?$AA?4?$AA?1?$AA?2?$AA?$AA@ 00476908     libucrt:stat.obj
 0002:00001910       ??_C@_15HEJOKEHO@?$AA?$DP?$AA?$CK?$AA?$AA@ 00476910     libucrt:stat.obj
 0002:00001918       ??_C@_13CGOKJPIL@?$AA?1?$AA?$AA@ 00476918     libucrt:exit.obj
 0002:0000191c       ??_C@_1BI@BGOHAHKC@?$AAm?$AAs?$AAc?$AAo?$AAr?$AAe?$AAe?$AA?4?$AAd?$AAl?$AAl?$AA?$AA@ 0047691c     libucrt:exit.obj
 0002:00001934       ??_C@_0P@MIGLKIOC@CorExitProcess?$AA@ 00476934     libucrt:exit.obj
 0002:00001948       ??_C@_1EK@MBDPDCGA@?$AAM?$AAi?$AAc?$AAr?$AAo?$AAs?$AAo?$AAf?$AAt?$AA?5?$AAV?$AAi?$AAs?$AAu?$AAa?$AAl?$AA?5?$AAC?$AA?$CL?$AA?$CL?$AA?5?$AAR?$AAu?$AAn?$AAt?$AAi?$AAm?$AAe?$AA?5?$AAL?$AAi?$AAb@ 00476948     libucrt:assert.obj
 0002:00001998       ??_C@_1FE@LHBLIKM@?$AAA?$AAs?$AAs?$AAe?$AAr?$AAt?$AAi?$AAo?$AAn?$AA?5?$AAf?$AAa?$AAi?$AAl?$AAe?$AAd?$AA?3?$AA?5?$AA?$CF?$AAT?$AAs?$AA?0?$AA?5?$AAf?$AAi?$AAl?$AAe?$AA?5?$AA?$CF?$AAT?$AAs?$AA?0@ 00476998     libucrt:assert.obj
 0002:000019ec       ??_C@_1CE@OJBNHDMO@?$AAA?$AAs?$AAs?$AAe?$AAr?$AAt?$AAi?$AAo?$AAn?$AA?5?$AAf?$AAa?$AAi?$AAl?$AAe?$AAd?$AA?$CB?$AA?$AA@ 004769ec     libucrt:assert.obj
 0002:00001a10       ??_C@_1BE@PHKBBGE@?$AAP?$AAr?$AAo?$AAg?$AAr?$AAa?$AAm?$AA?3?$AA?5?$AA?$AA@ 00476a10     libucrt:assert.obj
 0002:00001a24       ??_C@_1O@HEMHKNDC@?$AAF?$AAi?$AAl?$AAe?$AA?3?$AA?5?$AA?$AA@ 00476a24     libucrt:assert.obj
 0002:00001a34       ??_C@_1O@KCAFKHJE@?$AAL?$AAi?$AAn?$AAe?$AA?3?$AA?5?$AA?$AA@ 00476a34     libucrt:assert.obj
 0002:00001a44       ??_C@_1BK@PEDCIPMA@?$AAE?$AAx?$AAp?$AAr?$AAe?$AAs?$AAs?$AAi?$AAo?$AAn?$AA?3?$AA?5?$AA?$AA@ 00476a44     libucrt:assert.obj
 0002:00001a60       ??_C@_1OA@EGMLFBHJ@?$AAF?$AAo?$AAr?$AA?5?$AAi?$AAn?$AAf?$AAo?$AAr?$AAm?$AAa?$AAt?$AAi?$AAo?$AAn?$AA?5?$AAo?$AAn?$AA?5?$AAh?$AAo?$AAw?$AA?5?$AAy?$AAo?$AAu?$AAr?$AA?5?$AAp?$AAr?$AAo?$AAg@ 00476a60     libucrt:assert.obj
 0002:00001b40       ??_C@_1HK@POCJMFGK@?$AA?$CI?$AAP?$AAr?$AAe?$AAs?$AAs?$AA?5?$AAR?$AAe?$AAt?$AAr?$AAy?$AA?5?$AAt?$AAo?$AA?5?$AAd?$AAe?$AAb?$AAu?$AAg?$AA?5?$AAt?$AAh?$AAe?$AA?5?$AAa?$AAp?$AAp?$AAl?$AAi?$AAc@ 00476b40     libucrt:assert.obj
 0002:00001bbc       ??_C@_17LGKOMLJ@?$AA?4?$AA?4?$AA?4?$AA?$AA@ 00476bbc     libucrt:assert.obj
 0002:00001bc4       ??_C@_13LBAGMAIH@?$AA?6?$AA?$AA@ 00476bc4     libucrt:assert.obj
 0002:00001bc8       ??_C@_15IABLJNFO@?$AA?6?$AA?6?$AA?$AA@ 00476bc8     libucrt:assert.obj
 0002:00001bd0       ??_C@_1CO@EAEJAADC@?$AA?$DM?$AAp?$AAr?$AAo?$AAg?$AAr?$AAa?$AAm?$AA?5?$AAn?$AAa?$AAm?$AAe?$AA?5?$AAu?$AAn?$AAk?$AAn?$AAo?$AAw?$AAn?$AA?$DO?$AA?$AA@ 00476bd0     libucrt:assert.obj
 0002:00001c00       __real@3ff0000000000000    00476c00     libucrt:roundf.obj
 0002:00001c08       ___acrt_exception_action_table 00476c08     libucrt:exception_filter.obj
 0002:00001c98       ___acrt_signal_action_table_count 00476c98     libucrt:exception_filter.obj
 0002:00001c9c       ___acrt_signal_action_table_size 00476c9c     libucrt:exception_filter.obj
 0002:00001ca0       ___acrt_signal_action_first_fpe_index 00476ca0     libucrt:exception_filter.obj
 0002:00001ca4       ___acrt_signal_action_fpe_count 00476ca4     libucrt:exception_filter.obj
 0002:00001e88       ??_C@_03OEIAHPBN@INF?$AA@  00476e88     libucrt:cvt.obj
 0002:00001e8c       ??_C@_03OJHLLCGB@inf?$AA@  00476e8c     libucrt:cvt.obj
 0002:00001e90       ??_C@_03LKNCIKJB@NAN?$AA@  00476e90     libucrt:cvt.obj
 0002:00001e94       ??_C@_03LHCJEHON@nan?$AA@  00476e94     libucrt:cvt.obj
 0002:00001e98       ??_C@_09OFJJIMPC@NAN?$CISNAN?$CJ?$AA@ 00476e98     libucrt:cvt.obj
 0002:00001ea4       ??_C@_09IPFBKMDL@nan?$CIsnan?$CJ?$AA@ 00476ea4     libucrt:cvt.obj
 0002:00001eb0       ??_C@_08IKHNHAJ@NAN?$CIIND?$CJ?$AA@ 00476eb0     libucrt:cvt.obj
 0002:00001ebc       ??_C@_08OFCDMILK@nan?$CIind?$CJ?$AA@ 00476ebc     libucrt:cvt.obj
 0002:00001ec8       ??_C@_05KLBDPFGC@e?$CL000?$AA@ 00476ec8     libucrt:cvt.obj
 0002:00001ed0       ??_C@_03KOEHGMDN@Sun?$AA@  00476ed0     libucrt:nlsdata.obj
 0002:00001ed4       ??_C@_03PDAGKDH@Mon?$AA@   00476ed4     libucrt:nlsdata.obj
 0002:00001ed8       ??_C@_03NAGEINEP@Tue?$AA@  00476ed8     libucrt:nlsdata.obj
 0002:00001edc       ??_C@_03MHOMLAJA@Wed?$AA@  00476edc     libucrt:nlsdata.obj
 0002:00001ee0       ??_C@_03IOFIKPDN@Thu?$AA@  00476ee0     libucrt:nlsdata.obj
 0002:00001ee4       ??_C@_03IDIOELNC@Fri?$AA@  00476ee4     libucrt:nlsdata.obj
 0002:00001ee8       ??_C@_03FEFJNEK@Sat?$AA@   00476ee8     libucrt:nlsdata.obj
 0002:00001eec       ??_C@_06OOPIFAJ@Sunday?$AA@ 00476eec     libucrt:nlsdata.obj
 0002:00001ef4       ??_C@_06JLEDEDGH@Monday?$AA@ 00476ef4     libucrt:nlsdata.obj
 0002:00001efc       ??_C@_07BAAGCFCM@Tuesday?$AA@ 00476efc     libucrt:nlsdata.obj
 0002:00001f04       ??_C@_09DLIGFAKA@Wednesday?$AA@ 00476f04     libucrt:nlsdata.obj
 0002:00001f10       ??_C@_08HACCIKIA@Thursday?$AA@ 00476f10     libucrt:nlsdata.obj
 0002:00001f1c       ??_C@_06JECMNKMI@Friday?$AA@ 00476f1c     libucrt:nlsdata.obj
 0002:00001f24       ??_C@_08INBOOONO@Saturday?$AA@ 00476f24     libucrt:nlsdata.obj
 0002:00001f30       ??_C@_03JIHJHPIE@Jan?$AA@  00476f30     libucrt:nlsdata.obj
 0002:00001f34       ??_C@_03HJBDCHOM@Feb?$AA@  00476f34     libucrt:nlsdata.obj
 0002:00001f38       ??_C@_03ODNJBKGA@Mar?$AA@  00476f38     libucrt:nlsdata.obj
 0002:00001f3c       ??_C@_03LEOLGMJP@Apr?$AA@  00476f3c     libucrt:nlsdata.obj
 0002:00001f40       ??_C@_03CNMDKL@May?$AA@    00476f40     libucrt:nlsdata.obj
 0002:00001f44       ??_C@_03IDFGHECI@Jun?$AA@  00476f44     libucrt:nlsdata.obj
 0002:00001f48       ??_C@_03LBGABGKK@Jul?$AA@  00476f48     libucrt:nlsdata.obj
 0002:00001f4c       ??_C@_03IFJFEIGA@Aug?$AA@  00476f4c     libucrt:nlsdata.obj
 0002:00001f50       ??_C@_03GGCAPAJC@Sep?$AA@  00476f50     libucrt:nlsdata.obj
 0002:00001f54       ??_C@_03BMAOKBAD@Oct?$AA@  00476f54     libucrt:nlsdata.obj
 0002:00001f58       ??_C@_03JPJOFNIA@Nov?$AA@  00476f58     libucrt:nlsdata.obj
 0002:00001f5c       ??_C@_03MKABNOCG@Dec?$AA@  00476f5c     libucrt:nlsdata.obj
 0002:00001f60       ??_C@_07CGJPFGJA@January?$AA@ 00476f60     libucrt:nlsdata.obj
 0002:00001f68       ??_C@_08GNJGEPFN@February?$AA@ 00476f68     libucrt:nlsdata.obj
 0002:00001f74       ??_C@_05HPCKOFNC@March?$AA@ 00476f74     libucrt:nlsdata.obj
 0002:00001f7c       ??_C@_05DMJDNLEJ@April?$AA@ 00476f7c     libucrt:nlsdata.obj
 0002:00001f84       ??_C@_04CNLMGBGM@June?$AA@ 00476f84     libucrt:nlsdata.obj
 0002:00001f8c       ??_C@_04MIEPOIFP@July?$AA@ 00476f8c     libucrt:nlsdata.obj
 0002:00001f94       ??_C@_06LBBHFDDG@August?$AA@ 00476f94     libucrt:nlsdata.obj
 0002:00001f9c       ??_C@_09BHHEALKD@September?$AA@ 00476f9c     libucrt:nlsdata.obj
 0002:00001fa8       ??_C@_07JJNFCEND@October?$AA@ 00476fa8     libucrt:nlsdata.obj
 0002:00001fb0       ??_C@_08HCHEGEOA@November?$AA@ 00476fb0     libucrt:nlsdata.obj
 0002:00001fbc       ??_C@_08EDHMEBNP@December?$AA@ 00476fbc     libucrt:nlsdata.obj
 0002:00001fc8       ??_C@_02DEDBPAFC@AM?$AA@   00476fc8     libucrt:nlsdata.obj
 0002:00001fcc       ??_C@_02CJNFDJBF@PM?$AA@   00476fcc     libucrt:nlsdata.obj
 0002:00001fd0       ??_C@_08BPBNCDIB@MM?1dd?1yy?$AA@ 00476fd0     libucrt:nlsdata.obj
 0002:00001fdc       ??_C@_0BE@CKGJFCPC@dddd?0?5MMMM?5dd?0?5yyyy?$AA@ 00476fdc     libucrt:nlsdata.obj
 0002:00001ff0       ??_C@_08JCCMCCIL@HH?3mm?3ss?$AA@ 00476ff0     libucrt:nlsdata.obj
 0002:00001ffc       ??_C@_17MBGCMIPB@?$AAS?$AAu?$AAn?$AA?$AA@ 00476ffc     libucrt:nlsdata.obj
 0002:00002004       ??_C@_17KBOMKBF@?$AAM?$AAo?$AAn?$AA?$AA@ 00477004     libucrt:nlsdata.obj
 0002:0000200c       ??_C@_17BMKGEGOJ@?$AAT?$AAu?$AAe?$AA?$AA@ 0047700c     libucrt:nlsdata.obj
 0002:00002014       ??_C@_17CJEDCEPE@?$AAW?$AAe?$AAd?$AA?$AA@ 00477014     libucrt:nlsdata.obj
 0002:0000201c       ??_C@_17PDPHAADD@?$AAT?$AAh?$AAu?$AA?$AA@ 0047701c     libucrt:nlsdata.obj
 0002:00002024       ??_C@_17HFOLPPLP@?$AAF?$AAr?$AAi?$AA?$AA@ 00477024     libucrt:nlsdata.obj
 0002:0000202c       ??_C@_17GGIBDPIH@?$AAS?$AAa?$AAt?$AA?$AA@ 0047702c     libucrt:nlsdata.obj
 0002:00002034       ??_C@_1O@IHNHDHPB@?$AAS?$AAu?$AAn?$AAd?$AAa?$AAy?$AA?$AA@ 00477034     libucrt:nlsdata.obj
 0002:00002044       ??_C@_1O@MMNBFLIA@?$AAM?$AAo?$AAn?$AAd?$AAa?$AAy?$AA?$AA@ 00477044     libucrt:nlsdata.obj
 0002:00002054       ??_C@_1BA@ENFBFFEK@?$AAT?$AAu?$AAe?$AAs?$AAd?$AAa?$AAy?$AA?$AA@ 00477054     libucrt:nlsdata.obj
 0002:00002064       ??_C@_1BE@EBOGMDOH@?$AAW?$AAe?$AAd?$AAn?$AAe?$AAs?$AAd?$AAa?$AAy?$AA?$AA@ 00477064     libucrt:nlsdata.obj
 0002:00002078       ??_C@_1BC@HHMNLIHE@?$AAT?$AAh?$AAu?$AAr?$AAs?$AAd?$AAa?$AAy?$AA?$AA@ 00477078     libucrt:nlsdata.obj
 0002:0000208c       ??_C@_1O@PDICJHAG@?$AAF?$AAr?$AAi?$AAd?$AAa?$AAy?$AA?$AA@ 0047708c     libucrt:nlsdata.obj
 0002:0000209c       ??_C@_1BC@ENMNNPAJ@?$AAS?$AAa?$AAt?$AAu?$AAr?$AAd?$AAa?$AAy?$AA?$AA@ 0047709c     libucrt:nlsdata.obj
 0002:000020b0       ??_C@_17DKNBKCHM@?$AAJ?$AAa?$AAn?$AA?$AA@ 004770b0     libucrt:nlsdata.obj
 0002:000020b8       ??_C@_17LMDJEKJN@?$AAF?$AAe?$AAb?$AA?$AA@ 004770b8     libucrt:nlsdata.obj
 0002:000020c0       ??_C@_17CKNLEDEC@?$AAM?$AAa?$AAr?$AA?$AA@ 004770c0     libucrt:nlsdata.obj
 0002:000020c8       ??_C@_17LFPOIHDD@?$AAA?$AAp?$AAr?$AA?$AA@ 004770c8     libucrt:nlsdata.obj
 0002:000020d0       ??_C@_17PNNKMEED@?$AAM?$AAa?$AAy?$AA?$AA@ 004770d0     libucrt:nlsdata.obj
 0002:000020d8       ??_C@_17KCJGOCPB@?$AAJ?$AAu?$AAn?$AA?$AA@ 004770d8     libucrt:nlsdata.obj
 0002:000020e0       ??_C@_17IJPCKHK@?$AAJ?$AAu?$AAl?$AA?$AA@ 004770e0     libucrt:nlsdata.obj
 0002:000020e8       ??_C@_17ICPELBCN@?$AAA?$AAu?$AAg?$AA?$AA@ 004770e8     libucrt:nlsdata.obj
 0002:000020f0       ??_C@_17HCHCOKMG@?$AAS?$AAe?$AAp?$AA?$AA@ 004770f0     libucrt:nlsdata.obj
 0002:000020f8       ??_C@_17FNLKOI@?$AAO?$AAc?$AAt?$AA?$AA@ 004770f8     libucrt:nlsdata.obj
 0002:00002100       ??_C@_17BBDMLCIG@?$AAN?$AAo?$AAv?$AA?$AA@ 00477100     libucrt:nlsdata.obj
 0002:00002108       ??_C@_17EGKACKIF@?$AAD?$AAe?$AAc?$AA?$AA@ 00477108     libucrt:nlsdata.obj
 0002:00002110       ??_C@_1BA@EFMEIEBA@?$AAJ?$AAa?$AAn?$AAu?$AAa?$AAr?$AAy?$AA?$AA@ 00477110     libucrt:nlsdata.obj
 0002:00002120       ??_C@_1BC@JGDDFFAM@?$AAF?$AAe?$AAb?$AAr?$AAu?$AAa?$AAr?$AAy?$AA?$AA@ 00477120     libucrt:nlsdata.obj
 0002:00002134       ??_C@_1M@IKEENEDF@?$AAM?$AAa?$AAr?$AAc?$AAh?$AA?$AA@ 00477134     libucrt:nlsdata.obj
 0002:00002140       ??_C@_1M@GJNLMHFD@?$AAA?$AAp?$AAr?$AAi?$AAl?$AA?$AA@ 00477140     libucrt:nlsdata.obj
 0002:0000214c       ??_C@_19EPFLPGAP@?$AAJ?$AAu?$AAn?$AAe?$AA?$AA@ 0047714c     libucrt:nlsdata.obj
 0002:00002158       ??_C@_19BIFMLPCD@?$AAJ?$AAu?$AAl?$AAy?$AA?$AA@ 00477158     libucrt:nlsdata.obj
 0002:00002164       ??_C@_1O@PAHLKOAC@?$AAA?$AAu?$AAg?$AAu?$AAs?$AAt?$AA?$AA@ 00477164     libucrt:nlsdata.obj
 0002:00002174       ??_C@_1BE@DKAAMBJL@?$AAS?$AAe?$AAp?$AAt?$AAe?$AAm?$AAb?$AAe?$AAr?$AA?$AA@ 00477174     libucrt:nlsdata.obj
 0002:00002188       ??_C@_1BA@EPANDLNG@?$AAO?$AAc?$AAt?$AAo?$AAb?$AAe?$AAr?$AA?$AA@ 00477188     libucrt:nlsdata.obj
 0002:00002198       ??_C@_1BC@BGLIFPF@?$AAN?$AAo?$AAv?$AAe?$AAm?$AAb?$AAe?$AAr?$AA?$AA@ 00477198     libucrt:nlsdata.obj
 0002:000021ac       ??_C@_1BC@FEMKIFH@?$AAD?$AAe?$AAc?$AAe?$AAm?$AAb?$AAe?$AAr?$AA?$AA@ 004771ac     libucrt:nlsdata.obj
 0002:000021c0       ??_C@_15ODEHAHHF@?$AAA?$AAM?$AA?$AA@ 004771c0     libucrt:nlsdata.obj
 0002:000021c8       ??_C@_15CLMNNGEL@?$AAP?$AAM?$AA?$AA@ 004771c8     libucrt:nlsdata.obj
 0002:000021d0       ??_C@_1BC@IEBCMHCM@?$AAM?$AAM?$AA?1?$AAd?$AAd?$AA?1?$AAy?$AAy?$AA?$AA@ 004771d0     libucrt:nlsdata.obj
 0002:000021e4       ??_C@_1CI@KNAKOEBC@?$AAd?$AAd?$AAd?$AAd?$AA?0?$AA?5?$AAM?$AAM?$AAM?$AAM?$AA?5?$AAd?$AAd?$AA?0?$AA?5?$AAy?$AAy?$AAy?$AAy?$AA?$AA@ 004771e4     libucrt:nlsdata.obj
 0002:0000220c       ??_C@_1BC@GDGBMEMK@?$AAH?$AAH?$AA?3?$AAm?$AAm?$AA?3?$AAs?$AAs?$AA?$AA@ 0047720c     libucrt:nlsdata.obj
 0002:00002220       ??_C@_1M@BMHNFIME@?$AAe?$AAn?$AA?9?$AAU?$AAS?$AA?$AA@ 00477220     libucrt:nlsdata.obj
 0002:00002230       ___lc_time_c               00477230     libucrt:nlsdata.obj
 0002:00002394       ?ccs@?BL@???$__acrt_stdio_parse_mode@D@@YA?AU__acrt_stdio_stream_mode@@QBD@Z@4QBDB 00477394     libucrt:openfile.obj
 0002:00002398       ?utf8_encoding@?BL@???$__acrt_stdio_parse_mode@D@@YA?AU__acrt_stdio_stream_mode@@QBD@Z@4QBDB 00477398     libucrt:openfile.obj
 0002:000023a0       ?utf16_encoding@?BL@???$__acrt_stdio_parse_mode@D@@YA?AU__acrt_stdio_stream_mode@@QBD@Z@4QBDB 004773a0     libucrt:openfile.obj
 0002:000023a8       ?unicode_encoding@?BL@???$__acrt_stdio_parse_mode@D@@YA?AU__acrt_stdio_stream_mode@@QBD@Z@4QBDB 004773a8     libucrt:openfile.obj
 0002:000023b0       __wctype                   004773b0     libucrt:ctype.obj
 0002:000025b8       ___newctype                004775b8     libucrt:ctype.obj
 0002:000028b8       ___newclmap                004778b8     libucrt:ctype.obj
 0002:00002a38       ___newcumap                00477a38     libucrt:ctype.obj
 0002:00002c08       ??_C@_1EG@CNNIPFIM@?$AAa?$AAp?$AAi?$AA?9?$AAm?$AAs?$AA?9?$AAw?$AAi?$AAn?$AA?9?$AAa?$AAp?$AAp?$AAm?$AAo?$AAd?$AAe?$AAl?$AA?9?$AAr?$AAu?$AAn?$AAt?$AAi?$AAm?$AAe?$AA?9?$AAl?$AA1?$AA?9?$AA1@ 00477c08     libucrt:winapi_thunks.obj
 0002:00002c50       ??_C@_1EA@JGEFHKEI@?$AAa?$AAp?$AAi?$AA?9?$AAm?$AAs?$AA?9?$AAw?$AAi?$AAn?$AA?9?$AAc?$AAo?$AAr?$AAe?$AA?9?$AAd?$AAa?$AAt?$AAe?$AAt?$AAi?$AAm?$AAe?$AA?9?$AAl?$AA1?$AA?9?$AA1?$AA?9?$AA1?$AA?$AA@ 00477c50     libucrt:winapi_thunks.obj
 0002:00002c90       ??_C@_1DI@GCIAAENM@?$AAa?$AAp?$AAi?$AA?9?$AAm?$AAs?$AA?9?$AAw?$AAi?$AAn?$AA?9?$AAc?$AAo?$AAr?$AAe?$AA?9?$AAf?$AAi?$AAl?$AAe?$AA?9?$AAl?$AA2?$AA?9?$AA1?$AA?9?$AA1?$AA?$AA@ 00477c90     libucrt:winapi_thunks.obj
 0002:00002cc8       ??_C@_1EI@MPIAOHOC@?$AAa?$AAp?$AAi?$AA?9?$AAm?$AAs?$AA?9?$AAw?$AAi?$AAn?$AA?9?$AAc?$AAo?$AAr?$AAe?$AA?9?$AAl?$AAo?$AAc?$AAa?$AAl?$AAi?$AAz?$AAa?$AAt?$AAi?$AAo?$AAn?$AA?9?$AAl?$AA1?$AA?9@ 00477cc8     libucrt:winapi_thunks.obj
 0002:00002d10       ??_C@_1FK@FPHCKFIE@?$AAa?$AAp?$AAi?$AA?9?$AAm?$AAs?$AA?9?$AAw?$AAi?$AAn?$AA?9?$AAc?$AAo?$AAr?$AAe?$AA?9?$AAl?$AAo?$AAc?$AAa?$AAl?$AAi?$AAz?$AAa?$AAt?$AAi?$AAo?$AAn?$AA?9?$AAo?$AAb?$AAs@ 00477d10     libucrt:winapi_thunks.obj
 0002:00002d70       ??_C@_1EM@DILCGIIO@?$AAa?$AAp?$AAi?$AA?9?$AAm?$AAs?$AA?9?$AAw?$AAi?$AAn?$AA?9?$AAc?$AAo?$AAr?$AAe?$AA?9?$AAp?$AAr?$AAo?$AAc?$AAe?$AAs?$AAs?$AAt?$AAh?$AAr?$AAe?$AAa?$AAd?$AAs?$AA?9?$AAl@ 00477d70     libucrt:winapi_thunks.obj
 0002:00002dbc       ??_C@_1DM@LNCGDDPN@?$AAa?$AAp?$AAi?$AA?9?$AAm?$AAs?$AA?9?$AAw?$AAi?$AAn?$AA?9?$AAc?$AAo?$AAr?$AAe?$AA?9?$AAs?$AAt?$AAr?$AAi?$AAn?$AAg?$AA?9?$AAl?$AA1?$AA?9?$AA1?$AA?9?$AA0?$AA?$AA@ 00477dbc     libucrt:winapi_thunks.obj
 0002:00002df8       ??_C@_1DO@FPAPJEMD@?$AAa?$AAp?$AAi?$AA?9?$AAm?$AAs?$AA?9?$AAw?$AAi?$AAn?$AA?9?$AAc?$AAo?$AAr?$AAe?$AA?9?$AAs?$AAy?$AAs?$AAi?$AAn?$AAf?$AAo?$AA?9?$AAl?$AA1?$AA?9?$AA2?$AA?9?$AA1?$AA?$AA@ 00477df8     libucrt:winapi_thunks.obj
 0002:00002e38       ??_C@_1DK@NDHNAHIO@?$AAa?$AAp?$AAi?$AA?9?$AAm?$AAs?$AA?9?$AAw?$AAi?$AAn?$AA?9?$AAc?$AAo?$AAr?$AAe?$AA?9?$AAw?$AAi?$AAn?$AAr?$AAt?$AA?9?$AAl?$AA1?$AA?9?$AA1?$AA?9?$AA0?$AA?$AA@ 00477e38     libucrt:winapi_thunks.obj
 0002:00002e74       ??_C@_1DM@KGHDGBCM@?$AAa?$AAp?$AAi?$AA?9?$AAm?$AAs?$AA?9?$AAw?$AAi?$AAn?$AA?9?$AAc?$AAo?$AAr?$AAe?$AA?9?$AAx?$AAs?$AAt?$AAa?$AAt?$AAe?$AA?9?$AAl?$AA2?$AA?9?$AA1?$AA?9?$AA0?$AA?$AA@ 00477e74     libucrt:winapi_thunks.obj
 0002:00002eb0       ??_C@_1EO@IJIOEFOH@?$AAa?$AAp?$AAi?$AA?9?$AAm?$AAs?$AA?9?$AAw?$AAi?$AAn?$AA?9?$AAr?$AAt?$AAc?$AAo?$AAr?$AAe?$AA?9?$AAn?$AAt?$AAu?$AAs?$AAe?$AAr?$AA?9?$AAw?$AAi?$AAn?$AAd?$AAo?$AAw?$AA?9@ 00477eb0     libucrt:winapi_thunks.obj
 0002:00002f00       ??_C@_1FG@HHGEKANL@?$AAa?$AAp?$AAi?$AA?9?$AAm?$AAs?$AA?9?$AAw?$AAi?$AAn?$AA?9?$AAs?$AAe?$AAc?$AAu?$AAr?$AAi?$AAt?$AAy?$AA?9?$AAs?$AAy?$AAs?$AAt?$AAe?$AAm?$AAf?$AAu?$AAn?$AAc?$AAt?$AAi@ 00477f00     libucrt:winapi_thunks.obj
 0002:00002f58       ??_C@_1FG@NCKKOLKO@?$AAe?$AAx?$AAt?$AA?9?$AAm?$AAs?$AA?9?$AAw?$AAi?$AAn?$AA?9?$AAk?$AAe?$AAr?$AAn?$AAe?$AAl?$AA3?$AA2?$AA?9?$AAp?$AAa?$AAc?$AAk?$AAa?$AAg?$AAe?$AA?9?$AAc?$AAu?$AAr?$AAr@ 00477f58     libucrt:winapi_thunks.obj
 0002:00002fb0       ??_C@_1EG@DBIOJECG@?$AAe?$AAx?$AAt?$AA?9?$AAm?$AAs?$AA?9?$AAw?$AAi?$AAn?$AA?9?$AAn?$AAt?$AAu?$AAs?$AAe?$AAr?$AA?9?$AAd?$AAi?$AAa?$AAl?$AAo?$AAg?$AAb?$AAo?$AAx?$AA?9?$AAl?$AA1?$AA?9?$AA1@ 00477fb0     libucrt:winapi_thunks.obj
 0002:00002ff8       ??_C@_1EO@FIHMJCLF@?$AAe?$AAx?$AAt?$AA?9?$AAm?$AAs?$AA?9?$AAw?$AAi?$AAn?$AA?9?$AAn?$AAt?$AAu?$AAs?$AAe?$AAr?$AA?9?$AAw?$AAi?$AAn?$AAd?$AAo?$AAw?$AAs?$AAt?$AAa?$AAt?$AAi?$AAo?$AAn?$AA?9@ 00477ff8     libucrt:winapi_thunks.obj
 0002:00003048       ??_C@_1O@BCCLBEOE@?$AAu?$AAs?$AAe?$AAr?$AA3?$AA2?$AA?$AA@ 00478048     libucrt:winapi_thunks.obj
 0002:0000305c       ??_C@_0BA@FHFNEAED@AreFileApisANSI?$AA@ 0047805c     libucrt:winapi_thunks.obj
 0002:00003074       ??_C@_0BA@IHGNDAEB@CompareStringEx?$AA@ 00478074     libucrt:winapi_thunks.obj
 0002:000030ac       ??_C@_0BA@HNOPNCHB@GetActiveWindow?$AA@ 004780ac     libucrt:winapi_thunks.obj
 0002:000030c4       ??_C@_0BE@JOGNEJCI@GetCurrentPackageId?$AA@ 004780c4     libucrt:winapi_thunks.obj
 0002:000030e0       ??_C@_0BA@EPCJIIPD@GetDateFormatEx?$AA@ 004780e0     libucrt:winapi_thunks.obj
 0002:000030f8       ??_C@_0BN@NEEHBBPO@GetFileInformationByHandleEx?$AA@ 004780f8     libucrt:winapi_thunks.obj
 0002:00003120       ??_C@_0BD@HHGDFDBJ@GetLastActivePopup?$AA@ 00478120     libucrt:winapi_thunks.obj
 0002:0000313c       ??_C@_0BI@DFKBFLJE@GetProcessWindowStation?$AA@ 0047813c     libucrt:winapi_thunks.obj
 0002:00003158       ??_C@_0BP@FPNJPEJC@GetSystemTimePreciseAsFileTime?$AA@ 00478158     libucrt:winapi_thunks.obj
 0002:00003180       ??_C@_0BA@CIJJKCJJ@GetTimeFormatEx?$AA@ 00478180     libucrt:winapi_thunks.obj
 0002:00003198       ??_C@_0BK@DEKFELLI@GetUserObjectInformationW?$AA@ 00478198     libucrt:winapi_thunks.obj
 0002:000031c4       ??_C@_0O@KKBNKAPF@LCMapStringEx?$AA@ 004781c4     libucrt:winapi_thunks.obj
 0002:000031dc       ??_C@_0BB@HBDEELFH@LocaleNameToLCID?$AA@ 004781dc     libucrt:winapi_thunks.obj
 0002:000031f8       ??_C@_0M@CHKKJDAI@MessageBoxA?$AA@ 004781f8     libucrt:winapi_thunks.obj
 0002:0000320c       ??_C@_0M@DLDCCGNP@MessageBoxW?$AA@ 0047820c     libucrt:winapi_thunks.obj
 0002:0000321c       ??_C@_0N@PPOMPGGK@RoInitialize?$AA@ 0047821c     libucrt:winapi_thunks.obj
 0002:00003230       ??_C@_0P@LLFHBIJD@RoUninitialize?$AA@ 00478230     libucrt:winapi_thunks.obj
 0002:00003268       ??_C@_1M@PBPMMENC@?$AAa?$AAm?$AA?1?$AAp?$AAm?$AA?$AA@ 00478268     libucrt:wcsftime.obj
 0002:00003274       ??_C@_17BLFJJHMM@?$AAa?$AA?1?$AAp?$AA?$AA@ 00478274     libucrt:wcsftime.obj
 0002:0000327c       ??_C@_13HOIJIPNN@?$AA?5?$AA?$AA@ 0047827c     libucrt:wcsftime.obj
 0002:00003280       ??_C@_13IMODFHAA@?$AA?9?$AA?$AA@ 00478280     libucrt:wcsftime.obj
 0002:00003284       ??_C@_13EBCNDICG@?$AA?3?$AA?$AA@ 00478284     libucrt:wcsftime.obj
 0002:00003288       ??_C@_13KDLDGPGJ@?$AA?7?$AA?$AA@ 00478288     libucrt:wcsftime.obj
 0002:0000328c       ??_C@_13KJIIAINM@?$AA?$CL?$AA?$AA@ 0047828c     libucrt:wcsftime.obj
 0002:00003290       ??_C@_13EJFHHPOP@?$AA?$CF?$AA?$AA@ 00478290     libucrt:wcsftime.obj
 0002:00003294       ??_C@_02CLFPBFFP@TZ?$AA@   00478294     libucrt:tzset.obj
 0002:000032a8       ??_C@_1M@HPNHIDJI@?$AAj?$AAa?$AA?9?$AAJ?$AAP?$AA?$AA@ 004782a8     libucrt:mbctype.obj
 0002:000032b4       ??_C@_1M@BIBDDEMK@?$AAz?$AAh?$AA?9?$AAC?$AAN?$AA?$AA@ 004782b4     libucrt:mbctype.obj
 0002:000032c0       ??_C@_1M@JLOOOEGK@?$AAk?$AAo?$AA?9?$AAK?$AAR?$AA?$AA@ 004782c0     libucrt:mbctype.obj
 0002:000032cc       ??_C@_1M@CLNBBOPM@?$AAz?$AAh?$AA?9?$AAT?$AAW?$AA?$AA@ 004782cc     libucrt:mbctype.obj
 0002:000032d8       ??_C@_15PJPFLCCM@?$AAu?$AAk?$AA?$AA@ 004782d8     libucrt:get_qualified_locale.obj
 0002:000032e0       ??_C@_05DNEBIAHO@1?$CDINF?$AA@ 004782e0     libucrt:cfout.obj
 0002:000032e8       ??_C@_06IMKFLFPG@1?$CDQNAN?$AA@ 004782e8     libucrt:cfout.obj
 0002:000032f0       ??_C@_06PGGFOGJG@1?$CDSNAN?$AA@ 004782f0     libucrt:cfout.obj
 0002:000032f8       ??_C@_05PHHOCPM@1?$CDIND?$AA@ 004782f8     libucrt:cfout.obj
 0002:00003a20       ??_C@_15EMKDOKLE@?$AAa?$AAr?$AA?$AA@ 00478a20     libucrt:lcidtoname_downlevel.obj
 0002:00003a28       ??_C@_15KNPADPLH@?$AAb?$AAg?$AA?$AA@ 00478a28     libucrt:lcidtoname_downlevel.obj
 0002:00003a30       ??_C@_15EDMHLDMO@?$AAc?$AAa?$AA?$AA@ 00478a30     libucrt:lcidtoname_downlevel.obj
 0002:00003a38       ??_C@_1O@BPEAJADD@?$AAz?$AAh?$AA?9?$AAC?$AAH?$AAS?$AA?$AA@ 00478a38     libucrt:lcidtoname_downlevel.obj
 0002:00003a48       ??_C@_15LJNHCMNK@?$AAc?$AAs?$AA?$AA@ 00478a48     libucrt:lcidtoname_downlevel.obj
 0002:00003a50       ??_C@_15FOMCIDHG@?$AAd?$AAa?$AA?$AA@ 00478a50     libucrt:lcidtoname_downlevel.obj
 0002:00003a58       ??_C@_15NBKABECB@?$AAd?$AAe?$AA?$AA@ 00478a58     libucrt:lcidtoname_downlevel.obj
 0002:00003a60       ??_C@_15GHPEIIAO@?$AAe?$AAl?$AA?$AA@ 00478a60     libucrt:lcidtoname_downlevel.obj
 0002:00003a68       ??_C@_15MNPNEAIF@?$AAe?$AAn?$AA?$AA@ 00478a68     libucrt:lcidtoname_downlevel.obj
 0002:00003a70       ??_C@_15GPIOMPMH@?$AAe?$AAs?$AA?$AA@ 00478a70     libucrt:lcidtoname_downlevel.obj
 0002:00003a78       ??_C@_15NGLOAKJC@?$AAf?$AAi?$AA?$AA@ 00478a78     libucrt:lcidtoname_downlevel.obj
 0002:00003a80       ??_C@_15FBKGNKAM@?$AAf?$AAr?$AA?$AA@ 00478a80     libucrt:lcidtoname_downlevel.obj
 0002:00003a88       ??_C@_15KGGCNEFK@?$AAh?$AAe?$AA?$AA@ 00478a88     libucrt:lcidtoname_downlevel.obj
 0002:00003a90       ??_C@_15PGHLIDMF@?$AAh?$AAu?$AA?$AA@ 00478a90     libucrt:lcidtoname_downlevel.obj
 0002:00003a98       ??_C@_15BIEMAPLM@?$AAi?$AAs?$AA?$AA@ 00478a98     libucrt:lcidtoname_downlevel.obj
 0002:00003aa0       ??_C@_15IFJLDHAF@?$AAi?$AAt?$AA?$AA@ 00478aa0     libucrt:lcidtoname_downlevel.obj
 0002:00003aa8       ??_C@_15GEMIOCAG@?$AAj?$AAa?$AA?$AA@ 00478aa8     libucrt:lcidtoname_downlevel.obj
 0002:00003ab0       ??_C@_15EPELEGJA@?$AAk?$AAo?$AA?$AA@ 00478ab0     libucrt:lcidtoname_downlevel.obj
 0002:00003ab8       ??_C@_15NDDHIMN@?$AAn?$AAl?$AA?$AA@ 00478ab8     libucrt:lcidtoname_downlevel.obj
 0002:00003ac0       ??_C@_15BPIGNHCD@?$AAn?$AAo?$AA?$AA@ 00478ac0     libucrt:lcidtoname_downlevel.obj
 0002:00003ac8       ??_C@_15DEOPBLCG@?$AAp?$AAl?$AA?$AA@ 00478ac8     libucrt:lcidtoname_downlevel.obj
 0002:00003ad0       ??_C@_15KBECGEFG@?$AAp?$AAt?$AA?$AA@ 00478ad0     libucrt:lcidtoname_downlevel.obj
 0002:00003ad8       ??_C@_15GLJCBFMD@?$AAr?$AAo?$AA?$AA@ 00478ad8     libucrt:lcidtoname_downlevel.obj
 0002:00003ae0       ??_C@_15FEDGKCDI@?$AAr?$AAu?$AA?$AA@ 00478ae0     libucrt:lcidtoname_downlevel.obj
 0002:00003ae8       ??_C@_15GLKMLLHM@?$AAh?$AAr?$AA?$AA@ 00478ae8     libucrt:lcidtoname_downlevel.obj
 0002:00003af0       ??_C@_15CPKMFBDB@?$AAs?$AAk?$AA?$AA@ 00478af0     libucrt:lcidtoname_downlevel.obj
 0002:00003af8       ??_C@_15BAAIOGMK@?$AAs?$AAq?$AA?$AA@ 00478af8     libucrt:lcidtoname_downlevel.obj
 0002:00003b00       ??_C@_15INNPNOHD@?$AAs?$AAv?$AA?$AA@ 00478b00     libucrt:lcidtoname_downlevel.obj
 0002:00003b08       ??_C@_15CABMMOGH@?$AAt?$AAh?$AA?$AA@ 00478b08     libucrt:lcidtoname_downlevel.obj
 0002:00003b10       ??_C@_15BPLIHJJM@?$AAt?$AAr?$AA?$AA@ 00478b10     libucrt:lcidtoname_downlevel.obj
 0002:00003b18       ??_C@_15NEOEKKDJ@?$AAu?$AAr?$AA?$AA@ 00478b18     libucrt:lcidtoname_downlevel.obj
 0002:00003b20       ??_C@_15NFICGAJK@?$AAi?$AAd?$AA?$AA@ 00478b20     libucrt:lcidtoname_downlevel.obj
 0002:00003b28       ??_C@_15HPJPHDM@?$AAb?$AAe?$AA?$AA@ 00478b28     libucrt:lcidtoname_downlevel.obj
 0002:00003b30       ??_C@_15LCHLGJII@?$AAs?$AAl?$AA?$AA@ 00478b30     libucrt:lcidtoname_downlevel.obj
 0002:00003b38       ??_C@_15PCFJPHHO@?$AAe?$AAt?$AA?$AA@ 00478b38     libucrt:lcidtoname_downlevel.obj
 0002:00003b40       ??_C@_15HPFPGODN@?$AAl?$AAv?$AA?$AA@ 00478b40     libucrt:lcidtoname_downlevel.obj
 0002:00003b48       ??_C@_15NFFGKGLG@?$AAl?$AAt?$AA?$AA@ 00478b48     libucrt:lcidtoname_downlevel.obj
 0002:00003b50       ??_C@_15BDAKCCHN@?$AAf?$AAa?$AA?$AA@ 00478b50     libucrt:lcidtoname_downlevel.obj
 0002:00003b58       ??_C@_15NFGIAIAJ@?$AAv?$AAi?$AA?$AA@ 00478b58     libucrt:lcidtoname_downlevel.obj
 0002:00003b60       ??_C@_15LMKNDMHN@?$AAh?$AAy?$AA?$AA@ 00478b60     libucrt:lcidtoname_downlevel.obj
 0002:00003b68       ??_C@_15IJBHMCFL@?$AAa?$AAz?$AA?$AA@ 00478b68     libucrt:lcidtoname_downlevel.obj
 0002:00003b70       ??_C@_15EKOFJABL@?$AAe?$AAu?$AA?$AA@ 00478b70     libucrt:lcidtoname_downlevel.obj
 0002:00003b78       ??_C@_15BGHADCNK@?$AAm?$AAk?$AA?$AA@ 00478b78     libucrt:lcidtoname_downlevel.obj
 0002:00003b80       ??_C@_15JDNICKHM@?$AAa?$AAf?$AA?$AA@ 00478b80     libucrt:lcidtoname_downlevel.obj
 0002:00003b88       ??_C@_15KPJEDBKD@?$AAk?$AAa?$AA?$AA@ 00478b88     libucrt:lcidtoname_downlevel.obj
 0002:00003b90       ??_C@_15PDNFFFEO@?$AAf?$AAo?$AA?$AA@ 00478b90     libucrt:lcidtoname_downlevel.obj
 0002:00003b98       ??_C@_15OMLEGLOC@?$AAh?$AAi?$AA?$AA@ 00478b98     libucrt:lcidtoname_downlevel.obj
 0002:00003ba0       ??_C@_15IDNNENKK@?$AAm?$AAs?$AA?$AA@ 00478ba0     libucrt:lcidtoname_downlevel.obj
 0002:00003ba8       ??_C@_15MACJNBMH@?$AAk?$AAk?$AA?$AA@ 00478ba8     libucrt:lcidtoname_downlevel.obj
 0002:00003bb0       ??_C@_15DKDJEOND@?$AAk?$AAy?$AA?$AA@ 00478bb0     libucrt:lcidtoname_downlevel.obj
 0002:00003bb8       ??_C@_15DFGDLJBG@?$AAs?$AAw?$AA?$AA@ 00478bb8     libucrt:lcidtoname_downlevel.obj
 0002:00003bc0       ??_C@_15BBFAICNG@?$AAu?$AAz?$AA?$AA@ 00478bc0     libucrt:lcidtoname_downlevel.obj
 0002:00003bc8       ??_C@_15DKNDCGEA@?$AAt?$AAt?$AA?$AA@ 00478bc8     libucrt:lcidtoname_downlevel.obj
 0002:00003bd0       ??_C@_15MGIFMDPL@?$AAp?$AAa?$AA?$AA@ 00478bd0     libucrt:lcidtoname_downlevel.obj
 0002:00003bd8       ??_C@_15HCNDBBA@?$AAg?$AAu?$AA?$AA@ 00478bd8     libucrt:lcidtoname_downlevel.obj
 0002:00003be0       ??_C@_15FNBEIBON@?$AAt?$AAa?$AA?$AA@ 00478be0     libucrt:lcidtoname_downlevel.obj
 0002:00003be8       ??_C@_15NCHGBGLK@?$AAt?$AAe?$AA?$AA@ 00478be8     libucrt:lcidtoname_downlevel.obj
 0002:00003bf0       ??_C@_15PHPHCBPF@?$AAk?$AAn?$AA?$AA@ 00478bf0     libucrt:lcidtoname_downlevel.obj
 0002:00003bf8       ??_C@_15DLGBCKMP@?$AAm?$AAr?$AA?$AA@ 00478bf8     libucrt:lcidtoname_downlevel.obj
 0002:00003c00       ??_C@_15EABBLBFF@?$AAs?$AAa?$AA?$AA@ 00478c00     libucrt:lcidtoname_downlevel.obj
 0002:00003c08       ??_C@_15CBKOMCOI@?$AAm?$AAn?$AA?$AA@ 00478c08     libucrt:lcidtoname_downlevel.obj
 0002:00003c10       ??_C@_15CKDMCJAF@?$AAg?$AAl?$AA?$AA@ 00478c10     libucrt:lcidtoname_downlevel.obj
 0002:00003c18       ??_C@_17CNJFBPG@?$AAk?$AAo?$AAk?$AA?$AA@ 00478c18     libucrt:lcidtoname_downlevel.obj
 0002:00003c20       ??_C@_17FFBJICPL@?$AAs?$AAy?$AAr?$AA?$AA@ 00478c20     libucrt:lcidtoname_downlevel.obj
 0002:00003c28       ??_C@_17KPNDCPAF@?$AAd?$AAi?$AAv?$AA?$AA@ 00478c28     libucrt:lcidtoname_downlevel.obj
 0002:00003c30       ??_C@_11LOCGONAA@?$AA?$AA@ 00478c30     libucrt:lcidtoname_downlevel.obj
 0002:00003c34       ??_C@_1M@OKAHONE@?$AAa?$AAr?$AA?9?$AAS?$AAA?$AA?$AA@ 00478c34     libucrt:lcidtoname_downlevel.obj
 0002:00003c40       ??_C@_1M@FFFIGIGK@?$AAb?$AAg?$AA?9?$AAB?$AAG?$AA?$AA@ 00478c40     libucrt:lcidtoname_downlevel.obj
 0002:00003c4c       ??_C@_1M@BJNKEDC@?$AAc?$AAa?$AA?9?$AAE?$AAS?$AA?$AA@ 00478c4c     libucrt:lcidtoname_downlevel.obj
 0002:00003c58       ??_C@_1M@IJJHFJHA@?$AAc?$AAs?$AA?9?$AAC?$AAZ?$AA?$AA@ 00478c58     libucrt:lcidtoname_downlevel.obj
 0002:00003c64       ??_C@_1M@CLPEOBGI@?$AAd?$AAa?$AA?9?$AAD?$AAK?$AA?$AA@ 00478c64     libucrt:lcidtoname_downlevel.obj
 0002:00003c70       ??_C@_1M@MCMADGCB@?$AAd?$AAe?$AA?9?$AAD?$AAE?$AA?$AA@ 00478c70     libucrt:lcidtoname_downlevel.obj
 0002:00003c7c       ??_C@_1M@OOCKEMAM@?$AAe?$AAl?$AA?9?$AAG?$AAR?$AA?$AA@ 00478c7c     libucrt:lcidtoname_downlevel.obj
 0002:00003c88       ??_C@_1M@DDNJFGID@?$AAf?$AAi?$AA?9?$AAF?$AAI?$AA?$AA@ 00478c88     libucrt:lcidtoname_downlevel.obj
 0002:00003c94       ??_C@_1M@GLIPPMAC@?$AAf?$AAr?$AA?9?$AAF?$AAR?$AA?$AA@ 00478c94     libucrt:lcidtoname_downlevel.obj
 0002:00003ca0       ??_C@_1M@GFMCHPE@?$AAh?$AAe?$AA?9?$AAI?$AAL?$AA?$AA@ 00478ca0     libucrt:lcidtoname_downlevel.obj
 0002:00003cac       ??_C@_1M@MHLPGNKM@?$AAh?$AAu?$AA?9?$AAH?$AAU?$AA?$AA@ 00478cac     libucrt:lcidtoname_downlevel.obj
 0002:00003cb8       ??_C@_1M@LPDDNNPN@?$AAi?$AAs?$AA?9?$AAI?$AAS?$AA?$AA@ 00478cb8     libucrt:lcidtoname_downlevel.obj
 0002:00003cc4       ??_C@_1M@MADIPODN@?$AAi?$AAt?$AA?9?$AAI?$AAT?$AA?$AA@ 00478cc4     libucrt:lcidtoname_downlevel.obj
 0002:00003cd0       ??_C@_1M@IHBJJGG@?$AAn?$AAl?$AA?9?$AAN?$AAL?$AA?$AA@ 00478cd0     libucrt:lcidtoname_downlevel.obj
 0002:00003cdc       ??_C@_1M@EANAGDL@?$AAn?$AAb?$AA?9?$AAN?$AAO?$AA?$AA@ 00478cdc     libucrt:lcidtoname_downlevel.obj
 0002:00003ce8       ??_C@_1M@NEIEMEGP@?$AAp?$AAl?$AA?9?$AAP?$AAL?$AA?$AA@ 00478ce8     libucrt:lcidtoname_downlevel.obj
 0002:00003cf4       ??_C@_1M@BOCFIGEP@?$AAp?$AAt?$AA?9?$AAB?$AAR?$AA?$AA@ 00478cf4     libucrt:lcidtoname_downlevel.obj
 0002:00003d00       ??_C@_1M@IMPFOPBG@?$AAr?$AAo?$AA?9?$AAR?$AAO?$AA?$AA@ 00478d00     libucrt:lcidtoname_downlevel.obj
 0002:00003d0c       ??_C@_1M@IDNNEJMM@?$AAr?$AAu?$AA?9?$AAR?$AAU?$AA?$AA@ 00478d0c     libucrt:lcidtoname_downlevel.obj
 0002:00003d18       ??_C@_1M@LILEEOGM@?$AAh?$AAr?$AA?9?$AAH?$AAR?$AA?$AA@ 00478d18     libucrt:lcidtoname_downlevel.obj
 0002:00003d24       ??_C@_1M@FKIFEHPB@?$AAs?$AAk?$AA?9?$AAS?$AAK?$AA?$AA@ 00478d24     libucrt:lcidtoname_downlevel.obj
 0002:00003d30       ??_C@_1M@LJMAMNPJ@?$AAs?$AAq?$AA?9?$AAA?$AAL?$AA?$AA@ 00478d30     libucrt:lcidtoname_downlevel.obj
 0002:00003d3c       ??_C@_1M@GIAKDKJK@?$AAs?$AAv?$AA?9?$AAS?$AAE?$AA?$AA@ 00478d3c     libucrt:lcidtoname_downlevel.obj
 0002:00003d48       ??_C@_1M@MKJKIKCL@?$AAt?$AAh?$AA?9?$AAT?$AAH?$AA?$AA@ 00478d48     libucrt:lcidtoname_downlevel.obj
 0002:00003d54       ??_C@_1M@MFLCCMPB@?$AAt?$AAr?$AA?9?$AAT?$AAR?$AA?$AA@ 00478d54     libucrt:lcidtoname_downlevel.obj
 0002:00003d60       ??_C@_1M@OIJHDKJN@?$AAu?$AAr?$AA?9?$AAP?$AAK?$AA?$AA@ 00478d60     libucrt:lcidtoname_downlevel.obj
 0002:00003d6c       ??_C@_1M@LHIPCIEK@?$AAi?$AAd?$AA?9?$AAI?$AAD?$AA?$AA@ 00478d6c     libucrt:lcidtoname_downlevel.obj
 0002:00003d78       ??_C@_1M@MFMOBGI@?$AAu?$AAk?$AA?9?$AAU?$AAA?$AA?$AA@ 00478d78     libucrt:lcidtoname_downlevel.obj
 0002:00003d84       ??_C@_1M@OBGLJIPL@?$AAb?$AAe?$AA?9?$AAB?$AAY?$AA?$AA@ 00478d84     libucrt:lcidtoname_downlevel.obj
 0002:00003d90       ??_C@_1M@BCFAJEAD@?$AAs?$AAl?$AA?9?$AAS?$AAI?$AA?$AA@ 00478d90     libucrt:lcidtoname_downlevel.obj
 0002:00003d9c       ??_C@_1M@FKFFEDDN@?$AAe?$AAt?$AA?9?$AAE?$AAE?$AA?$AA@ 00478d9c     libucrt:lcidtoname_downlevel.obj
 0002:00003da8       ??_C@_1M@KGKKAACI@?$AAl?$AAv?$AA?9?$AAL?$AAV?$AA?$AA@ 00478da8     libucrt:lcidtoname_downlevel.obj
 0002:00003db4       ??_C@_1M@IFGBIJO@?$AAl?$AAt?$AA?9?$AAL?$AAT?$AA?$AA@ 00478db4     libucrt:lcidtoname_downlevel.obj
 0002:00003dc0       ??_C@_1M@FGEAHEDM@?$AAf?$AAa?$AA?9?$AAI?$AAR?$AA?$AA@ 00478dc0     libucrt:lcidtoname_downlevel.obj
 0002:00003dcc       ??_C@_1M@KBMAIBFN@?$AAv?$AAi?$AA?9?$AAV?$AAN?$AA?$AA@ 00478dcc     libucrt:lcidtoname_downlevel.obj
 0002:00003dd8       ??_C@_1M@GPCBKDJK@?$AAh?$AAy?$AA?9?$AAA?$AAM?$AA?$AA@ 00478dd8     libucrt:lcidtoname_downlevel.obj
 0002:00003de4       ??_C@_1BG@BECMDDJB@?$AAa?$AAz?$AA?9?$AAA?$AAZ?$AA?9?$AAL?$AAa?$AAt?$AAn?$AA?$AA@ 00478de4     libucrt:lcidtoname_downlevel.obj
 0002:00003dfc       ??_C@_1M@MAOFCAEA@?$AAe?$AAu?$AA?9?$AAE?$AAS?$AA?$AA@ 00478dfc     libucrt:lcidtoname_downlevel.obj
 0002:00003e08       ??_C@_1M@IGHABKPI@?$AAm?$AAk?$AA?9?$AAM?$AAK?$AA?$AA@ 00478e08     libucrt:lcidtoname_downlevel.obj
 0002:00003e14       ??_C@_1M@IAIGNEJG@?$AAt?$AAn?$AA?9?$AAZ?$AAA?$AA?$AA@ 00478e14     libucrt:lcidtoname_downlevel.obj
 0002:00003e20       ??_C@_1M@IIJCOJFA@?$AAx?$AAh?$AA?9?$AAZ?$AAA?$AA?$AA@ 00478e20     libucrt:lcidtoname_downlevel.obj
 0002:00003e2c       ??_C@_1M@LGPJHNJH@?$AAz?$AAu?$AA?9?$AAZ?$AAA?$AA?$AA@ 00478e2c     libucrt:lcidtoname_downlevel.obj
 0002:00003e38       ??_C@_1M@HOKAOIO@?$AAa?$AAf?$AA?9?$AAZ?$AAA?$AA?$AA@ 00478e38     libucrt:lcidtoname_downlevel.obj
 0002:00003e44       ??_C@_1M@DPCLHLIE@?$AAk?$AAa?$AA?9?$AAG?$AAE?$AA?$AA@ 00478e44     libucrt:lcidtoname_downlevel.obj
 0002:00003e50       ??_C@_1M@BLKMHJBI@?$AAf?$AAo?$AA?9?$AAF?$AAO?$AA?$AA@ 00478e50     libucrt:lcidtoname_downlevel.obj
 0002:00003e5c       ??_C@_1M@LGGJAPPB@?$AAh?$AAi?$AA?9?$AAI?$AAN?$AA?$AA@ 00478e5c     libucrt:lcidtoname_downlevel.obj
 0002:00003e68       ??_C@_1M@FIKPIHFE@?$AAm?$AAt?$AA?9?$AAM?$AAT?$AA?$AA@ 00478e68     libucrt:lcidtoname_downlevel.obj
 0002:00003e74       ??_C@_1M@HEGGPBFA@?$AAs?$AAe?$AA?9?$AAN?$AAO?$AA?$AA@ 00478e74     libucrt:lcidtoname_downlevel.obj
 0002:00003e80       ??_C@_1M@EIBJEEPA@?$AAm?$AAs?$AA?9?$AAM?$AAY?$AA?$AA@ 00478e80     libucrt:lcidtoname_downlevel.obj
 0002:00003e8c       ??_C@_1M@FHLBGMPP@?$AAk?$AAk?$AA?9?$AAK?$AAZ?$AA?$AA@ 00478e8c     libucrt:lcidtoname_downlevel.obj
 0002:00003e98       ??_C@_1M@NGJJLCGI@?$AAk?$AAy?$AA?9?$AAK?$AAG?$AA?$AA@ 00478e98     libucrt:lcidtoname_downlevel.obj
 0002:00003ea4       ??_C@_1M@GIENNBFC@?$AAs?$AAw?$AA?9?$AAK?$AAE?$AA?$AA@ 00478ea4     libucrt:lcidtoname_downlevel.obj
 0002:00003eb0       ??_C@_1BG@NDGMJIMJ@?$AAu?$AAz?$AA?9?$AAU?$AAZ?$AA?9?$AAL?$AAa?$AAt?$AAn?$AA?$AA@ 00478eb0     libucrt:lcidtoname_downlevel.obj
 0002:00003ec8       ??_C@_1M@IDCCIHBC@?$AAt?$AAt?$AA?9?$AAR?$AAU?$AA?$AA@ 00478ec8     libucrt:lcidtoname_downlevel.obj
 0002:00003ed4       ??_C@_1M@LOICPMOJ@?$AAb?$AAn?$AA?9?$AAI?$AAN?$AA?$AA@ 00478ed4     libucrt:lcidtoname_downlevel.obj
 0002:00003ee0       ??_C@_1M@KPKKNEAH@?$AAp?$AAa?$AA?9?$AAI?$AAN?$AA?$AA@ 00478ee0     libucrt:lcidtoname_downlevel.obj
 0002:00003eec       ??_C@_1M@PJGPPBOG@?$AAg?$AAu?$AA?9?$AAI?$AAN?$AA?$AA@ 00478eec     libucrt:lcidtoname_downlevel.obj
 0002:00003ef8       ??_C@_1M@KMKMOPHI@?$AAt?$AAa?$AA?9?$AAI?$AAN?$AA?$AA@ 00478ef8     libucrt:lcidtoname_downlevel.obj
 0002:00003f04       ??_C@_1M@KFEHEPAC@?$AAt?$AAe?$AA?9?$AAI?$AAN?$AA?$AA@ 00478f04     libucrt:lcidtoname_downlevel.obj
 0002:00003f10       ??_C@_1M@CDCLMGHI@?$AAk?$AAn?$AA?9?$AAI?$AAN?$AA?$AA@ 00478f10     libucrt:lcidtoname_downlevel.obj
 0002:00003f1c       ??_C@_1M@MIODLDKF@?$AAm?$AAl?$AA?9?$AAI?$AAN?$AA?$AA@ 00478f1c     libucrt:lcidtoname_downlevel.obj
 0002:00003f28       ??_C@_1M@PBIEACPO@?$AAm?$AAr?$AA?9?$AAI?$AAN?$AA?$AA@ 00478f28     libucrt:lcidtoname_downlevel.obj
 0002:00003f34       ??_C@_1M@NIDEAGPH@?$AAs?$AAa?$AA?9?$AAI?$AAN?$AA?$AA@ 00478f34     libucrt:lcidtoname_downlevel.obj
 0002:00003f40       ??_C@_1M@FHIHCBIO@?$AAm?$AAn?$AA?9?$AAM?$AAN?$AA?$AA@ 00478f40     libucrt:lcidtoname_downlevel.obj
 0002:00003f4c       ??_C@_1M@JAIJPENP@?$AAc?$AAy?$AA?9?$AAG?$AAB?$AA?$AA@ 00478f4c     libucrt:lcidtoname_downlevel.obj
 0002:00003f58       ??_C@_1M@PHGFBEPN@?$AAg?$AAl?$AA?9?$AAE?$AAS?$AA?$AA@ 00478f58     libucrt:lcidtoname_downlevel.obj
 0002:00003f64       ??_C@_1O@KPIPDNCP@?$AAk?$AAo?$AAk?$AA?9?$AAI?$AAN?$AA?$AA@ 00478f64     libucrt:lcidtoname_downlevel.obj
 0002:00003f74       ??_C@_1O@KNHJLDJA@?$AAs?$AAy?$AAr?$AA?9?$AAS?$AAY?$AA?$AA@ 00478f74     libucrt:lcidtoname_downlevel.obj
 0002:00003f84       ??_C@_1O@MKEKBLAH@?$AAd?$AAi?$AAv?$AA?9?$AAM?$AAV?$AA?$AA@ 00478f84     libucrt:lcidtoname_downlevel.obj
 0002:00003f94       ??_C@_1O@OHDCKDDF@?$AAq?$AAu?$AAz?$AA?9?$AAB?$AAO?$AA?$AA@ 00478f94     libucrt:lcidtoname_downlevel.obj
 0002:00003fa4       ??_C@_1M@LEPJNLFD@?$AAn?$AAs?$AA?9?$AAZ?$AAA?$AA?$AA@ 00478fa4     libucrt:lcidtoname_downlevel.obj
 0002:00003fb0       ??_C@_1M@OMLEIIJB@?$AAm?$AAi?$AA?9?$AAN?$AAZ?$AA?$AA@ 00478fb0     libucrt:lcidtoname_downlevel.obj
 0002:00003fbc       ??_C@_1M@PMPEAILG@?$AAa?$AAr?$AA?9?$AAI?$AAQ?$AA?$AA@ 00478fbc     libucrt:lcidtoname_downlevel.obj
 0002:00003fc8       ??_C@_1M@CNKPNOEE@?$AAd?$AAe?$AA?9?$AAC?$AAH?$AA?$AA@ 00478fc8     libucrt:lcidtoname_downlevel.obj
 0002:00003fd4       ??_C@_1M@LKMGMLKO@?$AAe?$AAn?$AA?9?$AAG?$AAB?$AA?$AA@ 00478fd4     libucrt:lcidtoname_downlevel.obj
 0002:00003fe0       ??_C@_1M@PGKJFFGL@?$AAe?$AAs?$AA?9?$AAM?$AAX?$AA?$AA@ 00478fe0     libucrt:lcidtoname_downlevel.obj
 0002:00003fec       ??_C@_1M@DNNANBDC@?$AAf?$AAr?$AA?9?$AAB?$AAE?$AA?$AA@ 00478fec     libucrt:lcidtoname_downlevel.obj
 0002:00003ff8       ??_C@_1M@HLGMDFHM@?$AAi?$AAt?$AA?9?$AAC?$AAH?$AA?$AA@ 00478ff8     libucrt:lcidtoname_downlevel.obj
 0002:00004004       ??_C@_1M@CLLBGJH@?$AAn?$AAl?$AA?9?$AAB?$AAE?$AA?$AA@ 00479004     libucrt:lcidtoname_downlevel.obj
 0002:00004010       ??_C@_1M@BODBOGLF@?$AAn?$AAn?$AA?9?$AAN?$AAO?$AA?$AA@ 00479010     libucrt:lcidtoname_downlevel.obj
 0002:0000401c       ??_C@_1M@HFFAHKAD@?$AAp?$AAt?$AA?9?$AAP?$AAT?$AA?$AA@ 0047901c     libucrt:lcidtoname_downlevel.obj
 0002:00004028       ??_C@_1BG@LNOAKHIE@?$AAs?$AAr?$AA?9?$AAS?$AAP?$AA?9?$AAL?$AAa?$AAt?$AAn?$AA?$AA@ 00479028     libucrt:lcidtoname_downlevel.obj
 0002:00004040       ??_C@_1M@HBMHBGAK@?$AAs?$AAv?$AA?9?$AAF?$AAI?$AA?$AA@ 00479040     libucrt:lcidtoname_downlevel.obj
 0002:0000404c       ??_C@_1BG@DGCJGJBE@?$AAa?$AAz?$AA?9?$AAA?$AAZ?$AA?9?$AAC?$AAy?$AAr?$AAl?$AA?$AA@ 0047904c     libucrt:lcidtoname_downlevel.obj
 0002:00004064       ??_C@_1M@KEJDAAHB@?$AAs?$AAe?$AA?9?$AAS?$AAE?$AA?$AA@ 00479064     libucrt:lcidtoname_downlevel.obj
 0002:00004070       ??_C@_1M@HEIBJJAD@?$AAm?$AAs?$AA?9?$AAB?$AAN?$AA?$AA@ 00479070     libucrt:lcidtoname_downlevel.obj
 0002:0000407c       ??_C@_1BG@PBGJMCEM@?$AAu?$AAz?$AA?9?$AAU?$AAZ?$AA?9?$AAC?$AAy?$AAr?$AAl?$AA?$AA@ 0047907c     libucrt:lcidtoname_downlevel.obj
 0002:00004094       ??_C@_1O@LAOBCMDF@?$AAq?$AAu?$AAz?$AA?9?$AAE?$AAC?$AA?$AA@ 00479094     libucrt:lcidtoname_downlevel.obj
 0002:000040a4       ??_C@_1M@POEEMAIO@?$AAa?$AAr?$AA?9?$AAE?$AAG?$AA?$AA@ 004790a4     libucrt:lcidtoname_downlevel.obj
 0002:000040b0       ??_C@_1M@EFAKDEDL@?$AAz?$AAh?$AA?9?$AAH?$AAK?$AA?$AA@ 004790b0     libucrt:lcidtoname_downlevel.obj
 0002:000040bc       ??_C@_1M@HKKIJHGI@?$AAd?$AAe?$AA?9?$AAA?$AAT?$AA?$AA@ 004790bc     libucrt:lcidtoname_downlevel.obj
 0002:000040c8       ??_C@_1M@KBFBEHJF@?$AAe?$AAn?$AA?9?$AAA?$AAU?$AA?$AA@ 004790c8     libucrt:lcidtoname_downlevel.obj
 0002:000040d4       ??_C@_1M@MNPLFAAH@?$AAe?$AAs?$AA?9?$AAE?$AAS?$AA?$AA@ 004790d4     libucrt:lcidtoname_downlevel.obj
 0002:000040e0       ??_C@_1M@HJOOJFMA@?$AAf?$AAr?$AA?9?$AAC?$AAA?$AA?$AA@ 004790e0     libucrt:lcidtoname_downlevel.obj
 0002:000040ec       ??_C@_1BG@JPOFPNAB@?$AAs?$AAr?$AA?9?$AAS?$AAP?$AA?9?$AAC?$AAy?$AAr?$AAl?$AA?$AA@ 004790ec     libucrt:lcidtoname_downlevel.obj
 0002:00004104       ??_C@_1M@LNFOCMOB@?$AAs?$AAe?$AA?9?$AAF?$AAI?$AA?$AA@ 00479104     libucrt:lcidtoname_downlevel.obj
 0002:00004110       ??_C@_1O@MGJBOAMB@?$AAq?$AAu?$AAz?$AA?9?$AAP?$AAE?$AA?$AA@ 00479110     libucrt:lcidtoname_downlevel.obj
 0002:00004120       ??_C@_1M@GJINLBOK@?$AAa?$AAr?$AA?9?$AAL?$AAY?$AA?$AA@ 00479120     libucrt:lcidtoname_downlevel.obj
 0002:0000412c       ??_C@_1M@GGMNHJNL@?$AAz?$AAh?$AA?9?$AAS?$AAG?$AA?$AA@ 0047912c     libucrt:lcidtoname_downlevel.obj
 0002:00004138       ??_C@_1M@HOIKODND@?$AAd?$AAe?$AA?9?$AAL?$AAU?$AA?$AA@ 00479138     libucrt:lcidtoname_downlevel.obj
 0002:00004144       ??_C@_1M@DDOCCGFG@?$AAe?$AAn?$AA?9?$AAC?$AAA?$AA?$AA@ 00479144     libucrt:lcidtoname_downlevel.obj
 0002:00004150       ??_C@_1M@BNOEMJLF@?$AAe?$AAs?$AA?9?$AAG?$AAT?$AA?$AA@ 00479150     libucrt:lcidtoname_downlevel.obj
 0002:0000415c       ??_C@_1M@EOGNKEK@?$AAf?$AAr?$AA?9?$AAC?$AAH?$AA?$AA@ 0047915c     libucrt:lcidtoname_downlevel.obj
 0002:00004168       ??_C@_1M@FLIDJFHL@?$AAh?$AAr?$AA?9?$AAB?$AAA?$AA?$AA@ 00479168     libucrt:lcidtoname_downlevel.obj
 0002:00004174       ??_C@_1O@FMCELNAJ@?$AAs?$AAm?$AAj?$AA?9?$AAN?$AAO?$AA?$AA@ 00479174     libucrt:lcidtoname_downlevel.obj
 0002:00004184       ??_C@_1M@JHGLJMGJ@?$AAa?$AAr?$AA?9?$AAD?$AAZ?$AA?$AA@ 00479184     libucrt:lcidtoname_downlevel.obj
 0002:00004190       ??_C@_1M@JKKFDCNP@?$AAz?$AAh?$AA?9?$AAM?$AAO?$AA?$AA@ 00479190     libucrt:lcidtoname_downlevel.obj
 0002:0000419c       ??_C@_1M@GEEFALPE@?$AAd?$AAe?$AA?9?$AAL?$AAI?$AA?$AA@ 0047919c     libucrt:lcidtoname_downlevel.obj
 0002:000041a8       ??_C@_1M@IGEOFBG@?$AAe?$AAn?$AA?9?$AAN?$AAZ?$AA?$AA@ 004791a8     libucrt:lcidtoname_downlevel.obj
 0002:000041b4       ??_C@_1M@KDBONEHP@?$AAe?$AAs?$AA?9?$AAC?$AAR?$AA?$AA@ 004791b4     libucrt:lcidtoname_downlevel.obj
 0002:000041c0       ??_C@_1M@FHMDOHNN@?$AAf?$AAr?$AA?9?$AAL?$AAU?$AA?$AA@ 004791c0     libucrt:lcidtoname_downlevel.obj
 0002:000041cc       ??_C@_1BG@NFKKMAFG@?$AAb?$AAs?$AA?9?$AAB?$AAA?$AA?9?$AAL?$AAa?$AAt?$AAn?$AA?$AA@ 004791cc     libucrt:lcidtoname_downlevel.obj
 0002:000041e4       ??_C@_1O@IMNBEMCI@?$AAs?$AAm?$AAj?$AA?9?$AAS?$AAE?$AA?$AA@ 004791e4     libucrt:lcidtoname_downlevel.obj
 0002:000041f4       ??_C@_1M@DHHMBNDP@?$AAa?$AAr?$AA?9?$AAM?$AAA?$AA?$AA@ 004791f4     libucrt:lcidtoname_downlevel.obj
 0002:00004200       ??_C@_1M@BNBLJCGH@?$AAe?$AAn?$AA?9?$AAI?$AAE?$AA?$AA@ 00479200     libucrt:lcidtoname_downlevel.obj
 0002:0000420c       ??_C@_1M@GEPAFMDL@?$AAe?$AAs?$AA?9?$AAP?$AAA?$AA?$AA@ 0047920c     libucrt:lcidtoname_downlevel.obj
 0002:00004218       ??_C@_1M@OJONDMDL@?$AAf?$AAr?$AA?9?$AAM?$AAC?$AA?$AA@ 00479218     libucrt:lcidtoname_downlevel.obj
 0002:00004224       ??_C@_1BG@OBCNFJB@?$AAs?$AAr?$AA?9?$AAB?$AAA?$AA?9?$AAL?$AAa?$AAt?$AAn?$AA?$AA@ 00479224     libucrt:lcidtoname_downlevel.obj
 0002:0000423c       ??_C@_1O@KEMEEGPO@?$AAs?$AAm?$AAa?$AA?9?$AAN?$AAO?$AA?$AA@ 0047923c     libucrt:lcidtoname_downlevel.obj
 0002:0000424c       ??_C@_1M@ELMGFODK@?$AAa?$AAr?$AA?9?$AAT?$AAN?$AA?$AA@ 0047924c     libucrt:lcidtoname_downlevel.obj
 0002:00004258       ??_C@_1M@BHDLHFAF@?$AAe?$AAn?$AA?9?$AAZ?$AAA?$AA?$AA@ 00479258     libucrt:lcidtoname_downlevel.obj
 0002:00004264       ??_C@_1M@BMGIGLIF@?$AAe?$AAs?$AA?9?$AAD?$AAO?$AA?$AA@ 00479264     libucrt:lcidtoname_downlevel.obj
 0002:00004270       ??_C@_1BG@CMBHIPBE@?$AAs?$AAr?$AA?9?$AAB?$AAA?$AA?9?$AAC?$AAy?$AAr?$AAl?$AA?$AA@ 00479270     libucrt:lcidtoname_downlevel.obj
 0002:00004288       ??_C@_1O@HEDBLHNP@?$AAs?$AAm?$AAa?$AA?9?$AAS?$AAE?$AA?$AA@ 00479288     libucrt:lcidtoname_downlevel.obj
 0002:00004298       ??_C@_1M@DAGCADIM@?$AAa?$AAr?$AA?9?$AAO?$AAM?$AA?$AA@ 00479298     libucrt:lcidtoname_downlevel.obj
 0002:000042a4       ??_C@_1M@FODLMICG@?$AAe?$AAn?$AA?9?$AAJ?$AAM?$AA?$AA@ 004792a4     libucrt:lcidtoname_downlevel.obj
 0002:000042b0       ??_C@_1M@DNMLCIHB@?$AAe?$AAs?$AA?9?$AAV?$AAE?$AA?$AA@ 004792b0     libucrt:lcidtoname_downlevel.obj
 0002:000042bc       ??_C@_1O@EOKHMKJK@?$AAs?$AAm?$AAs?$AA?9?$AAF?$AAI?$AA?$AA@ 004792bc     libucrt:lcidtoname_downlevel.obj
 0002:000042cc       ??_C@_1M@CAFJMKOF@?$AAa?$AAr?$AA?9?$AAY?$AAE?$AA?$AA@ 004792cc     libucrt:lcidtoname_downlevel.obj
 0002:000042d8       ??_C@_1M@CBFHIJLI@?$AAe?$AAn?$AA?9?$AAC?$AAB?$AA?$AA@ 004792d8     libucrt:lcidtoname_downlevel.obj
 0002:000042e4       ??_C@_1M@BGNFLDN@?$AAe?$AAs?$AA?9?$AAC?$AAO?$AA?$AA@ 004792e4     libucrt:lcidtoname_downlevel.obj
 0002:000042f0       ??_C@_1O@JMPHMAMC@?$AAs?$AAm?$AAn?$AA?9?$AAF?$AAI?$AA?$AA@ 004792f0     libucrt:lcidtoname_downlevel.obj
 0002:00004300       ??_C@_1M@JLANABKE@?$AAa?$AAr?$AA?9?$AAS?$AAY?$AA?$AA@ 00479300     libucrt:lcidtoname_downlevel.obj
 0002:0000430c       ??_C@_1M@HPKGCFGN@?$AAe?$AAn?$AA?9?$AAB?$AAZ?$AA?$AA@ 0047930c     libucrt:lcidtoname_downlevel.obj
 0002:00004318       ??_C@_1M@OLJCMLGM@?$AAe?$AAs?$AA?9?$AAP?$AAE?$AA?$AA@ 00479318     libucrt:lcidtoname_downlevel.obj
 0002:00004324       ??_C@_1M@MKKGFKLE@?$AAa?$AAr?$AA?9?$AAJ?$AAO?$AA?$AA@ 00479324     libucrt:lcidtoname_downlevel.obj
 0002:00004330       ??_C@_1M@EKPGLDNI@?$AAe?$AAn?$AA?9?$AAT?$AAT?$AA?$AA@ 00479330     libucrt:lcidtoname_downlevel.obj
 0002:0000433c       ??_C@_1M@OONGHFHE@?$AAe?$AAs?$AA?9?$AAA?$AAR?$AA?$AA@ 0047933c     libucrt:lcidtoname_downlevel.obj
 0002:00004348       ??_C@_1M@OOJFGBHE@?$AAa?$AAr?$AA?9?$AAL?$AAB?$AA?$AA@ 00479348     libucrt:lcidtoname_downlevel.obj
 0002:00004354       ??_C@_1M@GCEJHNEG@?$AAe?$AAn?$AA?9?$AAZ?$AAW?$AA?$AA@ 00479354     libucrt:lcidtoname_downlevel.obj
 0002:00004360       ??_C@_1M@JNOCAHJI@?$AAe?$AAs?$AA?9?$AAE?$AAC?$AA?$AA@ 00479360     libucrt:lcidtoname_downlevel.obj
 0002:0000436c       ??_C@_1M@JEFHPGGB@?$AAa?$AAr?$AA?9?$AAK?$AAW?$AA?$AA@ 0047936c     libucrt:lcidtoname_downlevel.obj
 0002:00004378       ??_C@_1M@MLKIBJOJ@?$AAe?$AAn?$AA?9?$AAP?$AAH?$AA?$AA@ 00479378     libucrt:lcidtoname_downlevel.obj
 0002:00004384       ??_C@_1M@BDNIPEND@?$AAe?$AAs?$AA?9?$AAC?$AAL?$AA?$AA@ 00479384     libucrt:lcidtoname_downlevel.obj
 0002:00004390       ??_C@_1M@MPNMEKBD@?$AAa?$AAr?$AA?9?$AAA?$AAE?$AA?$AA@ 00479390     libucrt:lcidtoname_downlevel.obj
 0002:0000439c       ??_C@_1M@KBJALCPI@?$AAe?$AAs?$AA?9?$AAU?$AAY?$AA?$AA@ 0047939c     libucrt:lcidtoname_downlevel.obj
 0002:000043a8       ??_C@_1M@LLCCOAGA@?$AAa?$AAr?$AA?9?$AAB?$AAH?$AA?$AA@ 004793a8     libucrt:lcidtoname_downlevel.obj
 0002:000043b4       ??_C@_1M@PBFNCDEL@?$AAe?$AAs?$AA?9?$AAP?$AAY?$AA?$AA@ 004793b4     libucrt:lcidtoname_downlevel.obj
 0002:000043c0       ??_C@_1M@EDGINPNP@?$AAa?$AAr?$AA?9?$AAQ?$AAA?$AA?$AA@ 004793c0     libucrt:lcidtoname_downlevel.obj
 0002:000043cc       ??_C@_1M@MKDBIIJI@?$AAe?$AAs?$AA?9?$AAB?$AAO?$AA?$AA@ 004793cc     libucrt:lcidtoname_downlevel.obj
 0002:000043d8       ??_C@_1M@CPKKEBLD@?$AAe?$AAs?$AA?9?$AAS?$AAV?$AA?$AA@ 004793d8     libucrt:lcidtoname_downlevel.obj
 0002:000043e4       ??_C@_1M@NDBGMMJL@?$AAe?$AAs?$AA?9?$AAH?$AAN?$AA?$AA@ 004793e4     libucrt:lcidtoname_downlevel.obj
 0002:000043f0       ??_C@_1M@JIJIBHDP@?$AAe?$AAs?$AA?9?$AAN?$AAI?$AA?$AA@ 004793f0     libucrt:lcidtoname_downlevel.obj
 0002:000043fc       ??_C@_1M@CGFMKEEK@?$AAe?$AAs?$AA?9?$AAP?$AAR?$AA?$AA@ 004793fc     libucrt:lcidtoname_downlevel.obj
 0002:00004408       ??_C@_1O@ICJHKIIK@?$AAz?$AAh?$AA?9?$AAC?$AAH?$AAT?$AA?$AA@ 00479408     libucrt:lcidtoname_downlevel.obj
 0002:00004418       ??_C@_15CLNEJCE@?$AAs?$AAr?$AA?$AA@ 00479418     libucrt:lcidtoname_downlevel.obj
 0002:00004b40       ??_C@_1M@KAHEKEIG@?$AAa?$AAf?$AA?9?$AAz?$AAa?$AA?$AA@ 00479b40     libucrt:lcidtoname_downlevel.obj
 0002:00004b4c       ??_C@_1M@GIECOABL@?$AAa?$AAr?$AA?9?$AAa?$AAe?$AA?$AA@ 00479b4c     libucrt:lcidtoname_downlevel.obj
 0002:00004b58       ??_C@_1M@BMLMEKGI@?$AAa?$AAr?$AA?9?$AAb?$AAh?$AA?$AA@ 00479b58     libucrt:lcidtoname_downlevel.obj
 0002:00004b64       ??_C@_1M@DAPFDGGB@?$AAa?$AAr?$AA?9?$AAd?$AAz?$AA?$AA@ 00479b64     libucrt:lcidtoname_downlevel.obj
 0002:00004b70       ??_C@_1M@FJNKGKIG@?$AAa?$AAr?$AA?9?$AAe?$AAg?$AA?$AA@ 00479b70     libucrt:lcidtoname_downlevel.obj
 0002:00004b7c       ??_C@_1M@FLGKKCLO@?$AAa?$AAr?$AA?9?$AAi?$AAq?$AA?$AA@ 00479b7c     libucrt:lcidtoname_downlevel.obj
 0002:00004b88       ??_C@_1M@GNDIPALM@?$AAa?$AAr?$AA?9?$AAj?$AAo?$AA?$AA@ 00479b88     libucrt:lcidtoname_downlevel.obj
 0002:00004b94       ??_C@_1M@DDMJFMGJ@?$AAa?$AAr?$AA?9?$AAk?$AAw?$AA?$AA@ 00479b94     libucrt:lcidtoname_downlevel.obj
 0002:00004ba0       ??_C@_1M@EJALMLHM@?$AAa?$AAr?$AA?9?$AAl?$AAb?$AA?$AA@ 00479ba0     libucrt:lcidtoname_downlevel.obj
 0002:00004bac       ??_C@_1M@MOBDBLOC@?$AAa?$AAr?$AA?9?$AAl?$AAy?$AA?$AA@ 00479bac     libucrt:lcidtoname_downlevel.obj
 0002:00004bb8       ??_C@_1M@JAOCLHDH@?$AAa?$AAr?$AA?9?$AAm?$AAa?$AA?$AA@ 00479bb8     libucrt:lcidtoname_downlevel.obj
 0002:00004bc4       ??_C@_1M@JHPMKJIE@?$AAa?$AAr?$AA?9?$AAo?$AAm?$AA?$AA@ 00479bc4     libucrt:lcidtoname_downlevel.obj
 0002:00004bd0       ??_C@_1M@OEPGHFNH@?$AAa?$AAr?$AA?9?$AAq?$AAa?$AA?$AA@ 00479bd0     libucrt:lcidtoname_downlevel.obj
 0002:00004bdc       ??_C@_1M@KJDONENM@?$AAa?$AAr?$AA?9?$AAs?$AAa?$AA?$AA@ 00479bdc     libucrt:lcidtoname_downlevel.obj
 0002:00004be8       ??_C@_1M@DMJDKLKM@?$AAa?$AAr?$AA?9?$AAs?$AAy?$AA?$AA@ 00479be8     libucrt:lcidtoname_downlevel.obj
 0002:00004bf4       ??_C@_1M@OMFIPEDC@?$AAa?$AAr?$AA?9?$AAt?$AAn?$AA?$AA@ 00479bf4     libucrt:lcidtoname_downlevel.obj
 0002:00004c00       ??_C@_1M@IHMHGAON@?$AAa?$AAr?$AA?9?$AAy?$AAe?$AA?$AA@ 00479c00     libucrt:lcidtoname_downlevel.obj
 0002:00004c0c       ??_C@_1BG@KDCPGJGB@?$AAa?$AAz?$AA?9?$AAa?$AAz?$AA?9?$AAc?$AAy?$AAr?$AAl?$AA?$AA@ 00479c0c     libucrt:lcidtoname_downlevel.obj
 0002:00004c24       ??_C@_1BG@IBCKDDOE@?$AAa?$AAz?$AA?9?$AAa?$AAz?$AA?9?$AAl?$AAa?$AAt?$AAn?$AA?$AA@ 00479c24     libucrt:lcidtoname_downlevel.obj
 0002:00004c3c       ??_C@_1M@EGPFDCPD@?$AAb?$AAe?$AA?9?$AAb?$AAy?$AA?$AA@ 00479c3c     libucrt:lcidtoname_downlevel.obj
 0002:00004c48       ??_C@_1M@PCMGMCGC@?$AAb?$AAg?$AA?9?$AAb?$AAg?$AA?$AA@ 00479c48     libucrt:lcidtoname_downlevel.obj
 0002:00004c54       ??_C@_1M@BJBMFGOB@?$AAb?$AAn?$AA?9?$AAi?$AAn?$AA?$AA@ 00479c54     libucrt:lcidtoname_downlevel.obj
 0002:00004c60       ??_C@_1BG@EAKMMACD@?$AAb?$AAs?$AA?9?$AAb?$AAa?$AA?9?$AAl?$AAa?$AAt?$AAn?$AA?$AA@ 00479c60     libucrt:lcidtoname_downlevel.obj
 0002:00004c78       ??_C@_1M@KGADAODK@?$AAc?$AAa?$AA?9?$AAe?$AAs?$AA?$AA@ 00479c78     libucrt:lcidtoname_downlevel.obj
 0002:00004c84       ??_C@_1M@COAJPDHI@?$AAc?$AAs?$AA?9?$AAc?$AAz?$AA?$AA@ 00479c84     libucrt:lcidtoname_downlevel.obj
 0002:00004c90       ??_C@_1M@DHBHFONH@?$AAc?$AAy?$AA?9?$AAg?$AAb?$AA?$AA@ 00479c90     libucrt:lcidtoname_downlevel.obj
 0002:00004c9c       ??_C@_1M@IMGKELGA@?$AAd?$AAa?$AA?9?$AAd?$AAk?$AA?$AA@ 00479c9c     libucrt:lcidtoname_downlevel.obj
 0002:00004ca8       ??_C@_1M@NNDGDNGA@?$AAd?$AAe?$AA?9?$AAa?$AAt?$AA?$AA@ 00479ca8     libucrt:lcidtoname_downlevel.obj
 0002:00004cb4       ??_C@_1M@IKDBHEEM@?$AAd?$AAe?$AA?9?$AAc?$AAh?$AA?$AA@ 00479cb4     libucrt:lcidtoname_downlevel.obj
 0002:00004cc0       ??_C@_1M@GFFOJMCJ@?$AAd?$AAe?$AA?9?$AAd?$AAe?$AA?$AA@ 00479cc0     libucrt:lcidtoname_downlevel.obj
 0002:00004ccc       ??_C@_1M@MDNLKBPM@?$AAd?$AAe?$AA?9?$AAl?$AAi?$AA?$AA@ 00479ccc     libucrt:lcidtoname_downlevel.obj
 0002:00004cd8       ??_C@_1M@NJBEEJNL@?$AAd?$AAe?$AA?9?$AAl?$AAu?$AA?$AA@ 00479cd8     libucrt:lcidtoname_downlevel.obj
 0002:00004ce4       ??_C@_1O@GNNELBAP@?$AAd?$AAi?$AAv?$AA?9?$AAm?$AAv?$AA?$AA@ 00479ce4     libucrt:lcidtoname_downlevel.obj
 0002:00004cf4       ??_C@_1M@EJLEOGAE@?$AAe?$AAl?$AA?9?$AAg?$AAr?$AA?$AA@ 00479cf4     libucrt:lcidtoname_downlevel.obj
 0002:00004d00       ??_C@_1M@GMPONJN@?$AAe?$AAn?$AA?9?$AAa?$AAu?$AA?$AA@ 00479d00     libucrt:lcidtoname_downlevel.obj
 0002:00004d0c       ??_C@_1M@NIDIIPGF@?$AAe?$AAn?$AA?9?$AAb?$AAz?$AA?$AA@ 00479d0c     libucrt:lcidtoname_downlevel.obj
 0002:00004d18       ??_C@_1M@JEHMIMFO@?$AAe?$AAn?$AA?9?$AAc?$AAa?$AA?$AA@ 00479d18     libucrt:lcidtoname_downlevel.obj
 0002:00004d24       ??_C@_1M@IGMJCDLA@?$AAe?$AAn?$AA?9?$AAc?$AAb?$AA?$AA@ 00479d24     libucrt:lcidtoname_downlevel.obj
 0002:00004d30       ??_C@_1M@BNFIGBKG@?$AAe?$AAn?$AA?9?$AAg?$AAb?$AA?$AA@ 00479d30     libucrt:lcidtoname_downlevel.obj
 0002:00004d3c       ??_C@_1M@LKIFDIGP@?$AAe?$AAn?$AA?9?$AAi?$AAe?$AA?$AA@ 00479d3c     libucrt:lcidtoname_downlevel.obj
 0002:00004d48       ??_C@_1M@PJKFGCCO@?$AAe?$AAn?$AA?9?$AAj?$AAm?$AA?$AA@ 00479d48     libucrt:lcidtoname_downlevel.obj
 0002:00004d54       ??_C@_1M@KPPKEPBO@?$AAe?$AAn?$AA?9?$AAn?$AAz?$AA?$AA@ 00479d54     libucrt:lcidtoname_downlevel.obj
 0002:00004d60       ??_C@_1M@GMDGLDOB@?$AAe?$AAn?$AA?9?$AAp?$AAh?$AA?$AA@ 00479d60     libucrt:lcidtoname_downlevel.obj
 0002:00004d6c       ??_C@_1M@ONGIBJNA@?$AAe?$AAn?$AA?9?$AAt?$AAt?$AA?$AA@ 00479d6c     libucrt:lcidtoname_downlevel.obj
 0002:00004d78       ??_C@_1M@LLODPCMM@?$AAe?$AAn?$AA?9?$AAu?$AAs?$AA?$AA@ 00479d78     libucrt:lcidtoname_downlevel.obj
 0002:00004d84       ??_C@_1M@LAKFNPAN@?$AAe?$AAn?$AA?9?$AAz?$AAa?$AA?$AA@ 00479d84     libucrt:lcidtoname_downlevel.obj
 0002:00004d90       ??_C@_1M@MFNHNHEO@?$AAe?$AAn?$AA?9?$AAz?$AAw?$AA?$AA@ 00479d90     libucrt:lcidtoname_downlevel.obj
 0002:00004d9c       ??_C@_1M@EJEINPHM@?$AAe?$AAs?$AA?9?$AAa?$AAr?$AA?$AA@ 00479d9c     libucrt:lcidtoname_downlevel.obj
 0002:00004da8       ??_C@_1M@GNKPCCJA@?$AAe?$AAs?$AA?9?$AAb?$AAo?$AA?$AA@ 00479da8     libucrt:lcidtoname_downlevel.obj
 0002:00004db4       ??_C@_1M@LEEGFONL@?$AAe?$AAs?$AA?9?$AAc?$AAl?$AA?$AA@ 00479db4     libucrt:lcidtoname_downlevel.obj
 0002:00004dc0       ??_C@_1M@KGPDPBDF@?$AAe?$AAs?$AA?9?$AAc?$AAo?$AA?$AA@ 00479dc0     libucrt:lcidtoname_downlevel.obj
 0002:00004dcc       ??_C@_1M@EIAHOHH@?$AAe?$AAs?$AA?9?$AAc?$AAr?$AA?$AA@ 00479dcc     libucrt:lcidtoname_downlevel.obj
 0002:00004dd8       ??_C@_1M@LLPGMBIN@?$AAe?$AAs?$AA?9?$AAd?$AAo?$AA?$AA@ 00479dd8     libucrt:lcidtoname_downlevel.obj
 0002:00004de4       ??_C@_1M@DKHMKNJA@?$AAe?$AAs?$AA?9?$AAe?$AAc?$AA?$AA@ 00479de4     libucrt:lcidtoname_downlevel.obj
 0002:00004df0       ??_C@_1M@GKGFPKAP@?$AAe?$AAs?$AA?9?$AAe?$AAs?$AA?$AA@ 00479df0     libucrt:lcidtoname_downlevel.obj
 0002:00004dfc       ??_C@_1M@LKHKGDLN@?$AAe?$AAs?$AA?9?$AAg?$AAt?$AA?$AA@ 00479dfc     libucrt:lcidtoname_downlevel.obj
 0002:00004e08       ??_C@_1M@HEIIGGJD@?$AAe?$AAs?$AA?9?$AAh?$AAn?$AA?$AA@ 00479e08     libucrt:lcidtoname_downlevel.obj
 0002:00004e14       ??_C@_1M@FBDHPPGD@?$AAe?$AAs?$AA?9?$AAm?$AAx?$AA?$AA@ 00479e14     libucrt:lcidtoname_downlevel.obj
 0002:00004e20       ??_C@_1M@DPAGLNDH@?$AAe?$AAs?$AA?9?$AAn?$AAi?$AA?$AA@ 00479e20     libucrt:lcidtoname_downlevel.obj
 0002:00004e2c       ??_C@_1M@MDGOPGDD@?$AAe?$AAs?$AA?9?$AAp?$AAa?$AA?$AA@ 00479e2c     libucrt:lcidtoname_downlevel.obj
 0002:00004e38       ??_C@_1M@EMAMGBGE@?$AAe?$AAs?$AA?9?$AAp?$AAe?$AA?$AA@ 00479e38     libucrt:lcidtoname_downlevel.obj
 0002:00004e44       ??_C@_1M@IBMCAOEC@?$AAe?$AAs?$AA?9?$AAp?$AAr?$AA?$AA@ 00479e44     libucrt:lcidtoname_downlevel.obj
 0002:00004e50       ??_C@_1M@FGMDIJED@?$AAe?$AAs?$AA?9?$AAp?$AAy?$AA?$AA@ 00479e50     libucrt:lcidtoname_downlevel.obj
 0002:00004e5c       ??_C@_1M@IIDEOLLL@?$AAe?$AAs?$AA?9?$AAs?$AAv?$AA?$AA@ 00479e5c     libucrt:lcidtoname_downlevel.obj
 0002:00004e68       ??_C@_1M@GAOBIPA@?$AAe?$AAs?$AA?9?$AAu?$AAy?$AA?$AA@ 00479e68     libucrt:lcidtoname_downlevel.obj
 0002:00004e74       ??_C@_1M@JKFFICHJ@?$AAe?$AAs?$AA?9?$AAv?$AAe?$AA?$AA@ 00479e74     libucrt:lcidtoname_downlevel.obj
 0002:00004e80       ??_C@_1M@PNMLOJDF@?$AAe?$AAt?$AA?9?$AAe?$AAe?$AA?$AA@ 00479e80     libucrt:lcidtoname_downlevel.obj
 0002:00004e8c       ??_C@_1M@GHHLIKEI@?$AAe?$AAu?$AA?9?$AAe?$AAs?$AA?$AA@ 00479e8c     libucrt:lcidtoname_downlevel.obj
 0002:00004e98       ??_C@_1M@PBNONODE@?$AAf?$AAa?$AA?9?$AAi?$AAr?$AA?$AA@ 00479e98     libucrt:lcidtoname_downlevel.obj
 0002:00004ea4       ??_C@_1M@JEEHPMIL@?$AAf?$AAi?$AA?9?$AAf?$AAi?$AA?$AA@ 00479ea4     libucrt:lcidtoname_downlevel.obj
 0002:00004eb0       ??_C@_1M@LMDCNDBA@?$AAf?$AAo?$AA?9?$AAf?$AAo?$AA?$AA@ 00479eb0     libucrt:lcidtoname_downlevel.obj
 0002:00004ebc       ??_C@_1M@JKEOHLDK@?$AAf?$AAr?$AA?9?$AAb?$AAe?$AA?$AA@ 00479ebc     libucrt:lcidtoname_downlevel.obj
 0002:00004ec8       ??_C@_1M@NOHADPMI@?$AAf?$AAr?$AA?9?$AAc?$AAa?$AA?$AA@ 00479ec8     libucrt:lcidtoname_downlevel.obj
 0002:00004ed4       ??_C@_1M@KDHIHAEC@?$AAf?$AAr?$AA?9?$AAc?$AAh?$AA?$AA@ 00479ed4     libucrt:lcidtoname_downlevel.obj
 0002:00004ee0       ??_C@_1M@MMBBFGAK@?$AAf?$AAr?$AA?9?$AAf?$AAr?$AA?$AA@ 00479ee0     libucrt:lcidtoname_downlevel.obj
 0002:00004eec       ??_C@_1M@PAFNENNF@?$AAf?$AAr?$AA?9?$AAl?$AAu?$AA?$AA@ 00479eec     libucrt:lcidtoname_downlevel.obj
 0002:00004ef8       ??_C@_1M@EOHDJGDD@?$AAf?$AAr?$AA?9?$AAm?$AAc?$AA?$AA@ 00479ef8     libucrt:lcidtoname_downlevel.obj
 0002:00004f04       ??_C@_1M@FAPLLOPF@?$AAg?$AAl?$AA?9?$AAe?$AAs?$AA?$AA@ 00479f04     libucrt:lcidtoname_downlevel.obj
 0002:00004f10       ??_C@_1M@FOPBFLOO@?$AAg?$AAu?$AA?9?$AAi?$AAn?$AA?$AA@ 00479f10     libucrt:lcidtoname_downlevel.obj
 0002:00004f1c       ??_C@_1M@KBMCINPM@?$AAh?$AAe?$AA?9?$AAi?$AAl?$AA?$AA@ 00479f1c     libucrt:lcidtoname_downlevel.obj
 0002:00004f28       ??_C@_1M@BBPHKFPJ@?$AAh?$AAi?$AA?9?$AAi?$AAn?$AA?$AA@ 00479f28     libucrt:lcidtoname_downlevel.obj
 0002:00004f34       ??_C@_1M@PMBNDPHD@?$AAh?$AAr?$AA?9?$AAb?$AAa?$AA?$AA@ 00479f34     libucrt:lcidtoname_downlevel.obj
 0002:00004f40       ??_C@_1M@BPCKOEGE@?$AAh?$AAr?$AA?9?$AAh?$AAr?$AA?$AA@ 00479f40     libucrt:lcidtoname_downlevel.obj
 0002:00004f4c       ??_C@_1M@GACBMHKE@?$AAh?$AAu?$AA?9?$AAh?$AAu?$AA?$AA@ 00479f4c     libucrt:lcidtoname_downlevel.obj
 0002:00004f58       ??_C@_1M@MILPAJJC@?$AAh?$AAy?$AA?9?$AAa?$AAm?$AA?$AA@ 00479f58     libucrt:lcidtoname_downlevel.obj
 0002:00004f64       ??_C@_1M@BABBICEC@?$AAi?$AAd?$AA?9?$AAi?$AAd?$AA?$AA@ 00479f64     libucrt:lcidtoname_downlevel.obj
 0002:00004f70       ??_C@_1M@BIKNHHPF@?$AAi?$AAs?$AA?9?$AAi?$AAs?$AA?$AA@ 00479f70     libucrt:lcidtoname_downlevel.obj
 0002:00004f7c       ??_C@_1M@NMPCJPHE@?$AAi?$AAt?$AA?9?$AAc?$AAh?$AA?$AA@ 00479f7c     libucrt:lcidtoname_downlevel.obj
 0002:00004f88       ??_C@_1M@GHKGFEDF@?$AAi?$AAt?$AA?9?$AAi?$AAt?$AA?$AA@ 00479f88     libucrt:lcidtoname_downlevel.obj
 0002:00004f94       ??_C@_1M@NIEJCJJA@?$AAj?$AAa?$AA?9?$AAj?$AAp?$AA?$AA@ 00479f94     libucrt:lcidtoname_downlevel.obj
 0002:00004fa0       ??_C@_1M@JILFNBIM@?$AAk?$AAa?$AA?9?$AAg?$AAe?$AA?$AA@ 00479fa0     libucrt:lcidtoname_downlevel.obj
 0002:00004fac       ??_C@_1M@PACPMGPH@?$AAk?$AAk?$AA?9?$AAk?$AAz?$AA?$AA@ 00479fac     libucrt:lcidtoname_downlevel.obj
 0002:00004fb8       ??_C@_1M@IELFGMHA@?$AAk?$AAn?$AA?9?$AAi?$AAn?$AA?$AA@ 00479fb8     libucrt:lcidtoname_downlevel.obj
 0002:00004fc4       ??_C@_1O@IBBJHCH@?$AAk?$AAo?$AAk?$AA?9?$AAi?$AAn?$AA?$AA@ 00479fc4     libucrt:lcidtoname_downlevel.obj
 0002:00004fd4       ??_C@_1M@DMHAEOGC@?$AAk?$AAo?$AA?9?$AAk?$AAr?$AA?$AA@ 00479fd4     libucrt:lcidtoname_downlevel.obj
 0002:00004fe0       ??_C@_1M@HBAHBIGA@?$AAk?$AAy?$AA?9?$AAk?$AAg?$AA?$AA@ 00479fe0     libucrt:lcidtoname_downlevel.obj
 0002:00004fec       ??_C@_1M@KPMILCJG@?$AAl?$AAt?$AA?9?$AAl?$AAt?$AA?$AA@ 00479fec     libucrt:lcidtoname_downlevel.obj
 0002:00004ff8       ??_C@_1M@BDEKKCA@?$AAl?$AAv?$AA?9?$AAl?$AAv?$AA?$AA@ 00479ff8     libucrt:lcidtoname_downlevel.obj
 0002:00005004       ??_C@_1M@ELCKCCJJ@?$AAm?$AAi?$AA?9?$AAn?$AAz?$AA?$AA@ 0047a004     libucrt:lcidtoname_downlevel.obj
 0002:00005010       ??_C@_1M@CBOOLAPA@?$AAm?$AAk?$AA?9?$AAm?$AAk?$AA?$AA@ 0047a010     libucrt:lcidtoname_downlevel.obj
 0002:0000501c       ??_C@_1M@GPHNBJKN@?$AAm?$AAl?$AA?9?$AAi?$AAn?$AA?$AA@ 0047a01c     libucrt:lcidtoname_downlevel.obj
 0002:00005028       ??_C@_1M@PABJILIG@?$AAm?$AAn?$AA?9?$AAm?$AAn?$AA?$AA@ 0047a028     libucrt:lcidtoname_downlevel.obj
 0002:00005034       ??_C@_1M@FGBKKIPG@?$AAm?$AAr?$AA?9?$AAi?$AAn?$AA?$AA@ 0047a034     libucrt:lcidtoname_downlevel.obj
 0002:00005040       ??_C@_1M@NDBPDDAL@?$AAm?$AAs?$AA?9?$AAb?$AAn?$AA?$AA@ 0047a040     libucrt:lcidtoname_downlevel.obj
 0002:0000504c       ??_C@_1M@OPIHOOPI@?$AAm?$AAs?$AA?9?$AAm?$AAy?$AA?$AA@ 0047a04c     libucrt:lcidtoname_downlevel.obj
 0002:00005058       ??_C@_1M@PPDBCNFM@?$AAm?$AAt?$AA?9?$AAm?$AAt?$AA?$AA@ 0047a058     libucrt:lcidtoname_downlevel.obj
 0002:00005064       ??_C@_1M@KDJDKMDD@?$AAn?$AAb?$AA?9?$AAn?$AAo?$AA?$AA@ 0047a064     libucrt:lcidtoname_downlevel.obj
 0002:00005070       ??_C@_1M@KFCFLMJP@?$AAn?$AAl?$AA?9?$AAb?$AAe?$AA?$AA@ 0047a070     libucrt:lcidtoname_downlevel.obj
 0002:0000507c       ??_C@_1M@KPOPDDGO@?$AAn?$AAl?$AA?9?$AAn?$AAl?$AA?$AA@ 0047a07c     libucrt:lcidtoname_downlevel.obj
 0002:00005088       ??_C@_1M@LJKPEMLN@?$AAn?$AAn?$AA?9?$AAn?$AAo?$AA?$AA@ 0047a088     libucrt:lcidtoname_downlevel.obj
 0002:00005094       ??_C@_1M@BDGHHBFL@?$AAn?$AAs?$AA?9?$AAz?$AAa?$AA?$AA@ 0047a094     libucrt:lcidtoname_downlevel.obj
 0002:000050a0       ??_C@_1M@IDEHOAP@?$AAp?$AAa?$AA?9?$AAi?$AAn?$AA?$AA@ 0047a0a0     libucrt:lcidtoname_downlevel.obj
 0002:000050ac       ??_C@_1M@HDBKGOGH@?$AAp?$AAl?$AA?9?$AAp?$AAl?$AA?$AA@ 0047a0ac     libucrt:lcidtoname_downlevel.obj
 0002:000050b8       ??_C@_1M@LJLLCMEH@?$AAp?$AAt?$AA?9?$AAb?$AAr?$AA?$AA@ 0047a0b8     libucrt:lcidtoname_downlevel.obj
 0002:000050c4       ??_C@_1M@NCMONAAL@?$AAp?$AAt?$AA?9?$AAp?$AAt?$AA?$AA@ 0047a0c4     libucrt:lcidtoname_downlevel.obj
 0002:000050d0       ??_C@_1O@EAKMAJDN@?$AAq?$AAu?$AAz?$AA?9?$AAb?$AAo?$AA?$AA@ 0047a0d0     libucrt:lcidtoname_downlevel.obj
 0002:000050e0       ??_C@_1O@BHHPIGDN@?$AAq?$AAu?$AAz?$AA?9?$AAe?$AAc?$AA?$AA@ 0047a0e0     libucrt:lcidtoname_downlevel.obj
 0002:000050f0       ??_C@_1O@GBAPEKMJ@?$AAq?$AAu?$AAz?$AA?9?$AAp?$AAe?$AA?$AA@ 0047a0f0     libucrt:lcidtoname_downlevel.obj
 0002:00005100       ??_C@_1M@CLGLEFBO@?$AAr?$AAo?$AA?9?$AAr?$AAo?$AA?$AA@ 0047a100     libucrt:lcidtoname_downlevel.obj
 0002:0000510c       ??_C@_1M@CEEDODME@?$AAr?$AAu?$AA?9?$AAr?$AAu?$AA?$AA@ 0047a10c     libucrt:lcidtoname_downlevel.obj
 0002:00005118       ??_C@_1M@HPKKKMPP@?$AAs?$AAa?$AA?9?$AAi?$AAn?$AA?$AA@ 0047a118     libucrt:lcidtoname_downlevel.obj
 0002:00005124       ??_C@_1M@BKMAIGOJ@?$AAs?$AAe?$AA?9?$AAf?$AAi?$AA?$AA@ 0047a124     libucrt:lcidtoname_downlevel.obj
 0002:00005130       ??_C@_1M@NDPIFLFI@?$AAs?$AAe?$AA?9?$AAn?$AAo?$AA?$AA@ 0047a130     libucrt:lcidtoname_downlevel.obj
 0002:0000513c       ??_C@_1M@DANKKHJ@?$AAs?$AAe?$AA?9?$AAs?$AAe?$AA?$AA@ 0047a13c     libucrt:lcidtoname_downlevel.obj
 0002:00005148       ??_C@_1M@PNBLONPJ@?$AAs?$AAk?$AA?9?$AAs?$AAk?$AA?$AA@ 0047a148     libucrt:lcidtoname_downlevel.obj
 0002:00005154       ??_C@_1M@LFMODOAL@?$AAs?$AAl?$AA?9?$AAs?$AAi?$AA?$AA@ 0047a154     libucrt:lcidtoname_downlevel.obj
 0002:00005160       ??_C@_1O@DFKOMPG@?$AAs?$AAm?$AAa?$AA?9?$AAn?$AAo?$AA?$AA@ 0047a160     libucrt:lcidtoname_downlevel.obj
 0002:00005170       ??_C@_1O@NDKPBNNH@?$AAs?$AAm?$AAa?$AA?9?$AAs?$AAe?$AA?$AA@ 0047a170     libucrt:lcidtoname_downlevel.obj
 0002:00005180       ??_C@_1O@PLLKBHAB@?$AAs?$AAm?$AAj?$AA?9?$AAn?$AAo?$AA?$AA@ 0047a180     libucrt:lcidtoname_downlevel.obj
 0002:00005190       ??_C@_1O@CLEPOGCA@?$AAs?$AAm?$AAj?$AA?9?$AAs?$AAe?$AA?$AA@ 0047a190     libucrt:lcidtoname_downlevel.obj
 0002:000051a0       ??_C@_1O@DLGJGKMK@?$AAs?$AAm?$AAn?$AA?9?$AAf?$AAi?$AA?$AA@ 0047a1a0     libucrt:lcidtoname_downlevel.obj
 0002:000051b0       ??_C@_1O@OJDJGAJC@?$AAs?$AAm?$AAs?$AA?9?$AAf?$AAi?$AA?$AA@ 0047a1b0     libucrt:lcidtoname_downlevel.obj
 0002:000051c0       ??_C@_1M@BOFOGHPB@?$AAs?$AAq?$AA?9?$AAa?$AAl?$AA?$AA@ 0047a1c0     libucrt:lcidtoname_downlevel.obj
 0002:000051cc       ??_C@_1BG@LJBBIPGB@?$AAs?$AAr?$AA?9?$AAb?$AAa?$AA?9?$AAc?$AAy?$AAr?$AAl?$AA?$AA@ 0047a1cc     libucrt:lcidtoname_downlevel.obj
 0002:000051e4       ??_C@_1BG@JLBENFOE@?$AAs?$AAr?$AA?9?$AAb?$AAa?$AA?9?$AAl?$AAa?$AAt?$AAn?$AA?$AA@ 0047a1e4     libucrt:lcidtoname_downlevel.obj
 0002:000051fc       ??_C@_1BG@KODPNHE@?$AAs?$AAr?$AA?9?$AAs?$AAp?$AA?9?$AAc?$AAy?$AAr?$AAl?$AA?$AA@ 0047a1fc     libucrt:lcidtoname_downlevel.obj
 0002:00005214       ??_C@_1BG@CIOGKHPB@?$AAs?$AAr?$AA?9?$AAs?$AAp?$AA?9?$AAl?$AAa?$AAt?$AAn?$AA?$AA@ 0047a214     libucrt:lcidtoname_downlevel.obj
 0002:0000522c       ??_C@_1M@NGFJLMAC@?$AAs?$AAv?$AA?9?$AAf?$AAi?$AA?$AA@ 0047a22c     libucrt:lcidtoname_downlevel.obj
 0002:00005238       ??_C@_1M@MPJEJAJC@?$AAs?$AAv?$AA?9?$AAs?$AAe?$AA?$AA@ 0047a238     libucrt:lcidtoname_downlevel.obj
 0002:00005244       ??_C@_1M@MPNDHLFK@?$AAs?$AAw?$AA?9?$AAk?$AAe?$AA?$AA@ 0047a244     libucrt:lcidtoname_downlevel.obj
 0002:00005250       ??_C@_1O@KOHBJJI@?$AAs?$AAy?$AAr?$AA?9?$AAs?$AAy?$AA?$AA@ 0047a250     libucrt:lcidtoname_downlevel.obj
 0002:00005260       ??_C@_1M@LDCEFHA@?$AAt?$AAa?$AA?9?$AAi?$AAn?$AA?$AA@ 0047a260     libucrt:lcidtoname_downlevel.obj
 0002:0000526c       ??_C@_1M@CNJOFAK@?$AAt?$AAe?$AA?9?$AAi?$AAn?$AA?$AA@ 0047a26c     libucrt:lcidtoname_downlevel.obj
 0002:00005278       ??_C@_1M@GNAECACD@?$AAt?$AAh?$AA?9?$AAt?$AAh?$AA?$AA@ 0047a278     libucrt:lcidtoname_downlevel.obj
 0002:00005284       ??_C@_1M@CHBIHOJO@?$AAt?$AAn?$AA?9?$AAz?$AAa?$AA?$AA@ 0047a284     libucrt:lcidtoname_downlevel.obj
 0002:00005290       ??_C@_1M@GCCMIGPJ@?$AAt?$AAr?$AA?9?$AAt?$AAr?$AA?$AA@ 0047a290     libucrt:lcidtoname_downlevel.obj
 0002:0000529c       ??_C@_1M@CELMCNBK@?$AAt?$AAt?$AA?9?$AAr?$AAu?$AA?$AA@ 0047a29c     libucrt:lcidtoname_downlevel.obj
 0002:000052a8       ??_C@_1M@KLMCELGA@?$AAu?$AAk?$AA?9?$AAu?$AAa?$AA?$AA@ 0047a2a8     libucrt:lcidtoname_downlevel.obj
 0002:000052b4       ??_C@_1M@EPAJJAJF@?$AAu?$AAr?$AA?9?$AAp?$AAk?$AA?$AA@ 0047a2b4     libucrt:lcidtoname_downlevel.obj
 0002:000052c0       ??_C@_1BG@GEGPMCDJ@?$AAu?$AAz?$AA?9?$AAu?$AAz?$AA?9?$AAc?$AAy?$AAr?$AAl?$AA?$AA@ 0047a2c0     libucrt:lcidtoname_downlevel.obj
 0002:000052d8       ??_C@_1BG@EGGKJILM@?$AAu?$AAz?$AA?9?$AAu?$AAz?$AA?9?$AAl?$AAa?$AAt?$AAn?$AA?$AA@ 0047a2d8     libucrt:lcidtoname_downlevel.obj
 0002:000052f0       ??_C@_1M@GFOCLFF@?$AAv?$AAi?$AA?9?$AAv?$AAn?$AA?$AA@ 0047a2f0     libucrt:lcidtoname_downlevel.obj
 0002:000052fc       ??_C@_1M@CPAMEDFI@?$AAx?$AAh?$AA?9?$AAz?$AAa?$AA?$AA@ 0047a2fc     libucrt:lcidtoname_downlevel.obj
 0002:00005308       ??_C@_1O@EBKIFIGN@?$AAz?$AAh?$AA?9?$AAc?$AAh?$AAs?$AA?$AA@ 0047a308     libucrt:lcidtoname_downlevel.obj
 0002:00005318       ??_C@_1O@NMHPGANE@?$AAz?$AAh?$AA?9?$AAc?$AAh?$AAt?$AA?$AA@ 0047a318     libucrt:lcidtoname_downlevel.obj
 0002:00005328       ??_C@_1M@LPINJOMC@?$AAz?$AAh?$AA?9?$AAc?$AAn?$AA?$AA@ 0047a328     libucrt:lcidtoname_downlevel.obj
 0002:00005334       ??_C@_1M@OCJEJODD@?$AAz?$AAh?$AA?9?$AAh?$AAk?$AA?$AA@ 0047a334     libucrt:lcidtoname_downlevel.obj
 0002:00005340       ??_C@_1M@DNDLJINH@?$AAz?$AAh?$AA?9?$AAm?$AAo?$AA?$AA@ 0047a340     libucrt:lcidtoname_downlevel.obj
 0002:0000534c       ??_C@_1M@MBFDNDND@?$AAz?$AAh?$AA?9?$AAs?$AAg?$AA?$AA@ 0047a34c     libucrt:lcidtoname_downlevel.obj
 0002:00005358       ??_C@_1M@IMEPLEPE@?$AAz?$AAh?$AA?9?$AAt?$AAw?$AA?$AA@ 0047a358     libucrt:lcidtoname_downlevel.obj
 0002:00005364       ??_C@_1M@BBGHNHJP@?$AAz?$AAu?$AA?9?$AAz?$AAa?$AA?$AA@ 0047a364     libucrt:lcidtoname_downlevel.obj
 0002:00005370       __days                     0047a370     libucrt:days.obj
 0002:000053a4       __lpdays                   0047a3a4     libucrt:days.obj
 0002:000053f0       ??_C@_1BA@BALFACEM@?$AAC?$AAO?$AAN?$AAO?$AAU?$AAT?$AA$?$AA?$AA@ 0047a3f0     libucrt:initcon.obj
 0002:00005560       __infinity                 0047a560     libucrt:87tran.obj
 0002:0000556a       __minfinity                0047a56a     libucrt:87tran.obj
 0002:00005574       __logemax                  0047a574     libucrt:87tran.obj
 0002:0000559a       __OP_EXPjmptab             0047a59a     libucrt:87tran.obj
 0002:000055c0       __indefinite               0047a5c0     libucrt:87disp.obj
 0002:000055ca       __piby2                    0047a5ca     libucrt:87disp.obj
 0002:000055d4       __piby4                    0047a5d4     libucrt:87disp.obj
 0002:00005608       __DEFAULT_CW_in_mem        0047a608     libucrt:common.obj
 0002:0000560a       __pi_by_2_to_61            0047a60a     libucrt:common.obj
 0002:00005644       ??_C@_03MGHMBJCF@log?$AA@  0047a644     libucrt:libm_error.obj
 0002:00005648       ??_C@_05HGHHAHAP@log10?$AA@ 0047a648     libucrt:libm_error.obj
 0002:00005650       ??_C@_03KHJOGHMM@exp?$AA@  0047a650     libucrt:libm_error.obj
 0002:00005654       ??_C@_03JGHBODFD@pow?$AA@  0047a654     libucrt:libm_error.obj
 0002:00005658       ??_C@_04FIHNOPOL@asin?$AA@ 0047a658     libucrt:libm_error.obj
 0002:00005660       ??_C@_04PDIFKINK@acos?$AA@ 0047a660     libucrt:libm_error.obj
 0002:00005668       ??_C@_04EIAKFFMI@sqrt?$AA@ 0047a668     libucrt:libm_error.obj
 0002:00005670       ___acrt_log10_table_t      0047a670     libucrt:log10_tables.obj
 0002:00005a80       ___acrt_log10_table_cb     0047aa80     libucrt:log10_tables.obj
 0002:00005e90       __real@3fe0000000000000    0047ae90     libucrt:powhlp.obj
 0002:00005e98       ??_C@_04FJHINJAO@tanh?$AA@ 0047ae98     libucrt:fpexcept.obj
 0002:00005ea0       ??_C@_04MLLJIGOK@atan?$AA@ 0047aea0     libucrt:fpexcept.obj
 0002:00005ea8       ??_C@_05KNGEOGJB@atan2?$AA@ 0047aea8     libucrt:fpexcept.obj
 0002:00005eb0       ??_C@_03BLEJJJBH@sin?$AA@  0047aeb0     libucrt:fpexcept.obj
 0002:00005eb4       ??_C@_03LALBNOCG@cos?$AA@  0047aeb4     libucrt:fpexcept.obj
 0002:00005eb8       ??_C@_03IIINPABG@tan?$AA@  0047aeb8     libucrt:fpexcept.obj
 0002:00005ebc       ??_C@_04GFPJNGEK@ceil?$AA@ 0047aebc     libucrt:fpexcept.obj
 0002:00005ec4       ??_C@_05PBJFFIGL@floor?$AA@ 0047aec4     libucrt:fpexcept.obj
 0002:00005ecc       ??_C@_04ODHECPBC@fabs?$AA@ 0047aecc     libucrt:fpexcept.obj
 0002:00005ed4       ??_C@_04EHEDPDJG@modf?$AA@ 0047aed4     libucrt:fpexcept.obj
 0002:00005edc       ??_C@_05CEJMAHNP@ldexp?$AA@ 0047aedc     libucrt:fpexcept.obj
 0002:00005ee4       ??_C@_05KBKMEMPO@_cabs?$AA@ 0047aee4     libucrt:fpexcept.obj
 0002:00005eec       ??_C@_06MEIMCGCF@_hypot?$AA@ 0047aeec     libucrt:fpexcept.obj
 0002:00005ef4       ??_C@_04KEPJIHGP@fmod?$AA@ 0047aef4     libucrt:fpexcept.obj
 0002:00005efc       ??_C@_05GKKHEGJL@frexp?$AA@ 0047aefc     libucrt:fpexcept.obj
 0002:00005f04       ??_C@_03MJLDFKDL@_y0?$AA@  0047af04     libucrt:fpexcept.obj
 0002:00005f08       ??_C@_03NAKIGLHK@_y1?$AA@  0047af08     libucrt:fpexcept.obj
 0002:00005f0c       ??_C@_03ONILCKOB@_yn?$AA@  0047af0c     libucrt:fpexcept.obj
 0002:00005f10       ??_C@_05JGDBENOH@_logb?$AA@ 0047af10     libucrt:fpexcept.obj
 0002:00005f18       ??_C@_0L@KDOEJCKC@_nextafter?$AA@ 0047af18     libucrt:fpexcept.obj
 0002:00006010       ??_C@_04COOMCNPB@sinh?$AA@ 0047b010     libucrt:fpexcept.obj
 0002:00006018       ??_C@_04HPJJNFIM@cosh?$AA@ 0047b018     libucrt:fpexcept.obj
 0002:00006020       __d_inf                    0047b020     libucrt:util.obj
 0002:00006028       __d_max                    0047b028     libucrt:util.obj
 0002:00006030       __d_mzero                  0047b030     libucrt:util.obj
 0002:00006448       ?num_usercommand_msgs@@3HA 0047b448     sprocket.obj
 0002:0000644c       ?num_system_msgs@@3HA      0047b44c     sprocket.obj
 0002:00006450       ?memory_stat_names@@3PAPBDA 0047b450     memory.obj
 0002:000064b8       ?num_client_msgs@@3HA      0047b4b8     sprocket.obj
 0002:000064bc       ??_C@_02JDPG@rb?$AA@       0047b4bc     rscload.obj
 0002:000064c0       ??_C@_09IBJHOPOJ@account?4c?$AA@ 0047b4c0     account.obj
 0002:000064cc       ??_C@_01LOCGONAA@?$AA?$AA@ 0047b4cc     account.obj
 0002:000064d0       ??_C@_04NOJCDH@?$CF02x?$AA@ 0047b4d0     account.obj
 0002:000064d8       ??_C@_0DK@BFDKGCJP@SuspendAccountAbsolute?3?5invalid?5@ 0047b4d8     account.obj
 0002:00006514       ??_C@_0DA@DJFJPGHK@SuspendAccountAbsolute?3?5cannot?5s@ 0047b514     account.obj
 0002:00006544       ??_C@_0CG@IDJDNHGJ@Suspension?5of?5account?5?$CFi?5?$CI?$CFs?$CJ?5li@ 0047b544     account.obj
 0002:0000656c       ??_C@_0CE@BLCJHCKP@Suspended?5account?5?$CFi?5?$CI?$CFs?$CJ?5until?5@ 0047b56c     account.obj
 0002:00006590       ??_C@_0DP@LCJNKKHN@SuspendAccountAbsolute?3?5tried?5to@ 0047b590     account.obj
 0002:000065d0       ??_C@_0DO@LCNNBEB@DeleteAccountAndAssociatedUsersB@ 0047b5d0     account.obj
 0002:00006610       ??_C@_0EM@MHCJMJGG@DeleteAccountAndAssociatedUsersB@ 0047b610     account.obj
 0002:0000665c       ??_C@_0DG@JCBGMEE@Attempting?5delete?5of?5account?5?$CFi?5@ 0047b65c     account.obj
 0002:00006698       ??_C@_0FD@NMJPGOJC@DeleteAccountAndAssociatedUsersB@ 0047b698     account.obj
 0002:000066ec       ??_C@_0CO@EIIAHGLD@Delete?5of?5account?5?$CFi?5failed?5?9?5un@ 0047b6ec     account.obj
 0002:0000671c       ??_C@_0CB@HNEFIHGN@Delete?5of?5account?5?$CFi?5successful?6@ 0047b71c     account.obj
 0002:00006740       ??_C@_0BE@EOIKPKMA@Administrator?5mode?6?$AA@ 0047b740     admin.obj
 0002:00006754       ??_C@_0DM@PALDNOLB@APSBPollSession?5released?5mutex?5i@ 0047b754     admin.obj
 0002:00006790       ??_C@_0CN@PFFFBGJC@APSB?5bailed?5waiting?5for?5mutex?5on@ 0047b790     admin.obj
 0002:000067c0       ??_C@_05IKDIHGAK@?$DO?5?$CFs?6?$AA@ 0047b7c0     admin.obj
 0002:000067c8       ??_C@_04GBOBDPBG@QUIT?$AA@ 0047b7c8     admin.obj
 0002:000067d0       ??_C@_04GJDJEMBE@?$CFc?$CFc?$AA@ 0047b7d0     admin.obj
 0002:000067d8       ??_C@_0M@KGBPIINM@admincons?4c?$AA@ 0047b7d8     admincons.obj
 0002:000067e4       ??_C@_02BMJICGCB@rt?$AA@   0047b7e4     admincons.obj
 0002:000067e8       ??_C@_0DA@LONGOFBP@LoadAdminConstants?5can?8t?5open?5?$CFs@ 0047b7e8     admincons.obj
 0002:00006818       ??_C@_04DFGAAIOO@?$DN?5?7?6?$AA@ 0047b818     admincons.obj
 0002:00006820       ??_C@_0DD@BDPMDDBP@LoadAdminConstants?5error?5reading@ 0047b820     admincons.obj
 0002:00006854       ??_C@_02IKAHHCAI@?$CFi?$AA@ 0047b854     admincons.obj
 0002:00006858       ??_C@_0DF@MNCCIOIJ@LoadAdminConstants?5error?5parsing@ 0047b858     admincons.obj
 0002:0000688d       ??_C@_00CNPNBAHC@?$AA@     0047b88d     adminfn.obj
 0002:00006890       ??_C@_06FHFOAHML@system?$AA@ 0047b890     adminfn.obj
 0002:00006898       ??_C@_02EGCJHIOB@id?$AA@   0047b898     adminfn.obj
 0002:0000689c       ??_C@_0BF@NIEFHCK@Show?5one?5timer?5by?5id?$AA@ 0047b89c     adminfn.obj
 0002:000068b4       ??_C@_07ONPBMBOP@message?$AA@ 0047b8b4     adminfn.obj
 0002:000068bc       ??_C@_0CC@BIOKKIHM@Show?5timers?5matching?5message?5nam@ 0047b8bc     adminfn.obj
 0002:000068e0       ??_C@_06IEOJBDIK@object?$AA@ 0047b8e0     adminfn.obj
 0002:000068e8       ??_C@_0BP@MLICPKOD@Show?5timers?5matching?5object?5ID?$AA@ 0047b8e8     adminfn.obj
 0002:00006908       ??_C@_07PMDLEBNF@account?$AA@ 0047b908     adminfn.obj
 0002:00006910       ??_C@_0CH@PMNLEHEM@Show?5one?5account?5by?5account?5id?5o@ 0047b910     adminfn.obj
 0002:00006938       ??_C@_08PCFHDHCP@accounts?$AA@ 0047b938     adminfn.obj
 0002:00006944       ??_C@_0BC@JECEGHOI@Show?5all?5accounts?$AA@ 0047b944     adminfn.obj
 0002:00006958       ??_C@_06MDLIGPKC@active?$AA@ 0047b958     adminfn.obj
 0002:00006960       ??_C@_0CI@OFCNFKFL@Show?5accounts?5active?5in?5the?5last@ 0047b960     adminfn.obj
 0002:00006988       ??_C@_06HBPBIFPH@belong?$AA@ 0047b988     adminfn.obj
 0002:00006990       ??_C@_0BN@LPPLONFF@Show?5objects?5belonging?5to?5id?$AA@ 0047b990     adminfn.obj
 0002:000069b0       ??_C@_08KOMEGBBJ@blockers?$AA@ 0047b9b0     adminfn.obj
 0002:000069bc       ??_C@_0DG@LLKLBCAO@Show?5all?5blockers?5in?5a?5room?5?$CITAG@ 0047b9bc     adminfn.obj
 0002:000069f4       ??_C@_06HJNKNPJJ@called?$AA@ 0047b9f4     adminfn.obj
 0002:000069fc       ??_C@_0BP@JAHNNOG@Show?5top?5?$CIint?$CJ?5called?5messages?$AA@ 0047b9fc     adminfn.obj
 0002:00006a1c       ??_C@_05FACACNJP@calls?$AA@ 0047ba1c     adminfn.obj
 0002:00006a24       ??_C@_0BN@BMJKECNK@Show?5top?5?$CIint?$CJ?5C?5call?5counts?$AA@ 0047ba24     adminfn.obj
 0002:00006a44       ??_C@_05ENKANFLO@class?$AA@ 0047ba44     adminfn.obj
 0002:00006a4c       ??_C@_0BG@LACPELNO@Show?5info?5about?5class?$AA@ 0047ba4c     adminfn.obj
 0002:00006a64       ??_C@_05DDECJJKE@clock?$AA@ 0047ba64     adminfn.obj
 0002:00006a6c       ??_C@_0BJ@EBDGHCMI@Show?5current?5server?5time?$AA@ 0047ba6c     adminfn.obj
 0002:00006a88       ??_C@_06HEJKKHEK@config?$AA@ 0047ba88     adminfn.obj
 0002:00006a90       ??_C@_0BK@JMNMBJG@Show?5configuration?5values?$AA@ 0047ba90     adminfn.obj
 0002:00006aac       ??_C@_08KFDOCAEB@constant?$AA@ 0047baac     adminfn.obj
 0002:00006ab8       ??_C@_0BN@GKDCLDNN@Show?5value?5of?5admin?5constant?$AA@ 0047bab8     adminfn.obj
 0002:00006ad8       ??_C@_07OBLKMMON@dynamic?$AA@ 0047bad8     adminfn.obj
 0002:00006ae0       ??_C@_0BL@HCDGEKMP@Show?5all?5dynamic?5resources?$AA@ 0047bae0     adminfn.obj
 0002:00006afc       ??_C@_05HKHCDHCL@email?$AA@ 0047bafc     adminfn.obj
 0002:00006b04       ??_C@_0CN@OJMBKLLJ@Show?5all?5accounts?5with?5a?5given?5e@ 0047bb04     adminfn.obj
 0002:00006b34       ??_C@_09BJOJOOIO@instances?$AA@ 0047bb34     adminfn.obj
 0002:00006b40       ??_C@_0BM@LOIHLBPM@Show?5all?5instances?5of?5class?$AA@ 0047bb40     adminfn.obj
 0002:00006b5c       ??_C@_04DONFEANM@list?$AA@ 0047bb5c     adminfn.obj
 0002:00006b64       ??_C@_0BH@MBLACMHC@Traverse?5?$CG?5show?5a?5list?$AA@ 0047bb64     adminfn.obj
 0002:00006b7c       ??_C@_08DDCFHFHH@listnode?$AA@ 0047bb7c     adminfn.obj
 0002:00006b88       ??_C@_0BJ@FOHBFFKB@Show?5one?5list?5node?5by?5id?$AA@ 0047bb88     adminfn.obj
 0002:00006ba4       ??_C@_07GEPGMPF@matches?$AA@ 0047bba4     adminfn.obj
 0002:00006bac       ??_C@_0DB@NFMMCOC@Show?5all?5instances?5of?5class?5whic@ 0047bbac     adminfn.obj
 0002:00006be0       ??_C@_06HLKELJGF@memory?$AA@ 0047bbe0     adminfn.obj
 0002:00006be8       ??_C@_0BH@KKPCNGNP@Show?5system?5memory?5use?$AA@ 0047bbe8     adminfn.obj
 0002:00006c00       ??_C@_0CA@CMDOICOA@Show?5info?5about?5class?5?$CG?5message?$AA@ 0047bc00     adminfn.obj
 0002:00006c20       ??_C@_04MEMAJGDJ@name?$AA@ 0047bc20     adminfn.obj
 0002:00006c28       ??_C@_0BJ@GFOALFFO@Show?5object?5of?5user?5name?$AA@ 0047bc28     adminfn.obj
 0002:00006c44       ??_C@_07JKCHMALH@nameids?$AA@ 0047bc44     adminfn.obj
 0002:00006c4c       ??_C@_0CC@FCLOLLK@Show?5all?5name?5ids?5?$CImessage?1parms@ 0047bc4c     adminfn.obj
 0002:00006c70       ??_C@_0BG@NKNFFPIO@Show?5one?5object?5by?5id?$AA@ 0047bc70     adminfn.obj
 0002:00006c88       ??_C@_08GFNEJDPJ@packages?$AA@ 0047bc88     adminfn.obj
 0002:00006c94       ??_C@_0BJ@KMMLDOPE@Show?5all?5packages?5loaded?$AA@ 0047bc94     adminfn.obj
 0002:00006cb0       ??_C@_08FCFPNNHF@protocol?$AA@ 0047bcb0     adminfn.obj
 0002:00006cbc       ??_C@_0BN@LCGAOJNC@Show?5protocol?5message?5counts?$AA@ 0047bcbc     adminfn.obj
 0002:00006cdc       ??_C@_0L@NENLNBDA@references?$AA@ 0047bcdc     adminfn.obj
 0002:00006ce8       ??_C@_0DN@IAGIPEPO@Show?5what?5objects?5or?5lists?5refer@ 0047bce8     adminfn.obj
 0002:00006d28       ??_C@_08NJJFDENH@resource?$AA@ 0047bd28     adminfn.obj
 0002:00006d34       ??_C@_0CB@PMJGLHIO@Show?5a?5resource?5by?5resource?5name@ 0047bd34     adminfn.obj
 0002:00006d58       ??_C@_09HCDAJAGP@roomtable?$AA@ 0047bd58     adminfn.obj
 0002:00006d64       ??_C@_0BF@EMFPNFDK@Show?5the?5rooms?5table?$AA@ 0047bd64     adminfn.obj
 0002:00006d7c       ??_C@_06DJIHEMFI@status?$AA@ 0047bd7c     adminfn.obj
 0002:00006d84       ??_C@_0BD@LJIMCFKB@Show?5system?5status?$AA@ 0047bd84     adminfn.obj
 0002:00006d98       ??_C@_06ICGJLFIM@string?$AA@ 0047bd98     adminfn.obj
 0002:00006da0       ??_C@_0BN@PDICPBGK@Show?5one?5string?5by?5string?5id?$AA@ 0047bda0     adminfn.obj
 0002:00006dc0       ??_C@_09PAHKPJCJ@suspended?$AA@ 0047bdc0     adminfn.obj
 0002:00006dcc       ??_C@_0BM@BFIIMJEJ@Show?5all?5suspended?5accounts?$AA@ 0047bdcc     adminfn.obj
 0002:00006de8       ??_C@_09HGDFMCID@systimers?$AA@ 0047bde8     adminfn.obj
 0002:00006df4       ??_C@_0BD@OLHJMBBE@Show?5system?5timers?$AA@ 0047bdf4     adminfn.obj
 0002:00006e08       ??_C@_09PDFCFBBP@hashtable?$AA@ 0047be08     adminfn.obj
 0002:00006e14       ??_C@_0BC@HCFJKAHN@Show?5a?5hash?5table?$AA@ 0047be14     adminfn.obj
 0002:00006e28       ??_C@_05LCLENNFI@table?$AA@ 0047be28     adminfn.obj
 0002:00006e30       ??_C@_05NAPFDJNG@timer?$AA@ 0047be30     adminfn.obj
 0002:00006e38       ??_C@_0BB@KMMHKNAO@Timer?5subcommand?$AA@ 0047be38     adminfn.obj
 0002:00006e4c       ??_C@_06GLHCKION@timers?$AA@ 0047be4c     adminfn.obj
 0002:00006e54       ??_C@_0BA@GKNMOOCP@Show?5all?5timers?$AA@ 0047be54     adminfn.obj
 0002:00006e64       ??_C@_0M@OPGLGODJ@transmitted?$AA@ 0047be64     adminfn.obj
 0002:00006e70       ??_C@_0CL@DHHNJFEB@Show?5?$CD?5of?5bytes?5transmitted?5in?5l@ 0047be70     adminfn.obj
 0002:00006e9c       ??_C@_05HNCIIKBA@usage?$AA@ 0047be9c     adminfn.obj
 0002:00006ea4       ??_C@_0BD@HJMJGGOK@Show?5current?5usage?$AA@ 0047bea4     adminfn.obj
 0002:00006eb8       ??_C@_04CCHAHKJA@user?$AA@ 0047beb8     adminfn.obj
 0002:00006ec0       ??_C@_0CD@IHBMNGHM@Show?5one?5user?5by?5name?5or?5object?5@ 0047bec0     adminfn.obj
 0002:00006ee4       ??_C@_05PEDPMJAL@users?$AA@ 0047bee4     adminfn.obj
 0002:00006eec       ??_C@_0P@IBAIANEK@Show?5all?5users?$AA@ 0047beec     adminfn.obj
 0002:00006efc       ??_C@_07JKABFLJI@credits?$AA@ 0047befc     adminfn.obj
 0002:00006f08       ??_C@_0ED@CIGKBJGC@Set?5an?5account?8s?5number?5of?5credi@ 0047bf08     adminfn.obj
 0002:00006f4c       ??_C@_0DA@HJAIOFJJ@Set?5account?5name?5by?5account?5numb@ 0047bf4c     adminfn.obj
 0002:00006f80       ??_C@_0EG@OKOPJCMK@Set?5an?5object?5to?5be?5the?5game?5obj@ 0047bf80     adminfn.obj
 0002:00006fc8       ??_C@_08NLHBPEGP@password?$AA@ 0047bfc8     adminfn.obj
 0002:00006fd4       ??_C@_0CM@IMDCMNMB@Set?5password?5by?5account?5number?5a@ 0047bfd4     adminfn.obj
 0002:00007000       ??_C@_0CG@PCBCFEFC@Set?5email?5by?5account?5number?5and?5@ 0047c000     adminfn.obj
 0002:00007028       ??_C@_0DD@CFIPNCEN@Suspends?5account?5by?5name?5or?5id?5f@ 0047c028     adminfn.obj
 0002:0000705c       ??_C@_0DC@DEDMPHFH@Suspends?5account?5by?5user?5name?5fo@ 0047c05c     adminfn.obj
 0002:00007090       ??_C@_0CM@BCLHPBNJ@Unsuspends?5account?5by?5user?5name?5@ 0047c090     adminfn.obj
 0002:000070bc       ??_C@_0CN@LIHCNJOL@Unsuspends?5account?5by?5name?5or?5id@ 0047c0bc     adminfn.obj
 0002:000070ec       ??_C@_09EANBMCK@timerheap?$AA@ 0047c0ec     adminfn.obj
 0002:000070f8       ??_C@_0CG@JJPLBEOI@Checks?5the?5validity?5of?5the?5timer@ 0047c0f8     adminfn.obj
 0002:00007120       ??_C@_07GOBOHMJA@boolean?$AA@ 0047c120     adminfn.obj
 0002:00007128       ??_C@_0EK@MGEAIF@Set?5a?5modifiable?5boolean?5configu@ 0047c128     adminfn.obj
 0002:00007174       ??_C@_07LKHFMGFB@integer?$AA@ 0047c174     adminfn.obj
 0002:00007180       ??_C@_0FF@FLGCDKHM@Set?5a?5modifiable?5integer?5configu@ 0047c180     adminfn.obj
 0002:000071d8       ??_C@_0FD@EKCPMCAM@Set?5a?5modifiable?5string?5configur@ 0047c1d8     adminfn.obj
 0002:0000722c       ??_C@_0BD@GEAOFEO@Account?5subcommand?$AA@ 0047c22c     adminfn.obj
 0002:00007240       ??_C@_0DG@KDHFLAKD@Set?5classvar?5by?5name?5of?5class?0?5n@ 0047c240     adminfn.obj
 0002:00007278       ??_C@_0BC@HOJAFLAO@Config?5subcommand?$AA@ 0047c278     adminfn.obj
 0002:0000728c       ??_C@_0CB@IHBPLBAE@Set?5object?5by?5id?5single?5property@ 0047c28c     adminfn.obj
 0002:000072b0       ??_C@_0EH@PHKKKCLH@Create?5account?5by?5type?5?$CIuser?1adm@ 0047c2b0     adminfn.obj
 0002:000072f8       ??_C@_05JEBDMKHG@admin?$AA@ 0047c2f8     adminfn.obj
 0002:00007300       ??_C@_0CC@EPPGPLDL@Create?5admin?5object?5by?5account?5i@ 0047c300     adminfn.obj
 0002:00007324       ??_C@_09HGGIAPOB@automated?$AA@ 0047c324     adminfn.obj
 0002:00007330       ??_C@_0DE@GFPJKMLE@Create?5account?5and?5user?5by?5name?0@ 0047c330     adminfn.obj
 0002:00007364       ??_C@_02JPDDFAPL@dm?$AA@   0047c364     adminfn.obj
 0002:00007368       ??_C@_0BP@GONHGIHA@Create?5DM?5object?5by?5account?5id?$AA@ 0047c368     adminfn.obj
 0002:00007388       ??_C@_02HCBHEC@ec?$AA@     0047c388     adminfn.obj
 0002:0000738c       ??_C@_0CM@LOLKOAPB@Create?5escaped?5convict?5object?5by@ 0047c38c     adminfn.obj
 0002:000073b8       ??_C@_0BB@FIBNNHLJ@Create?5list?5node?$AA@ 0047c3b8     adminfn.obj
 0002:000073cc       ??_C@_0CG@IIBDNMHB@Create?5object?5by?5class?5name?5and?5@ 0047c3cc     adminfn.obj
 0002:000073f4       ??_C@_0BH@JKKGLPEP@Create?5resource?5string?$AA@ 0047c3f4     adminfn.obj
 0002:0000740c       ??_C@_0BN@LABKACJG@Create?5table?5of?5a?5given?5size?$AA@ 0047c40c     adminfn.obj
 0002:0000742c       ??_C@_0CI@MEKGHPBO@Create?5timer?5for?5obj?5id?0?5message@ 0047c42c     adminfn.obj
 0002:00007454       ??_C@_0CB@IAMOGPOI@Create?5user?5object?5by?5account?5id@ 0047c454     adminfn.obj
 0002:00007478       ??_C@_0BC@NLOACJBL@useroneachaccount?$AA@ 0047c478     adminfn.obj
 0002:0000748c       ??_C@_0CE@EHIJGDFK@Add?5one?5user?5object?5to?5each?5acco@ 0047c48c     adminfn.obj
 0002:000074b0       ??_C@_0BM@IHHNBPMO@Delete?5account?5?$CG?5user?5by?5ID?$AA@ 0047c4b0     adminfn.obj
 0002:000074cc       ??_C@_06OJAIHGIC@unused?$AA@ 0047c4cc     adminfn.obj
 0002:000074d4       ??_C@_0BH@PKIJIIFE@Delete?5unused?5accounts?$AA@ 0047c4d4     adminfn.obj
 0002:000074ec       ??_C@_0BD@PFABENKO@Delete?5timer?5by?5ID?$AA@ 0047c4ec     adminfn.obj
 0002:00007500       ??_C@_0BJ@BIGNLPJK@Delete?5user?5by?5object?5ID?$AA@ 0047c500     adminfn.obj
 0002:0000751c       ??_C@_0BM@ONFCMAPE@Send?5object?5by?5ID?5a?5message?$AA@ 0047c51c     adminfn.obj
 0002:00007538       ??_C@_0CI@NMBAGNBJ@Send?5a?5message?5to?5each?5object?5in@ 0047c538     adminfn.obj
 0002:00007560       ??_C@_0BH@CJOPJJKI@Send?5integer?5a?5message?$AA@ 0047c560     adminfn.obj
 0002:00007578       ??_C@_0CH@DCACGIN@Send?5logged?5in?5people?5a?5system?5m@ 0047c578     adminfn.obj
 0002:000075a0       ??_C@_0CE@EPELOOHC@Send?5all?5objects?5of?5class?5a?5mess@ 0047c5a0     adminfn.obj
 0002:000075c4       ??_C@_03MCADLMAF@off?$AA@  0047c5c4     adminfn.obj
 0002:000075c8       ??_C@_0CL@LPNAPGKH@Stop?5tracing?5message?5by?5class?5?$CG?5@ 0047c5c8     adminfn.obj
 0002:000075f4       ??_C@_02LIELOMNJ@on?$AA@   0047c5f4     adminfn.obj
 0002:000075f8       ??_C@_0CI@OLIBCNDA@Trace?5message?5by?5class?5?$CG?5message@ 0047c5f8     adminfn.obj
 0002:00007620       ??_C@_0CK@LCBNINNI@Add?5credits?5by?5account?5number?5an@ 0047c620     adminfn.obj
 0002:0000764c       ??_C@_0CB@BGJIBCPA@Kick?5one?5account?5out?5of?5the?5game@ 0047c64c     adminfn.obj
 0002:00007670       ??_C@_03NFKEKGGK@all?$AA@  0047c670     adminfn.obj
 0002:00007674       ??_C@_0BP@OFCIEKMB@Kick?5all?5users?5out?5of?5the?5game?$AA@ 0047c674     adminfn.obj
 0002:00007694       ??_C@_0BD@HIMJJNOC@Hangup?5one?5account?$AA@ 0047c694     adminfn.obj
 0002:000076a8       ??_C@_0BB@CPLGIHDE@Hangup?5all?5users?$AA@ 0047c6a8     adminfn.obj
 0002:000076bc       ??_C@_02GIIHKPLE@ip?$AA@   0047c6bc     adminfn.obj
 0002:000076c0       ??_C@_0CC@EJCIDLMK@Block?5an?5IP?5address?5?$CItemporarily@ 0047c6c0     adminfn.obj
 0002:000076e4       ??_C@_07KMJDECGK@session?$AA@ 0047c6e4     adminfn.obj
 0002:000076ec       ??_C@_0BD@CIGBJOFN@Hangup?5one?5session?$AA@ 0047c6ec     adminfn.obj
 0002:00007700       ??_C@_0BA@PIIAKIG@Hangup?5one?5user?$AA@ 0047c700     adminfn.obj
 0002:00007710       ??_C@_04MJNAPEEI@game?$AA@ 0047c710     adminfn.obj
 0002:00007718       ??_C@_0CM@NMFAIAMO@Reload?5game?5from?5any?5save?5time?5?$CI@ 0047c718     adminfn.obj
 0002:00007744       ??_C@_04GJFDDCGE@motd?$AA@ 0047c744     adminfn.obj
 0002:0000774c       ??_C@_0CE@HOEINBPI@Reload?5message?5of?5the?5day?5from?5f@ 0047c74c     adminfn.obj
 0002:00007770       ??_C@_0CF@FDJFFHDI@Rescan?5upload?5directory?5for?5pack@ 0047c770     adminfn.obj
 0002:00007798       ??_C@_0CD@KGLGCFHK@Save?5game?5and?5reload?5all?5kod?0?5mo@ 0047c798     adminfn.obj
 0002:000077bc       ??_C@_0DN@CKFIHBJE@Create?5specific?5account?5and?5user@ 0047c7bc     adminfn.obj
 0002:000077fc       ??_C@_07CKFCPMAK@highest?$AA@ 0047c7fc     adminfn.obj
 0002:00007804       ??_C@_0BM@GIIHMLOG@Reset?5highest?5timed?5message?$AA@ 0047c804     adminfn.obj
 0002:00007820       ??_C@_08CAIPDDMG@systimer?$AA@ 0047c820     adminfn.obj
 0002:0000782c       ??_C@_0BH@BFMMDNLC@Disable?5a?5system?5timer?$AA@ 0047c82c     adminfn.obj
 0002:00007844       ??_C@_0BG@EEJLKLMJ@Enable?5a?5system?5timer?$AA@ 0047c844     adminfn.obj
 0002:0000785c       ??_C@_06DFKGCLMP@nosave?$AA@ 0047c85c     adminfn.obj
 0002:00007864       ??_C@_0CE@KNKGKMIH@Shut?5down?5the?5server?5without?5sav@ 0047c864     adminfn.obj
 0002:00007888       ??_C@_04EMMDIJJL@save?$AA@ 0047c888     adminfn.obj
 0002:00007890       ??_C@_0CD@EBOCDCCE@Save?5game?5and?5shut?5down?5the?5serv@ 0047c890     adminfn.obj
 0002:000078b4       ??_C@_0O@DFOPLFKA@configuration?$AA@ 0047c8b4     adminfn.obj
 0002:000078c4       ??_C@_0BC@BPKCABCA@Save?5blakserv?4cfg?$AA@ 0047c8c4     adminfn.obj
 0002:000078d8       ??_C@_0CH@DJBJLCEM@Save?5game?5?$CIwill?5garbage?5collect?5@ 0047c8d8     adminfn.obj
 0002:00007900       ??_C@_03BDGOHNNK@add?$AA@  0047c900     adminfn.obj
 0002:00007904       ??_C@_0P@CLADAIEA@Add?5subcommand?$AA@ 0047c904     adminfn.obj
 0002:00007914       ??_C@_05KJHPNPAA@check?$AA@ 0047c914     adminfn.obj
 0002:0000791c       ??_C@_0BB@DBLFPCKK@Check?5subcommand?$AA@ 0047c91c     adminfn.obj
 0002:00007930       ??_C@_06HBNONAG@create?$AA@ 0047c930     adminfn.obj
 0002:00007938       ??_C@_0BC@LLBLMLK@Create?5subcommand?$AA@ 0047c938     adminfn.obj
 0002:0000794c       ??_C@_06FOBLBEIN@delete?$AA@ 0047c94c     adminfn.obj
 0002:00007954       ??_C@_0BC@IKFLDIFF@Delete?5subcommand?$AA@ 0047c954     adminfn.obj
 0002:00007968       ??_C@_07DBNODEFN@disable?$AA@ 0047c968     adminfn.obj
 0002:00007970       ??_C@_0BD@EKAAOJAK@Disable?5subcommand?$AA@ 0047c970     adminfn.obj
 0002:00007984       ??_C@_06OFNJOBDK@enable?$AA@ 0047c984     adminfn.obj
 0002:0000798c       ??_C@_0BC@BHCDPFLH@Enable?5subcommand?$AA@ 0047c98c     adminfn.obj
 0002:000079a0       ??_C@_07BOKCJEKD@garbage?$AA@ 0047c9a0     adminfn.obj
 0002:000079a8       ??_C@_0BA@CMNLNCBL@Garbage?5collect?$AA@ 0047c9a8     adminfn.obj
 0002:000079b8       ??_C@_06OEJECLCH@hangup?$AA@ 0047c9b8     adminfn.obj
 0002:000079c0       ??_C@_0BC@POKLAGNN@Hangup?5subcommand?$AA@ 0047c9c0     adminfn.obj
 0002:000079d4       ??_C@_04MKMCLCOO@lock?$AA@ 0047c9d4     adminfn.obj
 0002:000079dc       ??_C@_0O@IPIBPANC@Lock?5the?5game?$AA@ 0047c9dc     adminfn.obj
 0002:000079ec       ??_C@_07HFEIDCAD@kickoff?$AA@ 0047c9ec     adminfn.obj
 0002:000079f4       ??_C@_0BD@HJIOJIMM@Kickoff?5subcommand?$AA@ 0047c9f4     adminfn.obj
 0002:00007a08       ??_C@_04FFKLPPHM@mail?$AA@ 0047ca08     adminfn.obj
 0002:00007a10       ??_C@_0BI@CKHNKJLL@Read?5administrator?5mail?$AA@ 0047ca10     adminfn.obj
 0002:00007a28       ??_C@_04KJJCFCK@mark?$AA@  0047ca28     adminfn.obj
 0002:00007a30       ??_C@_0CJ@MFODCBIA@Mark?5all?5channel?5logs?5with?5a?5das@ 0047ca30     adminfn.obj
 0002:00007a5c       ??_C@_04BGIHDKAM@page?$AA@ 0047ca5c     adminfn.obj
 0002:00007a64       ??_C@_0BB@GEGBKLGG@Page?5the?5console?$AA@ 0047ca64     adminfn.obj
 0002:00007a78       ??_C@_04POLDLDMI@read?$AA@ 0047ca78     adminfn.obj
 0002:00007a80       ??_C@_0DD@FGDPHHEJ@Read?5admin?5commands?5from?5a?5file?0@ 0047ca80     adminfn.obj
 0002:00007ab4       ??_C@_08DKCGGDFK@recreate?$AA@ 0047cab4     adminfn.obj
 0002:00007ac0       ??_C@_0BE@HEMPDKHD@Recreate?5subcommand?$AA@ 0047cac0     adminfn.obj
 0002:00007ad4       ??_C@_06DGFOANMH@reload?$AA@ 0047cad4     adminfn.obj
 0002:00007adc       ??_C@_0BC@PCAMCOFK@Reload?5subcommand?$AA@ 0047cadc     adminfn.obj
 0002:00007af0       ??_C@_05CFMALAOA@reset?$AA@ 0047caf0     adminfn.obj
 0002:00007af8       ??_C@_0BB@KFCFJBCJ@Reset?5subcommand?$AA@ 0047caf8     adminfn.obj
 0002:00007b0c       ??_C@_0BA@CDHFCDLO@Save?5subcommand?$AA@ 0047cb0c     adminfn.obj
 0002:00007b1c       ??_C@_03BANJEMDJ@say?$AA@  0047cb1c     adminfn.obj
 0002:00007b20       ??_C@_0CB@HDEHAHOI@Say?5text?5to?5all?5admins?5logged?5in@ 0047cb20     adminfn.obj
 0002:00007b44       ??_C@_04MIIPNNEF@send?$AA@ 0047cb44     adminfn.obj
 0002:00007b4c       ??_C@_0BA@CBHELNAC@Send?5subcommand?$AA@ 0047cb4c     adminfn.obj
 0002:00007b5c       ??_C@_03KCHOJKKI@set?$AA@  0047cb5c     adminfn.obj
 0002:00007b60       ??_C@_0P@OOOPGBDC@Set?5subcommand?$AA@ 0047cb60     adminfn.obj
 0002:00007b70       ??_C@_04FKMICODN@show?$AA@ 0047cb70     adminfn.obj
 0002:00007b78       ??_C@_0BA@EJLIOEGM@Show?5subcommand?$AA@ 0047cb78     adminfn.obj
 0002:00007b88       ??_C@_07DNBGJJHB@suspend?$AA@ 0047cb88     adminfn.obj
 0002:00007b90       ??_C@_0BD@MOJAMBGE@Suspend?5subcommand?$AA@ 0047cb90     adminfn.obj
 0002:00007ba4       ??_C@_09DACGJFPO@terminate?$AA@ 0047cba4     adminfn.obj
 0002:00007bb0       ??_C@_0BF@DEMNGGHM@Terminate?5subcommand?$AA@ 0047cbb0     adminfn.obj
 0002:00007bc8       ??_C@_05IMBNNINJ@trace?$AA@ 0047cbc8     adminfn.obj
 0002:00007bd0       ??_C@_0BB@GEHIPKPN@Trace?5subcommand?$AA@ 0047cbd0     adminfn.obj
 0002:00007be4       ??_C@_06BNCCALCL@unlock?$AA@ 0047cbe4     adminfn.obj
 0002:00007bec       ??_C@_0BA@GCKIPCHM@Unlock?5the?5game?$AA@ 0047cbec     adminfn.obj
 0002:00007bfc       ??_C@_09DPHPDKIE@unsuspend?$AA@ 0047cbfc     adminfn.obj
 0002:00007c08       ??_C@_0BF@HHMCNING@Unsuspend?5subcommand?$AA@ 0047cc08     adminfn.obj
 0002:00007c20       ??_C@_03IMPCFFDG@who?$AA@  0047cc20     adminfn.obj
 0002:00007c24       ??_C@_0BN@JKKPHBMH@Show?5every?5account?5logged?5on?$AA@ 0047cc24     adminfn.obj
 0002:00007c48       ??_C@_0EA@ELAFHHMI@SendAdminBuffer?5sent?5only?5first?5@ 0047cc48     adminfn.obj
 0002:00007c88       ??_C@_0CE@NJBMPBL@SendAdminBuffer?5got?5invalid?5buff@ 0047cc88     adminfn.obj
 0002:00007cb0       ??_C@_0EE@ELMLPHAE@SendAdminBuffer?5called?0?5SESSION?5@ 0047ccb0     adminfn.obj
 0002:00007cf4       ??_C@_0CJ@BKKENPKO@TryAdminCommand?5got?5invalid?5SESS@ 0047ccf4     adminfn.obj
 0002:00007d20       ??_C@_0CM@JGOODJDC@TryAdminCommand?5entered?5with?5bli@ 0047cd20     adminfn.obj
 0002:00007d4c       ??_C@_0BI@ONOLCDEA@Session?3?5M?5Command?3?5?$CFs?6?$AA@ 0047cd4c     adminfn.obj
 0002:00007d64       ??_C@_0BJ@LHACPGNB@Session?3?5?$CFi?5Command?3?5?$CFs?6?$AA@ 0047cd64     adminfn.obj
 0002:00007d80       ??_C@_03ILLHFMNI@?5?7?6?$AA@ 0047cd80     adminfn.obj
 0002:00007d84       ??_C@_0CE@HOFIFAGG@AdminTable?5got?5invalid?5SESSION?5?$CF@ 0047cd84     adminfn.obj
 0002:00007da8       ??_C@_04DOKPJKJF@HELP?$AA@ 0047cda8     adminfn.obj
 0002:00007db0       ??_C@_01OGPIMHDM@?$DP?$AA@ 0047cdb0     adminfn.obj
 0002:00007db4       ??_C@_0CP@BCFGIOHK@Help?5is?5unavailable?5through?5main@ 0047cdb4     adminfn.obj
 0002:00007de4       ??_C@_0CA@EMPHAPNC@Ambiguous?5command?$DL?5try?5?8help?8?4?6?$AA@ 0047cde4     adminfn.obj
 0002:00007e04       ??_C@_0BO@LMNMMFNP@Unknown?5command?$DL?5try?5?8help?8?4?6?$AA@ 0047ce04     adminfn.obj
 0002:00007e24       ??_C@_0CJ@BADIEBKL@You?5do?5not?5have?5access?5to?5this?5c@ 0047ce24     adminfn.obj
 0002:00007e50       ??_C@_0BI@GBPCOGJK@Missing?5parameter?5?$CFlu?4?6?$AA@ 0047ce50     adminfn.obj
 0002:00007e68       ??_C@_02DPKJAMEF@?$CFd?$AA@ 0047ce68     adminfn.obj
 0002:00007e6c       ??_C@_0CK@IAPNIADJ@Parameter?5?$CFd?5should?5be?5an?5int?0?5n@ 0047ce6c     adminfn.obj
 0002:00007e98       ??_C@_0BJ@OOJOCIOL@Missing?5text?5parameter?4?6?$AA@ 0047ce98     adminfn.obj
 0002:00007eb4       ??_C@_0CH@OIFMLMPI@Too?5many?5parameters?0?5command?5ign@ 0047ceb4     adminfn.obj
 0002:00007edc       ??_C@_0CA@PGFOCJPG@?8?$CFs?8?5is?5not?5a?5valid?5parameter?4?6?$AA@ 0047cedc     adminfn.obj
 0002:00007efc       ??_C@_0CL@MKKILLIP@Blakod?5parameter?5?$CFlu?5needs?5tag?5a@ 0047cefc     adminfn.obj
 0002:00007f28       ??_C@_0CH@OKLKBFDL@Blakod?5parameter?5?$CFlu?5has?5invalid@ 0047cf28     adminfn.obj
 0002:00007f50       ??_C@_0CC@ENCDLMIO@Blakod?5parameter?5?$CFlu?5needs?5value@ 0047cf50     adminfn.obj
 0002:00007f74       ??_C@_0CD@MPOGILCN@Blakod?5parameter?5?$CFlu?5needs?5value@ 0047cf74     adminfn.obj
 0002:00007f98       ??_C@_04DFAHIJNB@SELF?$AA@ 0047cf98     adminfn.obj
 0002:00007fa0       ??_C@_0CI@PHKDGMHA@Blakod?5parameter?5?$CFlu?5has?5invalid@ 0047cfa0     adminfn.obj
 0002:00007fc8       ??_C@_0CP@OMAAKECP@Blakod?5parameter?5?$CFlu?5references?5@ 0047cfc8     adminfn.obj
 0002:00007ff8       ??_C@_06EBHEHDOF@?$CF?912s?5?$AA@ 0047cff8     adminfn.obj
 0002:00008000       ??_C@_01CLKCMJKC@?5?$AA@   0047d000     adminfn.obj
 0002:00008004       ??_C@_01CPLAODJH@S?$AA@    0047d004     adminfn.obj
 0002:00008008       ??_C@_01JPJNBJEM@I?$AA@    0047d008     adminfn.obj
 0002:0000800c       ??_C@_01DGKLNCNG@R?$AA@    0047d00c     adminfn.obj
 0002:00008010       ??_C@_02ICEIDNFJ@?5P?$AA@  0047d010     adminfn.obj
 0002:00008014       ??_C@_02KNHHEEKP@?5?5?$AA@ 0047d014     adminfn.obj
 0002:00008018       ??_C@_04MDKIEGGJ@?5?$CFs?6?$AA@ 0047d018     adminfn.obj
 0002:00008020       ??_C@_0EL@DAIPJALP@Terminating?5server?4?5All?5connecti@ 0047d020     adminfn.obj
 0002:0000806c       ??_C@_0BL@GIGAIHDG@AdminTerminateSave?5saving?6?$AA@ 0047d06c     adminfn.obj
 0002:00008088       ??_C@_0CH@KHHHPHEK@Garbage?5collecting?5and?5saving?5ga@ 0047d088     adminfn.obj
 0002:000080b0       ??_C@_06GAOLIIF@done?4?6?$AA@ 0047d0b0     adminfn.obj
 0002:000080b8       ??_C@_0EI@EKKHFHCM@Terminating?5server?4?5All?5connecti@ 0047d0b8     adminfn.obj
 0002:00008100       ??_C@_0CB@PPECHKIF@AdminGarbage?5garbage?5collecting?6@ 0047d100     adminfn.obj
 0002:00008124       ??_C@_0BH@LGHJJODE@Garbage?5collecting?4?4?4?5?$AA@ 0047d124     adminfn.obj
 0002:0000813c       ??_C@_0BC@BPACL@AdminSave?5saving?6?$AA@ 0047d13c     adminfn.obj
 0002:00008150       ??_C@_0BL@KHGNJHGO@done?4?5?5Save?5time?5is?5?$CI?$CFi?$CJ?4?6?$AA@ 0047d150     adminfn.obj
 0002:0000816c       ??_C@_02BKFDOEMK@wt?$AA@   0047d16c     adminfn.obj
 0002:00008170       ??_C@_0N@MNAMLMPF@blakserv?4cfg?$AA@ 0047d170     adminfn.obj
 0002:00008180       ??_C@_0DG@JAHIDEME@AdminSaveConfiguration?5can?8t?5ope@ 0047d180     adminfn.obj
 0002:000081b8       ??_C@_05DFHAGHEP@?$CD?5?$CFs?6?$AA@ 0047d1b8     adminfn.obj
 0002:000081c0       ??_C@_0DE@BDGJAPCI@?$CD?5Configuration?5file?5automatical@ 0047d1c0     adminfn.obj
 0002:000081f4       ??_C@_0CP@ECGJHEL@?$CD?5?9?9?9?9?9?9?9?9?9?9?9?9?9?9?9?9?9?9?9?9?9?9?9?9?9?9?9?9?9?9@ 0047d1f4     adminfn.obj
 0002:00008224       ??_C@_0BG@KDHCCNLN@Configuration?5saved?4?6?$AA@ 0047d224     adminfn.obj
 0002:0000823c       ??_C@_01EEMJAFIK@?6?$AA@   0047d23c     adminfn.obj
 0002:00008240       ??_C@_06KMNNMBLO@?$CF?920s?5?$AA@ 0047d240     adminfn.obj
 0002:00008248       ??_C@_05JJDEBGJM@?$DM?$CFs?$DO?6?$AA@ 0047d248     adminfn.obj
 0002:00008250       ??_C@_03OFAPEBGM@?$CFs?6?$AA@ 0047d250     adminfn.obj
 0002:00008254       ??_C@_03PELOGHMK@?$CFi?6?$AA@ 0047d254     adminfn.obj
 0002:00008258       ??_C@_03CCLAEDDF@Yes?$AA@  0047d258     adminfn.obj
 0002:0000825c       ??_C@_04KMHOJMOK@Yes?6?$AA@ 0047d25c     adminfn.obj
 0002:00008264       ??_C@_03BMBEGLHK@No?6?$AA@ 0047d264     adminfn.obj
 0002:00008268       ??_C@_0BE@JMGEFMIC@xxx?5?$CD?5Unknown?5type?6?$AA@ 0047d268     adminfn.obj
 0002:0000827c       ??_C@_0DP@KAINFKMO@Name?5?5?5?5?5?5?5?5?5?5?5?5?5?5?5?5Act?5Ver?5Sess@ 0047d27c     adminfn.obj
 0002:000082c0       ??_C@_0EO@MENHMHMI@?9?9?9?9?9?9?9?9?9?9?9?9?9?9?9?9?9?9?9?9?9?9?9?9?9?9?9?9?9?9?9?9@ 0047d2c0     adminfn.obj
 0002:00008310       ??_C@_09EDBPFFKK@?$CF?918?418s?5?$AA@ 0047d310     adminfn.obj
 0002:0000831c       ??_C@_04JNDHBDGN@?$CF4i?5?$AA@ 0047d31c     adminfn.obj
 0002:00008324       ??_C@_04PFOHOKJK@?5?5?5?5?$AA@ 0047d324     adminfn.obj
 0002:0000832c       ??_C@_03NOAKOCEN@?$CF4i?$AA@ 0047d32c     adminfn.obj
 0002:00008330       ??_C@_02JINPPBEP@No?$AA@   0047d330     adminfn.obj
 0002:00008334       ??_C@_05DANHPNAB@?5?$CF?93s?$AA@ 0047d334     adminfn.obj
 0002:0000833c       ??_C@_09EBPNJHLD@?$CF?922?422s?5?$AA@ 0047d33c     adminfn.obj
 0002:00008348       ??_C@_02DKCKIIND@?$CFs?$AA@ 0047d348     adminfn.obj
 0002:0000834c       ??_C@_03NLJIHOMM@?5?9?5?$AA@ 0047d34c     adminfn.obj
 0002:00008350       ??_C@_0BH@FAPPNPEH@Invalid?5resource?5id?5?$CFi?$AA@ 0047d350     adminfn.obj
 0002:00008368       ??_C@_0BD@NGFBBLAM@Non?9resource?5?$CFi?0?$CFi?$AA@ 0047d368     adminfn.obj
 0002:0000837c       ??_C@_05CMIMAPOH@?5?$CI?$CFi?$CJ?$AA@ 0047d37c     adminfn.obj
 0002:00008384       ??_C@_0BE@LMNPDLME@Locking?5game?5?$DM?$CFs?$DO?4?6?$AA@ 0047d384     adminfn.obj
 0002:00008398       ??_C@_0BO@JFOOCADA@AdminLock?5locking?5game?5?$CI?$CFs?$CJ?4?6?$AA@ 0047d398     adminfn.obj
 0002:000083b8       ??_C@_0BE@GBOPMPLC@Game?5isn?8t?5locked?4?6?$AA@ 0047d3b8     adminfn.obj
 0002:000083cc       ??_C@_0BB@KLANEHFJ@Unlocking?5game?4?6?$AA@ 0047d3cc     adminfn.obj
 0002:000083e0       ??_C@_0BN@KGAOCGBD@AdminUnlock?5unlocking?5game?4?6?$AA@ 0047d3e0     adminfn.obj
 0002:00008400       ??_C@_0M@KFKANCMJ@admnote?4txt?$AA@ 0047d400     adminfn.obj
 0002:0000840c       ??_C@_04HDOCAJNK@?$CFs?$CFs?$AA@ 0047d40c     adminfn.obj
 0002:00008414       ??_C@_0BK@KHOPDNLO@Couldn?8t?5open?5mail?5file?4?6?$AA@ 0047d414     adminfn.obj
 0002:00008430       ??_C@_0CL@MFBLJHLD@AdminPage?5admin?5SESSION?5?$CFi?5has?5n@ 0047d430     adminfn.obj
 0002:0000845c       ??_C@_0CA@PFFPPBMI@AdminPage?5?$CFs?5paged?5the?5console?6?$AA@ 0047d45c     adminfn.obj
 0002:0000847c       ??_C@_0CN@BJPMFMFH@System?5Status?5?9?9?9?9?9?9?9?9?9?9?9?9?9?9?9?9?9?9@ 0047d47c     adminfn.obj
 0002:000084ac       ??_C@_09DACMNOPG@?$CFs?5on?5?$CFs?6?$AA@ 0047d4ac     adminfn.obj
 0002:000084b8       ??_C@_0BE@FCEAHNGI@Current?5time?5is?5?$CFs?6?$AA@ 0047d4b8     adminfn.obj
 0002:000084cc       ??_C@_0CP@OGFIKEKL@System?5started?5at?5?$CFs?6?$CIup?5for?5?$CFs?5@ 0047d4cc     adminfn.obj
 0002:000084fc       ??_C@_05FEHMOJNL@?9?9?9?9?6?$AA@ 0047d4fc     adminfn.obj
 0002:00008508       ??_C@_0EA@IFENMJO@Interpreted?5?$CFi?4?$CF09i?5billion?5tota@ 0047d508     adminfn.obj
 0002:00008548       ??_C@_0DC@FFDEBKMA@Handled?5?$CFi?5top?5level?5messages?0?5t@ 0047d548     adminfn.obj
 0002:0000857c       ??_C@_0DH@CJGBBLON@Deepest?5message?5call?5stack?5is?5?$CFi@ 0047d57c     adminfn.obj
 0002:000085b4       ??_C@_0DP@HCDHLLFN@Most?5instructions?5on?5one?5top?5lev@ 0047d5b4     adminfn.obj
 0002:000085f4       ??_C@_0DL@HJCELALP@Number?5of?5top?5level?5messages?5ove@ 0047d5f4     adminfn.obj
 0002:00008630       ??_C@_0DK@OAFLIDGM@Longest?5time?5on?5one?5top?5level?5me@ 0047d630     adminfn.obj
 0002:0000866c       ??_C@_09GPGAJHPD@?$CIunknown?$CJ?$AA@ 0047d66c     adminfn.obj
 0002:00008678       ??_C@_0EG@GONKDDHO@Most?5recent?5slow?5top?5level?5messa@ 0047d678     adminfn.obj
 0002:000086c0       ??_C@_0EB@GFBONEDF@Most?5recent?5slow?5top?5level?5messa@ 0047d6c0     adminfn.obj
 0002:00008704       ??_C@_0BF@NCCLCLMI@Active?5accounts?3?5?$CFi?6?$AA@ 0047d704     adminfn.obj
 0002:0000871c       ??_C@_0BL@EDDOPIHO@Next?5account?5number?5is?5?$CFi?6?$AA@ 0047d71c     adminfn.obj
 0002:00008738       ??_C@_0CM@GMCJPCOI@Clients?5on?5port?5?$CFi?0?5maintenance?5@ 0047d738     adminfn.obj
 0002:00008764       ??_C@_0CN@GEHDBLMO@There?5are?5?$CFi?5sessions?5?$CI?$CFi?5guests@ 0047d764     adminfn.obj
 0002:00008794       ??_C@_0BE@EKONKEGL@Used?5?$CFi?5list?5nodes?6?$AA@ 0047d794     adminfn.obj
 0002:000087a8       ??_C@_0BA@IMCNMAGB@Used?5?$CFi?5tables?6?$AA@ 0047d7a8     adminfn.obj
 0002:000087b8       ??_C@_0BG@JGDLIDAP@Used?5?$CFi?5object?5nodes?6?$AA@ 0047d7b8     adminfn.obj
 0002:000087d0       ??_C@_0BG@KOCDKLII@Used?5?$CFi?5string?5nodes?6?$AA@ 0047d7d0     adminfn.obj
 0002:000087e8       ??_C@_0BL@JJHDJKMM@Watching?5?$CFi?5active?5timers?6?$AA@ 0047d7e8     adminfn.obj
 0002:00008804       ??_C@_0CC@HAMLNOGG@?$CFi?5message?5hash?5table?5collisions@ 0047d804     adminfn.obj
 0002:00008828       ??_C@_0BJ@PDLAIBGC@The?5game?5is?5LOCKED?5?$CI?$CFs?$CJ?6?$AA@ 0047d828     adminfn.obj
 0002:00008844       ??_C@_0CN@CHHFKCDG@?9?9?9?9?9?9?9?9?9?9?9?9?9?9?9?9?9?9?9?9?9?9?9?9?9?9?9?9?9?9?9?9@ 0047d844     adminfn.obj
 0002:00008874       ??_C@_0CN@NKCADLJD@System?5Memory?5?9?9?9?9?9?9?9?9?9?9?9?9?9?9?9?9?9?9@ 0047d874     adminfn.obj
 0002:000088a4       ??_C@_0M@PJPAAHNI@?$CF?920s?5?$CF8lu?6?$AA@ 0047d8a4     adminfn.obj
 0002:000088b0       ??_C@_08CPPLNILE@?9?9?5Total?$AA@ 0047d8b0     adminfn.obj
 0002:000088bc       ??_C@_0P@ENDHBDIE@?$CF?920s?5?$CF4lu?5MB?6?$AA@ 0047d8bc     adminfn.obj
 0002:000088cc       ??_C@_0N@IALGDAID@Avg?5Time?$CIus?$CJ?$AA@ 0047d8cc     adminfn.obj
 0002:000088dc       ??_C@_05IJGIMMHE@Count?$AA@ 0047d8dc     adminfn.obj
 0002:000088e4       ??_C@_07BEIHKDLJ@Message?$AA@ 0047d8e4     adminfn.obj
 0002:000088ec       ??_C@_05EKAMNAII@Class?$AA@ 0047d8ec     adminfn.obj
 0002:000088f4       ??_C@_04DMNEFAGJ@Rank?$AA@ 0047d8f4     adminfn.obj
 0002:000088fc       ??_C@_0BK@POHAJCDB@?$CF4s?5?$CF?920s?5?$CF?930s?5?$CF?911s?5?$CFs?6?$AA@ 0047d8fc     adminfn.obj
 0002:00008918       ??_C@_07NBCGADJA@Unknown?$AA@ 0047d918     adminfn.obj
 0002:00008920       ??_C@_0BN@HOMMIIIP@?$CF3i?4?5?$CF?920s?5?$CF?930s?5?$CF?911i?5?$CF?43f?6?$AA@ 0047d920     adminfn.obj
 0002:00008940       ??_C@_0BD@FKPLKBFP@Invalid?5roomdata?4?6?$AA@ 0047d940     adminfn.obj
 0002:00008954       ??_C@_0CF@OANJKDGE@Obj?5ID?5?$CFi?5at?5row?5?$CFi?0?5?$CFi?0?5col?5?$CFi?0@ 0047d954     adminfn.obj
 0002:0000897c       ??_C@_0DA@PNELJEEI@Invalid?5object?5id?5?$CFi?5?$CIor?5it?5has?5@ 0047d97c     adminfn.obj
 0002:000089ac       ??_C@_0CC@PLNLEEFJ@?$CFd?5owns?5the?5following?5objects?5?9?5@ 0047d9ac     adminfn.obj
 0002:000089d0       ??_C@_07HGGDJLOD@poOwner?$AA@ 0047d9d0     adminfn.obj
 0002:000089d8       ??_C@_0BO@CGFMFAEP@OBJECT?5?$CFi?5has?5invalid?5class?$CB?6?$AA@ 0047d9d8     adminfn.obj
 0002:000089f8       ??_C@_0BK@BFIKPFDL@?3?$DM?5OBJECT?5?$CFi?5is?5CLASS?5?$CFs?6?$AA@ 0047d9f8     adminfn.obj
 0002:00008a14       ??_C@_04PJDNGLKJ@self?$AA@ 0047da14     adminfn.obj
 0002:00008a1c       ??_C@_08BMOIAOEP@?3?5?$CD?$CF?919i?$AA@ 0047da1c     adminfn.obj
 0002:00008a28       ??_C@_07FFAGNGAA@?3?5?$CF?920s?$AA@ 0047da28     adminfn.obj
 0002:00008a30       ??_C@_0M@OAGLMAFG@?$CFs?5?$DN?5?$CFs?5?$CFs?6?$AA@ 0047da30     adminfn.obj
 0002:00008a3c       ??_C@_03JFDHBIDG@?3?$DO?6?$AA@ 0047da3c     adminfn.obj
 0002:00008a40       ??_C@_0DD@BBLBHPEN@Invalid?5list?5node?5id?5?$CFi?5?$CIor?5it?5h@ 0047da40     adminfn.obj
 0002:00008a74       ??_C@_0BC@EEIKJCKA@?3?$DM?5first?5?$DN?5?$CFs?5?$CFs?6?$AA@ 0047da74     adminfn.obj
 0002:00008a88       ??_C@_0BB@CENFDCHD@?3?5?5rest?5?$DN?5?$CFs?5?$CFs?6?$AA@ 0047da88     adminfn.obj
 0002:00008a9c       ??_C@_03JGLDMMFI@?3?$DM?6?$AA@ 0047da9c     adminfn.obj
 0002:00008aa0       ??_C@_04OIHICOCA@?3?5?$FL?6?$AA@ 0047daa0     adminfn.obj
 0002:00008aa8       ??_C@_08LBNJOEJE@?3?5?$CFs?5?$CFs?6?$AA@ 0047daa8     adminfn.obj
 0002:00008ab4       ??_C@_04LKECIEJL@?3?5?4?6?$AA@ 0047dab4     adminfn.obj
 0002:00008abc       ??_C@_0P@CMLMPNIN@?3?5?$FN?5length?5?$CFi?6?$AA@ 0047dabc     adminfn.obj
 0002:00008acc       ??_C@_0BE@LDGPIJEI@Invalid?5list?5node?$CB?6?$AA@ 0047dacc     adminfn.obj
 0002:00008ae0       ??_C@_04FABLJDN@Name?$AA@  0047dae0     adminfn.obj
 0002:00008ae8       ??_C@_06ELFECKBG@Object?$AA@ 0047dae8     adminfn.obj
 0002:00008af0       ??_C@_04HEBPOIHN@Acct?$AA@ 0047daf0     adminfn.obj
 0002:00008af8       ??_C@_0BA@CPCBHNBK@?$CF?95s?$CF?98s?$CF?98s?$CFs?6?$AA@ 0047daf8     adminfn.obj
 0002:00008b08       ??_C@_0O@LAOGGEHK@?$CF4i?5?$CF7i?5?$CF?97s?5?$AA@ 0047db08     adminfn.obj
 0002:00008b18       ??_C@_0BI@ODOPCCMA@Invalid?5resource?5id?5?$CFi?4?$AA@ 0047db18     adminfn.obj
 0002:00008b30       ??_C@_0BE@CGHBEBM@Non?9resource?5?$CFi?0?$CFi?4?$AA@ 0047db30     adminfn.obj
 0002:00008b44       ??_C@_0BG@BODCPKHB@Cannot?5find?5user?5?$CFs?4?6?$AA@ 0047db44     adminfn.obj
 0002:00008b5c       ??_C@_0CL@NDBMMCB@?3?$DM?5sessions?5?$CFi?5?$DN?5guests?5?$CFi?5?$CL?5non@ 0047db5c     adminfn.obj
 0002:00008b88       ??_C@_0CJ@IEOKMDLG@?$CFi?5accounts?5active?5in?5the?5last?5?$CF@ 0047db88     adminfn.obj
 0002:00008bb4       ??_C@_0BJ@JCMEOLPM@Missing?5account?5string?4?6?$AA@ 0047dbb4     adminfn.obj
 0002:00008bd0       ??_C@_0BJ@HAEMAKNO@Cannot?5find?5account?5?$CFs?4?6?$AA@ 0047dbd0     adminfn.obj
 0002:00008bec       ??_C@_0L@CGFLKFBC@Last?5login?$AA@ 0047dbec     adminfn.obj
 0002:00008bf8       ??_C@_07GDHHDJMO@Credits?$AA@ 0047dbf8     adminfn.obj
 0002:00008c00       ??_C@_09LPCHPKPJ@Suspended?$AA@ 0047dc00     adminfn.obj
 0002:00008c0c       ??_C@_05HNNODCBN@Email?$AA@ 0047dc0c     adminfn.obj
 0002:00008c14       ??_C@_0BO@HPDNCFFN@?$CF?96s?$CF?923s?$CF?923s?$CF?910s?$CF?98s?$CF?930s?6?$AA@ 0047dc14     adminfn.obj
 0002:00008c34       ??_C@_04BDBPOEGA@?5ADG?$AA@ 0047dc34     adminfn.obj
 0002:00008c3c       ??_C@_06DBHBFJDD@?$CF7?41fh?$AA@ 0047dc3c     adminfn.obj
 0002:00008c44       ??_C@_0CE@OJPLJIFM@?$CF4i?$CFc?5?$CF?923s?$CF?923s?$CF8s?5?$CF4i?4?$CF02i?5?$CF?93@ 0047dc44     adminfn.obj
 0002:00008c68       ??_C@_0CA@MJFBFPHG@There?5is?5no?5resource?5named?5?$CFs?4?6?$AA@ 0047dc68     adminfn.obj
 0002:00008c88       ??_C@_0CC@ODHLCCEI@There?5is?5no?5resource?5with?5id?5?$CFs?4@ 0047dc88     adminfn.obj
 0002:00008cac       ??_C@_0N@LONICFGM@Name?5?$DN?5Value?$AA@ 0047dcac     adminfn.obj
 0002:00008cbc       ??_C@_02OLOABKKD@ID?$AA@   0047dcbc     adminfn.obj
 0002:00008cc0       ??_C@_08KJOEPBAC@?$CF?97s?5?$CFs?6?$AA@ 0047dcc0     adminfn.obj
 0002:00008ccc       ??_C@_0CE@NFJPNKPK@AdminPrintResource?5got?5passed?5NU@ 0047dccc     adminfn.obj
 0002:00008cf0       ??_C@_09MDBFIEBO@?$CIdynamic?$CJ?$AA@ 0047dcf0     adminfn.obj
 0002:00008cfc       ??_C@_0O@PADBPNBL@?$CF?97i?5?$CFs?5?$DN?5?$CFs?6?$AA@ 0047dcfc     adminfn.obj
 0002:00008d0c       ??_C@_0DC@BPMEDHIF@Timer?5heap?5check?5completed?5in?5?$CF?4@ 0047dd0c     adminfn.obj
 0002:00008d40       ??_C@_0BG@HDPLKIDG@Timer?5heap?5is?5valid?4?6?$AA@ 0047dd40     adminfn.obj
 0002:00008d58       ??_C@_0BK@EJJPAJGH@Timer?5heap?5is?5NOT?5valid?4?6?$AA@ 0047dd58     adminfn.obj
 0002:00008d74       ??_C@_0N@FKIFAAGB@Remaining?5ms?$AA@ 0047dd74     adminfn.obj
 0002:00008d84       ??_C@_05NHFJDMOA@Timer?$AA@ 0047dd84     adminfn.obj
 0002:00008d8c       ??_C@_0BE@JFANJACL@?$CF?97s?$CF?914s?$CF?98s?$CF?920s?6?$AA@ 0047dd8c     adminfn.obj
 0002:00008da0       ??_C@_0BC@CAJPFLAF@?$CFi?5timers?5found?4?6?$AA@ 0047dda0     adminfn.obj
 0002:00008db4       ??_C@_0BH@ILAEBCOP@Cannot?5find?5timer?5?$CFi?4?6?$AA@ 0047ddb4     adminfn.obj
 0002:00008dcc       ??_C@_0CJ@BHDHMJBB@Invalid?5message?5name?0?5message?5no@ 0047ddcc     adminfn.obj
 0002:00008df8       ??_C@_0BO@BCOIOGPB@Timer?5has?5invalid?5object?5?$CFi?$DP?6?$AA@ 0047ddf8     adminfn.obj
 0002:00008e18       ??_C@_0BF@FBNHFPEN@?$CF5i?5?5?$CF?914u?$CF?98i?$CF?920s?6?$AA@ 0047de18     adminfn.obj
 0002:00008e30       ??_C@_0CF@EOBELBCI@Current?5server?5clock?5reads?5?$CFi?5?$CI?$CF@ 0047de30     adminfn.obj
 0002:00008e58       ??_C@_0BI@LFELJPJD@Cannot?5find?5string?5?$CFi?4?6?$AA@ 0047de58     adminfn.obj
 0002:00008e70       ??_C@_0L@LOMLOAGA@String?5?$CFi?6?$AA@ 0047de70     adminfn.obj
 0002:00008e7c       ??_C@_0CO@FFLHNKEF@?6?9?9?9?9?9?9?9?9?9?9?9?9?9?9?9?9?9?9?9?9?9?9?9?9?9?9?9?9?9?9?9@ 0047de7c     adminfn.obj
 0002:00008eac       ??_C@_09PIDFCGEN@Next?5time?$AA@ 0047deac     adminfn.obj
 0002:00008eb8       ??_C@_06JJPMFGIO@On?5the?$AA@ 0047deb8     adminfn.obj
 0002:00008ec0       ??_C@_06JOFJHOEH@Period?$AA@ 0047dec0     adminfn.obj
 0002:00008ec8       ??_C@_0BC@DKKHGABB@System?5Timer?5type?$AA@ 0047dec8     adminfn.obj
 0002:00008edc       ??_C@_01IPJKGB@?$CD?$AA@   0047dedc     adminfn.obj
 0002:00008ee0       ??_C@_0BM@HMBLEJLO@?$CFs?5?$CF?918s?5?$CF?915s?5?$CF?915s?5?$CF?922s?6?$AA@ 0047dee0     adminfn.obj
 0002:00008efc       ??_C@_09EBFODNOM@Save?5game?$AA@ 0047defc     adminfn.obj
 0002:00008f08       ??_C@_0BA@MCPCPFIF@New?5Blakod?5hour?$AA@ 0047df08     adminfn.obj
 0002:00008f18       ??_C@_0BB@LKBLMCC@Update?5interface?$AA@ 0047df18     adminfn.obj
 0002:00008f2c       ??_C@_0P@BGBNDHIH@Reset?5TX?5count?$AA@ 0047df2c     adminfn.obj
 0002:00008f3c       ??_C@_0BC@FGHACBL@Reset?5buffer?5pool?$AA@ 0047df3c     adminfn.obj
 0002:00008f50       ??_C@_0BA@LDGNLKOO@?$CFi?5?$CF?918s?5?$CF?915s?5?$AA@ 0047df50     adminfn.obj
 0002:00008f60       ??_C@_06NMKDELFM@?$CF?915s?5?$AA@ 0047df60     adminfn.obj
 0002:00008f68       ??_C@_05FJNCAKIN@?$CF?922s?$AA@ 0047df68     adminfn.obj
 0002:00008f70       ??_C@_08JGILNPHN@Disabled?$AA@ 0047df70     adminfn.obj
 0002:00008f7c       ??_C@_08PHKOHANG@Function?$AA@ 0047df7c     adminfn.obj
 0002:00008f88       ??_C@_0BE@PHMDJDIE@?$CF4s?5?$CF?923s?5?$CF?912s?5?$CFs?6?$AA@ 0047df88     adminfn.obj
 0002:00008f9c       ??_C@_0N@DLJIDING@CreateObject?$AA@ 0047df9c     adminfn.obj
 0002:00008fac       ??_C@_08CHBIFBKM@GetClass?$AA@ 0047dfac     adminfn.obj
 0002:00008fb8       ??_C@_04JEOPCEB@Send?$AA@  0047dfb8     adminfn.obj
 0002:00008fc0       ??_C@_04HPGPEKIH@Post?$AA@ 0047dfc0     adminfn.obj
 0002:00008fc8       ??_C@_08EEAHCFPD@SendList?$AA@ 0047dfc8     adminfn.obj
 0002:00008fd4       ??_C@_0O@LEEOFIH@SendListBreak?$AA@ 0047dfd4     adminfn.obj
 0002:00008fe4       ??_C@_0BA@LCNIHJAH@SendListByClass?$AA@ 0047dfe4     adminfn.obj
 0002:00008ff4       ??_C@_0BF@PDBIJHDG@SendListByClassBreak?$AA@ 0047dff4     adminfn.obj
 0002:0000900c       ??_C@_06MONKJBIM@GodLog?$AA@ 0047e00c     adminfn.obj
 0002:00009014       ??_C@_05GCIPIGEI@Debug?$AA@ 0047e014     adminfn.obj
 0002:0000901c       ??_C@_08KICFJOJB@SaveGame?$AA@ 0047e01c     adminfn.obj
 0002:00009028       ??_C@_08KHPDHAOG@LoadGame?$AA@ 0047e028     adminfn.obj
 0002:00009034       ??_C@_09OPKEHIBA@AddPacket?$AA@ 0047e034     adminfn.obj
 0002:00009040       ??_C@_0L@FFGNDDJL@SendPacket?$AA@ 0047e040     adminfn.obj
 0002:0000904c       ??_C@_0P@JLIKIGBN@SendCopyPacket?$AA@ 0047e04c     adminfn.obj
 0002:0000905c       ??_C@_0M@NMDNGJLP@ClearPacket?$AA@ 0047e05c     adminfn.obj
 0002:00009068       ??_C@_0BA@HEBKOLGP@GetInactiveTime?$AA@ 0047e068     adminfn.obj
 0002:00009078       ??_C@_0M@EPKDLFBH@StringEqual?$AA@ 0047e078     adminfn.obj
 0002:00009084       ??_C@_0O@MAAFOGND@StringContain?$AA@ 0047e084     adminfn.obj
 0002:00009094       ??_C@_0M@FDHMPDNB@SetResource?$AA@ 0047e094     adminfn.obj
 0002:000090a0       ??_C@_0M@KFNFICJP@ParseString?$AA@ 0047e0a0     adminfn.obj
 0002:000090ac       ??_C@_09FPPPFNNC@SetString?$AA@ 0047e0ac     adminfn.obj
 0002:000090b8       ??_C@_0N@DNBIJONA@CreateString?$AA@ 0047e0b8     adminfn.obj
 0002:000090c8       ??_C@_08GGFPGEOP@IsString?$AA@ 0047e0c8     adminfn.obj
 0002:000090d4       ??_C@_0BB@INCPDHCB@StringSubstitute?$AA@ 0047e0d4     adminfn.obj
 0002:000090e8       ??_C@_0BB@DDGHJDPN@AppendTempString?$AA@ 0047e0e8     adminfn.obj
 0002:000090fc       ??_C@_0BA@NBMBNNDB@ClearTempString?$AA@ 0047e0fc     adminfn.obj
 0002:0000910c       ??_C@_0O@OPDCDCKP@GetTempString?$AA@ 0047e10c     adminfn.obj
 0002:0000911c       ??_C@_0N@DAJMJAE@StringLength?$AA@ 0047e11c     adminfn.obj
 0002:0000912c       ??_C@_0BB@HHFNMLEC@StringConsistsOf?$AA@ 0047e12c     adminfn.obj
 0002:00009140       ??_C@_0M@HBLPHDOF@CreateTimer?$AA@ 0047e140     adminfn.obj
 0002:0000914c       ??_C@_0M@CDBDDBOE@DeleteTimer?$AA@ 0047e14c     adminfn.obj
 0002:00009158       ??_C@_0BB@EOFLGPNH@GetTimeRemaining?$AA@ 0047e158     adminfn.obj
 0002:0000916c       ??_C@_07OIOLFBFK@IsTimer?$AA@ 0047e16c     adminfn.obj
 0002:00009174       ??_C@_0O@IGAIOJHM@MoveSectorBSP?$AA@ 0047e174     adminfn.obj
 0002:00009184       ??_C@_0BB@NNJAMIAD@ChangeTextureBSP?$AA@ 0047e184     adminfn.obj
 0002:00009198       ??_C@_0P@LMLJDCHB@CreateRoomData?$AA@ 0047e198     adminfn.obj
 0002:000091a8       ??_C@_08GJPCBIJD@FreeRoom?$AA@ 0047e1a8     adminfn.obj
 0002:000091b4       ??_C@_08IEPKOELL@RoomData?$AA@ 0047e1b4     adminfn.obj
 0002:000091c0       ??_C@_0BB@NEDDAKIO@CanMoveInRoomBSP?$AA@ 0047e1c0     adminfn.obj
 0002:000091d4       ??_C@_0BA@IPGAIOFB@LineOfSightView?$AA@ 0047e1d4     adminfn.obj
 0002:000091e4       ??_C@_0P@JPMHCIHL@LineOfSightBSP?$AA@ 0047e1e4     adminfn.obj
 0002:000091f4       ??_C@_0BD@PPCPLDMO@GetLocationInfoBSP?$AA@ 0047e1f4     adminfn.obj
 0002:00009208       ??_C@_0BC@POKFNGII@GetRandomPointBSP?$AA@ 0047e208     adminfn.obj
 0002:0000921c       ??_C@_0BC@MHFOOADO@GetStepTowardsBSP?$AA@ 0047e21c     adminfn.obj
 0002:00009230       ??_C@_0O@KAFLMHAH@BlockerAddBSP?$AA@ 0047e230     adminfn.obj
 0002:00009240       ??_C@_0P@KGMLAMKC@BlockerMoveBSP?$AA@ 0047e240     adminfn.obj
 0002:00009250       ??_C@_0BB@MMHGEMHH@BlockerRemoveBSP?$AA@ 0047e250     adminfn.obj
 0002:00009264       ??_C@_0BA@ECONHKIN@BlockerClearBSP?$AA@ 0047e264     adminfn.obj
 0002:00009274       ??_C@_0P@NAPHNNJM@StringToNumber?$AA@ 0047e274     adminfn.obj
 0002:00009284       ??_C@_0P@KEHFNMCB@AppendListElem?$AA@ 0047e284     adminfn.obj
 0002:00009294       ??_C@_04DJAABDB@Cons?$AA@  0047e294     adminfn.obj
 0002:0000929c       ??_C@_05NPMMKAPN@First?$AA@ 0047e29c     adminfn.obj
 0002:000092a4       ??_C@_04GKBCPJID@Rest?$AA@ 0047e2a4     adminfn.obj
 0002:000092ac       ??_C@_06MHCOIGNA@Length?$AA@ 0047e2ac     adminfn.obj
 0002:000092b4       ??_C@_04DKKAEHDH@Last?$AA@ 0047e2b4     adminfn.obj
 0002:000092bc       ??_C@_0M@BEOCNGML@IsListMatch?$AA@ 0047e2bc     adminfn.obj
 0002:000092c8       ??_C@_04PPBEGPNI@List?$AA@ 0047e2c8     adminfn.obj
 0002:000092d0       ??_C@_06PIHPAIHO@IsList?$AA@ 0047e2d0     adminfn.obj
 0002:000092d8       ??_C@_08EDPEDCKE@SetFirst?$AA@ 0047e2d8     adminfn.obj
 0002:000092e4       ??_C@_06KBNCAFGA@SetNth?$AA@ 0047e2e4     adminfn.obj
 0002:000092ec       ??_C@_0N@LGJHALJI@SwapListElem?$AA@ 0047e2ec     adminfn.obj
 0002:000092fc       ??_C@_0P@PIFNMCGA@InsertListElem?$AA@ 0047e2fc     adminfn.obj
 0002:0000930c       ??_C@_0M@JIIKCGNK@DelListElem?$AA@ 0047e30c     adminfn.obj
 0002:00009318       ??_C@_0BA@PHKFLPNN@DelLastListElem?$AA@ 0047e318     adminfn.obj
 0002:00009328       ??_C@_0N@EHCLPFOH@FindListElem?$AA@ 0047e328     adminfn.obj
 0002:00009338       ??_C@_0BD@BJIKFFKO@GetListElemByClass?$AA@ 0047e338     adminfn.obj
 0002:0000934c       ??_C@_0M@HHBDELPG@GetListNode?$AA@ 0047e34c     adminfn.obj
 0002:00009358       ??_C@_0BH@DABHKFPJ@GetAllListNodesByClass?$AA@ 0047e358     adminfn.obj
 0002:00009370       ??_C@_08HFNNEKJA@ListCopy?$AA@ 0047e370     adminfn.obj
 0002:0000937c       ??_C@_0BC@CABFKBGP@GetTimeZoneOffset?$AA@ 0047e37c     adminfn.obj
 0002:00009390       ??_C@_07CDIANBOE@GetTime?$AA@ 0047e390     adminfn.obj
 0002:00009398       ??_C@_0N@JOMACIEF@GetTickCount?$AA@ 0047e398     adminfn.obj
 0002:000093a8       ??_C@_05IPGANIA@Bound?$AA@ 0047e3a8     adminfn.obj
 0002:000093b0       ??_C@_04IJMLHKMM@Sqrt?$AA@ 0047e3b0     adminfn.obj
 0002:000093b8       ??_C@_0M@BDPOJHGL@CreateTable?$AA@ 0047e3b8     adminfn.obj
 0002:000093c4       ??_C@_0O@PJLDNCMF@AddTableEntry?$AA@ 0047e3c4     adminfn.obj
 0002:000093d4       ??_C@_0O@NAPPKNAK@GetTableEntry?$AA@ 0047e3d4     adminfn.obj
 0002:000093e4       ??_C@_0BB@HABALJGE@DeleteTableEntry?$AA@ 0047e3e4     adminfn.obj
 0002:000093f8       ??_C@_0M@EBFCNFGK@DeleteTable?$AA@ 0047e3f8     adminfn.obj
 0002:00009404       ??_C@_07IKKKLFNE@IsTable?$AA@ 0047e404     adminfn.obj
 0002:0000940c       ??_C@_08GANPMCOJ@IsObject?$AA@ 0047e40c     adminfn.obj
 0002:00009418       ??_C@_0M@IDBOEPNC@RecycleUser?$AA@ 0047e418     adminfn.obj
 0002:00009424       ??_C@_06BEOPDEGP@Random?$AA@ 0047e424     adminfn.obj
 0002:0000942c       ??_C@_0L@JOHLPJMP@RecordStat?$AA@ 0047e42c     adminfn.obj
 0002:00009438       ??_C@_0N@FPGHGEKH@GetSessionIP?$AA@ 0047e438     adminfn.obj
 0002:00009448       ??_C@_0M@NFMKGMPO@SetClassVar?$AA@ 0047e448     adminfn.obj
 0002:00009454       ??_C@_0N@FOBBHEJ@Unknown?5?$CI?$CFi?$CJ?$AA@ 0047e454     adminfn.obj
 0002:00009464       ??_C@_0BI@FIGPPMII@?$CF3i?4?5?$CF?923s?5?$CF?912i?5?$CF4?43f?6?$AA@ 0047e464     adminfn.obj
 0002:0000947c       ??_C@_0BH@CPNDHPBE@Cannot?5find?5class?5?$CFs?4?6?$AA@ 0047e47c     adminfn.obj
 0002:00009494       ??_C@_0CF@NGMPIBNM@Cannot?5find?5message?5?$CFs?5in?5CLASS?5@ 0047e494     adminfn.obj
 0002:000094c0       ??_C@_0EA@MFEDBMEG@?9?9?9?9?9?9?9?9?9?9?9?9?9?9?9?9?9?9?9?9?9?9?9?9?9?9?9?9?9?9?9?9@ 0047e4c0     adminfn.obj
 0002:00009500       ??_C@_0P@IKPCNMEH@CLASS?5?$CFi?5?3?5?$CFs?6?$AA@ 0047e500     adminfn.obj
 0002:00009510       ??_C@_0BA@FFNCAIKH@MESSAGE?5?$CFi?5?3?5?$CFs?$AA@ 0047e510     adminfn.obj
 0002:00009520       ??_C@_0BH@CELIAIHD@?5?$CIhandled?5by?5CLASS?5?$CFs?$CJ?$AA@ 0047e520     adminfn.obj
 0002:00009538       ??_C@_0BK@PFLJDOIP@Called?5count?5?$CItotal?$CJ?3?5?$CFi?6?$AA@ 0047e538     adminfn.obj
 0002:00009554       ??_C@_0BN@FKBBFMLE@Average?5running?5time?3?5?$CF8?43f?6?$AA@ 0047e554     adminfn.obj
 0002:00009574       ??_C@_0BM@GHKLKHBB@Called?5count?5?$CIuntimed?$CJ?3?5?$CFi?6?$AA@ 0047e574     adminfn.obj
 0002:00009590       ??_C@_0P@BDCJLPNI@?5?5Parameters?3?6?$AA@ 0047e590     adminfn.obj
 0002:000095a0       ??_C@_0P@IHKJFCNC@?5?5?$CF?920s?5?$CFs?5?$CFs?6?$AA@ 0047e5a0     adminfn.obj
 0002:000095b0       ??_C@_09DOOILONG@?5?5?$CInone?$CJ?6?$AA@ 0047e5b0     adminfn.obj
 0002:000095bc       ??_C@_0BA@MHCKFJPK@No?5description?6?$AA@ 0047e5bc     adminfn.obj
 0002:000095cc       ??_C@_0BF@CHJCJNKO@?3?$DM?5CLASS?5?$CFs?5?$CI?$CFi?$CJ?5?$CFs?6?$AA@ 0047e5cc     adminfn.obj
 0002:000095e4       ??_C@_0BL@CBJAKMDJ@?3?$DM?5CLASS?5?$CFs?5?$CI?$CFi?$CJ?5?$CFs?5is?5?$CFs?6?$AA@ 0047e5e4     adminfn.obj
 0002:00009600       ??_C@_0N@NGEKFENH@?3?5VAR?5?$CD?$CF?919i?$AA@ 0047e600     adminfn.obj
 0002:00009610       ??_C@_0M@ENJOMEPB@?3?5VAR?5?$CF?920s?$AA@ 0047e610     adminfn.obj
 0002:0000961c       ??_C@_09KJNIFHJC@?3?5MSG?5?$CFs?6?$AA@ 0047e61c     adminfn.obj
 0002:00009628       ??_C@_0BH@FCCICKHK@Cannot?5find?5CLASS?5?$CFs?4?6?$AA@ 0047e628     adminfn.obj
 0002:00009640       ??_C@_0CA@OMHJBEHC@?3?$DM?5instances?5of?5CLASS?5?$CFs?5?$CI?$CFi?$CJ?6?3?$AA@ 0047e640     adminfn.obj
 0002:00009660       ??_C@_0L@ENILNIIB@?5OBJECT?5?$CFi?$AA@ 0047e660     adminfn.obj
 0002:0000966c       ??_C@_0M@MMCLJJGF@?6?3?5?$CFi?5total?$AA@ 0047e66c     adminfn.obj
 0002:00009678       ??_C@_04DIOBCIJG@?6?3?$DO?6?$AA@ 0047e678     adminfn.obj
 0002:00009680       ??_C@_0DJ@GFHKJPGO@Property?5?$CFs?5doesn?8t?5exist?5?$CIat?5le@ 0047e680     adminfn.obj
 0002:000096c0       ??_C@_0EC@OGKCAJNP@Relationship?5not?5recognized?4?5?5Us@ 0047e6c0     adminfn.obj
 0002:00009704       ??_C@_0BE@MOIMCEKF@?8?$CFs?8?5is?5not?5a?5tag?4?6?$AA@ 0047e704     adminfn.obj
 0002:00009718       ??_C@_0BJ@DMEDJOHF@?8?$CFs?8?5is?5not?5valid?5data?4?6?$AA@ 0047e718     adminfn.obj
 0002:00009734       ??_C@_0DE@KIJKDOBN@?3?$DM?5matching?5instances?5of?5CLASS?5?$CF@ 0047e734     adminfn.obj
 0002:00009768       ??_C@_0CG@CMNEBEAG@?3?5OBJECT?5?$CFi?5CLASS?5?$CFs?5?$CI?$CFi?$CJ?5?$CFs?5?$DN?5?$CF@ 0047e768     adminfn.obj
 0002:00009790       ??_C@_0M@IJAFLAAP@?3?5?$CFi?5total?6?$AA@ 0047e790     adminfn.obj
 0002:0000979c       ??_C@_0BJ@MPFLEGML@?3?5Objects?5list?3?5LIST?5?$CFi?6?$AA@ 0047e79c     adminfn.obj
 0002:000097b8       ??_C@_0CA@IJONGGCO@Time?5to?5run?3?5?$CF?43f?5microseconds?6?$AA@ 0047e7b8     adminfn.obj
 0002:000097d8       ??_C@_0BD@IFBKHACD@Date?1Time?1Sequence?$AA@ 0047e7d8     adminfn.obj
 0002:000097ec       ??_C@_04KOACHJEN@Type?$AA@ 0047e7ec     adminfn.obj
 0002:000097f4       ??_C@_08JCOIAMOP@Filename?$AA@ 0047e7f4     adminfn.obj
 0002:00009800       ??_C@_0BB@IDFEKAIP@?$CF?935s?5?$CF?94s?5?$CF?99s?6?$AA@ 0047e800     adminfn.obj
 0002:00009814       ??_C@_0BB@HPJOKLMK@?$CF?935s?5?$CF?94i?5?$CF?99i?6?$AA@ 0047e814     adminfn.obj
 0002:00009828       ??_C@_08GPNCPPAM@?$CFs?5?$DN?5?$CFi?6?$AA@ 0047e828     adminfn.obj
 0002:00009834       ??_C@_0BK@CLIDJGHH@There?5is?5no?5value?5for?5?$CFs?6?$AA@ 0047e834     adminfn.obj
 0002:00009850       ??_C@_0EG@HFEOHJCI@In?5most?5recent?5transmission?5peri@ 0047e850     adminfn.obj
 0002:00009898       ??_C@_0BH@PKFMCEKB@Cannot?5find?5table?5?$CFi?4?6?$AA@ 0047e898     adminfn.obj
 0002:000098b0       ??_C@_0BE@NPDPMBMD@Table?5?$CFi?5is?5empty?4?6?$AA@ 0047e8b0     adminfn.obj
 0002:000098c4       ??_C@_0BE@HABHHAMG@Table?5?$CFi?5?$CIsize?5?$CFi?$CJ?6?$AA@ 0047e8c4     adminfn.obj
 0002:000098d8       ??_C@_0EI@OPNCMHLI@?9?9?9?9?9?9?9?9?9?9?9?9?9?9?9?9?9?9?9?9?9?9?9?9?9?9?9?9?9?9?9?9@ 0047e8d8     adminfn.obj
 0002:00009920       ??_C@_0M@HJMHGLCM@hash?5?$CF5i?5?3?5?$AA@ 0047e920     adminfn.obj
 0002:0000992c       ??_C@_0M@POHHLGPB@?$CIkey?5?$CFs?5?$CFs?5?$AA@ 0047e92c     adminfn.obj
 0002:00009938       ??_C@_0M@COCEGHFI@val?5?$CFs?5?$CFs?$CJ?5?$AA@ 0047e938     adminfn.obj
 0002:00009944       ??_C@_0BL@DNKCBPKI@Number?5of?5name?5IDs?5is?5?$CFi?4?6?$AA@ 0047e944     adminfn.obj
 0002:00009960       ??_C@_0BD@PFAKPONI@ID?3?5?$CF?95i?5Name?3?5?$CFs?6?$AA@ 0047e960     adminfn.obj
 0002:00009974       ??_C@_0CA@KAINNFCO@Cannot?5find?5user?5with?5name?5?$CFs?4?6?$AA@ 0047e974     adminfn.obj
 0002:00009994       ??_C@_0O@FEAGPFOP@?3?$DM?5object?5?$CFi?6?$AA@ 0047e994     adminfn.obj
 0002:000099a4       ??_C@_0CA@BKPLOMNG@Cannot?5show?5references?5to?5NIL?4?6?$AA@ 0047e9a4     adminfn.obj
 0002:000099c4       ??_C@_0BI@GFADLPGI@?3?$DM?5references?5to?5?$CFs?5?$CFs?6?$AA@ 0047e9c4     adminfn.obj
 0002:000099dc       ??_C@_0CB@NFMKJHGB@?3?5OBJECT?5?$CFi?5CLASS?5?$CFs?5?$CFs?5?$DN?5?$CFs?5?$CFs?6@ 0047e9dc     adminfn.obj
 0002:00009a00       ??_C@_0FB@EAGCLJHB@AdminShowReferencesEachList?5foun@ 0047ea00     adminfn.obj
 0002:00009a54       ??_C@_0CP@ILBJPDLH@AdminShowReferencesEachList?5can?8@ 0047ea54     adminfn.obj
 0002:00009a84       ??_C@_0DB@CFBFBJGO@?3?5OBJECT?5?$CFi?5CLASS?5?$CFs?5?$CFs?5?$DN?5LIST?5c@ 0047ea84     adminfn.obj
 0002:00009ab8       ??_C@_0FD@GMCKLDJE@AdminShowReferencesEachTable?5fou@ 0047eab8     adminfn.obj
 0002:00009b0c       ??_C@_0DB@GBHKNMFD@AdminShowReferencesEachTable?5can@ 0047eb0c     adminfn.obj
 0002:00009b40       ??_C@_0DC@JDBOFMMJ@?3?5OBJECT?5?$CFi?5CLASS?5?$CFs?5?$CFs?5?$DN?5TABLE?5@ 0047eb40     adminfn.obj
 0002:00009b74       ??_C@_0BC@KBKFHCDA@Regular?5commands?6?$AA@ 0047eb74     adminfn.obj
 0002:00009b88       ??_C@_0CL@CCCOLMBJ@?$CF3i?5?$CF10u?5?$HM?5?$CF3i?5?$CF10u?5?$HM?5?$CF3i?5?$CF10u?5?$HM@ 0047eb88     adminfn.obj
 0002:00009bb4       ??_C@_0BC@LDJNMKEN@?6System?5commands?6?$AA@ 0047ebb4     adminfn.obj
 0002:00009bc8       ??_C@_0BA@HEOFBJBN@?6User?5commands?6?$AA@ 0047ebc8     adminfn.obj
 0002:00009bd8       ??_C@_0BN@BMBBCDDE@Cannot?5find?5class?5named?5?$CFs?4?6?$AA@ 0047ebd8     adminfn.obj
 0002:00009bf8       ??_C@_0CM@GOAJBMPH@Cannot?5find?5classvar?5named?5?$CFs?5in@ 0047ebf8     adminfn.obj
 0002:00009c24       ??_C@_0CI@EJJLIJJ@Missing?5parameter?52?3?5new?5account@ 0047ec24     adminfn.obj
 0002:00009c4c       ??_C@_0DB@CNDGKCJF@Account?5names?5cannot?5contain?5the@ 0047ec4c     adminfn.obj
 0002:00009c80       ??_C@_0BJ@EPOILNCF@Cannot?5find?5account?5?$CFi?4?6?$AA@ 0047ec80     adminfn.obj
 0002:00009c9c       ??_C@_0DP@LGHDLOLO@AdminSetAccountName?5changing?5nam@ 0047ec9c     adminfn.obj
 0002:00009cdc       ??_C@_0DA@BIHGFBGO@Changing?5name?5of?5account?5?$CFi?5from@ 0047ecdc     adminfn.obj
 0002:00009d0c       ??_C@_0DB@GAFPMKNO@AdminSetAccountPassword?5setting?5@ 0047ed0c     adminfn.obj
 0002:00009d40       ??_C@_0CD@HDAENJHP@Set?5password?5for?5account?5?$CFi?5?$CI?$CFs?$CJ@ 0047ed40     adminfn.obj
 0002:00009d64       ??_C@_0CJ@FFJJHPAA@Missing?5parameter?52?3?5new?5account@ 0047ed64     adminfn.obj
 0002:00009d90       ??_C@_0BI@KENGDAEG@Invalid?5email?5address?4?6?$AA@ 0047ed90     adminfn.obj
 0002:00009da8       ??_C@_0EA@DMNFJJHJ@AdminSetAccountEmail?5changing?5na@ 0047eda8     adminfn.obj
 0002:00009de8       ??_C@_0DO@CBGFADMP@AdminSetAccountCredits?5setting?5a@ 0047ede8     adminfn.obj
 0002:00009e28       ??_C@_0BL@GAPOENHO@Object?5?$CFi?5does?5not?5exist?4?6?$AA@ 0047ee28     adminfn.obj
 0002:00009e48       ??_C@_0FE@CBJKOFCF@warning?3?5Object?5?$CFi?5is?5not?5a?5know@ 0047ee48     adminfn.obj
 0002:00009e9c       ??_C@_0DC@NFAHIJFH@Removing?5user?5object?5?$CFi?5from?5the@ 0047ee9c     adminfn.obj
 0002:00009ed0       ??_C@_0CK@NAGPDFEC@Error?5assocating?5new?5account?5and@ 0047eed0     adminfn.obj
 0002:00009efc       ??_C@_0DB@MBLBOIHK@Associated?5account?5?$CFi?5with?5objec@ 0047eefc     adminfn.obj
 0002:00009f30       ??_C@_0CM@NDDDAKNG@Unable?5to?5find?5configure?5group?5?$CF@ 0047ef30     adminfn.obj
 0002:00009f5c       ??_C@_0DH@LNJLHJ@Bizarre?9?9got?5config?5id?5?$CFi?0?5but?5n@ 0047ef5c     adminfn.obj
 0002:00009f94       ??_C@_0DD@DKMGHEN@This?5configure?5option?5is?5not?5set@ 0047ef94     adminfn.obj
 0002:00009fc8       ??_C@_0CK@HNKJAGGO@This?5configure?5option?5is?5not?5an?5@ 0047efc8     adminfn.obj
 0002:00009ff4       ??_C@_0DF@NMDHPDBD@Configure?5option?5group?5?$CFs?5name?5?$CF@ 0047eff4     adminfn.obj
 0002:0000a02c       ??_C@_0CH@LEKIEBGJ@This?5configure?5option?5is?5not?5boo@ 0047f02c     adminfn.obj
 0002:0000a054       ??_C@_03IPHJCBHH@YES?$AA@  0047f054     adminfn.obj
 0002:0000a058       ??_C@_02NFLNFON@NO?$AA@    0047f058     adminfn.obj
 0002:0000a05c       ??_C@_0DF@PNODEOAI@Boolean?5configuration?5options?5mu@ 0047f05c     adminfn.obj
 0002:0000a094       ??_C@_0DH@PALJBKME@Configure?5option?5group?5?$CFs?5name?5?$CF@ 0047f094     adminfn.obj
 0002:0000a0cc       ??_C@_0CI@EKLOOBEG@This?5configure?5option?5is?5not?5a?5s@ 0047f0cc     adminfn.obj
 0002:0000a0f4       ??_C@_0DF@ODJDEEOI@Configure?5option?5group?5?$CFs?5name?5?$CF@ 0047f0f4     adminfn.obj
 0002:0000a12c       ??_C@_0CL@HOKBHGLM@Missing?5parameter?52?3?5user?5name?5o@ 0047f12c     adminfn.obj
 0002:0000a158       ??_C@_0CC@OCCGODL@Cannot?5find?5account?5for?5user?5?$CFs?4@ 0047f158     adminfn.obj
 0002:0000a17c       ??_C@_0CH@KOEACNKJ@Suspension?5of?5account?5?$CFi?5?$CI?$CFs?$CJ?5fa@ 0047f17c     adminfn.obj
 0002:0000a1a4       ??_C@_0CB@NHNNGOPJ@Account?5?$CFi?5?$CI?$CFs?$CJ?5is?5unsuspended?4?6@ 0047f1a4     adminfn.obj
 0002:0000a1c8       ??_C@_0CI@BEGEAJIM@Account?5?$CFi?5?$CI?$CFs?$CJ?5is?5suspended?5unt@ 0047f1c8     adminfn.obj
 0002:0000a1f0       ??_C@_0CO@OFKAOAA@Missing?5parameter?52?3?5account?5nam@ 0047f1f0     adminfn.obj
 0002:0000a220       ??_C@_0CL@ELEMMAOP@Missing?5parameter?51?3?5user?5name?5o@ 0047f220     adminfn.obj
 0002:0000a24c       ??_C@_0CJ@ELHGOFLJ@Unsuspension?5of?5account?5?$CFi?5?$CI?$CFs?$CJ?5@ 0047f24c     adminfn.obj
 0002:0000a278       ??_C@_0CO@MIEAJCH@Missing?5parameter?51?3?5account?5nam@ 0047f278     adminfn.obj
 0002:0000a2a8       ??_C@_04LMMJFDCN@AUTO?$AA@ 0047f2a8     adminfn.obj
 0002:0000a2b0       ??_C@_09EGJJDCBG@AUTOMATED?$AA@ 0047f2b0     adminfn.obj
 0002:0000a2bc       ??_C@_0CO@LJEPMONI@Account?5name?5must?5be?5at?5least?5on@ 0047f2bc     adminfn.obj
 0002:0000a2ec       ??_C@_0CA@NOIOGCDH@Account?5name?5?$CFs?5already?5exists?6?$AA@ 0047f2ec     adminfn.obj
 0002:0000a30c       ??_C@_0CP@BNGOPKOM@Cannot?5find?5just?5created?5user?5fo@ 0047f30c     adminfn.obj
 0002:0000a33c       ??_C@_0BF@GMDPNJJE@Created?5ACCOUNT?5?$CFi?4?6?$AA@ 0047f33c     adminfn.obj
 0002:0000a354       ??_C@_0BF@LKILBMPH@Created?5account?5?$CFi?4?6?$AA@ 0047f354     adminfn.obj
 0002:0000a36c       ??_C@_0DA@DJEDCOLI@Cannot?5recreate?5account?5?$CFi?$DL?5may?5@ 0047f36c     adminfn.obj
 0002:0000a39c       ??_C@_0BO@BFHELNAJ@Highest?5timed?5message?5reset?4?6?$AA@ 0047f39c     adminfn.obj
 0002:0000a3bc       ??_C@_0CB@KOOOGNJE@Added?5one?5user?5to?5each?5account?4?6@ 0047f3bc     adminfn.obj
 0002:0000a3e0       ??_C@_0BE@IJABBFLL@Created?5object?5?$CFi?4?6?$AA@ 0047f3e0     adminfn.obj
 0002:0000a3f4       ??_C@_0BE@BPAPFDFK@First?5tag?5invalid?4?6?$AA@ 0047f3f4     adminfn.obj
 0002:0000a408       ??_C@_0BF@LLPPHHBI@First?5data?5invalid?4?6?$AA@ 0047f408     adminfn.obj
 0002:0000a420       ??_C@_0BD@CLLFLMDF@Rest?5tag?5invalid?4?6?$AA@ 0047f420     adminfn.obj
 0002:0000a434       ??_C@_0BE@GGMGLBDO@Rest?5data?5invalid?4?6?$AA@ 0047f434     adminfn.obj
 0002:0000a448       ??_C@_0BH@NIMAHDJN@Created?5list?5node?5?$CFi?4?6?$AA@ 0047f448     adminfn.obj
 0002:0000a460       ??_C@_0CJ@MCCCNDLJ@Couldn?8t?5create?5table?5?$CFi?5with?5si@ 0047f460     adminfn.obj
 0002:0000a48c       ??_C@_0DF@OFFKFMGN@Created?5table?5?$CFi?0?5expected?5size?5@ 0047f48c     adminfn.obj
 0002:0000a4c4       ??_C@_0BO@LNDHLEMH@Cannot?5find?5message?5name?5?$CFs?4?6?$AA@ 0047f4c4     adminfn.obj
 0002:0000a4e4       ??_C@_0BD@OIBEKILL@Created?5timer?5?$CFi?4?6?$AA@ 0047f4e4     adminfn.obj
 0002:0000a4f8       ??_C@_0BK@BMDJEAFF@Error?5creating?5resource?4?6?$AA@ 0047f4f8     adminfn.obj
 0002:0000a514       ??_C@_0DN@IGCGEHPG@WARNING?3?5do?5not?5change?5player?5na@ 0047f514     adminfn.obj
 0002:0000a558       ??_C@_0EI@NPONHMHN@Use?5send?5o?50?5AdminChangeUserName@ 0047f558     adminfn.obj
 0002:0000a5a0       ??_C@_0FC@GCDEGCOD@Failure?5to?5do?5so?5will?5result?5in?5@ 0047f5a0     adminfn.obj
 0002:0000a5f4       ??_C@_0BK@FBOAOIJ@Timer?5?$CFi?5does?5not?5exist?4?6?$AA@ 0047f5f4     adminfn.obj
 0002:0000a610       ??_C@_0BO@PCIJHGHL@This?5timer?5has?5been?5deleted?4?6?$AA@ 0047f610     adminfn.obj
 0002:0000a630       ??_C@_0BM@NEMCDCCC@Account?5?$CFi?5does?5not?5exist?4?6?$AA@ 0047f630     adminfn.obj
 0002:0000a64c       ??_C@_0CE@CMJCFMJM@You?5can?8t?5delete?5your?5own?5accoun@ 0047f64c     adminfn.obj
 0002:0000a670       ??_C@_0BN@BKFJNKIO@Account?5?$CFi?5will?5be?5deleted?4?6?$AA@ 0047f670     adminfn.obj
 0002:0000a690       ??_C@_0CF@LKJFJJFD@Cannot?5find?5user?5with?5object?5id?5@ 0047f690     adminfn.obj
 0002:0000a6b8       ??_C@_0FA@DALBOMDB@Someone?5is?5logged?5in?5as?5that?5use@ 0047f6b8     adminfn.obj
 0002:0000a708       ??_C@_0BH@HLENFHJB@Deleting?5the?5?$CFi?5user?4?6?$AA@ 0047f708     adminfn.obj
 0002:0000a720       ??_C@_0CF@BBPBCAPN@Can?8t?5reference?5object?5with?5int?5@ 0047f720     adminfn.obj
 0002:0000a748       ??_C@_0CH@KJPNBAAG@AdminSendList?5couldn?8t?5find?5list@ 0047f748     adminfn.obj
 0002:0000a770       ??_C@_0BL@LBGCFKLN@Cannot?5find?5message?5?8?$CFs?8?4?6?$AA@ 0047f770     adminfn.obj
 0002:0000a78c       ??_C@_0CP@LKPNABJG@AdminSendList?5completed?5in?5?$CF?43f?5@ 0047f78c     adminfn.obj
 0002:0000a7bc       ??_C@_0CH@LCGCECMB@OBJECT?5?$CFi?5can?8t?5handle?5MESSAGE?5?$CF@ 0047f7bc     adminfn.obj
 0002:0000a7e4       ??_C@_0CM@NCOBDPBM@Message?5?$CFs?5completed?5in?5?$CF?43f?5mic@ 0047f7e4     adminfn.obj
 0002:0000a810       ??_C@_0CK@OMFMGIBE@?3?$DM?5return?5from?5OBJECT?5?$CFi?5MESSAGE@ 0047f810     adminfn.obj
 0002:0000a83c       ??_C@_07NFANNNEC@UNKNOWN?$AA@ 0047f83c     adminfn.obj
 0002:0000a844       ??_C@_08FHIBKDGK@?3?5?5?5?$DN?$DN?5?$CC?$AA@ 0047f844     adminfn.obj
 0002:0000a850       ??_C@_03KHICJKCI@?4?4?4?$AA@ 0047f850     adminfn.obj
 0002:0000a854       ??_C@_02MBJIFMOJ@?$CC?6?$AA@ 0047f854     adminfn.obj
 0002:0000a858       ??_C@_09DPMBDOD@?$DMinvalid?$DO?$AA@ 0047f858     adminfn.obj
 0002:0000a864       ??_C@_0BG@MHGCJFC@?3?5?5?5is?5CLASS?5?$CFs?5?$CI?$CFi?$CJ?6?$AA@ 0047f864     adminfn.obj
 0002:0000a87c       ??_C@_0BH@FPMFKAHI@Sent?5to?5gamers?3?5?8?$CFs?8?4?6?$AA@ 0047f87c     adminfn.obj
 0002:0000a894       ??_C@_0BJ@PJLLJBBB@Cannot?5find?5class?5?8?$CFs?8?4?6?$AA@ 0047f894     adminfn.obj
 0002:0000a8b0       ??_C@_0CK@GIMJHLON@CLASS?5?$CFi?5?$CFs?5cannot?5handle?5MESSAG@ 0047f8b0     adminfn.obj
 0002:0000a8dc       ??_C@_0CJ@LGBOIBEH@?3?$DM?5?$CFi?5instance?$CIs?$CJ?5sent?5MESSAGE?5?$CF@ 0047f8dc     adminfn.obj
 0002:0000a908       ??_C@_0BJ@GPNBOJCH@Cannot?5find?5MESSAGE?5?$CFs?4?6?$AA@ 0047f908     adminfn.obj
 0002:0000a924       ??_C@_0DA@BIEIIFOD@Cannot?5find?5MESSAGE?5?$CFs?5?$CI?$CFi?$CJ?5for?5@ 0047f924     adminfn.obj
 0002:0000a954       ??_C@_0BJ@JJFMHIEG@Cannot?5find?5ACCOUNT?5?$CFi?4?6?$AA@ 0047f954     adminfn.obj
 0002:0000a970       ??_C@_0DG@EKFDPIBE@AdminAddAccount?5adding?5?$CFi?5credit@ 0047f970     adminfn.obj
 0002:0000a9a8       ??_C@_0DC@OIDAJBKD@AdminKickoffAll?5kicking?5everyone@ 0047f9a8     adminfn.obj
 0002:0000a9dc       ??_C@_0CD@DOLNEDPL@ACCOUNT?5?$CFi?5?$CI?$CFs?$CJ?5is?5not?5logged?5on@ 0047f9dc     adminfn.obj
 0002:0000aa00       ??_C@_0CF@KGFBHIFB@ACCOUNT?5?$CFi?5?$CI?$CFs?$CJ?5is?5not?5in?5the?5ga@ 0047fa00     adminfn.obj
 0002:0000aa28       ??_C@_0DN@OLABEBMD@AdminKickoffAccount?5kicking?5ACCO@ 0047fa28     adminfn.obj
 0002:0000aa68       ??_C@_0CE@JDEFGBCD@AdminHangupAll?5hanging?5up?5everyo@ 0047fa68     adminfn.obj
 0002:0000aa8c       ??_C@_0CD@LBPNLGFL@ACCOUNT?5?$CFi?5?$CI?$CFs?$CJ?5is?5not?5logged?5in@ 0047fa8c     adminfn.obj
 0002:0000aab0       ??_C@_0BJ@NMJDACPA@Cannot?5hangup?5yourself?4?6?$AA@ 0047fab0     adminfn.obj
 0002:0000aacc       ??_C@_0DD@JFIJHIJI@ACCOUNT?5?$CFi?5?$CI?$CFs?$CJ?5SESSION?5?$CFi?5has?5b@ 0047facc     adminfn.obj
 0002:0000ab00       ??_C@_0EG@BLPEPENM@This?5command?5will?5only?5affect?5sp@ 0047fb00     adminfn.obj
 0002:0000ab48       ??_C@_0P@PJLLBMJN@IP?5?$CFs?5blocked?6?$AA@ 0047fb48     adminfn.obj
 0002:0000ab58       ??_C@_0BK@NOIMHOKI@IP?5?$CFs?5has?5been?5unblocked?6?$AA@ 0047fb58     adminfn.obj
 0002:0000ab74       ??_C@_0CJ@JJKHENIC@Couldn?$GAt?5build?5IP?5address?5bad?5fo@ 0047fb74     adminfn.obj
 0002:0000aba0       ??_C@_0BJ@HEKOBJOB@Cannot?5find?5SESSION?5?$CFi?4?6?$AA@ 0047fba0     adminfn.obj
 0002:0000abbc       ??_C@_0BM@ECPCDHON@Cannot?5hangup?5on?5yourself?4?6?$AA@ 0047fbbc     adminfn.obj
 0002:0000abd8       ??_C@_0BM@NLEGEMHN@Cannot?5hangup?5the?5console?4?6?$AA@ 0047fbd8     adminfn.obj
 0002:0000abf4       ??_C@_0CD@JCBJLGFK@SESSION?5?$CFi?5has?5been?5disconnected@ 0047fbf4     adminfn.obj
 0002:0000ac18       ??_C@_0CE@ECMNCMNA@AdminReloadSystem?5reloading?5syst@ 0047fc18     adminfn.obj
 0002:0000ac3c       ??_C@_0CH@JOLFIKID@Unloading?5game?0?5kodbase?0?5and?5?4bo@ 0047fc3c     adminfn.obj
 0002:0000ac64       ??_C@_0CF@ILKDFFAL@Loading?5game?0?5kodbase?0?5and?5?4bof?5@ 0047fc64     adminfn.obj
 0002:0000ac8c       ??_C@_0DA@MHPEALBM@AdminReload?5couldn?8t?5load?5game?4?5@ 0047fc8c     adminfn.obj
 0002:0000acbc       ??_C@_0BB@HIOEMGJK@AdminReloadGame?6?$AA@ 0047fcbc     adminfn.obj
 0002:0000acd0       ??_C@_09PDLLILKG@person?5is?$AA@ 0047fcd0     adminfn.obj
 0002:0000acdc       ??_C@_0L@GLJFCIPH@people?5are?$AA@ 0047fcdc     adminfn.obj
 0002:0000ace8       ??_C@_0CJ@PGLLCELM@Cannot?5reload?5game?5because?5?$CFi?5?$CFs@ 0047fce8     adminfn.obj
 0002:0000ad14       ??_C@_0BD@PFNEOLGF@Unloading?5game?4?4?4?5?$AA@ 0047fd14     adminfn.obj
 0002:0000ad28       ??_C@_0BP@FFDCAFHP@Game?5save?5time?5forced?5to?5?$CI?$CFi?$CJ?6?$AA@ 0047fd28     adminfn.obj
 0002:0000ad48       ??_C@_0CD@OBLHHFHI@Forcing?5game?5save?5time?5to?5?$CI?$CFi?$CJ?4?4@ 0047fd48     adminfn.obj
 0002:0000ad6c       ??_C@_0BB@FGLGGBAM@Loading?5game?4?4?4?5?$AA@ 0047fd6c     adminfn.obj
 0002:0000ad80       ??_C@_0CO@GBCNNJBG@AdminReload?5couldn?8t?5reload?5all?0@ 0047fd80     adminfn.obj
 0002:0000adb0       ??_C@_0DG@CMBNNFFG@Cannot?5delete?5unused?5accounts?5be@ 0047fdb0     adminfn.obj
 0002:0000ade8       ??_C@_0CD@NEOGGIAP@Number?5of?5accounts?5before?5is?3?5?$CFi@ 0047fde8     adminfn.obj
 0002:0000ae0c       ??_C@_0DH@PCNDLCBP@Number?5of?5accounts?5after?5is?3?5?$CFi?0@ 0047fe0c     adminfn.obj
 0002:0000ae44       ??_C@_0CO@FJFBMHIG@AdminReloadMotd?5reloading?5messag@ 0047fe44     adminfn.obj
 0002:0000ae74       ??_C@_0BD@PLIDIBFE@Reloading?5motd?4?4?4?5?$AA@ 0047fe74     adminfn.obj
 0002:0000ae88       ??_C@_0BH@JACBNOML@Reloading?5packages?4?4?4?5?$AA@ 0047fe88     adminfn.obj
 0002:0000aea0       ??_C@_0BL@PJFPICAB@Invalid?5systimer?5type?5?$CFi?4?6?$AA@ 0047fea0     adminfn.obj
 0002:0000aebc       ??_C@_0BE@NOKKOFOC@Systimer?5disabled?4?6?$AA@ 0047febc     adminfn.obj
 0002:0000aed0       ??_C@_0BD@HGDIGJBL@Systimer?5enabled?4?6?$AA@ 0047fed0     adminfn.obj
 0002:0000aee4       ??_C@_06FLFMPJFM@Said?4?6?$AA@ 0047fee4     adminfn.obj
 0002:0000aeec       ??_C@_0DA@EJBKKEO@AdminSayEachAdminSession?5no?5send@ 0047feec     adminfn.obj
 0002:0000af1c       ??_C@_0O@PMKNNGMO@Administrator?$AA@ 0047ff1c     adminfn.obj
 0002:0000af2c       ??_C@_0P@CNGPNFGC@?$CFs?5says?0?5?$CC?$CFs?$CC?6?$AA@ 0047ff2c     adminfn.obj
 0002:0000af3c       ??_C@_0CP@DBEJKIDN@Recursive?5read?5or?5script?5command@ 0047ff3c     adminfn.obj
 0002:0000af6c       ??_C@_0N@FBAGLLCI@commands?4txt?$AA@ 0047ff6c     adminfn.obj
 0002:0000af7c       ??_C@_0BD@NJLLFBEO@Error?5opening?5?$CFs?4?6?$AA@ 0047ff7c     adminfn.obj
 0002:0000af90       ??_C@_0P@PFKOLANC@commands?4state?$AA@ 0047ff90     adminfn.obj
 0002:0000afa0       ??_C@_01GBGANLPD@0?$AA@    0047ffa0     adminfn.obj
 0002:0000afa4       ??_C@_01NOFIACDB@w?$AA@    0047ffa4     adminfn.obj
 0002:0000afa8       ??_C@_01HIHLOKLC@1?$AA@    0047ffa8     adminfn.obj
 0002:0000afac       ??_C@_0BC@EIGIPKIB@commands?4response?$AA@ 0047ffac     adminfn.obj
 0002:0000afc0       ??_C@_06FOMKNGNI@?$DO?$DO?5?$CFs?6?$AA@ 0047ffc0     adminfn.obj
 0002:0000afc8       ??_C@_01FDFGLJHB@2?$AA@    0047ffc8     adminfn.obj
 0002:0000afcc       ??_C@_01EKENIIDA@3?$AA@    0047ffcc     adminfn.obj
 0002:0000afd0       ??_C@_0FH@CHIDGBIL@?9?9?9?9?9?9?9?9?9?9?9?9?9?9?9?9?9?9?9?9?9?9?9?9?9?9?9?9?9?9?9?9@ 0047ffd0     adminfn.obj
 0002:0000b028       ??_C@_0DJ@DJPJLFPK@AcceptSocketConnections?5socket?$CI?$CJ@ 00480028     async.obj
 0002:0000b064       ??_C@_0DO@PDMBCHLK@AcceptSocketConnections?5error?5se@ 00480064     async.obj
 0002:0000b0a4       ??_C@_0DM@LLNIJGLF@AcceptSocketConnections?5error?5se@ 004800a4     async.obj
 0002:0000b0e0       ??_C@_0DP@LPHOOMCH@AcceptSocketConnections?5error?5se@ 004800e0     async.obj
 0002:0000b120       ??_C@_0DO@DEKCCOAA@AcceptSocketConnections?5error?5se@ 00480120     async.obj
 0002:0000b160       ??_C@_0DH@PCLBALEB@AcceptSocketConnections?5bind?5fai@ 00480160     async.obj
 0002:0000b198       ??_C@_0DJ@EKMFFCDL@AcceptSocketConnections?5listen?5f@ 00480198     async.obj
 0002:0000b1d4       ??_C@_0DC@DBMLLONI@AsyncSocketWrite?5couldn?8t?5get?5se@ 004801d4     async.obj
 0002:0000b208       ??_C@_07EKDNEED@async?4c?$AA@ 00480208     async.obj
 0002:0000b210       ??_C@_0CM@PFPNFHBK@File?5?$CFs?5line?5?$CFi?5release?5of?5non?9o@ 00480210     async.obj
 0002:0000b23c       ??_C@_0BP@DFJKPAJA@async?5write?5wrote?5?$CFi?1?$CFi?5bytes?6?$AA@ 0048023c     async.obj
 0002:0000b25c       ??_C@_0DD@IJAAFIBH@AsyncSocketRead?5couldn?8t?5get?5ses@ 0048025c     async.obj
 0002:0000b290       ??_C@_0ED@PDICJBH@AsyncSocketRead?5got?5?$CFi?5bytes?5fro@ 00480290     async.obj
 0002:0000b2d4       ??_C@_0CK@LFFBCHKK@InitAsyncConnections?5can?8t?5open?5@ 004802d4     async_windows.obj
 0002:0000b300       ??_C@_01ICJEACDI@?$DL?$AA@ 00480300     async_windows.obj
 0002:0000b304       ??_C@_0CL@CBAJFOID@ExitAsyncConnections?5can?8t?5close@ 00480304     async_windows.obj
 0002:0000b330       ??_C@_0CF@CMDEJPPO@AsyncSocketAccept?5got?5non?9accept@ 00480330     async_windows.obj
 0002:0000b358       ??_C@_0CA@GDGJOLOC@AsyncSocketAccept?5got?5error?5?$CFi?6?$AA@ 00480358     async_windows.obj
 0002:0000b378       ??_C@_0DB@DPFMPLLE@AcceptSocketConnections?5accept?5f@ 00480378     async_windows.obj
 0002:0000b3ac       ??_C@_0DF@LFPDKBDP@AcceptSocketConnections?5getpeern@ 004803ac     async_windows.obj
 0002:0000b3e4       ??_C@_0CJ@PILINKFP@Blocked?5maintenance?5connection?5f@ 004803e4     async_windows.obj
 0002:0000b410       ??_C@_0BN@ENFLFHBF@Blocked?5connection?5from?5?$CFs?4?6?$AA@ 00480410     async_windows.obj
 0002:0000b430       ??_C@_0DI@MLNGBLJB@AcceptSocketConnections?5got?5inva@ 00480430     async_windows.obj
 0002:0000b468       ??_C@_0CI@PFEFOHOF@AsyncSocketSelect?5got?5unknown?5ev@ 00480468     async_windows.obj
 0002:0000b490       ??_C@_0DF@NDEABEPO@CheckMaintenanceMask?5has?5invalid@ 00480490     async_windows.obj
 0002:0000b4c8       ??_C@_09PEHBIBEF@blakres?4c?$AA@ 004804c8     blakres.obj
 0002:0000b4d4       ??_C@_0CL@JNKPLAFD@SetResourceName?5can?8t?5find?5resou@ 004804d4     blakres.obj
 0002:0000b500       ??_C@_0DH@GNPNDKL@AddDynamicResource?5created?5resou@ 00480500     blakres.obj
 0002:0000b538       ??_C@_0DC@ILGHGBOM@ChangeDynamicResource?5got?5passed@ 00480538     blakres.obj
 0002:0000b570       ??_C@_0EM@OKPMGODE@GetResourceStrByLanguageID?5recei@ 00480570     blakres.obj
 0002:0000b5bc       ??_C@_0CA@JOGEHJFJ@Cannot?5open?5banned?5log?5file?5?$CFs?6?$AA@ 004805bc     block.obj
 0002:0000b5dc       ??_C@_0BN@BDLGAEMI@loading?5banned?5IP?5addresses?6?$AA@ 004805dc     block.obj
 0002:0000b5fc       ??_C@_0BG@NNMCOJEH@Banned?5IP?5address?5?$CFs?6?$AA@ 004805fc     block.obj
 0002:0000b614       ??_C@_0CF@PDLKMIKM@Warning?5invalid?5entry?5in?5?$CFs?5is?5?$FL@ 00480614     block.obj
 0002:0000b63c       ??_C@_0DC@CLKJCIKO@ResetBufferPool?5got?5overwrite?5of@ 0048063c     bufpool.obj
 0002:0000b670       ??_C@_0CM@PBDJNABK@GetBuffer?5got?5overwrite?5of?5a?5buf@ 00480670     bufpool.obj
 0002:0000b69c       ??_C@_0CP@MCPFJCKI@DeleteBuffer?5got?5overwrite?5of?5a?5@ 0048069c     bufpool.obj
 0002:0000b6cc       ??_C@_0CL@EFCKBOBE@AddToBufferList?5overwrote?5a?5buff@ 004806cc     bufpool.obj
 0002:0000b6f8       ??_C@_0CM@OBDLLAPM@CopyBufferList?5copying?5a?5bad?5buf@ 004806f8     bufpool.obj
 0002:0000b724       ??_C@_06NLMENLON@Daenks?$AA@ 00480724     builtin.obj
 0002:0000b72c       ??_C@_0N@FNOFMNBJ@somethingnew?$AA@ 0048072c     builtin.obj
 0002:0000b73c       ??_C@_04OHJIHAFH@None?$AA@ 0048073c     builtin.obj
 0002:0000b748       ??_C@_0EH@DIJFCOML@CreateBuiltInAccounts?5had?5Associ@ 00480748     builtin.obj
 0002:0000b790       ??_C@_0CJ@JMNKKDIO@?$FL?$CFs?$FN?5RetrieveValue?5can?8t?5find?5OB@ 00480790     ccode.obj
 0002:0000b7bc       ??_C@_0DD@KCPKPLGJ@?$FL?$CFs?$FN?5RetrieveValue?5class?5var?5can@ 004807bc     ccode.obj
 0002:0000b7f0       ??_C@_0DG@EFMFPMDE@?$FL?$CFs?$FN?5RetrieveValue?5can?8t?5find?5CL@ 004807f0     ccode.obj
 0002:0000b828       ??_C@_0FD@KGOKFNIJ@?$FL?$CFs?$FN?5RetrieveValue?5can?8t?5retriev@ 00480828     ccode.obj
 0002:0000b87c       ??_C@_0CL@JHHCPMKO@?$FL?$CFs?$FN?5RetrieveValue?5can?8t?5identif@ 0048087c     ccode.obj
 0002:0000b8a8       ??_C@_0CI@PFGMAJPL@C_Invalid?5called?9?9bad?5C?5function@ 004808a8     ccode.obj
 0002:0000b8d0       ??_C@_0BI@JCFJECE@C_SaveGame?5saving?5game?6?$AA@ 004808d0     ccode.obj
 0002:0000b8e8       ??_C@_0CH@MOPOOHGP@C_SaveGame?5got?5invalid?5save?5game@ 004808e8     ccode.obj
 0002:0000b910       ??_C@_0CL@ENKHDFJH@C_SaveGame?5can?8t?5set?5invalid?5str@ 00480910     ccode.obj
 0002:0000b93c       ??_C@_0CP@DANEPJII@C_LoadGame?5can?8t?5process?5invalid@ 0048093c     ccode.obj
 0002:0000b96c       ??_C@_0CL@OMOHCDIE@C_LoadGame?5can?8t?5get?5invalid?5str@ 0048096c     ccode.obj
 0002:0000b998       ??_C@_0CH@JFAHEBGH@C_LoadGame?5got?5invalid?5save?5game@ 00480998     ccode.obj
 0002:0000b9c0       ??_C@_0CK@HNKIKLGH@C_AddPacket?5has?5?$CD?5of?5bytes?0?5need@ 004809c0     ccode.obj
 0002:0000b9ec       ??_C@_0DI@FPLEBGM@C_SendPacket?5object?5?$CFi?5can?8t?5sen@ 004809ec     ccode.obj
 0002:0000ba24       ??_C@_0DK@FLLANJFL@C_GodLog?5can?8t?5find?5class?5?$CFi?0?5ca@ 00480a24     ccode.obj
 0002:0000ba60       ??_C@_05KJDPJACP@?$FL?$CFs?$FN?5?$AA@ 00480a60     ccode.obj
 0002:0000ba68       ??_C@_0BG@NAKHIOIG@?$DMunknown?5RESOURCE?5?$CFi?$DO?$AA@ 00480a68     ccode.obj
 0002:0000ba80       ??_C@_0BD@BJJICHNK@?$DMunknown?5CLASS?5?$CFi?$DO?$AA@ 00480a80     ccode.obj
 0002:0000ba94       ??_C@_01HNPIGOCE@?$CG?$AA@ 00480a94     ccode.obj
 0002:0000ba98       ??_C@_0BP@CNDMMOKM@C_GodLog?5can?8t?5find?5string?5?$CFi?6?$AA@ 00480a98     ccode.obj
 0002:0000bab8       ??_C@_0BE@IMOKKNNN@?$DMOBJECT?5?$CFi?5invalid?$DO?$AA@ 00480ab8     ccode.obj
 0002:0000bacc       ??_C@_0BK@KEIKADGP@?$DMOBJECT?5?$CFi?5unknown?5class?$DO?$AA@ 00480acc     ccode.obj
 0002:0000bae8       ??_C@_0BI@LOMECAKJ@?$DMOBJECT?5?$CFi?5broken?5user?$DO?$AA@ 00480ae8     ccode.obj
 0002:0000bb00       ??_C@_09EDBKIOMM@OBJECT?5?$CFi?$AA@ 00480b00     ccode.obj
 0002:0000bb0c       ??_C@_05DNIIFBMG@?$CFs?5?$CFs?$AA@ 00480b0c     ccode.obj
 0002:0000bb14       ??_C@_0DJ@PBOENFMP@C_Debug?5can?8t?5find?5class?5?$CFi?0?5can@ 00480b14     ccode.obj
 0002:0000bb50       ??_C@_0BO@JPBGDOIK@C_Debug?5can?8t?5find?5string?5?$CFi?6?$AA@ 00480b50     ccode.obj
 0002:0000bb70       ??_C@_0BF@FGKAHGHO@ACCOUNT?5?$CFi?5OBJECT?5?$CFi?$AA@ 00480b70     ccode.obj
 0002:0000bb88       ??_C@_01IHBHIGKO@?0?$AA@   00480b88     ccode.obj
 0002:0000bb8c       ??_C@_0CP@KGKGAFLJ@C_GetInactiveTime?5can?8t?5use?5non?9@ 00480b8c     ccode.obj
 0002:0000bbbc       ??_C@_0CJ@HCBEJFKG@C_GetInactiveTime?5can?8t?5find?5ses@ 00480bbc     ccode.obj
 0002:0000bbe8       ??_C@_0DE@JIGOFGPC@C_GetInactiveTime?5can?8t?5use?5sess@ 00480be8     ccode.obj
 0002:0000bc1c       ??_C@_0L@MCKOKHJB@Stack?3?6?$CFs?6?$AA@ 00480c1c     ccode.obj
 0002:0000bc28       ??_C@_0DK@BGKFNIPB@C_SendMessage?5OBJECT?5?$CFi?5can?8t?5us@ 00480c28     ccode.obj
 0002:0000bc64       ??_C@_0DG@PBJMJFAG@C_SendMessage?5OBJECT?5?$CFi?5can?8t?5se@ 00480c64     ccode.obj
 0002:0000bca0       ??_C@_0FB@KFECLNJM@C_SendMessage?5OBJECT?5?$CFi?5CLASS?5?$CFs@ 00480ca0     ccode.obj
 0002:0000bcf4       ??_C@_0DK@CPHKNAMD@C_PostMessage?5OBJECT?5?$CFi?5can?8t?5us@ 00480cf4     ccode.obj
 0002:0000bd30       ??_C@_0DH@KJEOEBFB@C_PostMessage?5OBJECT?5?$CFi?5can?8t?5se@ 00480d30     ccode.obj
 0002:0000bd68       ??_C@_0FK@DLNIPNEA@C_PostMessage?5OBJECT?5?$CFi?5CLASS?5?$CFs@ 00480d68     ccode.obj
 0002:0000bdc8       ??_C@_0FB@DBCFJJOL@C_PostMessage?5OBJECT?5?$CFi?5CLASS?5?$CFs@ 00480dc8     ccode.obj
 0002:0000be1c       ??_C@_0DP@HGEAHMLI@C_SendListMessage?5OBJECT?5?$CFi?5can?8@ 00480e1c     ccode.obj
 0002:0000be5c       ??_C@_0DO@JHPOAEOP@C_SendListMessage?5OBJECT?5?$CFi?5can?8@ 00480e5c     ccode.obj
 0002:0000be9c       ??_C@_0DK@BGGDHNHI@C_SendListMessage?5OBJECT?5?$CFi?5can?8@ 00480e9c     ccode.obj
 0002:0000bed8       ??_C@_0DL@BLMHHNPJ@C_SendListMessage?5OBJECT?5?$CFi?5can?8@ 00480ed8     ccode.obj
 0002:0000bf18       ??_C@_0EE@GFHAKPHJ@C_SendListMessageBreak?5OBJECT?5?$CFi@ 00480f18     ccode.obj
 0002:0000bf60       ??_C@_0ED@MLLFJDPH@C_SendListMessageBreak?5OBJECT?5?$CFi@ 00480f60     ccode.obj
 0002:0000bfa4       ??_C@_0DP@ENHBAFPC@C_SendListMessageBreak?5OBJECT?5?$CFi@ 00480fa4     ccode.obj
 0002:0000bfe8       ??_C@_0EA@BGPBAFLP@C_SendListMessageBreak?5OBJECT?5?$CFi@ 00480fe8     ccode.obj
 0002:0000c028       ??_C@_0EG@FHHINPOI@C_SendListMessageByClass?5OBJECT?5@ 00481028     ccode.obj
 0002:0000c070       ??_C@_0DP@MFLANMLH@C_SendListMessageByClass?5OBJECT?5@ 00481070     ccode.obj
 0002:0000c0b0       ??_C@_0EF@BLKJOBNL@C_SendListMessageByClass?5OBJECT?5@ 004810b0     ccode.obj
 0002:0000c0f8       ??_C@_0EB@GJJLNCGL@C_SendListMessageByClass?5OBJECT?5@ 004810f8     ccode.obj
 0002:0000c140       ??_C@_0EC@JPAGMEII@C_SendListMessageByClass?5OBJECT?5@ 00481140     ccode.obj
 0002:0000c188       ??_C@_0EL@KEFKHHJC@C_SendListMessageByClassBreak?5OB@ 00481188     ccode.obj
 0002:0000c1d8       ??_C@_0EE@OLOPOGJB@C_SendListMessageByClassBreak?5OB@ 004811d8     ccode.obj
 0002:0000c220       ??_C@_0EK@IAHANDMJ@C_SendListMessageByClassBreak?5OB@ 00481220     ccode.obj
 0002:0000c270       ??_C@_0EG@GMEJKGKC@C_SendListMessageByClassBreak?5OB@ 00481270     ccode.obj
 0002:0000c2b8       ??_C@_0EH@HNLLGMOI@C_SendListMessageByClassBreak?5OB@ 004812b8     ccode.obj
 0002:0000c300       ??_C@_0CN@EIKKGMGI@C_CreateObject?5can?8t?5create?5non?9@ 00481300     ccode.obj
 0002:0000c330       ??_C@_0CN@HHCIBLOH@C_GetClass?5can?8t?5deal?5with?5non?9o@ 00481330     ccode.obj
 0002:0000c360       ??_C@_0CB@MDJDEFPB@C_GetClass?5can?8t?5find?5object?5?$CFi?6@ 00481360     ccode.obj
 0002:0000c384       ??_C@_0CD@HHILNIN@?$CFs?5can?8t?5use?5invalid?5string?5?$CFi?0?$CF@ 00481384     ccode.obj
 0002:0000c3a8       ??_C@_0CM@IFJGPAFC@?$CFs?5can?8t?5use?5invalid?5resource?5?$CFi@ 004813a8     ccode.obj
 0002:0000c3d4       ??_C@_0CN@BABIKOCN@?$CFs?5can?8t?5find?5class?5?$CFi?0?5can?8t?5ge@ 004813d4     ccode.obj
 0002:0000c404       ??_C@_0BM@MDFOGEC@?$CFs?5can?8t?5use?5nil?5as?5string?6?$AA@ 00481404     ccode.obj
 0002:0000c420       ??_C@_0CK@DONFDEOK@?$CFs?5can?8t?5use?5with?5non?9string?5thi@ 00481420     ccode.obj
 0002:0000c44c       ??_C@_0DH@NKBPFIMJ@C_StringEqual?5can?8t?5use?5invalid?5@ 0048144c     ccode.obj
 0002:0000c484       ??_C@_0O@PGOPDKNB@C_StringEqual?$AA@ 00481484     ccode.obj
 0002:0000c494       ??_C@_0CJ@CPAHJLBL@C_StringEqual?5got?5NULL?5string?5re@ 00481494     ccode.obj
 0002:0000c4c0       ??_C@_0CJ@ECKMINI@C_StringEqual?5got?5NULL?5string?5re@ 004814c0     ccode.obj
 0002:0000c4ec       ??_C@_0DK@GMDBFHGC@C_StringSub?5can?8t?5modify?5first?5a@ 004814ec     ccode.obj
 0002:0000c528       ??_C@_0DA@MKBHACG@C_StringSub?5can?8t?5sub?5for?5invali@ 00481528     ccode.obj
 0002:0000c558       ??_C@_0CP@OMLJPFN@C_StringSub?5can?8t?5sub?5for?5invali@ 00481558     ccode.obj
 0002:0000c588       ??_C@_0DG@JGNMKBCI@C_StringSub?5can?8t?5find?5class?5?$CFi?0@ 00481588     ccode.obj
 0002:0000c5c0       ??_C@_0BP@NGGMOGPC@C_StringSub?5can?8t?5sub?5for?5nil?6?$AA@ 004815c0     ccode.obj
 0002:0000c5e0       ??_C@_0DC@COKIKIF@C_StringSub?5can?8t?5sub?5for?5non?9st@ 004815e0     ccode.obj
 0002:0000c614       ??_C@_0CN@BEIAECH@C_StringSub?5can?8t?5sub?5for?5null?5s@ 00481614     ccode.obj
 0002:0000c644       ??_C@_0M@OCADIDJO@C_StringSub?$AA@ 00481644     ccode.obj
 0002:0000c650       ??_C@_0CI@JIBCELGN@C_StringSub?5can?8t?5sub?0?5string?5to@ 00481650     ccode.obj
 0002:0000c678       ??_C@_07JLAMOJAL@ccode?4c?$AA@ 00481678     ccode.obj
 0002:0000c680       ??_C@_0DJ@BKONKKCC@C_StringContain?5can?8t?5use?5invali@ 00481680     ccode.obj
 0002:0000c6bc       ??_C@_0BA@CAKCLBOG@C_StringContain?$AA@ 004816bc     ccode.obj
 0002:0000c6cc       ??_C@_0CL@IHNHNICI@C_StringContain?5got?5NULL?5string?5@ 004816cc     ccode.obj
 0002:0000c6f8       ??_C@_0CL@KMPKILOL@C_StringContain?5got?5NULL?5string?5@ 004816f8     ccode.obj
 0002:0000c724       ??_C@_0CM@MNOAKIBJ@C_SetResource?5can?8t?5set?5non?9reso@ 00481724     ccode.obj
 0002:0000c750       ??_C@_0DE@OFFENKGE@C_SetResource?5can?8t?5set?5non?9dyna@ 00481750     ccode.obj
 0002:0000c784       ??_C@_0CO@KEKLAIHH@C_SetResource?5can?8t?5set?5from?5bad@ 00481784     ccode.obj
 0002:0000c7b4       ??_C@_0CM@JFAKJADF@C_SetResource?5can?8t?5set?5from?5bad@ 004817b4     ccode.obj
 0002:0000c7e0       ??_C@_0DE@KNMNBEOI@C_SetResource?5can?8t?5set?5from?5non@ 004817e0     ccode.obj
 0002:0000c814       ??_C@_0DG@EMCOEDDE@C_SetResource?5got?5dyna?5rsc?5numbe@ 00481814     ccode.obj
 0002:0000c84c       ??_C@_0CI@FNAKEEFN@C_ParseString?5can?8t?5find?5current@ 0048184c     ccode.obj
 0002:0000c874       ??_C@_0CD@HDEBMIIE@C_ParseString?5can?8t?5find?5class?5?$CF@ 00481874     ccode.obj
 0002:0000c898       ??_C@_0DB@FGBPNAAF@C_ParseString?5can?8t?5parse?5non?9te@ 00481898     ccode.obj
 0002:0000c8cc       ??_C@_0DG@CEDBDBH@C_ParseString?5can?8t?5use?5separato@ 004818cc     ccode.obj
 0002:0000c904       ??_C@_0DA@JLDCMMJF@C_ParseString?5can?8t?5callback?5non@ 00481904     ccode.obj
 0002:0000c934       ??_C@_0CI@FGBDDHL@C_SetString?5can?8t?5set?5non?9string@ 00481934     ccode.obj
 0002:0000c95c       ??_C@_0CM@GJNPLBMG@C_SetString?5can?8t?5set?5invalid?5st@ 0048195c     ccode.obj
 0002:0000c988       ??_C@_0CF@EPOKLBAM@C_SetString?5can?8t?5find?5string?5?$CFi@ 00481988     ccode.obj
 0002:0000c9b0       ??_C@_0DA@ILKJLCIB@C_SetString?5can?8t?5set?5from?5inval@ 004819b0     ccode.obj
 0002:0000c9e0       ??_C@_0CP@EIHEEFMC@C_SetString?5can?8t?5set?5from?5inval@ 004819e0     ccode.obj
 0002:0000ca10       ??_C@_0CN@JFEEINKE@C_SetString?5can?8t?5set?5from?5inval@ 00481a10     ccode.obj
 0002:0000ca40       ??_C@_0DC@JDPPAODD@C_SetString?5can?8t?5set?5from?5inval@ 00481a40     ccode.obj
 0002:0000ca74       ??_C@_0DE@LFPHCHGH@C_SetString?5can?8t?5set?5from?5inval@ 00481a74     ccode.obj
 0002:0000caa8       ??_C@_0DD@FOPBMMP@C_SetString?5can?8t?5set?5from?5non?9s@ 00481aa8     ccode.obj
 0002:0000cadc       ??_C@_0CM@MEKCMOEG@C_AppendTempString?5can?8t?5find?5st@ 00481adc     ccode.obj
 0002:0000cb08       ??_C@_0EA@FGGFAHIF@C_AppendTempString?5attempting?5to@ 00481b08     ccode.obj
 0002:0000cb48       ??_C@_0DH@NDBHBFGM@C_AppendTempString?5can?8t?5set?5fro@ 00481b48     ccode.obj
 0002:0000cb80       ??_C@_0DN@FHHBPEGJ@C_AppendTempString?5can?8t?5find?5cl@ 00481b80     ccode.obj
 0002:0000cbc0       ??_C@_0DD@JPOJLMOL@C_AppendTempString?3?5GetClassDebu@ 00481bc0     ccode.obj
 0002:0000cbf4       ??_C@_0CH@NKANCHGH@C_AppendTempString?5can?8t?5set?5fro@ 00481bf4     ccode.obj
 0002:0000cc1c       ??_C@_0DK@GJEKOLMB@C_AppendTempString?5can?8t?5set?5fro@ 00481c1c     ccode.obj
 0002:0000cc58       ??_C@_0P@HBLHOCAO@C_StringLength?$AA@ 00481c58     ccode.obj
 0002:0000cc68       ??_C@_0BD@OILFBBAB@C_StringConsistsOf?$AA@ 00481c68     ccode.obj
 0002:0000cc7c       ??_C@_0CE@DDNKADFD@C_CreateTimer?5can?8t?5find?5object?5@ 00481c7c     ccode.obj
 0002:0000cca0       ??_C@_0DJ@ENNAPMDM@C_CreateTimer?5can?8t?5create?5a?5tim@ 00481ca0     ccode.obj
 0002:0000ccdc       ??_C@_0DK@ICBMEDP@C_CreateTimer?5can?8t?5create?5timer@ 00481cdc     ccode.obj
 0002:0000cd18       ??_C@_0EF@GFJNGGEO@C_CreateTimer?5can?8t?5create?5timer@ 00481d18     ccode.obj
 0002:0000cd60       ??_C@_0EB@KBCCIPJD@C_CreateTimer?5can?8t?5create?5timer@ 00481d60     ccode.obj
 0002:0000cda4       ??_C@_0CM@OBGIOLEM@C_DeleteTimer?5can?8t?5delete?5non?9t@ 00481da4     ccode.obj
 0002:0000cdd0       ??_C@_0CO@IBMAHNKL@C_GetTimeRemaining?5can?8t?5use?5non@ 00481dd0     ccode.obj
 0002:0000ce00       ??_C@_0CL@MOLILCJC@C_GetTimeRemaining?5can?8t?5find?5ti@ 00481e00     ccode.obj
 0002:0000ce2c       ??_C@_0CN@JANKBKCH@C_IsTimer?5called?5with?5NIL?5timer?5@ 00481e2c     ccode.obj
 0002:0000ce5c       ??_C@_0CP@MJNILCDC@C_CreateRoomData?5can?8t?5use?5non?9r@ 00481e5c     ccode.obj
 0002:0000ce8c       ??_C@_0CM@FKJOHFJN@C_FreeRoom?5can?8t?5operate?5on?5non?9@ 00481e8c     ccode.obj
 0002:0000ceb8       ??_C@_0CC@PPDLDKFB@C_FreeRoom?5can?8t?5find?5room?5id?5?$CFi@ 00481eb8     ccode.obj
 0002:0000cedc       ??_C@_0CM@HAMBEHPJ@C_RoomSize?5can?8t?5operate?5on?5non?9@ 00481edc     ccode.obj
 0002:0000cf08       ??_C@_0CC@CHIGILHA@C_RoomSize?5can?8t?5find?5room?5id?5?$CFi@ 00481f08     ccode.obj
 0002:0000cf2c       ??_C@_0CP@OMPNKPLJ@C_GetLocationInfoBSP?5can?8t?5use?5n@ 00481f2c     ccode.obj
 0002:0000cf5c       ??_C@_0DJ@OFMCJPDC@C_GetLocationInfoBSP?5queryflags?5@ 00481f5c     ccode.obj
 0002:0000cf98       ??_C@_0DJ@FIELABBO@C_GetLocationInfoBSP?5row?5source?5@ 00481f98     ccode.obj
 0002:0000cfd4       ??_C@_0DJ@JLCJNCNP@C_GetLocationInfoBSP?5col?5source?5@ 00481fd4     ccode.obj
 0002:0000d010       ??_C@_0DN@OHMGJPN@C_GetLocationInfoBSP?5finerow?5sou@ 00482010     ccode.obj
 0002:0000d050       ??_C@_0DN@MNBOLKDM@C_GetLocationInfoBSP?5finecol?5sou@ 00482050     ccode.obj
 0002:0000d090       ??_C@_0DK@EMJOINOM@C_GetLocationInfoBSP?5returnflags@ 00482090     ccode.obj
 0002:0000d0cc       ??_C@_0DK@OFAKMBPM@C_GetLocationInfoBSP?5floorheight@ 004820cc     ccode.obj
 0002:0000d108       ??_C@_0DM@BKPPPEII@C_GetLocationInfoBSP?5floorheight@ 00482108     ccode.obj
 0002:0000d144       ??_C@_0DM@FIFEHJNM@C_GetLocationInfoBSP?5ceilingheig@ 00482144     ccode.obj
 0002:0000d180       ??_C@_0DH@GODFDNBC@C_GetLocationInfoBSP?5serverid?5ca@ 00482180     ccode.obj
 0002:0000d1b8       ??_C@_0CJ@OKGNEODO@C_GetLocationInfoBSP?5can?8t?5find?5@ 004821b8     ccode.obj
 0002:0000d1e4       ??_C@_0CN@OCJKJDHI@C_CanMoveInRoomBSP?5can?8t?5use?5non@ 004821e4     ccode.obj
 0002:0000d214       ??_C@_0DH@INCCIFLI@C_CanMoveInRoomBSP?5row?5source?5ca@ 00482214     ccode.obj
 0002:0000d24c       ??_C@_0DH@EOEAFGHJ@C_CanMoveInRoomBSP?5col?5source?5ca@ 0048224c     ccode.obj
 0002:0000d284       ??_C@_0DL@MCMGGKMN@C_CanMoveInRoomBSP?5finerow?5sourc@ 00482284     ccode.obj
 0002:0000d2c0       ??_C@_0DL@BKELJAM@C_CanMoveInRoomBSP?5finecol?5sourc@ 004822c0     ccode.obj
 0002:0000d2fc       ??_C@_0DF@HMPOBCEE@C_CanMoveInRoomBSP?5row?5dest?5can?8@ 004822fc     ccode.obj
 0002:0000d334       ??_C@_0DF@EKJIAIND@C_CanMoveInRoomBSP?5col?5dest?5can?8@ 00482334     ccode.obj
 0002:0000d36c       ??_C@_0DJ@PPJHJGE@C_CanMoveInRoomBSP?5finerow?5dest?5@ 0048236c     ccode.obj
 0002:0000d3a8       ??_C@_0DJ@DJJPGDPD@C_CanMoveInRoomBSP?5finecol?5dest?5@ 004823a8     ccode.obj
 0002:0000d3e4       ??_C@_0DF@FIIJNDBE@C_CanMoveInRoomBSP?5objectid?5can?8@ 004823e4     ccode.obj
 0002:0000d420       ??_C@_0EC@BPDENMCK@C_CanMoveInRoomBSP?5move?5outside?5@ 00482420     ccode.obj
 0002:0000d464       ??_C@_0CH@LNJHKKCL@C_CanMoveInRoomBSP?5can?8t?5find?5ro@ 00482464     ccode.obj
 0002:0000d48c       ??_C@_0CM@CODFEJEC@C_LineOfSightView?5can?8t?5use?5non?5@ 0048248c     ccode.obj
 0002:0000d4b8       ??_C@_0DG@LAKFMDB@C_LineOfSightView?5row?5source?5can@ 004824b8     ccode.obj
 0002:0000d4f0       ??_C@_0DG@MIGIIPPA@C_LineOfSightView?5col?5source?5can@ 004824f0     ccode.obj
 0002:0000d528       ??_C@_0DK@IJEJBFHM@C_LineOfSightView?5finerow?5source@ 00482528     ccode.obj
 0002:0000d564       ??_C@_0DK@EKCLMGLN@C_LineOfSightView?5finecol?5source@ 00482564     ccode.obj
 0002:0000d5a0       ??_C@_0DE@KDOPKHBL@C_LineOfSightView?5row?5dest?5can?8t@ 004825a0     ccode.obj
 0002:0000d5d4       ??_C@_0DE@JFIJLNIM@C_LineOfSightView?5col?5dest?5can?8t@ 004825d4     ccode.obj
 0002:0000d608       ??_C@_0DI@BKLHLGDO@C_LineOfSightView?5finerow?5dest?5c@ 00482608     ccode.obj
 0002:0000d640       ??_C@_0DI@CMNBKMKJ@C_LineOfSightView?5finecol?5dest?5c@ 00482640     ccode.obj
 0002:0000d678       ??_C@_0CL@KONPFEPP@C_LineOfSightBSP?5can?8t?5use?5non?5r@ 00482678     ccode.obj
 0002:0000d6a4       ??_C@_0DF@LHILCKMF@C_LineOfSightBSP?5row?5source?5can?8@ 004826a4     ccode.obj
 0002:0000d6dc       ??_C@_0DF@HEOJPJAE@C_LineOfSightBSP?5col?5source?5can?8@ 004826dc     ccode.obj
 0002:0000d714       ??_C@_0DJ@DAHONGMD@C_LineOfSightBSP?5finerow?5source?5@ 00482714     ccode.obj
 0002:0000d750       ??_C@_0DJ@PDBMAFAC@C_LineOfSightBSP?5finecol?5source?5@ 00482750     ccode.obj
 0002:0000d78c       ??_C@_0DD@OOCMBBBF@C_LineOfSightBSP?5row?5dest?5can?8t?5@ 0048278c     ccode.obj
 0002:0000d7c0       ??_C@_0DD@NIEKALIC@C_LineOfSightBSP?5col?5dest?5can?8t?5@ 004827c0     ccode.obj
 0002:0000d7f4       ??_C@_0DH@NDABPKAP@C_LineOfSightBSP?5finerow?5dest?5ca@ 004827f4     ccode.obj
 0002:0000d82c       ??_C@_0DH@OFGHOAJI@C_LineOfSightBSP?5finecol?5dest?5ca@ 0048282c     ccode.obj
 0002:0000d864       ??_C@_0CF@CILGMLMM@C_LineOfSightBSP?5can?8t?5find?5room@ 00482864     ccode.obj
 0002:0000d88c       ??_C@_0CN@NOCFMBFH@C_ChangeTextureBSP?5can?8t?5use?5non@ 0048288c     ccode.obj
 0002:0000d8bc       ??_C@_0DF@GGKEIFN@C_ChangeTextureBSP?5serverid?5can?8@ 004828bc     ccode.obj
 0002:0000d8f4       ??_C@_0DH@CAENBICA@C_ChangeTextureBSP?5new_texnum?5ca@ 004828f4     ccode.obj
 0002:0000d92c       ??_C@_0DC@CFDHGOBH@C_ChangeTextureBSP?5flags?5can?8t?5u@ 0048292c     ccode.obj
 0002:0000d960       ??_C@_0CH@LLIHNJCN@C_ChangeTextureBSP?5can?8t?5find?5ro@ 00482960     ccode.obj
 0002:0000d988       ??_C@_0CK@IBAMAGMB@C_MoveSectorBSP?5can?8t?5use?5non?5ro@ 00482988     ccode.obj
 0002:0000d9b4       ??_C@_0DC@HMNPFIMK@C_MoveSectorBSP?5serverid?5can?8t?5u@ 004829b4     ccode.obj
 0002:0000d9e8       ??_C@_0DD@JCGODPLD@C_MoveSectorBSP?5animation?5can?8t?5@ 004829e8     ccode.obj
 0002:0000da1c       ??_C@_0DA@DCFKBMH@C_MoveSectorBSP?5height?5can?8t?5use@ 00482a1c     ccode.obj
 0002:0000da4c       ??_C@_0CP@CAOPELHC@C_MoveSectorBSP?5speed?5can?8t?5use?5@ 00482a4c     ccode.obj
 0002:0000da7c       ??_C@_0CE@JJKHFPFC@C_MoveSectorBSP?5can?8t?5find?5room?5@ 00482a7c     ccode.obj
 0002:0000daa0       ??_C@_0CK@NOFHKJOA@C_BlockerAddBSP?5can?8t?5use?5non?5ro@ 00482aa0     ccode.obj
 0002:0000dacc       ??_C@_0CJ@JEJIGNDP@C_BlockerAddBSP?5can?8t?5use?5non?5ob@ 00482acc     ccode.obj
 0002:0000daf8       ??_C@_0CN@KAKIFBIG@C_BlockerAddBSP?5row?5can?8t?5use?5no@ 00482af8     ccode.obj
 0002:0000db28       ??_C@_0CN@GKAFFFLL@C_BlockerAddBSP?5col?5can?8t?5use?5no@ 00482b28     ccode.obj
 0002:0000db58       ??_C@_0DB@FMHFIMPI@C_BlockerAddBSP?5finerow?5can?8t?5us@ 00482b58     ccode.obj
 0002:0000db8c       ??_C@_0DB@JGNIIIMF@C_BlockerAddBSP?5finecol?5can?8t?5us@ 00482b8c     ccode.obj
 0002:0000dbc0       ??_C@_0CE@CBNBILHI@C_BlockerAddBSP?5can?8t?5find?5room?5@ 00482bc0     ccode.obj
 0002:0000dbe4       ??_C@_0CL@EIGDKOGI@C_BlockerMoveBSP?5can?8t?5use?5non?5r@ 00482be4     ccode.obj
 0002:0000dc10       ??_C@_0CK@KJDHGLHF@C_BlockerMoveBSP?5can?8t?5use?5non?5o@ 00482c10     ccode.obj
 0002:0000dc3c       ??_C@_0CO@CBHLHJFK@C_BlockerMoveBSP?5row?5can?8t?5use?5n@ 00482c3c     ccode.obj
 0002:0000dc6c       ??_C@_0CO@OLNGHNGH@C_BlockerMoveBSP?5col?5can?8t?5use?5n@ 00482c6c     ccode.obj
 0002:0000dc9c       ??_C@_0DC@DGADLIOL@C_BlockerMoveBSP?5finerow?5can?8t?5u@ 00482c9c     ccode.obj
 0002:0000dcd0       ??_C@_0DC@PMKOLMNG@C_BlockerMoveBSP?5finecol?5can?8t?5u@ 00482cd0     ccode.obj
 0002:0000dd04       ??_C@_0CF@OFJEEAIB@C_BlockerMoveBSP?5can?8t?5find?5room@ 00482d04     ccode.obj
 0002:0000dd2c       ??_C@_0CN@PMPEGPEG@C_BlockerRemoveBSP?5can?8t?5use?5non@ 00482d2c     ccode.obj
 0002:0000dd5c       ??_C@_0CM@DFEIHCIJ@C_BlockerRemoveBSP?5can?8t?5use?5non@ 00482d5c     ccode.obj
 0002:0000dd88       ??_C@_0DF@OEDBFOLB@C_BlockerRemoveBSP?5can?8t?5find?5ro@ 00482d88     ccode.obj
 0002:0000ddc0       ??_C@_0CM@IKBJJOOC@C_BlockerClearBSP?5can?8t?5use?5non?5@ 00482dc0     ccode.obj
 0002:0000ddec       ??_C@_0CG@IIBHGBKC@C_BlockerClearBSP?5can?8t?5find?5roo@ 00482dec     ccode.obj
 0002:0000de14       ??_C@_0CO@OAJDKMLN@C_GetRandomPointBSP?5can?8t?5use?5no@ 00482e14     ccode.obj
 0002:0000de44       ??_C@_0DJ@DAEHAIGM@C_GetRandomPointBSP?5maxattempts?5@ 00482e44     ccode.obj
 0002:0000de80       ??_C@_0DI@GKOMEFFM@C_GetRandomPointBSP?5row?5source?5c@ 00482e80     ccode.obj
 0002:0000deb8       ??_C@_0DI@KJIOJGJN@C_GetRandomPointBSP?5col?5source?5c@ 00482eb8     ccode.obj
 0002:0000def0       ??_C@_0DM@GBGDKHPJ@C_GetRandomPointBSP?5finerow?5sour@ 00482ef0     ccode.obj
 0002:0000df2c       ??_C@_0DM@KCABHEDI@C_GetRandomPointBSP?5finecol?5sour@ 00482f2c     ccode.obj
 0002:0000df68       ??_C@_0CI@HBACLODI@C_GetRandomPointBSP?5can?8t?5find?5r@ 00482f68     ccode.obj
 0002:0000df90       ??_C@_0CO@NDHLGPPO@C_GetStepTowardsBSP?5can?8t?5use?5no@ 00482f90     ccode.obj
 0002:0000dfc0       ??_C@_0DI@FHJFEHGJ@C_GetStepTowardsBSP?5row?5source?5c@ 00482fc0     ccode.obj
 0002:0000dff8       ??_C@_0DI@JEPHJEKI@C_GetStepTowardsBSP?5col?5source?5c@ 00482ff8     ccode.obj
 0002:0000e030       ??_C@_0DM@DIHPFKK@C_GetStepTowardsBSP?5finerow?5sour@ 00483030     ccode.obj
 0002:0000e06c       ??_C@_0DM@MAOFCGGL@C_GetStepTowardsBSP?5finecol?5sour@ 0048306c     ccode.obj
 0002:0000e0a8       ??_C@_0DG@LCNJHKF@C_GetStepTowardsBSP?5row?5dest?5can@ 004830a8     ccode.obj
 0002:0000e0e0       ??_C@_0DG@DNELINDC@C_GetStepTowardsBSP?5col?5dest?5can@ 004830e0     ccode.obj
 0002:0000e118       ??_C@_0DK@OCLAPEBB@C_GetStepTowardsBSP?5finerow?5dest@ 00483118     ccode.obj
 0002:0000e154       ??_C@_0DK@NENGOOIG@C_GetStepTowardsBSP?5finecol?5dest@ 00483154     ccode.obj
 0002:0000e190       ??_C@_0DJ@NFGKAAAO@C_GetStepTowardsBSP?5state_flags?5@ 00483190     ccode.obj
 0002:0000e1cc       ??_C@_0DG@CPFKFGPF@C_GetStepTowardsBSP?5objectid?5can@ 004831cc     ccode.obj
 0002:0000e204       ??_C@_0CI@OGAPABP@C_GetStepTowardsBSP?5can?8t?5find?5r@ 00483204     ccode.obj
 0002:0000e22c       ??_C@_0DI@NFHIJFCL@C_AppendListElem?5object?5?$CFi?5can?8t@ 0048322c     ccode.obj
 0002:0000e264       ??_C@_0CO@KDNNFEBG@C_Cons?5object?5?$CFi?5can?8t?5add?5to?5no@ 00483264     ccode.obj
 0002:0000e294       ??_C@_0DI@LOJAHNIG@C_First?5object?5?$CFi?5can?8t?5take?5Fir@ 00483294     ccode.obj
 0002:0000e2cc       ??_C@_0DN@EIICDENN@C_First?5object?5?$CFi?5can?8t?5take?5Fir@ 004832cc     ccode.obj
 0002:0000e30c       ??_C@_0DG@EMMFHFFK@C_Rest?5object?5?$CFi?5can?8t?5take?5Rest@ 0048330c     ccode.obj
 0002:0000e344       ??_C@_0DL@INMOOBAO@C_Rest?5object?5?$CFi?5can?8t?5take?5Rest@ 00483344     ccode.obj
 0002:0000e380       ??_C@_0DK@CCFMBMLI@C_Length?5object?5?$CFi?5can?8t?5take?5Le@ 00483380     ccode.obj
 0002:0000e3bc       ??_C@_0DN@NLDKMIA@C_Last?5object?5?$CFi?5can?8t?5get?5last?5@ 004833bc     ccode.obj
 0002:0000e3fc       ??_C@_0DE@IOJMGPHK@C_Nth?5object?5?$CFi?5can?8t?5take?5Nth?5o@ 004833fc     ccode.obj
 0002:0000e430       ??_C@_0DJ@OJAKNJAC@C_Nth?5object?5?$CFi?5can?8t?5take?5Nth?5o@ 00483430     ccode.obj
 0002:0000e46c       ??_C@_0CN@CPBIMMKD@C_Nth?5can?8t?5take?5Nth?5with?5n?5?$DN?5no@ 0048346c     ccode.obj
 0002:0000e49c       ??_C@_0DI@KADBICNI@C_IsListMatch?5object?5?$CFi?5can?8t?5ch@ 0048349c     ccode.obj
 0002:0000e4d4       ??_C@_0DI@GDHDOBOL@C_IsListMatch?5object?5?$CFi?5can?8t?5ch@ 004834d4     ccode.obj
 0002:0000e50c       ??_C@_0DH@NOMIANJA@C_SetFirst?5object?5?$CFi?5can?8t?5set?5e@ 0048350c     ccode.obj
 0002:0000e544       ??_C@_0DK@OKPGIHBI@C_SetNth?5object?5?$CFi?5can?8t?5take?5Nt@ 00483544     ccode.obj
 0002:0000e580       ??_C@_0DN@NBEHIIHE@C_InsertListElem?5object?5?$CFi?5can?8t@ 00483580     ccode.obj
 0002:0000e5c0       ??_C@_0FE@BIFNBFNL@C_InsertListElem?5object?5?$CFi?5can?8t@ 004835c0     ccode.obj
 0002:0000e614       ??_C@_0DL@LNAGOLDL@C_SwapListElem?5object?5?$CFi?5can?8t?5s@ 00483614     ccode.obj
 0002:0000e650       ??_C@_0EA@CKKDOAMK@C_SwapListElem?5object?5?$CFi?5can?8t?5t@ 00483650     ccode.obj
 0002:0000e690       ??_C@_0EJ@INKONKP@C_SwapListElem?5object?5?$CFi?5given?5i@ 00483690     ccode.obj
 0002:0000e6dc       ??_C@_0DP@MPHBGNAH@C_DelListElem?5object?5?$CFi?5can?8t?5de@ 004836dc     ccode.obj
 0002:0000e720       ??_C@_0ED@KJDHOJGB@C_DelLastListElem?5object?5?$CFi?5can?8@ 00483720     ccode.obj
 0002:0000e764       ??_C@_0DM@CKIKHGL@C_FindListElem?5object?5?$CFi?5can?8t?5f@ 00483764     ccode.obj
 0002:0000e7a0       ??_C@_0EG@BFGLFGPD@C_GetAllListNodesByClass?5object?5@ 004837a0     ccode.obj
 0002:0000e7e8       ??_C@_0EF@PFKCEJO@C_GetAllListNodesByClass?5object?5@ 004837e8     ccode.obj
 0002:0000e830       ??_C@_0DO@JNPLBACK@C_GetAllListNodesByClass?5object?5@ 00483830     ccode.obj
 0002:0000e870       ??_C@_0DL@BLFIOEHN@C_GetListNode?5object?5?$CFi?5can?8t?5fi@ 00483870     ccode.obj
 0002:0000e8ac       ??_C@_0DK@OHGAJIJG@C_GetListNode?5object?5?$CFi?5can?8t?5us@ 004838ac     ccode.obj
 0002:0000e8e8       ??_C@_0DE@ENIJJDEJ@C_GetListNode?5object?5?$CFi?5can?8t?5fi@ 004838e8     ccode.obj
 0002:0000e920       ??_C@_0EB@CPKHJEMF@C_GetListElemByClass?5object?5?$CFi?5c@ 00483920     ccode.obj
 0002:0000e964       ??_C@_0DK@ICDABOEE@C_GetListElemByClass?5object?5?$CFi?5c@ 00483964     ccode.obj
 0002:0000e9a0       ??_C@_0DA@DPHHHJOP@C_ListCopy?5object?5?$CFi?5can?8t?5copy?5@ 004839a0     ccode.obj
 0002:0000e9d0       ??_C@_0DB@PHHPDPKE@C_Random?5got?5an?5invalid?5boundary@ 004839d0     ccode.obj
 0002:0000ea04       ??_C@_0CM@OIHBFEMK@C_Random?5got?5low?5?$DO?5high?5boundary@ 00483a04     ccode.obj
 0002:0000ea30       ??_C@_0BH@HKHBKEML@C_Abs?5can?8t?5use?5?$CFi?0?$CFi?6?$AA@ 00483a30     ccode.obj
 0002:0000ea48       ??_C@_0BI@EHHDNPJB@C_Sqrt?5can?8t?5use?5?$CFi?0?$CFi?6?$AA@ 00483a48     ccode.obj
 0002:0000ea60       ??_C@_0CM@OPGMBCJI@C_Sqrt?5result?5undefined?5for?5nega@ 00483a60     ccode.obj
 0002:0000ea8c       ??_C@_0BJ@CLPIKBJI@C_Bound?5can?8t?5use?5?$CFi?0?$CFi?6?$AA@ 00483a8c     ccode.obj
 0002:0000eaa8       ??_C@_0CD@OOMPKDHC@C_Bound?5can?8t?5use?5min?5bound?5?$CFi?0?$CF@ 00483aa8     ccode.obj
 0002:0000eacc       ??_C@_0CD@PLEEHHIA@C_Bound?5can?8t?5use?5max?5bound?5?$CFi?0?$CF@ 00483acc     ccode.obj
 0002:0000eaf0       ??_C@_0DA@MMMHCBNK@C_CreateTable?5can?8t?5use?5non?9int?5@ 00483af0     ccode.obj
 0002:0000eb20       ??_C@_0CK@ONEHEBFJ@C_AddTableEntry?5can?8t?5use?5table?5@ 00483b20     ccode.obj
 0002:0000eb4c       ??_C@_0CI@HFBOLFGB@C_AddTableEntry?5can?8t?5use?5key?5id@ 00483b4c     ccode.obj
 0002:0000eb74       ??_C@_0CK@EDAFNIIN@C_GetTableEntry?5can?8t?5use?5table?5@ 00483b74     ccode.obj
 0002:0000eba0       ??_C@_0CN@KIAMGKJ@C_DeleteTableEntry?5can?8t?5use?5tab@ 00483ba0     ccode.obj
 0002:0000ebd0       ??_C@_0CI@MMMHBJPG@C_DeleteTable?5can?8t?5use?5table?5id@ 00483bd0     ccode.obj
 0002:0000ebf8       ??_C@_0DI@CLCINIP@C_DeleteTable?5is?5deprecated?0?5tab@ 00483bf8     ccode.obj
 0002:0000ec30       ??_C@_0CO@BJLALNIO@C_RecycleUser?5can?8t?5recycle?5non?9@ 00483c30     ccode.obj
 0002:0000ec60       ??_C@_0CE@BOENILJO@C_RecycleUser?5can?8t?5find?5object?5@ 00483c60     ccode.obj
 0002:0000ec84       ??_C@_0DC@OGPJIIEN@C_RecycleUser?5can?8t?5find?5user?5wh@ 00483c84     ccode.obj
 0002:0000ecb8       ??_C@_0CN@LJOMBJKO@C_StringToNumber?5can?8t?5use?5non?9s@ 00483cb8     ccode.obj
 0002:0000ece8       ??_C@_0DB@BHFCCPK@C_StringToNumber?5can?8t?5use?5inval@ 00483ce8     ccode.obj
 0002:0000ed1c       ??_C@_0DI@IGDHJPDF@STAT_TYPE?5expected?5in?5C_RecordSt@ 00483d1c     ccode.obj
 0002:0000ed54       ??_C@_0DO@KJMGLGND@Wrong?5Number?5of?5Paramenters?5in?5C@ 00483d54     ccode.obj
 0002:0000ed94       ??_C@_0DK@NCPDNPGN@Wrong?5Type?5of?5Parameter?5in?5C_Rec@ 00483d94     ccode.obj
 0002:0000edd0       ??_C@_0EA@IEIKBKFC@Wrong?5Number?5of?5Paramenters?5in?5C@ 00483dd0     ccode.obj
 0002:0000ee10       ??_C@_0DO@CFGOFLKM@Wrong?5Number?5of?5Paramenters?5in?5C@ 00483e10     ccode.obj
 0002:0000ee50       ??_C@_0DK@FOFLDCBC@Wrong?5Type?5of?5Parameter?5in?5C_Rec@ 00483e50     ccode.obj
 0002:0000ee8c       ??_C@_0DC@OJNCPNNH@NULL?5string?5in?5C_RecordStat?$CI?$CJ?5fo@ 00483e8c     ccode.obj
 0002:0000eec0       ??_C@_0DP@HPNMEFLE@Wrong?5Number?5of?5Paramenters?5in?5C@ 00483ec0     ccode.obj
 0002:0000ef00       ??_C@_0DL@FDHOOOFG@Wrong?5Type?5of?5Parameter?5in?5C_Rec@ 00483f00     ccode.obj
 0002:0000ef3c       ??_C@_0DD@LIMHFBKG@NULL?5string?5in?5C_RecordStat?$CI?$CJ?5fo@ 00483f3c     ccode.obj
 0002:0000ef70       ??_C@_0DK@EFLFBCAO@Wrong?5Number?5of?5Paramenters?5in?5C@ 00483f70     ccode.obj
 0002:0000efac       ??_C@_0CK@KOIIOLLB@C_RecordStat?5can?8t?5use?5non?9sessi@ 00483fac     ccode.obj
 0002:0000efd8       ??_C@_0DG@GBAOHKEJ@Wrong?5Type?5of?5Parameter?5in?5C_Rec@ 00483fd8     ccode.obj
 0002:0000f010       ??_C@_0CC@DKANGHJJ@C_RecordStat?5guild?5string?5is?5nul@ 00484010     ccode.obj
 0002:0000f034       ??_C@_0CO@MFEBBFGE@NULL?5string?5in?5C_RecordStat?$CI?$CJ?5fo@ 00484034     ccode.obj
 0002:0000f068       ??_C@_0EB@OLANDFEF@Wrong?5Number?5of?5Paramenters?5in?5C@ 00484068     ccode.obj
 0002:0000f0ac       ??_C@_0DN@DHPABBNB@C_RecordStat?5STAT_PLAYERSUICIDE?5@ 004840ac     ccode.obj
 0002:0000f0ec       ??_C@_0DN@MGEBPCOJ@Wrong?5Type?5of?5Parameter?5in?5C_Rec@ 004840ec     ccode.obj
 0002:0000f12c       ??_C@_0DF@IJCDFGPA@NULL?5string?5in?5C_RecordStat?$CI?$CJ?5fo@ 0048412c     ccode.obj
 0002:0000f164       ??_C@_0DJ@FKEKPEBA@Wrong?5Number?5of?5Paramenters?5in?5C@ 00484164     ccode.obj
 0002:0000f1a0       ??_C@_0DF@FFIBBFOD@Wrong?5Type?5of?5Parameter?5in?5C_Rec@ 004841a0     ccode.obj
 0002:0000f1d8       ??_C@_0CO@LDFCEKEL@C_RecordStat?5STAT_GUILD?0?5guild?5s@ 004841d8     ccode.obj
 0002:0000f208       ??_C@_0CN@MLCKFFIF@NULL?5string?5in?5C_RecordStat?$CI?$CJ?5fo@ 00484208     ccode.obj
 0002:0000f238       ??_C@_0EA@EGPKPALB@Wrong?5Number?5of?5Paramenters?5in?5C@ 00484238     ccode.obj
 0002:0000f278       ??_C@_0DM@INCNBEO@Wrong?5Type?5of?5Parameter?5in?5C_Rec@ 00484278     ccode.obj
 0002:0000f2b4       ??_C@_0DD@BLFCIIEP@C_RecordStat?5STAT_GUILDDISBAND?0?5@ 004842b4     ccode.obj
 0002:0000f2e8       ??_C@_0CO@GKOKGDKH@ERROR?3?5Unknown?5stat_type?5?$CI?$CFd?$CJ?5in@ 004842e8     ccode.obj
 0002:0000f318       ??_C@_0CM@CEELFOH@C_GetSessionIP?5can?8t?5use?5non?5ses@ 00484318     ccode.obj
 0002:0000f344       ??_C@_0CN@MPLMMEBH@C_GetSessionIP?5can?8t?5find?5sessio@ 00484344     ccode.obj
 0002:0000f374       ??_C@_0DB@KCIENKKL@C_SetClassVar?5can?8t?5find?5the?5cla@ 00484374     ccode.obj
 0002:0000f3a8       ??_C@_0CO@DIEDEFJN@C_SetClassVar?5can?8t?5look?5for?5non@ 004843a8     ccode.obj
 0002:0000f3d8       ??_C@_0CF@GOMNCAFM@C_SetClassVar?5cannot?5find?5class?5@ 004843d8     ccode.obj
 0002:0000f400       ??_C@_0DE@OCPKHEAA@C_SetClassVar?5passed?5bad?5class?5v@ 00484400     ccode.obj
 0002:0000f434       ??_C@_0DI@MKECHJNC@C_SetClassVar?5can?8t?5find?5class?5?$CF@ 00484434     ccode.obj
 0002:0000f46c       ??_C@_0CP@FIFIHNGA@C_SetClassVar?3?5GetClassDebugStr?5@ 0048446c     ccode.obj
 0002:0000f49c       ??_C@_0DK@BPIFONAA@C_SetClassVar?5cannot?5find?5classv@ 0048449c     ccode.obj
 0002:0000f4e0       ??_C@_0DG@JPCBNMIM@?$DM?$DMWriteChannelBuffer?5got?5string?5@ 004844e0     chanbuf.obj
 0002:0000f518       ??_C@_09GAPPLDHE@debug?4txt?$AA@ 00484518     channel.obj
 0002:0000f524       ??_C@_09KLJCJGHB@error?4txt?$AA@ 00484524     channel.obj
 0002:0000f530       ??_C@_07POILLFDI@log?4txt?$AA@ 00484530     channel.obj
 0002:0000f538       ??_C@_07CFHFNLMA@god?4txt?$AA@ 00484538     channel.obj
 0002:0000f540       ??_C@_09MPPMNJKN@admin?4txt?$AA@ 00484540     channel.obj
 0002:0000f54c       ??_C@_0CL@NGLGFKJH@OpenDefaultChannels?5couldn?8t?5ope@ 0048454c     channel.obj
 0002:0000f578       ??_C@_03JMGKJPBM@?$CFs?$HM?$AA@ 00484578     channel.obj
 0002:0000f57c       ??_C@_02PCIJFNDE@?$AN?6?$AA@ 0048457c     channel.obj
 0002:0000f580       ??_C@_05MPHDEKGO@?$CFs?5?$HM?5?$AA@ 00484580     channel.obj
 0002:0000f588       ??_C@_0L@CPHMKCIO@?$CFs?5?$HM?5?$FL?$CFs?$FN?5?$AA@ 00484588     channel.obj
 0002:0000f594       ??_C@_07BGGPNFB@ACCOUNT?$AA@ 00484594     channel.obj
 0002:0000f59c       ??_C@_0DA@KOKDOOHB@?$CFs?5?$HM?5Line?5excluded?5due?5to?5person@ 0048459c     channel.obj
 0002:0000f5cc       ??_C@_02BOGAIONP@ab?$AA@   004845cc     channel.obj
 0002:0000f5d0       ??_C@_07PAPMLLED@class?4c?$AA@ 004845d0     class.obj
 0002:0000f5d8       ??_C@_0CF@GBOAALNL@SetClassName?5can?8t?5find?5class?5id@ 004845d8     class.obj
 0002:0000f600       ??_C@_0FG@MFJAJPPE@SetClassesSuperPtr?5found?5class?5?$CF@ 00484600     class.obj
 0002:0000f658       ??_C@_0FN@IILFNEFN@Fatal?3?5Class?5hash?5bin?5?$CF3i?5has?5le@ 00484658     class.obj
 0002:0000f6b8       ??_C@_0EK@PKGIOFGG@SetOneClassVariables?5can?8t?5set?5i@ 004846b8     class.obj
 0002:0000f704       ??_C@_0CN@JACFNDAA@GetClassDebugStr?5got?5invalid?5dst@ 00484704     class.obj
 0002:0000f734       ??_C@_0N@BENOELAL@Invalid?5DStr?$AA@ 00484734     class.obj
 0002:0000f744       ??_C@_0DK@JKCLDBAN@AddBlakodToPacket?5looking?5for?5in@ 00484744     commcli.obj
 0002:0000f780       ??_C@_0CO@MOAIOMFO@AddBlakodToPacket?5looking?5for?5va@ 00484780     commcli.obj
 0002:0000f7b0       ??_C@_0CL@KBIDNHIJ@AddBlakodToPacket?5can?8t?5find?5str@ 004847b0     commcli.obj
 0002:0000f7dc       ??_C@_0DJ@HAFELEDB@AddBlakodToPacket?5can?8t?5send?5?$CFi?0@ 004847dc     commcli.obj
 0002:0000f818       ??_C@_0DP@ILJLODIG@AddBlakodToPacket?5can?8t?5find?5res@ 00484818     commcli.obj
 0002:0000f858       ??_C@_0CH@OACMDGCJ@AddBlakodToPacket?5can?8t?5send?5?$CFi?5@ 00484858     commcli.obj
 0002:0000f880       ??_C@_0FG@DNPBEGDM@SecurePacketBufferList?5lost?5redb@ 00484880     commcli.obj
 0002:0000f8d8       ??_C@_06EGBBEFIM@?$FLPath?$FN?$AA@ 004848d8     config.obj
 0002:0000f8e0       ??_C@_03JPIKPAGJ@Bof?$AA@  004848e0     config.obj
 0002:0000f8e4       ??_C@_01LFCBOECM@?4?$AA@   004848e4     config.obj
 0002:0000f8e8       ??_C@_06NBLCOOBC@Memmap?$AA@ 004848e8     config.obj
 0002:0000f8f0       ??_C@_03KHNIAJKH@Rsc?$AA@  004848f0     config.obj
 0002:0000f8f4       ??_C@_05DDEBICCP@Rooms?$AA@ 004848f4     config.obj
 0002:0000f8fc       ??_C@_04KIJCBNGA@Motd?$AA@ 004848fc     config.obj
 0002:0000f904       ??_C@_07DMJBFPJJ@Channel?$AA@ 00484904     config.obj
 0002:0000f90c       ??_C@_08CCOAANDF@LoadSave?$AA@ 0048490c     config.obj
 0002:0000f918       ??_C@_05JHFENOA@Forms?$AA@ 00484918     config.obj
 0002:0000f920       ??_C@_07COOEHCMN@Kodbase?$AA@ 00484920     config.obj
 0002:0000f928       ??_C@_0M@PFOHOAP@PackageFile?$AA@ 00484928     config.obj
 0002:0000f934       ??_C@_08HPDBCDNP@?$FLSocket?$FN?$AA@ 00484934     config.obj
 0002:0000f940       ??_C@_04HOKNCALA@Port?$AA@ 00484940     config.obj
 0002:0000f948       ??_C@_04PBBLCCPO@5959?$AA@ 00484948     config.obj
 0002:0000f950       ??_C@_0BA@PLKEELBK@MaintenancePort?$AA@ 00484950     config.obj
 0002:0000f960       ??_C@_04CEOKAHNK@9998?$AA@ 00484960     config.obj
 0002:0000f968       ??_C@_0BA@EPJDALLD@MaintenanceMask?$AA@ 00484968     config.obj
 0002:0000f978       ??_C@_0BB@GGFABEOI@?3?3ffff?3127?40?40?41?$AA@ 00484978     config.obj
 0002:0000f98c       ??_C@_09LGJEPNLC@DNSLookup?$AA@ 0048498c     config.obj
 0002:0000f998       ??_C@_05CAILAJKB@Nagle?$AA@ 00484998     config.obj
 0002:0000f9a0       ??_C@_09DOPDDPEB@BlockTime?$AA@ 004849a0     config.obj
 0002:0000f9ac       ??_C@_03MHAIKEMP@300?$AA@  004849ac     config.obj
 0002:0000f9b0       ??_C@_09MCINJIMB@?$FLChannel?$FN?$AA@ 004849b0     config.obj
 0002:0000f9bc       ??_C@_09JPFMLBHF@DebugDisk?$AA@ 004849bc     config.obj
 0002:0000f9c8       ??_C@_09FEDBJEHA@ErrorDisk?$AA@ 004849c8     config.obj
 0002:0000f9d4       ??_C@_07LHADNGLP@LogDisk?$AA@ 004849d4     config.obj
 0002:0000f9dc       ??_C@_05GMIMEKGJ@Flush?$AA@ 004849dc     config.obj
 0002:0000f9e4       ??_C@_07GMPNLIEH@GodDisk?$AA@ 004849e4     config.obj
 0002:0000f9ec       ??_C@_09DAFPNLKM@AdminDisk?$AA@ 004849ec     config.obj
 0002:0000f9f8       ??_C@_07DMGHAMFJ@?$FLGuest?$FN?$AA@ 004849f8     config.obj
 0002:0000fa00       ??_C@_07FENCDID@Account?$AA@ 00484a00     config.obj
 0002:0000fa08       ??_C@_05LAHEIEIF@GUEST?$AA@ 00484a08     config.obj
 0002:0000fa10       ??_C@_02PKFBJPLJ@10?$AA@   00484a10     config.obj
 0002:0000fa14       ??_C@_03BJDGPCOK@Max?$AA@  00484a14     config.obj
 0002:0000fa18       ??_C@_02PJNFELNH@30?$AA@   00484a18     config.obj
 0002:0000fa1c       ??_C@_09DHECAGPF@ServerMin?$AA@ 00484a1c     config.obj
 0002:0000fa28       ??_C@_03GNABGMEE@100?$AA@  00484a28     config.obj
 0002:0000fa2c       ??_C@_09CFMJOCJK@ServerMax?$AA@ 00484a2c     config.obj
 0002:0000fa38       ??_C@_03LMMDNHAN@109?$AA@  00484a38     config.obj
 0002:0000fa3c       ??_C@_07FAKAHECC@TooMany?$AA@ 00484a3c     config.obj
 0002:0000fa48       ??_C@_0EB@MGLGGKID@Too?5many?5guests?5are?5logged?5on?5ri@ 00484a48     config.obj
 0002:0000fa8c       ??_C@_09DPNGLNMH@?$FLAccount?$FN?$AA@ 00484a8c     config.obj
 0002:0000fa98       ??_C@_08ODAAGMOM@NumSlots?$AA@ 00484a98     config.obj
 0002:0000faa4       ??_C@_07MIPILLGD@?$FLLogin?$FN?$AA@ 00484aa4     config.obj
 0002:0000faac       ??_C@_0M@KCLIBIDM@MaxAttempts?$AA@ 00484aac     config.obj
 0002:0000fab8       ??_C@_0BC@EEBFADFL@MinClassicVersion?$AA@ 00484ab8     config.obj
 0002:0000facc       ??_C@_0P@FLJDLEPB@MinOgreVersion?$AA@ 00484acc     config.obj
 0002:0000fadc       ??_C@_0O@ILPMFCLP@OldVersionStr?$AA@ 00484adc     config.obj
 0002:0000faf0       ??_C@_0IE@JKFINLPN@The?5game?5software?5has?5been?5upgra@ 00484af0     config.obj
 0002:0000fb74       ??_C@_0P@EADCOPBL@InvalidVersion?$AA@ 00484b74     config.obj
 0002:0000fb84       ??_C@_0BC@JGALIJMG@InvalidVersionStr?$AA@ 00484b84     config.obj
 0002:0000fb98       ??_C@_0FE@BFANEEDC@Your?5version?5of?5the?5game?5softwar@ 00484b98     config.obj
 0002:0000fbec       ??_C@_0L@BALBHCDL@SuspendStr?$AA@ 00484bec     config.obj
 0002:0000fbf8       ??_C@_0HB@LECBGOHC@Your?5account?5has?5been?5disabled?5t@ 00484bf8     config.obj
 0002:0000fc6c       ??_C@_0BA@MNKPDGFN@MaxPerIPAddress?$AA@ 00484c6c     config.obj
 0002:0000fc7c       ??_C@_0BH@BFFONLPC@TooManyPerIPAddressStr?$AA@ 00484c7c     config.obj
 0002:0000fc94       ??_C@_0CK@IGCPKBDB@Too?5many?5logins?5from?5the?5same?5IP@ 00484c94     config.obj
 0002:0000fcc0       ??_C@_0L@JEDKBLAL@?$FLInactive?$FN?$AA@ 00484cc0     config.obj
 0002:0000fccc       ??_C@_07GFPHFKHI@Synched?$AA@ 00484ccc     config.obj
 0002:0000fcd4       ??_C@_08DECIGEMC@Transfer?$AA@ 00484cd4     config.obj
 0002:0000fce0       ??_C@_0L@PPIGLINE@SelectChar?$AA@ 00484ce0     config.obj
 0002:0000fcec       ??_C@_02PPBOIJDM@60?$AA@   00484cec     config.obj
 0002:0000fcf0       ??_C@_04IBBNLEM@Game?$AA@  00484cf0     config.obj
 0002:0000fcf8       ??_C@_08HPOOIHCA@Override?$AA@ 00484cf8     config.obj
 0002:0000fd04       ??_C@_0BC@NJOGLIMD@?$FLMessageOfTheDay?$FN?$AA@ 00484d04     config.obj
 0002:0000fd18       ??_C@_07MCAEODGB@Default?$AA@ 00484d18     config.obj
 0002:0000fd20       ??_C@_09MPOFADO@?$DMDefault?$DO?$AA@ 00484d20     config.obj
 0002:0000fd2c       ??_C@_08BLFMCEIO@?$FLCredit?$FN?$AA@ 00484d2c     config.obj
 0002:0000fd38       ??_C@_0M@CAKDMLG@DrainAmount?$AA@ 00484d38     config.obj
 0002:0000fd44       ??_C@_02PGHGPEOM@?91?$AA@  00484d44     config.obj
 0002:0000fd48       ??_C@_09LGNIAKCK@DrainTime?$AA@ 00484d48     config.obj
 0002:0000fd54       ??_C@_05LOMGLBGB@Warn1?$AA@ 00484d54     config.obj
 0002:0000fd5c       ??_C@_01BMBHCPLG@5?$AA@    00484d5c     config.obj
 0002:0000fd60       ??_C@_05JFOLOCKC@Warn2?$AA@ 00484d60     config.obj
 0002:0000fd68       ??_C@_07JCFMOLEA@Initial?$AA@ 00484d68     config.obj
 0002:0000fd70       ??_C@_05JDLPMPEA@Admin?$AA@ 00484d70     config.obj
 0002:0000fd78       ??_C@_02IFGANFKF@25?$AA@   00484d78     config.obj
 0002:0000fd7c       ??_C@_09GEFILLNJ@?$FLSession?$FN?$AA@ 00484d7c     config.obj
 0002:0000fd88       ??_C@_09CNAKHCOE@MaxActive?$AA@ 00484d88     config.obj
 0002:0000fd94       ??_C@_0L@DPNAIEMG@MaxConnect?$AA@ 00484d94     config.obj
 0002:0000fda0       ??_C@_04OPEFEHND@Busy?$AA@ 00484da0     config.obj
 0002:0000fda8       ??_C@_0EB@ECMEMOGG@Too?5many?5people?5are?5logged?5on?5ri@ 00484da8     config.obj
 0002:0000fdec       ??_C@_06ECLNOIHC@?$FLLock?$FN?$AA@ 00484dec     config.obj
 0002:0000fdf4       ??_C@_0DA@BHLAEKHH@The?5game?5is?5temporarily?5closed?5f@ 00484df4     config.obj
 0002:0000fe24       ??_C@_0L@ILLEHBHA@?$FLResource?$FN?$AA@ 00484e24     config.obj
 0002:0000fe30       ??_C@_07MKHOEHEH@RscSpec?$AA@ 00484e30     config.obj
 0002:0000fe38       ??_C@_05FGLBFOFC@?$CK?4rsb?$AA@ 00484e38     config.obj
 0002:0000fe40       ??_C@_08BENDAOKD@Language?$AA@ 00484e40     config.obj
 0002:0000fe4c       ??_C@_08LIOMGEEN@?$FLMemory?$FN?$AA@ 00484e4c     config.obj
 0002:0000fe58       ??_C@_0O@IAJBIEIA@SizeClassHash?$AA@ 00484e58     config.obj
 0002:0000fe68       ??_C@_05KLCDJBEC@99971?$AA@ 00484e68     config.obj
 0002:0000fe70       ??_C@_0BC@GGGIAEJD@SizeClassNameHash?$AA@ 00484e70     config.obj
 0002:0000fe84       ??_C@_0BB@JKCNPCGL@SizeResourceHash?$AA@ 00484e84     config.obj
 0002:0000fe98       ??_C@_0BF@ICHIMOIG@SizeResourceNameHash?$AA@ 00484e98     config.obj
 0002:0000feb0       ??_C@_0BH@CHAKJEAH@SizePropertiesNameHash?$AA@ 00484eb0     config.obj
 0002:0000fec8       ??_C@_03IEMMBMLA@499?$AA@  00484ec8     config.obj
 0002:0000fecc       ??_C@_06BOLELDHF@?$FLAuto?$FN?$AA@ 00484ecc     config.obj
 0002:0000fed4       ??_C@_08EKNBFLCM@SaveTime?$AA@ 00484ed4     config.obj
 0002:0000fee0       ??_C@_0L@KMHJNADO@SavePeriod?$AA@ 00484ee0     config.obj
 0002:0000feec       ??_C@_03GDBCDNPM@180?$AA@  00484eec     config.obj
 0002:0000fef0       ??_C@_07NDIJJJHO@KodTime?$AA@ 00484ef0     config.obj
 0002:0000fef8       ??_C@_09FBJONFCM@KodPeriod?$AA@ 00484ef8     config.obj
 0002:0000ff04       ??_C@_0BA@MCFGKOLP@InterfaceUpdate?$AA@ 00484f04     config.obj
 0002:0000ff14       ??_C@_0BA@LNNBHBOK@TransmittedTime?$AA@ 00484f14     config.obj
 0002:0000ff24       ??_C@_0BC@OKGCJOCA@TransmittedPeriod?$AA@ 00484f24     config.obj
 0002:0000ff38       ??_C@_0O@NMGBLKIG@ResetPoolTime?$AA@ 00484f38     config.obj
 0002:0000ff48       ??_C@_0BA@CPJMMAAD@ResetPoolPeriod?$AA@ 00484f48     config.obj
 0002:0000ff58       ??_C@_08IKDMBHNL@?$FLUpdate?$FN?$AA@ 00484f58     config.obj
 0002:0000ff64       ??_C@_0O@NFFKONBK@ClientMachine?$AA@ 00484f64     config.obj
 0002:0000ff74       ??_C@_0P@BKALEHNE@ClientFilename?$AA@ 00484f74     config.obj
 0002:0000ff84       ??_C@_0P@ENJNIKKN@PackageMachine?$AA@ 00484f84     config.obj
 0002:0000ff94       ??_C@_0M@ICNBLIEH@PackagePath?$AA@ 00484f94     config.obj
 0002:0000ffa0       ??_C@_0P@FIMDIBHL@DownloadReason?$AA@ 00484fa0     config.obj
 0002:0000ffb0       ??_C@_0DH@IGDHJPOE@An?5update?5of?5Meridian?5files?5is?5a@ 00484fb0     config.obj
 0002:0000ffe8       ??_C@_0L@LJEBHMHM@DemoButton?$AA@ 00484fe8     config.obj
 0002:0000fff4       ??_C@_0BB@CCFKBJKO@ClassicPatchHost?$AA@ 00484ff4     config.obj
 0002:00010008       ??_C@_0BB@HBCNPJAG@ClassicPatchPath?$AA@ 00485008     config.obj
 0002:0001001c       ??_C@_0BG@NFBENDDH@ClassicPatchCachePath?$AA@ 0048501c     config.obj
 0002:00010034       ??_C@_0BA@EDIAGJIG@ClassicPatchTxt?$AA@ 00485034     config.obj
 0002:00010044       ??_C@_0P@EHFEFACL@ClassicClubExe?$AA@ 00485044     config.obj
 0002:00010054       ??_C@_0O@DBNGPFIE@OgrePatchHost?$AA@ 00485054     config.obj
 0002:00010064       ??_C@_0O@GCKBBFCM@OgrePatchPath?$AA@ 00485064     config.obj
 0002:00010074       ??_C@_0BD@ELAMLJGE@OgrePatchCachePath?$AA@ 00485074     config.obj
 0002:00010088       ??_C@_0N@KDPEBFJO@OgrePatchTxt?$AA@ 00485088     config.obj
 0002:00010098       ??_C@_0M@OGMBFGCB@OgreClubExe?$AA@ 00485098     config.obj
 0002:000100a4       ??_C@_09MOPBKNMB@?$FLConsole?$FN?$AA@ 004850a4     config.obj
 0002:000100b0       ??_C@_07OJKFJLLK@Caption?$AA@ 004850b0     config.obj
 0002:000100b8       ??_C@_0BA@NJMLHNBF@BlakSton?5Server?$AA@ 004850b8     config.obj
 0002:000100c8       ??_C@_0BB@NAIALAN@LocalMachineName?$AA@ 004850c8     config.obj
 0002:000100dc       ??_C@_07CIFAGBMG@unknown?$AA@ 004850dc     config.obj
 0002:000100e4       ??_C@_08OBJAAIMC@?$FLRights?$FN?$AA@ 004850e4     config.obj
 0002:000100f0       ??_C@_06KINDDEPA@GoRoom?$AA@ 004850f0     config.obj
 0002:000100f8       ??_C@_0M@JBJMDLKF@GoRoomByNum?$AA@ 004850f8     config.obj
 0002:00010104       ??_C@_08BHFNLCEK@GoPlayer?$AA@ 00485104     config.obj
 0002:00010110       ??_C@_09ODGOFFBD@GetPlayer?$AA@ 00485110     config.obj
 0002:0001011c       ??_C@_0M@FAIJAIPE@?$FLConstants?$FN?$AA@ 0048511c     config.obj
 0002:00010128       ??_C@_07DOAOMMKG@Enabled?$AA@ 00485128     config.obj
 0002:00010130       ??_C@_0O@JMAKAIPL@?4?$AIlakston?4khd?$AA@ 00485130     config.obj
 0002:00010140       ??_C@_0M@FKFOAPHO@?$FLAdvertise?$FN?$AA@ 00485140     config.obj
 0002:0001014c       ??_C@_05PKKPOEND@File1?$AA@ 0048514c     config.obj
 0002:00010154       ??_C@_07CPGLPJEC@ad1?4avi?$AA@ 00485154     config.obj
 0002:0001015c       ??_C@_04IPIIBFLI@Url1?$AA@ 0048515c     config.obj
 0002:00010164       ??_C@_0BL@LCNJEFLN@https?3?1?1www?4Meridian59?4de?1?$AA@ 00485164     config.obj
 0002:00010180       ??_C@_05NBICLHBA@File2?$AA@ 00485180     config.obj
 0002:00010188       ??_C@_07KJPPILOM@ad2?4avi?$AA@ 00485188     config.obj
 0002:00010190       ??_C@_04KEKFEGHL@Url2?$AA@ 00485190     config.obj
 0002:00010198       ??_C@_0CF@CHDLFGNH@https?3?1?1www?4meridiannext?4com?1php@ 00485198     config.obj
 0002:000101c0       ??_C@_07IHHCIKLK@?$FLDebug?$FN?$AA@ 004851c0     config.obj
 0002:000101c8       ??_C@_0O@HGDLELMD@CanMoveInRoom?$AA@ 004851c8     config.obj
 0002:000101d8       ??_C@_0BF@HDCADOLJ@CanMoveInRoomHighRes?$AA@ 004851d8     config.obj
 0002:000101f0       ??_C@_04DLIMMELK@Heap?$AA@ 004851f0     config.obj
 0002:000101f8       ??_C@_0BB@NMAOJODD@TransmittedBytes?$AA@ 004851f8     config.obj
 0002:0001020c       ??_C@_04CJFHLMKK@Hash?$AA@ 0048520c     config.obj
 0002:00010214       ??_C@_09NHJLCGJJ@TimeCalls?$AA@ 00485214     config.obj
 0002:00010220       ??_C@_0L@JKEELPM@?$FLSecurity?$FN?$AA@ 00485220     config.obj
 0002:0001022c       ??_C@_09OIHHPDPF@LogSpoofs?$AA@ 0048522c     config.obj
 0002:00010238       ??_C@_0N@KKHPAKGE@HangupSpoofs?$AA@ 00485238     config.obj
 0002:00010248       ??_C@_0L@DPIHMDH@RedbookRsc?$AA@ 00485248     config.obj
 0002:00010254       ??_C@_0BD@LPKJHLFM@system_success_rsc?$AA@ 00485254     config.obj
 0002:00010268       ??_C@_09NEGBHBIH@?$FLService?$FN?$AA@ 00485268     config.obj
 0002:00010274       ??_C@_07DOELDAMC@Machine?$AA@ 00485274     config.obj
 0002:0001027c       ??_C@_0BJ@NBNALOHG@ftp?4neardeathstudios?4com?$AA@ 0048527c     config.obj
 0002:00010298       ??_C@_09EOAFACM@Directory?$AA@ 00485298     config.obj
 0002:000102a4       ??_C@_0BF@ENNGJFI@?1private?1m59?1service?$AA@ 004852a4     config.obj
 0002:000102bc       ??_C@_08GBJFCIEI@Username?$AA@ 004852bc     config.obj
 0002:000102c8       ??_C@_06BCPOFAOI@m59ftp?$AA@ 004852c8     config.obj
 0002:000102d0       ??_C@_08FJIAHGMM@Password?$AA@ 004852d0     config.obj
 0002:000102dc       ??_C@_08DBLEEAME@b58Iz3xp?$AA@ 004852dc     config.obj
 0002:000102e8       ??_C@_07OBPHANNH@?$FLMySQL?$FN?$AA@ 004852e8     config.obj
 0002:000102f0       ??_C@_04NBFCGMPH@root?$AA@ 004852f0     config.obj
 0002:000102f8       ??_C@_04CPPPJGME@Host?$AA@ 004852f8     config.obj
 0002:00010300       ??_C@_09IPAEKDAI@localhost?$AA@ 00485300     config.obj
 0002:0001030c       ??_C@_08HDBDMMBI@Database?$AA@ 0048530c     config.obj
 0002:00010318       ??_C@_08OACKDCNH@meridian?$AA@ 00485318     config.obj
 0002:00010324       ??_C@_08MAJLOKOI@?$FLBlakod?$FN?$AA@ 00485324     config.obj
 0002:00010330       ??_C@_0M@LAAPJOOM@MatchesList?$AA@ 00485330     config.obj
 0002:0001033c       ??_C@_05CLDMBJBA@10000?$AA@ 0048533c     config.obj
 0002:00010344       ??_C@_0CE@GPAJDJHE@config?5option?5listed?5more?5than?5o@ 00485344     config.obj
 0002:00010368       ??_C@_0BI@OKPKCJLB@invalid?5path?9?9not?5found?$AA@ 00485368     config.obj
 0002:00010380       ??_C@_01KICIPPFI@?2?$AA@   00485380     config.obj
 0002:00010384       ??_C@_08DOCHLGNA@config?4c?$AA@ 00485384     config.obj
 0002:00010390       ??_C@_0M@HMGIONE@invalid?5int?$AA@ 00485390     config.obj
 0002:0001039c       ??_C@_0N@JHOOOOAN@invalid?5bool?$AA@ 0048539c     config.obj
 0002:000103ac       ??_C@_03JBGLIHDD@?$AN?6?$BK?$AA@ 004853ac     config.obj
 0002:000103b0       ??_C@_0CA@KOJHKODF@AddConfig?5can?8t?5handle?5type?5?$CFi?6?$AA@ 004853b0     config.obj
 0002:000103d0       ??_C@_0CN@ENECBAA@GetConfigByID?5got?5invalid?5reques@ 004853d0     config.obj
 0002:00010400       ??_C@_0BM@OIMAHFNF@ConfigStr?5can?8t?5find?5id?5?$CFi?6?$AA@ 00485400     config.obj
 0002:0001041c       ??_C@_0CC@OBKKGEJP@ConfigStr?5found?5id?5?$CFi?5is?5not?5str@ 0048541c     config.obj
 0002:00010440       ??_C@_0CC@KJLNKDAC@ConfigStr?5found?5id?5?$CFi?5is?5dynamic@ 00485440     config.obj
 0002:00010464       ??_C@_0BM@NINFFHCG@ConfigInt?5can?8t?5find?5id?5?$CFi?6?$AA@ 00485464     config.obj
 0002:00010480       ??_C@_0CC@JLHIHFBL@ConfigInt?5found?5id?5?$CFi?5is?5not?5int@ 00485480     config.obj
 0002:000104a4       ??_C@_0BN@IHCCEJPH@ConfigBool?5can?8t?5find?5id?5?$CFi?6?$AA@ 004854a4     config.obj
 0002:000104c4       ??_C@_0CE@LBOGBPMP@ConfigBool?5found?5id?5?$CFi?5is?5not?5bo@ 004854c4     config.obj
 0002:000104e8       ??_C@_0CA@NHGABNFA@LockConfigStr?5can?8t?5find?5id?5?$CFi?6?$AA@ 004854e8     config.obj
 0002:00010508       ??_C@_0CG@GEMJGGNA@LockConfigStr?5found?5id?5?$CFi?5is?5not@ 00485508     config.obj
 0002:00010530       ??_C@_0BP@IGOPCMPD@SetConfigInt?5can?8t?5find?5id?5?$CFi?6?$AA@ 00485530     config.obj
 0002:00010550       ??_C@_0CF@KODNDCCG@SetConfigInt?5found?5id?5?$CFi?5is?5not?5@ 00485550     config.obj
 0002:00010578       ??_C@_0CJ@EIGOHCLH@SetConfigInt?5found?5id?5?$CFi?5is?5not?5@ 00485578     config.obj
 0002:000105a4       ??_C@_0CA@HBMFFFNH@SetConfigBool?5can?8t?5find?5id?5?$CFi?6?$AA@ 004855a4     config.obj
 0002:000105c4       ??_C@_0CH@DDLGLGAH@SetConfigBool?5found?5id?5?$CFi?5is?5not@ 004855c4     config.obj
 0002:000105ec       ??_C@_0CK@JLLHNOFK@SetConfigBool?5found?5id?5?$CFi?5is?5not@ 004855ec     config.obj
 0002:00010618       ??_C@_0BP@LGPKAOAA@SetConfigStr?5can?8t?5find?5id?5?$CFi?6?$AA@ 00485618     config.obj
 0002:00010638       ??_C@_0CF@NEOPCDKC@SetConfigStr?5found?5id?5?$CFi?5is?5not?5@ 00485638     config.obj
 0002:00010660       ??_C@_0CJ@IDCKHFBF@SetConfigStr?5found?5id?5?$CFi?5is?5not?5@ 00485660     config.obj
 0002:0001068c       ??_C@_0DH@DELAJGGF@LoadConfig?5can?8t?5open?5?$CFs?0?5using?5@ 0048568c     config.obj
 0002:000106c4       ??_C@_0DG@NHLMFIDE@LoadConfigLine?5found?5invalid?5gro@ 004856c4     config.obj
 0002:000106fc       ??_C@_0DJ@MOCDHJCJ@LoadConfigLine?5found?5extra?5stuff@ 004856fc     config.obj
 0002:00010738       ??_C@_0CP@DFDFGCMH@LoadConfig?5found?5nonexistent?5gro@ 00485738     config.obj
 0002:00010768       ??_C@_0DH@OBGKGOAI@LoadConfig?5found?5data?5before?5a?5g@ 00485768     config.obj
 0002:000107a0       ??_C@_0CJ@GICNAGIC@LoadConfig?5error?5?$CFs?5?$CI?$CFi?$CJ?3?5no?5dat@ 004857a0     config.obj
 0002:000107cc       ??_C@_0CG@CJLIANEA@LoadConfig?5error?5?$CFs?5?$CI?$CFi?$CJ?3?5?$GA?$CFs?8?5i@ 004857cc     config.obj
 0002:000107f4       ??_C@_0CG@FDIJEEBP@LoadConfig?5can?8t?5match?5value?5?$CFs?5@ 004857f4     config.obj
 0002:00010820       ??_C@_0BIB@PMNFLKDP@?7CREATE?5TABLE?5?$GAsavegame?$GA?7?7?7?7?7?7?7?7@ 00485820     database.obj
 0002:000109a8       ??_C@_0BGF@NKOCHACF@?7CREATE?5TABLE?5?$GAplayer_money_tota@ 004859a8     database.obj
 0002:00010b10       ??_C@_0BDD@GBNNACCO@?7CREATE?5TABLE?5?$GAmoney_created?$GA?7?7?7@ 00485b10     database.obj
 0002:00010c48       ??_C@_0BLG@NKODIICB@?7CREATE?5TABLE?5?$GAplayer_logins?$GA?7?7?7@ 00485c48     database.obj
 0002:00010e00       ??_C@_0CGI@OFAIMEGB@?7CREATE?5TABLE?5?$GAplayer_damaged?$GA?7?7@ 00485e00     database.obj
 0002:00011068       ??_C@_0CDB@NOCEIKOH@?7CREATE?5TABLE?5?$GAplayer_death?$GA?7?7?7?7@ 00486068     database.obj
 0002:000112a0       ??_C@_0EPE@JJDJIMMB@?7CREATE?5TABLE?5?$GAplayer?$GA?5?5?5?5?5?7?7?7?7?7@ 004862a0     database.obj
 0002:00011798       ??_C@_0DCE@KBPOAMOE@?5?5?5CREATE?5TABLE?5?$GAguild?$GA?5?5?5?5?5?5?5?5?5@ 00486798     database.obj
 0002:00011abc       ??_C@_0CI@ELFIFBKA@DROP?5PROCEDURE?5IF?5EXISTS?5WriteSa@ 00486abc     database.obj
 0002:00011ae4       ??_C@_0CK@BHMFKMOP@DROP?5PROCEDURE?5IF?5EXISTS?5WriteTo@ 00486ae4     database.obj
 0002:00011b10       ??_C@_0CM@EPNHDBNK@DROP?5PROCEDURE?5IF?5EXISTS?5WriteMo@ 00486b10     database.obj
 0002:00011b3c       ??_C@_0CL@NFAGCLAE@DROP?5PROCEDURE?5IF?5EXISTS?5WritePl@ 00486b3c     database.obj
 0002:00011b68       ??_C@_0DC@GIMGANOC@DROP?5PROCEDURE?5IF?5EXISTS?5WritePl@ 00486b68     database.obj
 0002:00011b9c       ??_C@_0CL@GOMMEAFF@DROP?5PROCEDURE?5IF?5EXISTS?5WritePl@ 00486b9c     database.obj
 0002:00011bc8       ??_C@_0CG@KHHEBKJK@DROP?5PROCEDURE?5IF?5EXISTS?5WritePl@ 00486bc8     database.obj
 0002:00011bf0       ??_C@_0CN@PEJGDECN@DROP?5PROCEDURE?5IF?5EXISTS?5WritePl@ 00486bf0     database.obj
 0002:00011c20       ??_C@_0CF@FDFJJBME@DROP?5PROCEDURE?5IF?5EXISTS?5WriteGu@ 00486c20     database.obj
 0002:00011c48       ??_C@_0CM@HGBGPCPC@DROP?5PROCEDURE?5IF?5EXISTS?5WriteGu@ 00486c48     database.obj
 0002:00011c78       ??_C@_0BJO@HNKGIJJO@?7CREATE?5PROCEDURE?5WriteSaveGame?$CI@ 00486c78     database.obj
 0002:00011e18       ??_C@_0PB@JOOAPDJC@?7CREATE?5PROCEDURE?5WriteTotalMone@ 00486e18     database.obj
 0002:00011f10       ??_C@_0OD@DFKCEJDL@?7CREATE?5PROCEDURE?5WriteMoneyCrea@ 00486f10     database.obj
 0002:00011ff8       ??_C@_0BHE@FFKGDJOP@?7CREATE?5PROCEDURE?5WritePlayerLog@ 00486ff8     database.obj
 0002:00012170       ??_C@_0CHG@OBAMFNPM@?7CREATE?5PROCEDURE?5WritePlayerAss@ 00487170     database.obj
 0002:000123e8       ??_C@_0CBG@ICHPLNAF@?7CREATE?5PROCEDURE?5WritePlayerDea@ 004873e8     database.obj
 0002:00012600       ??_C@_0IKA@FGLLHDA@?7CREATE?5PROCEDURE?5WritePlayer?$CI?7?5@ 00487600     database.obj
 0002:00012ea0       ??_C@_0BJB@KLLIIGMK@?7CREATE?5PROCEDURE?5WritePlayerSui@ 00487ea0     database.obj
 0002:00013038       ??_C@_0CKF@MPHFAFJC@?7CREATE?5PROCEDURE?5WriteGuild?$CI?5?5?5@ 00488038     database.obj
 0002:000132e0       ??_C@_0BGN@JGHNOKOP@?7CREATE?5PROCEDURE?5WriteGuildDisb@ 004882e0     database.obj
 0002:00013450       ??_C@_0BG@DBOHCDOB@Game?5User?5length?3?5?$CFi?6?$AA@ 00488450     database.obj
 0002:00013468       ??_C@_0BP@MGNADEMN@CALL?5WriteSaveGame?$CI?$DP?0?$DP?0?$DP?0?$DP?0?$DP?$CJ?$DL?$AA@ 00488468     database.obj
 0002:00013488       ??_C@_0BJ@DGHNLBOD@CALL?5WriteTotalMoney?$CI?$DP?$CJ?$DL?$AA@ 00488488     database.obj
 0002:000134a4       ??_C@_0BL@GENIFFKG@CALL?5WriteMoneyCreated?$CI?$DP?$CJ?$DL?$AA@ 004884a4     database.obj
 0002:000134c0       ??_C@_0BO@LDPFAFEE@CALL?5WritePlayerLogin?$CI?$DP?0?$DP?0?$DP?$CJ?$DL?$AA@ 004884c0     database.obj
 0002:000134e0       ??_C@_0CN@KBABPBMH@CALL?5WritePlayerAssessDamage?$CI?$DP?0?$DP@ 004884e0     database.obj
 0002:00013510       ??_C@_0CC@HBKCJBBP@CALL?5WritePlayerDeath?$CI?$DP?0?$DP?0?$DP?0?$DP?0?$DP?$CJ@ 00488510     database.obj
 0002:00013534       ??_C@_0CN@OOGNKBJG@CALL?5WritePlayer?$CI?$DP?0?$DP?0?$DP?0?$DP?0?$DP?0?$DP?0?$DP?0?$DP@ 00488534     database.obj
 0002:00013564       ??_C@_0BO@OMMGOGMP@CALL?5WritePlayerSuicide?$CI?$DP?0?$DP?$CJ?$DL?$AA@ 00488564     database.obj
 0002:00013584       ??_C@_0BI@HBLODMEE@CALL?5WriteGuild?$CI?$DP?0?$DP?0?$DP?$CJ?$DL?$AA@ 00488584     database.obj
 0002:0001359c       ??_C@_0BL@FODCDEGM@CALL?5WriteGuildDisband?$CI?$DP?$CJ?$DL?$AA@ 0048859c     database.obj
 0002:000135b8       ??_C@_0CP@ILDDKBBO@Heap?5debugging?5not?5supported?5wit@ 004885b8     debug.obj
 0002:000135e8       ??_C@_07LJAOLAEP@debug?4c?$AA@ 004885e8     debug.obj
 0002:000135f0       ??_C@_0CH@PHMLADJM@AddDLlist?5got?5bad?5time?5?$CFi?5for?5fi@ 004885f0     dllist.obj
 0002:00013618       ??_C@_0N@FHKKOJPM@packages?4txt?$AA@ 00488618     dllist.obj
 0002:00013628       ??_C@_0DG@JENOODKF@AddBuiltinDLlist?5can?8t?5open?5?$CFs?5t@ 00488628     dllist.obj
 0002:00013660       ??_C@_0CH@OICNFCDP@AddBuiltInDLlist?5?$CI?$CFi?$CJ?5can?8t?5read@ 00488660     dllist.obj
 0002:00013688       ??_C@_0CH@CKLOEKPP@AddBuiltInDLlist?5?$CI?$CFi?$CJ?5can?8t?5read@ 00488688     dllist.obj
 0002:000136b0       ??_C@_0CJ@JEIHDJEM@BlakMoveFile?5error?5moving?5?$CFs?5to?5@ 004886b0     files.obj
 0002:000136dc       ??_C@_0CF@CINDDJLD@BlakMoveFile?5error?5deleting?5?$CFs?5?$CI@ 004886dc     files.obj
 0002:00013704       ??_C@_0BD@OLBABOEK@vector?$DMT?$DO?5too?5long?$AA@ 00488704     files.obj
 0002:00013718       ??_C@_0BA@JFNIOLAK@string?5too?5long?$AA@ 00488718     files.obj
 0002:00013728       ??_C@_0BI@CFPLBAOH@invalid?5string?5position?$AA@ 00488728     files.obj
 0002:00013740       ??_C@_0FD@OFBKPEKL@GameProcessSessionTimer?5logging?5@ 00488740     game.obj
 0002:00013794       ??_C@_0DC@FPGJNLOM@GameProcessSessionBuffer?5got?5mes@ 00488794     game.obj
 0002:000137c8       ??_C@_0DM@GNGHLOEA@GameProcessSessionBuffer?5found?5i@ 004887c8     game.obj
 0002:00013804       ??_C@_0DB@BGCKAGHH@GPSB?5released?5mutex?5it?5didn?8t?5ow@ 00488804     game.obj
 0002:00013838       ??_C@_0CN@IKMDOLLI@GPSB?5bailed?5waiting?5for?5mutex?5on@ 00488838     game.obj
 0002:00013868       ??_C@_0CC@GFEJMKAL@GameSyncInputChar?5can?8t?5get?5here@ 00488868     game.obj
 0002:0001388c       ??_C@_01LKDEMHDF@s?$AA@    0048888c     game.obj
 0002:00013890       ??_C@_0DF@NANINOCE@GameProtocolParse?5found?5account?5@ 00488890     game.obj
 0002:000138c8       ??_C@_0DF@OBDAMELJ@GameProtocolParse?5found?5account?5@ 004888c8     game.obj
 0002:00013900       ??_C@_0DK@JKPGJLGF@GameProtocolParse?5found?5account?5@ 00488900     game.obj
 0002:00013940       ??_C@_0ED@EHJAPKEN@GameProtocolParse?5got?5acct?5?$CFi?5tr@ 00488940     game.obj
 0002:00013984       ??_C@_0DN@EJKHFFNO@GameProtocolParse?5can?8t?5find?5use@ 00488984     game.obj
 0002:000139c4       ??_C@_0DP@OEMAJGKM@GameProtocolParse?5got?5admin?5comm@ 004889c4     game.obj
 0002:00013a08       ??_C@_0EC@EOFMOHHM@GameProtocolParse?5got?5DM?5command@ 00488a08     game.obj
 0002:00013a4c       ??_C@_0DO@EHNACIDC@GameSendEachUserChoice?5object?5?$CFi@ 00488a4c     game.obj
 0002:00013a90       ??_C@_0EE@EPEEJJAL@GameSendEachUserChoice?5can?8t?5fin@ 00488a90     game.obj
 0002:00013ad4       ??_C@_0CI@MFPOICGJ@DM?5Command?5GOROOM?5?$CIby?5number?$CJ?5di@ 00488ad4     game.obj
 0002:00013afc       ??_C@_0DP@KHNKEPBE@DM?5Command?5GOROOM?5?$CIby?5number?$CJ?5di@ 00488afc     game.obj
 0002:00013b3c       ??_C@_0BM@FABMFOCN@DM?5Command?5GOROOM?5disabled?4?$AA@ 00488b3c     game.obj
 0002:00013b58       ??_C@_0DD@HOBJKFBP@DM?5Command?5GOROOM?5disabled?5for?5D@ 00488b58     game.obj
 0002:00013b8c       ??_C@_0CF@EGKLFKDA@send?5object?5?$CFi?5teleportto?5rid?5in@ 00488b8c     game.obj
 0002:00013bb4       ??_C@_07DEJGOPDC@?$HOB?$DO?5?$CFs?6?$AA@ 00488bb4     game.obj
 0002:00013bbc       ??_C@_0CO@PNKCOFLF@send?5object?5?$CFi?5admingotoobject?5w@ 00488bbc     game.obj
 0002:00013bec       ??_C@_0CO@JFEELMOD@send?5object?5?$CFs?5admingotoobject?5w@ 00488bec     game.obj
 0002:00013c1c       ??_C@_0CO@OGPDKJLF@GameDMCommand?5got?5invalid?5DM?5com@ 00488c1c     game.obj
 0002:00013c4c       ??_C@_0BN@JOJIEOPO@BLAKSTON?3?5Greenwich?5Q?5Zjiria?$AA@ 00488c4c     game.obj
 0002:00013c6c       ??_C@_0DG@MNJNPLM@?$CK?$CK?$CK?5GARBAGE?5COLLECTION?3?5ALL?5REFE@ 00488c6c     garbage.obj
 0002:00013ca4       ??_C@_0CP@MBCIAKCN@MarkTableListNode?5death?5by?5garba@ 00488ca4     garbage.obj
 0002:00013cd4       ??_C@_0CK@DJMBBIBG@MarkListNode?5death?5by?5garbage?5co@ 00488cd4     garbage.obj
 0002:00013d00       ??_C@_0DI@KOELLJLC@RenumberListNodeReferences?5death@ 00488d00     garbage.obj
 0002:00013d38       ??_C@_0DG@EJJAPCFB@RenumberListNodeReferences?5unren@ 00488d38     garbage.obj
 0002:00013d70       ??_C@_0DF@CBOCFDN@RenumberTableReferences?5death?5by@ 00488d70     garbage.obj
 0002:00013da8       ??_C@_0CP@HGKHGGLK@RenumberTableReferences?5unrenumb@ 00488da8     garbage.obj
 0002:00013dd8       ??_C@_0CI@FGFDCBEE@MarkObject?5death?5by?5garbage?5coll@ 00488dd8     garbage.obj
 0002:00013e00       ??_C@_0DA@IKOABMFP@MarkListNodeObject?5death?5by?5garb@ 00488e00     garbage.obj
 0002:00013e30       ??_C@_0CN@FELJBGBO@MarkTableObject?5death?5by?5garbage@ 00488e30     garbage.obj
 0002:00013e60       ??_C@_0DI@KCHJCNEI@RenumberObjectReferences?5got?5obj@ 00488e60     garbage.obj
 0002:00013e98       ??_C@_0EE@LEHIFNMJ@RenumberListNodesReferences?5got?5@ 00488e98     garbage.obj
 0002:00013ee0       ??_C@_0ED@GPIPLBNL@RenumberTableObjectReferences?5go@ 00488ee0     garbage.obj
 0002:00013f24       ??_C@_0DK@FKNBFOFA@RenumberUserObjectReferences?5dea@ 00488f24     garbage.obj
 0002:00013f60       ??_C@_0DN@PNBKABBM@RenumberSessionObjectReferences?5@ 00488f60     garbage.obj
 0002:00013fa0       ??_C@_0EH@IDHEEHJD@RenumberTimerObjectReferences?5de@ 00488fa0     garbage.obj
 0002:00013fe8       ??_C@_0DC@BKEOOMFG@ResetObjectReference?5death?5by?5ga@ 00488fe8     garbage.obj
 0002:00014020       ??_C@_0EA@LGMGKEHN@ResetTimerReference?5found?5a?5refe@ 00489020     garbage.obj
 0002:00014060       ??_C@_0CI@IPCHFPGJ@MarkString?5death?5by?5garbage?5coll@ 00489060     garbage.obj
 0002:00014088       ??_C@_0DC@PNDMLDNP@ResetStringReference?5death?5by?5ga@ 00489088     garbage.obj
 0002:000140bc       ??_C@_0DG@GEIKBCOB@RenumberStringReferences?5unrenum@ 004890bc     garbage.obj
 0002:000140f4       ??_C@_08DPEPLACP@blakserv?$AA@ 004890f4     interface_windows.obj
 0002:00014100       ??_C@_0N@KPDNKMDE@riched20?4dll?$AA@ 00489100     interface_windows.obj
 0002:00014110       ??_C@_04LBABLPF@Exit?$AA@  00489110     interface_windows.obj
 0002:00014118       ??_C@_09IAJPBCOI@Save?5Game?$AA@ 00489118     interface_windows.obj
 0002:00014124       ??_C@_0O@CJCFGAFE@Reload?5System?$AA@ 00489124     interface_windows.obj
 0002:00014134       ??_C@_0BD@LDFMGMNG@Message?5of?5the?5Day?$AA@ 00489134     interface_windows.obj
 0002:00014148       ??_C@_05BDOHFCKE@About?$AA@ 00489148     interface_windows.obj
 0002:00014150       ??_C@_03NLEFPEMI@?$CF3i?$AA@ 00489150     interface_windows.obj
 0002:00014154       ??_C@_0DM@OCBFEPCL@InterfaceWindowProc?5sessions_log@ 00489154     interface_windows.obj
 0002:00014190       ??_C@_06OAFOBKHE@signal?$AA@ 00489190     interface_windows.obj
 0002:00014198       ??_C@_03BOBKODAB@?5?5?$DP?$AA@ 00489198     interface_windows.obj
 0002:0001419c       ??_C@_0CF@HILGIOKE@StartAsyncSocketAccept?5got?5error@ 0048919c     interface_windows.obj
 0002:000141c4       ??_C@_0CF@FEOBFENH@StartAsyncSocketSelect?5got?5error@ 004891c4     interface_windows.obj
 0002:000141ec       ??_C@_0CJ@EIGFGEEH@Interface?5can?8t?5make?5session?5for@ 004891ec     interface_windows.obj
 0002:00014218       ??_C@_0BE@LFKCEOGO@interface_windows?4c?$AA@ 00489218     interface_windows.obj
 0002:0001422c       ??_C@_0BG@BFFCBMEL@No?5errors?5on?5startup?6?$AA@ 0048922c     interface_windows.obj
 0002:00014244       ??_C@_07DBGNBOAC@?$CGStatus?$AA@ 00489244     interface_windows.obj
 0002:0001424c       ??_C@_09MKDNJPMF@?$CGChannels?$AA@ 0048924c     interface_windows.obj
 0002:00014258       ??_C@_0BA@MJANDBJM@?$CGAdministration?$AA@ 00489258     interface_windows.obj
 0002:00014268       ??_C@_08KOFIJIMC@Terminal?$AA@ 00489268     interface_windows.obj
 0002:00014274       ??_C@_0BA@EHLJJKFN@ToolbarWindow32?$AA@ 00489274     interface_windows.obj
 0002:00014284       ??_C@_03JJICPPMO@?5?50?$AA@ 00489284     interface_windows.obj
 0002:00014288       ??_C@_05NJOHFLJC@Since?$AA@ 00489288     interface_windows.obj
 0002:00014290       ??_C@_05JNKNAC@State?$AA@  00489290     interface_windows.obj
 0002:00014298       ??_C@_04LMIAFEOL@From?$AA@ 00489298     interface_windows.obj
 0002:000142a0       ??_C@_08MOCEJGGL@?$CFi?5bytes?$AA@ 004892a0     interface_windows.obj
 0002:000142ac       ??_C@_06EPJHPMLA@?$CF?9200s?$AA@ 004892ac     interface_windows.obj
 0002:000142b4       ??_C@_08GMCHKNGH@0?1second?$AA@ 004892b4     interface_windows.obj
 0002:000142c0       ??_C@_09BOCBOOAG@?$CFi?1second?$AA@ 004892c0     interface_windows.obj
 0002:000142cc       ??_C@_0BE@ENPOPFOG@The?5game?5is?5locked?4?$AA@ 004892cc     interface_windows.obj
 0002:000142e0       ??_C@_0BG@NJDBAEB@InterfaceSave?5saving?6?$AA@ 004892e0     interface_windows.obj
 0002:000142f8       ??_C@_0BJ@JFJLOIEJ@GC?5completed?5in?5?$CFld?5ms?4?6?$AA@ 004892f8     interface_windows.obj
 0002:00014314       ??_C@_0BP@GNMAIADP@Save?5all?5completed?5in?5?$CFld?5ms?4?6?$AA@ 00489314     interface_windows.obj
 0002:00014334       ??_C@_0CD@BHDBLCAF@Total?5interface?5save?5time?5?$CFld?5ms@ 00489334     interface_windows.obj
 0002:00014358       ??_C@_0CI@LPJODJOM@InterfaceReloadSystem?5reloading?5@ 00489358     interface_windows.obj
 0002:00014380       ??_C@_0DK@CBIEJMOJ@InterfaceReloadSystem?5couldn?8t?5l@ 00489380     interface_windows.obj
 0002:000143bc       ??_C@_0BG@IMLIKMOF@File?5?$CFs?5line?5?$CFi?$AN?6?$AN?6?$CFs?$AA@ 004893bc     interface_windows.obj
 0002:000143d4       ??_C@_0M@HFFOIJBL@Fatal?5Error?$AA@ 004893d4     interface_windows.obj
 0002:000143e0       ??_C@_0BA@JKDADOG@intstringhash?4c?$AA@ 004893e0     intstringhash.obj
 0002:000143f0       ??_C@_0M@KGLKEJIO@kodbase?4txt?$AA@ 004893f0     kodbase.obj
 0002:000143fc       ??_C@_0BO@HKODHDAC@LoadKodBase?5can?8t?5open?5?$CFs?$CB?$CB?$CB?6?$AA@ 004893fc     kodbase.obj
 0002:0001441c       ??_C@_02OJDBNLEE@?5?7?$AA@ 0048941c     kodbase.obj
 0002:00014420       ??_C@_0CL@JIDMJNG@LoadKodBase?5line?5?$CFi?5Bad?5type?5cha@ 00489420     kodbase.obj
 0002:0001444c       ??_C@_0CI@MPBHGHKJ@LoadKodBase?5line?5?$CFi?5Bad?5class?5en@ 0048944c     kodbase.obj
 0002:00014474       ??_C@_0CK@CJDNDHIO@LoadKodBase?5line?5?$CFi?5Bad?5message?5@ 00489474     kodbase.obj
 0002:000144a0       ??_C@_0CM@HJFGFGBH@LoadKodBase?5line?5?$CFi?5Bad?5paramete@ 004894a0     kodbase.obj
 0002:000144cc       ??_C@_0CL@LDIIHEEL@LoadKodBase?5line?5?$CFi?5Bad?5resource@ 004894cc     kodbase.obj
 0002:000144f8       ??_C@_0CL@GGDBBDPO@LoadKodBase?5line?5?$CFi?5Bad?5property@ 004894f8     kodbase.obj
 0002:00014524       ??_C@_0CL@COMJNJMJ@LoadKodBase?5line?5?$CFi?5Bad?5classvar@ 00489524     kodbase.obj
 0002:00014550       ??_C@_0CP@GEONPFOG@LoadKodBase?5line?5?$CFi?5Unknown?5type@ 00489550     kodbase.obj
 0002:00014580       ??_C@_0CJ@IHKJMIKO@LoadKodbaseClass?5can?8t?5find?5clas@ 00489580     kodbase.obj
 0002:000145ac       ??_C@_0DC@BJINDJJJ@LoadKodbaseProperty?5has?5no?5curre@ 004895ac     kodbase.obj
 0002:000145e0       ??_C@_0DH@OIKGPJGB@LoadKodbaseClassVariable?5has?5no?5@ 004895e0     kodbase.obj
 0002:00014618       ??_C@_09PDABMHKJ@kodbase?4c?$AA@ 00489618     kodbase.obj
 0002:00014624       ??_C@_0CL@HPEIPHLO@AllocateListNode?5resized?5to?5?$CFi?5l@ 00489624     list.obj
 0002:00014650       ??_C@_0CB@OFNPIEAP@LoadList?5didn?8t?5make?5list?5id?5?$CFi?6@ 00489650     list.obj
 0002:00014674       ??_C@_0DF@BHJGMIAA@GetListNodeByID?5can?8t?5retrieve?5i@ 00489674     list.obj
 0002:000146ac       ??_C@_0DM@LCLPGDHK@AppendListElem?5couldn?8t?5create?5l@ 004896ac     list.obj
 0002:000146e8       ??_C@_0DK@BAAPKBCO@AppendListElem?5couldn?8t?5find?5lis@ 004896e8     list.obj
 0002:00014724       ??_C@_0DI@OFMLPAJN@Warning?0?5AppendListElem?5adding?5t@ 00489724     list.obj
 0002:0001475c       ??_C@_0DA@CBMJCHGN@AppendListElem?5got?5invalid?5list?5@ 0048975c     list.obj
 0002:0001478c       ??_C@_0CE@GKJKNBNC@Cons?5couldn?8t?5create?5new?5list?5no@ 0048978c     list.obj
 0002:000147b0       ??_C@_0DC@KKCBNHHJ@Nth?5found?5invalid?5list?5node?5some@ 004897b0     list.obj
 0002:000147e4       ??_C@_0CF@DCCGOEBG@Nth?5can?8t?5go?5past?5end?5of?5list?5?$CFi@ 004897e4     list.obj
 0002:0001480c       ??_C@_0DI@HDDFDCEM@IsListMatch?5had?5invalid?5list?5nod@ 0048980c     list.obj
 0002:00014844       ??_C@_0DI@EEIDAJBM@IsListMatch?5had?5invalid?5list?5nod@ 00489844     list.obj
 0002:0001487c       ??_C@_0DJ@NOFBECGC@IsListMatch?5had?5invalid?5list?5nod@ 0048987c     list.obj
 0002:000148b8       ??_C@_0DJ@OJOHHJDC@IsListMatch?5had?5invalid?5list?5nod@ 004898b8     list.obj
 0002:000148f4       ??_C@_0BP@JLJJGADM@Last?5given?5invalid?5list?5ID?5?$CFi?6?$AA@ 004898f4     list.obj
 0002:00014914       ??_C@_0DD@IIBCJEID@Last?5found?5invalid?5list?5node?5som@ 00489914     list.obj
 0002:00014948       ??_C@_0DF@NMMFGDAE@SetNth?5found?5invalid?5list?5node?5s@ 00489948     list.obj
 0002:00014980       ??_C@_0CI@HLKNOILK@SetNth?5can?8t?5go?5past?5end?5o?8?5list@ 00489980     list.obj
 0002:000149a8       ??_C@_0DL@EKJJDNMJ@SwapListElem?5found?5invalid?5list?5@ 004899a8     list.obj
 0002:000149e4       ??_C@_0CO@IGAELIOK@SwapListElem?5can?8t?5go?5past?5end?5o@ 004899e4     list.obj
 0002:00014a14       ??_C@_0CN@OCAHCHDC@GetAllListNodesByClass?5got?5inval@ 00489a14     list.obj
 0002:00014a44       ??_C@_0DE@MHNIEIKP@GetAllListNodesByClass?5got?5inval@ 00489a44     list.obj
 0002:00014a78       ??_C@_0CN@GMNGCOOE@GetAllListNodesByClass?5can?8t?5fin@ 00489a78     list.obj
 0002:00014aa8       ??_C@_0DJ@FKCMPNFN@GetAllListNodesByClass?5can?8t?5fin@ 00489aa8     list.obj
 0002:00014ae4       ??_C@_0CG@GFGOKKCO@GetListElemByClass?5got?5invalid?5l@ 00489ae4     list.obj
 0002:00014b0c       ??_C@_0CJ@LFGJJICJ@GetListElemByClass?5can?8t?5find?5ob@ 00489b0c     list.obj
 0002:00014b38       ??_C@_0DF@OEEALHLF@GetListElemByClass?5can?8t?5find?5cl@ 00489b38     list.obj
 0002:00014b70       ??_C@_0BP@NAKDIDHM@GetListNode?5got?5invalid?5list?4?6?$AA@ 00489b70     list.obj
 0002:00014b90       ??_C@_0CF@LBFFAFKJ@GetListNode?5called?5on?5invalid?5li@ 00489b90     list.obj
 0002:00014bb8       ??_C@_0BP@KKIDHLHA@GetListNode?5has?5invalid?5list?4?6?$AA@ 00489bb8     list.obj
 0002:00014bd8       ??_C@_0BP@GJKMIPME@ListCopy?5got?5invalid?5list?5?$CFi?4?6?$AA@ 00489bd8     list.obj
 0002:00014bf8       ??_C@_0CJ@PAFHHHOC@ListCopy?5couldn?8t?5allocate?5new?5n@ 00489bf8     list.obj
 0002:00014c24       ??_C@_0DG@FBNLGEMM@ListCopy?5got?5invalid?5list?5node?5s@ 00489c24     list.obj
 0002:00014c60       ??_C@_0EC@KAAFANPA@InsertListElem?5given?5invalid?5lis@ 00489c60     list.obj
 0002:00014ca4       ??_C@_0CP@GHEJNAFC@InsertListElem?5couldn?8t?5allocate@ 00489ca4     list.obj
 0002:00014cd4       ??_C@_0DN@BNMKOAIE@InsertListElem?5found?5invalid?5lis@ 00489cd4     list.obj
 0002:00014d14       ??_C@_0DB@PHNNJMCM@DelListElem?5can?8t?5find?5elem?5?$CFi?0?$CF@ 00489d14     list.obj
 0002:00014d48       ??_C@_0CK@GNOOJBHM@DelLastListElem?5given?5invalid?5li@ 00489d48     list.obj
 0002:00014d74       ??_C@_0DC@DIODOMIP@DelLastListElem?5got?5invalid?5list@ 00489d74     list.obj
 0002:00014da8       ??_C@_0CJ@KADBFGGC@SendListMessage?5can?8t?5find?5list?5@ 00489da8     list.obj
 0002:00014dd4       ??_C@_0DN@EBBMFEIJ@SendListMessage?5got?5invalid?5list@ 00489dd4     list.obj
 0002:00014e14       ??_C@_0CO@NPCODBMJ@SendFirstListMessage?5can?8t?5find?5@ 00489e14     list.obj
 0002:00014e44       ??_C@_0DH@LMCKGJJK@SendFirstListMessage?5called?5on?5i@ 00489e44     list.obj
 0002:00014e7c       ??_C@_0DF@MDJEMNAM@SendFirstListMessage?5can?8t?5find?5@ 00489e7c     list.obj
 0002:00014eb4       ??_C@_0DN@PIKCKOLA@SendFirstListMessage?5got?5invalid@ 00489eb4     list.obj
 0002:00014ef4       ??_C@_0CM@IMKJEMJO@SendNthListMessage?5can?8t?5find?5li@ 00489ef4     list.obj
 0002:00014f20       ??_C@_0DF@FKOHGPEB@SendNthListMessage?5called?5on?5inv@ 00489f20     list.obj
 0002:00014f58       ??_C@_0DP@MMPDKEDL@SendNthListMessage?5got?5invalid?5l@ 00489f58     list.obj
 0002:00014f98       ??_C@_0DG@FEGDOFFP@SendNthListMessage?5called?5on?5inv@ 00489f98     list.obj
 0002:00014fd0       ??_C@_0DA@DPOLMLOA@SendListMessageByClass?5can?8t?5fin@ 00489fd0     list.obj
 0002:00015000       ??_C@_0DJ@CMMGPEKA@SendListMessageByClass?5can?8t?5fin@ 0048a000     list.obj
 0002:0001503c       ??_C@_0DJ@IDNNCLHG@SendListMessageByClass?5got?5inval@ 0048a03c     list.obj
 0002:00015078       ??_C@_0DF@LOFKMDAP@SendFirstListMessageByClass?5can?8@ 0048a078     list.obj
 0002:000150b0       ??_C@_0DP@INPOGOME@SendFirstListMessageByClass?5call@ 0048a0b0     list.obj
 0002:000150f0       ??_C@_0DO@EJECCCEG@SendFirstListMessageByClass?5can?8@ 0048a0f0     list.obj
 0002:00015130       ??_C@_0DO@OGFJPNJA@SendFirstListMessageByClass?5got?5@ 0048a130     list.obj
 0002:00015170       ??_C@_0DI@MBEBALGI@SendFirstListMessageByClass?5can?8@ 0048a170     list.obj
 0002:000151a8       ??_C@_0DD@DFOKMGOH@SendNthListMessageByClass?5can?8t?5@ 0048a1a8     list.obj
 0002:000151dc       ??_C@_0DJ@NDHLFPBI@SendNthListMessageByClass?5called@ 0048a1dc     list.obj
 0002:00015218       ??_C@_0DM@NEEOKEGK@SendNthListMessageByClass?5can?8t?5@ 0048a218     list.obj
 0002:00015254       ??_C@_0DM@HLFFHLLM@SendNthListMessageByClass?5got?5in@ 0048a254     list.obj
 0002:00015290       ??_C@_0DD@BJIFLFPK@SendNthListMessageByClass?5called@ 0048a290     list.obj
 0002:000152c4       ??_C@_0DJ@FDMKJMKM@MoveListNode?5can?8t?5find?5source?5?$CF@ 0048a2c4     list.obj
 0002:00015300       ??_C@_0DH@GLPKLBBL@MoveListNode?5can?8t?5find?5dest?5?$CFi?0@ 0048a300     list.obj
 0002:00015338       ??_C@_0DC@CFPIGBDE@LoadAccounts?5can?8t?5open?5?$CFs?5to?5lo@ 0048a338     loadacco.obj
 0002:0001536c       ??_C@_04IHEANEPO@?3?5?7?6?$AA@ 0048a36c     loadacco.obj
 0002:00015374       ??_C@_02NDKNKOCB@?3?6?$AA@ 0048a374     loadacco.obj
 0002:00015378       ??_C@_0BA@PDLPEOIO@NEXT_ACCOUNT_ID?$AA@ 0048a378     loadacco.obj
 0002:00015388       ??_C@_0DF@JEBEIMIG@LoadAccounts?5can?8t?5handle?5accoun@ 0048a388     loadacco.obj
 0002:000153c0       ??_C@_0CM@MPHLMPLE@LoadLineAccount?5?$CI?$CFi?$CJ?5found?5inval@ 0048a3c0     loadacco.obj
 0002:000153ec       ??_C@_0L@DCNDOLKB@banned?4txt?$AA@ 0048a3ec     loadall.obj
 0002:000153f8       ??_C@_0CB@JELPIPOB@LoadAll?5initializing?5a?5new?5game?6@ 0048a3f8     loadall.obj
 0002:0001541c       ??_C@_09KACEGDEC@accounts?4?$AA@ 0048a41c     loadall.obj
 0002:00015428       ??_C@_06DIJPEION@?$CFs?$CFs?$CFs?$AA@ 0048a428     loadall.obj
 0002:00015430       ??_C@_0DJ@MAGHNLCJ@LoadAll?5error?5loading?5accounts?0?5@ 0048a430     loadall.obj
 0002:0001546c       ??_C@_0CB@BGHALJMN@LoadAll?5loaded?5game?5saved?5at?5?$CFs?6@ 0048a46c     loadall.obj
 0002:00015490       ??_C@_09KOKHCDDB@striings?4?$AA@ 0048a490     loadall.obj
 0002:0001549c       ??_C@_09PMGCACMI@dynarscs?4?$AA@ 0048a49c     loadall.obj
 0002:000154a8       ??_C@_09EDCBHPAB@gameuser?4?$AA@ 0048a4a8     loadall.obj
 0002:000154b4       ??_C@_0CI@JOHLEDNM@LoadFromKod?5got?5invalid?5save?5gam@ 0048a4b4     loadall.obj
 0002:000154dc       ??_C@_0BK@MPPHMGO@LoadFromKod?5loading?5game?6?$AA@ 0048a4dc     loadall.obj
 0002:000154f8       ??_C@_0CO@OFGJHJI@LoadFromKod?5couldn?8t?5reload?5all?0@ 0048a4f8     loadall.obj
 0002:00015528       ??_C@_0N@MGKEOMNG@lastsave?4txt?$AA@ 0048a528     loadall.obj
 0002:00015538       ??_C@_02MCBMIIIH@?5?6?$AA@ 0048a538     loadall.obj
 0002:0001553c       ??_C@_08PIGBADPL@LASTSAVE?$AA@ 0048a53c     loadall.obj
 0002:00015548       ??_C@_0CM@OFEPKJFM@LoadControl?5file?5invalid?5data?5li@ 0048a548     loadall.obj
 0002:00015574       ??_C@_0BD@LDONOM@LoadGame?5starting?6?$AA@ 0048a574     loadgame.obj
 0002:00015588       ??_C@_0L@GNADGHGA@loadgame?4c?$AA@ 0048a588     loadgame.obj
 0002:00015594       ??_C@_0DJ@CIENKJBC@LoadGame?5can?8t?5open?5?$CFs?5to?5load?5t@ 0048a594     loadgame.obj
 0002:000155d0       ??_C@_0CG@DHKDAGEL@LoadGame?5exiting?5LoadGame?5?$CFu?5sec@ 0048a5d0     loadgame.obj
 0002:000155f8       ??_C@_0CE@ELAECHPM@File?5?$CFs?5Line?5?$CFi?5couldn?8t?5read?5ty@ 0048a5f8     loadgame.obj
 0002:0001561c       ??_C@_0DP@IFPIKLAG@LoadGameFile?5found?5invalid?5comma@ 0048a61c     loadgame.obj
 0002:0001565c       ??_C@_0CK@LEDIFDMH@File?5?$CFs?5Line?5?$CFi?5not?5enough?5bytes@ 0048a65c     loadgame.obj
 0002:00015688       ??_C@_0DP@CCJLPDID@LoadGameObject?5found?5object?5?$CFi?5c@ 0048a688     loadgame.obj
 0002:000156c8       ??_C@_0CF@KJOPPLMD@LoadGameObject?5can?8t?5load?5object@ 0048a6c8     loadgame.obj
 0002:000156f0       ??_C@_0EC@GCECKJNL@LoadGameObject?5found?5object?5?$CFi?5c@ 0048a6f0     loadgame.obj
 0002:00015734       ??_C@_0CF@MBHJFPCA@LoadGameList?5can?8t?5set?5list?5node@ 0048a734     loadgame.obj
 0002:0001575c       ??_C@_0CD@BKGDCMCP@LoadGameTables?5can?8t?5set?5table?5?$CF@ 0048a75c     loadgame.obj
 0002:00015780       ??_C@_0DH@OFEMEFJA@LoadGameTables?5got?5incorrect?5tab@ 0048a780     loadgame.obj
 0002:000157b8       ??_C@_0DH@GMOCKBLG@LoadGameTables?5got?5invalid?5table@ 0048a7b8     loadgame.obj
 0002:000157f0       ??_C@_0CM@BBOEMKHH@File?5?$CFs?5Line?5?$CFi?5string?5too?5long?5@ 0048a7f0     loadgame.obj
 0002:0001581c       ??_C@_0CC@CLJEIFD@LoadGameTimer?5can?8t?5set?5timer?5?$CFi@ 0048a81c     loadgame.obj
 0002:00015840       ??_C@_1BG@LEFHGNKM@?$AAl?$AAo?$AAa?$AAd?$AAg?$AAa?$AAm?$AAe?$AA?4?$AAc?$AA?$AA@ 0048a840     loadgame.obj
 0002:00015858       ??_C@_1BK@CNFGFJEL@?$AAl?$AAg?$AAp?$AA?9?$AA?$DO?$AAn?$AAa?$AAm?$AAe?$AAl?$AAe?$AAn?$AA?$AA@ 0048a858     loadgame.obj
 0002:00015878       ??_C@_0EF@KLMBDNGC@LoadGameTranslateVal?5found?5saved@ 0048a878     loadgame.obj
 0002:000158c0       ??_C@_0CN@DHNIOFLE@LoadGameTranslateVal?5unable?5to?5g@ 0048a8c0     loadgame.obj
 0002:000158f0       ??_C@_0DH@LNGMCONA@LoadGameTranslateVal?5unable?5to?5l@ 0048a8f0     loadgame.obj
 0002:00015928       ??_C@_0DA@MDBCCPJD@LoadGameTranslateVal?5unable?5to?5g@ 0048a928     loadgame.obj
 0002:00015958       ??_C@_0DK@NLDCDCKO@LoadGameTranslateVal?5unable?5to?5l@ 0048a958     loadgame.obj
 0002:00015994       ??_C@_05HHPIJGNN@?$CK?4bof?$AA@ 0048a994     loadkod.obj
 0002:0001599c       ??_C@_0BL@GCGJDENK@LoadAllBofs?5can?8t?5load?5?$CFs?6?$AA@ 0048a99c     loadkod.obj
 0002:000159b8       ??_C@_0CK@DDFHPMLP@LoadBof?5loaded?5?$CFi?5of?5?$CFi?5found?5?4b@ 0048a9b8     loadkod.obj
 0002:000159e4       ??_C@_0BL@CPPJMGPN@LoadBofName?5can?8t?5open?5?$CFs?6?$AA@ 0048a9e4     loadkod.obj
 0002:00015a00       ??_C@_0CF@JCPCLEBC@LoadBofName?5?$CFs?5is?5not?5in?5BOF?5for@ 0048aa00     loadkod.obj
 0002:00015a28       ??_C@_0DA@HEOLODGL@LoadBofName?5?$CFs?5can?8t?5understand?5@ 0048aa28     loadkod.obj
 0002:00015a58       ??_C@_09IGNKNJAO@loadkod?4c?$AA@ 0048aa58     loadkod.obj
 0002:00015a64       ??_C@_0BK@ILKCLLEM@LoadRsc?5error?5loading?5?$CFs?6?$AA@ 0048aa64     loadrsc.obj
 0002:00015a80       ??_C@_0CI@MCCGLHDI@LoadRsc?5loaded?5?$CFi?5of?5?$CFi?5found?5?$CFs@ 0048aa80     loadrsc.obj
 0002:00015aa8       ??_C@_09JKMEMIGH@loadrsc?4c?$AA@ 0048aaa8     loadrsc.obj
 0002:00015ab4       ??_C@_0CB@MAAFEDM@LoadDynamicRsc?5error?5loading?5?$CFs?6@ 0048aab4     loadrsc.obj
 0002:00015ad8       ??_C@_0DG@HBFLPIFP@LoadDynamicRscName?5can?8t?5underst@ 0048aad8     loadrsc.obj
 0002:00015b10       ??_C@_0DJ@KJJIAGFL@LoadDynamicRscName?5got?5invalid?5l@ 0048ab10     loadrsc.obj
 0002:00015b50       ??_C@_0EC@FIMEGEPJ@LoadBlakodStrings?5can?8t?5open?5?$CFs?5@ 0048ab50     loadstr.obj
 0002:00015b94       ??_C@_0DA@BGGOGNNF@Blakserv?5has?5received?5a?5signal?5t@ 0048ab94     main.obj
 0002:00015bc4       ??_C@_0BA@FMLMJELM@No?5error?5string?$AA@ 0048abc4     main.obj
 0002:00015bd4       ??_C@_0BG@NFGGLNCK@Starting?5MySQL?5writer?$AA@ 0048abd4     main_windows.obj
 0002:00015bec       ??_C@_0N@FGIHCLIM@Starting?5?$CFs?6?$AA@ 0048abec     main_windows.obj
 0002:00015bfc       ??_C@_0BM@IEKHIGCO@ExitServer?5saved?5gamestate?6?$AA@ 0048abfc     main_windows.obj
 0002:00015c18       ??_C@_0BP@NAHMGOLI@ExitServer?5terminating?5server?6?$AA@ 0048ac18     main_windows.obj
 0002:00015c38       ??_C@_04LJCKANJM@Bye?6?$AA@ 0048ac38     maintenance.obj
 0002:00015c40       ??_C@_08NGDELMOA@memory?4c?$AA@ 0048ac40     memory.obj
 0002:00015c4c       ??_C@_06ENNEIMBA@String?$AA@ 0048ac4c     memory.obj
 0002:00015c54       ??_C@_08FLGELGHE@Resource?$AA@ 0048ac54     memory.obj
 0002:00015c60       ??_C@_07FFOFCADM@Session?$AA@ 0048ac60     memory.obj
 0002:00015c68       ??_C@_04ODLBFFJE@User?$AA@ 0048ac68     memory.obj
 0002:00015c70       ??_C@_06KKOJPGPE@Dllist?$AA@ 0048ac70     memory.obj
 0002:00015c78       ??_C@_07HHDKBGMA@LoadBof?$AA@ 0048ac78     memory.obj
 0002:00015c80       ??_C@_08KCHOLBGF@Systimer?$AA@ 0048ac80     memory.obj
 0002:00015c8c       ??_C@_06JOMCBIJL@Nameid?$AA@ 0048ac8c     memory.obj
 0002:00015c94       ??_C@_0BC@OBEGECOL@Object?5properties?$AA@ 0048ac94     memory.obj
 0002:00015ca8       ??_C@_0O@PIILMNHI@Configuration?$AA@ 0048aca8     memory.obj
 0002:00015cb8       ??_C@_0BA@LHLHBONO@Admin?5constants?$AA@ 0048acb8     memory.obj
 0002:00015cc8       ??_C@_07NIHFOFBK@Buffers?$AA@ 0048acc8     memory.obj
 0002:00015cd0       ??_C@_0N@NGIGLPAI@Game?5loading?$AA@ 0048acd0     memory.obj
 0002:00015ce0       ??_C@_06KOKNHOLC@Tables?$AA@ 0048ace0     memory.obj
 0002:00015ce8       ??_C@_0O@CBNNDEC@Socket?5blocks?$AA@ 0048ace8     memory.obj
 0002:00015cf8       ??_C@_0M@NMHBKHIP@Game?5saving?$AA@ 0048acf8     memory.obj
 0002:00015d04       ??_C@_0DJ@CEALJLJJ@InitMemory?5FATAL?5there?5aren?8t?5na@ 0048ad04     memory.obj
 0002:00015d40       ??_C@_0DK@CGDKGKNG@AllocateMemoryDebug?5zero?5byte?5me@ 0048ad40     memory.obj
 0002:00015d7c       ??_C@_0DF@NHNHHNEM@AllocateMemory?5allocating?5memory@ 0048ad7c     memory.obj
 0002:00015db4       ??_C@_0DD@DMCEFPK@AllocateMemory?5couldn?8t?5allocate@ 0048adb4     memory.obj
 0002:00015de8       ??_C@_0BK@MJIEFJMM@Memory?5allocation?5failure?$AA@ 0048ade8     memory.obj
 0002:00015e08       ??_C@_0EA@HFNPIIIP@AllocateMemoryCallocDebug?5zero?5b@ 0048ae08     memory.obj
 0002:00015e48       ??_C@_0EA@EFNMCNPE@AllocateMemoryCallocDebug?5alloca@ 0048ae48     memory.obj
 0002:00015e88       ??_C@_0DO@LLLFFBD@AllocateMemoryCallocDebug?5couldn@ 0048ae88     memory.obj
 0002:00015ec8       ??_C@_0CO@GADOCOFP@FreeMemory?5freeing?5memory?5of?5unk@ 0048aec8     memory.obj
 0002:00015ef8       ??_C@_0DB@HIENEPOF@ResizeMemory?5resizing?5memory?5of?5@ 0048aef8     memory.obj
 0002:00015f2c       ??_C@_0DO@LPBBMPK@ResizeMemory?5couldn?8t?5reallocate@ 0048af2c     memory.obj
 0002:00015f6c       ??_C@_0BM@NOCEGFGO@Memory?5reallocation?5failure?$AA@ 0048af6c     memory.obj
 0002:00015f88       ??_C@_0CJ@FKBOFNIM@SetClassNumMessages?5can?8t?5find?5c@ 0048af88     message.obj
 0002:00015fb4       ??_C@_0CA@HHDAEONB@AddMessage?5can?8t?5find?5class?5?$CFi?6?$AA@ 0048afb4     message.obj
 0002:00015fd4       ??_C@_0CE@FIHGPBJE@GetMessageByID?5can?8t?5find?5class?5@ 0048afd4     message.obj
 0002:00015ff8       ??_C@_0CF@DOBCJAHN@GetMessageByName?5can?8t?5find?5name@ 0048aff8     message.obj
 0002:00016020       ??_C@_08LNEOKFHF@motd?4txt?$AA@ 0048b020     motd.obj
 0002:0001602c       ??_C@_0BI@LINPJOCM@LoadMotd?5can?8t?5move?5?$CFs?6?$AA@ 0048b02c     motd.obj
 0002:00016044       ??_C@_06LFEFMFPO@motd?4c?$AA@ 0048b044     motd.obj
 0002:0001604c       ??_C@_0CG@IDODHIEB@SetMotd?5error?5saving?5motd?5file?5t@ 0048b04c     motd.obj
 0002:00016074       ??_C@_0CH@OBGKOAPN@SetMotd?5error?5writing?5motd?5file?5@ 0048b074     motd.obj
 0002:0001609c       ??_C@_08HPCLIEGI@nameid?4c?$AA@ 0048b09c     nameid.obj
 0002:000160a8       ??_C@_0DB@OBPGHMJE@No?5memory?5allocated?5for?5name?5IDs@ 0048b0a8     nameid.obj
 0002:000160dc       ??_C@_0DJ@KNKIALIF@CreateNameID?5got?5different?5strin@ 0048b0dc     nameid.obj
 0002:00016118       ??_C@_0EA@HBAACMOJ@CreateNameID?5got?5table?5collision@ 0048b118     nameid.obj
 0002:00016158       ??_C@_08DJNBOGHI@object?4c?$AA@ 0048b158     object.obj
 0002:00016164       ??_C@_0CE@JEOLBMBA@ResetObject?5can?8t?5find?5class?5id?5@ 0048b164     object.obj
 0002:00016188       ??_C@_0CH@LKIBFPBM@AllocateObject?5can?8t?5find?5class?5@ 0048b188     object.obj
 0002:000161b0       ??_C@_0CG@FLMMFICJ@AllocateObject?5resized?5to?5?$CFi?5obj@ 0048b1b0     object.obj
 0002:000161d8       ??_C@_0DA@KDPNAALN@GetObjectByID?5can?8t?5retrieve?5inv@ 0048b1d8     object.obj
 0002:00016208       ??_C@_0ED@HCNONFGA@GetObjectByID?5can?8t?5retrieve?5del@ 0048b208     object.obj
 0002:00016250       ??_C@_0EK@DJHKALLC@GetObjectByID?5can?8t?5retrieve?5del@ 0048b250     object.obj
 0002:0001629c       ??_C@_0DA@NJKKFAOF@GetObjectByID?5can?8t?5retrieve?5inv@ 0048b29c     object.obj
 0002:000162cc       ??_C@_0CF@KFJGBLEA@CreateObject?5can?8t?5find?5class?5id@ 0048b2cc     object.obj
 0002:000162f4       ??_C@_0CF@LHDNPDOJ@LoadObject?5can?8t?5find?5class?5name@ 0048b2f4     object.obj
 0002:0001631c       ??_C@_0CF@FHLOKOMA@LoadObject?5didn?8t?5make?5object?5id@ 0048b31c     object.obj
 0002:00016344       ??_C@_0CO@NAHPKGNO@SetObjectPropertyByName?5can?8t?5fi@ 0048b344     object.obj
 0002:00016374       ??_C@_0CN@LKDEJJCH@SetObjectPropertyByName?5can?8t?5fi@ 0048b374     object.obj
 0002:000163a8       ??_C@_0EB@EEGLLIF@SetObjectPropertyByName?5can?8t?5fi@ 0048b3a8     object.obj
 0002:000163f0       ??_C@_0EN@KAMODOHK@SetObjectPropertyByName?5property@ 0048b3f0     object.obj
 0002:00016440       ??_C@_0DK@LEHPDPMJ@SetObjectPropertyByName?5property@ 0048b440     object.obj
 0002:00016480       ??_C@_0EO@LLLLMDIL@SetObjectProperties?5can?8t?5set?5in@ 0048b480     object.obj
 0002:000164d0       ??_C@_0DC@DOBEHPKI@DeleteBlakodObject?5can?8t?5get?5an?5@ 0048b4d0     object.obj
 0002:00016504       ??_C@_0CI@KOLKPLHF@DeleteBlakodObject?5can?8t?5find?5cl@ 0048b504     object.obj
 0002:0001652c       ??_C@_0DH@DHKIMO@MoveObject?5can?8t?5find?5source?5?$CFi?0@ 0048b52c     object.obj
 0002:00016568       ??_C@_0GE@HCBECMHH@ParseClientSendBlakod?5?$CFi?5got?5inv@ 0048b568     parsecli.obj
 0002:000165d0       ??_C@_0GO@HOELLDI@ParseClientSendBlakod?5?$CFi?5got?5inv@ 0048b5d0     parsecli.obj
 0002:00016640       ??_C@_0GL@NPKKECCA@ParseClientSendBlakod?5got?5invali@ 0048b640     parsecli.obj
 0002:000166ac       ??_C@_0CP@BGJJHGIM@ParseClientSendBlakod?5got?5zero?5l@ 0048b6ac     parsecli.obj
 0002:000166dc       ??_C@_0CO@FFKHJBCH@ParseClientSendBlakod?5got?5invali@ 0048b6dc     parsecli.obj
 0002:0001670c       ??_C@_0DD@NBHHBLKI@ParseCientSendBlakod?5got?5invalid@ 0048b70c     parsecli.obj
 0002:00016740       ??_C@_0DI@KMGIEJKI@ParseCientSendBlakod?5got?5invalid@ 0048b740     parsecli.obj
 0002:00016778       ??_C@_0DI@POHPECOJ@ParseClientSendBlakod?5got?5invali@ 0048b778     parsecli.obj
 0002:000167b0       ??_C@_0DH@CHJBFBIF@ParseClientSendBlakod?5found?5more@ 0048b7b0     parsecli.obj
 0002:000167e8       ??_C@_09IPHMNHPA@roofile?4c?$AA@ 0048b7e8     roofile.obj
 0002:000167f4       ??_C@_0CF@PAOGBEFF@LoadRoomData?5can?8t?5find?5resource@ 0048b7f4     roomdata.obj
 0002:0001681c       ??_C@_0CC@BPCBFPII@LoadRoomData?5couldn?8t?5open?5?$CFs?$CB?$CB?$CB@ 0048b81c     roomdata.obj
 0002:00016840       ??_C@_0CG@NAOPFNDF@UnloadRoomData?5called?5with?5NULL?5@ 0048b840     roomdata.obj
 0002:00016868       ??_C@_0CI@HLKKFBCM@UnloadRoomData?5couldn?8t?5get?5room@ 0048b868     roomdata.obj
 0002:00016890       ??_C@_0EB@NNEOOJOA@UnloadRoomData?5got?5NULL?5data?5for@ 0048b890     roomdata.obj
 0002:000168d4       ??_C@_0CF@LJDHPGIJ@Room?5?$CFi?5not?5freed?5in?5UnloadRoomD@ 0048b8d4     roomdata.obj
 0002:000168fc       ??_C@_0BI@PCNLJEDF@No?5rooms?5table?5loaded?4?6?$AA@ 0048b8fc     roomdata.obj
 0002:00016914       ??_C@_0CP@GGOCGCP@Room?5at?5position?5?$CFi?0?5roomdata?5?$CFi@ 0048b914     roomdata.obj
 0002:00016944       ??_C@_0CO@HJEKDJHP@SaveAccounts?5can?8t?5open?5?$CFs?5to?5sa@ 0048b944     saveacco.obj
 0002:00016974       ??_C@_0BE@NLKPBIDO@NEXT_ACCOUNT_ID?5?$CFi?6?$AA@ 0048b974     saveacco.obj
 0002:00016988       ??_C@_0P@MGALNAOI@ACCOUNT?5?$CFi?3?$CFs?3?$AA@ 0048b988     saveacco.obj
 0002:00016998       ??_C@_0BB@ODIIJEGM@?3?$CFi?3?$CFi?3?$CFi?3?$CFi?3?$CFs?6?$AA@ 0048b998     saveacco.obj
 0002:000169ac       ??_C@_0CA@LECGGJH@Saving?5game?5?$CItime?5stamp?5?$CFs?$CJ?4?4?4?6?$AA@ 0048b9ac     saveall.obj
 0002:000169cc       ??_C@_0CH@DLKAMOOP@Save?5game?5successful?5?$CItime?5stamp@ 0048b9cc     saveall.obj
 0002:000169f8       ??_C@_0EI@DIDIDAKE@SaveContrtolFile?5can?8t?5open?5?$CFs?5t@ 0048b9f8     saveall.obj
 0002:00016a40       ??_C@_02MAFKDGNO@?$CD?6?$AA@ 0048ba40     saveall.obj
 0002:00016a44       ??_C@_0CJ@EALDBFCH@?$CD?5Control?5file?5for?5last?5successf@ 0048ba44     saveall.obj
 0002:00016a70       ??_C@_0BC@PMFAIEBO@?$CD?5Files?5written?3?6?$AA@ 0048ba70     saveall.obj
 0002:00016a84       ??_C@_09JFOOECMO@?$CD?5?$CFs?$CFs?$CFi?6?$AA@ 0048ba84     saveall.obj
 0002:00016a90       ??_C@_0CC@FFKEOJBL@?$CD?5Last?5successful?5save?5was?5at?5?$CFs@ 0048ba90     saveall.obj
 0002:00016ab4       ??_C@_0N@HHGFGHBK@LASTSAVE?5?$CFi?6?$AA@ 0048bab4     saveall.obj
 0002:00016ac4       ??_C@_02GMLFBBN@wb?$AA@    0048bac4     savegame.obj
 0002:00016ac8       ??_C@_0CO@JCFBKIHO@SaveGame?5can?8t?5open?5?$CFs?5to?5save?5e@ 0048bac8     savegame.obj
 0002:00016af8       ??_C@_0L@EKMPEIPI@savegame?4c?$AA@ 0048baf8     savegame.obj
 0002:00016b08       ??_C@_0EN@GCKDMINN@SaveGameCopyStringBuffer?5line?5?$CFi@ 0048bb08     savegame.obj
 0002:00016b58       ??_C@_0CI@MDIONPMM@File?5?$CFs?5Line?5?$CFi?5error?5writing?5to@ 0048bb58     savegame.obj
 0002:00016b80       ??_C@_0CO@HLJPIAOO@SaveEachClass?5is?5not?5saving?5inva@ 0048bb80     savegame.obj
 0002:00016bb0       ??_C@_0DM@FKPAGAFE@SaveEachClass?5cannot?5find?5proper@ 0048bbb0     savegame.obj
 0002:00016bec       ??_C@_0DE@EOLENBON@SaveEachResource?5is?5not?5saving?5i@ 0048bbec     savegame.obj
 0002:00016c20       ??_C@_0CD@JDDIODEF@SaveEachObject?5can?8t?5get?5class?5?$CF@ 0048bc20     savegame.obj
 0002:00016c44       ??_C@_0CD@PACJIOGP@SaveEachTimer?5can?8t?5get?5object?5?$CF@ 0048bc44     savegame.obj
 0002:00016c68       ??_C@_0CO@MOJBPJHI@SaveEachTimer?5is?5not?5saving?5inva@ 0048bc68     savegame.obj
 0002:00016c98       ??_C@_09FEKKPKBG@saversc?4c?$AA@ 0048bc98     saversc.obj
 0002:00016ca4       ??_C@_0CL@DHONKHFF@SaveDynamicRsc?5can?8t?5open?5?$CFs?5to?5@ 0048bca4     saversc.obj
 0002:00016cd0       ??_C@_0CH@IBOEMJGM@SaveDynamicRsc?5error?5writing?5to?5@ 0048bcd0     saversc.obj
 0002:00016cf8       ??_C@_0EM@KLFEEFJD@SaveRscCopyStringBuffer?5line?5?$CFi?5@ 0048bcf8     saversc.obj
 0002:00016d44       ??_C@_0CM@PPBLIIKD@SaveStrings?5can?8t?5open?5?$CFs?5to?5sav@ 0048bd44     savestr.obj
 0002:00016d70       ??_C@_09MFHDMFFJ@savestr?4c?$AA@ 0048bd70     savestr.obj
 0002:00016d80       ??_C@_0EM@KBDDKJEA@SaveStrCopyStringBuffer?5line?5?$CFi?5@ 0048bd80     savestr.obj
 0002:00016dcc       ??_C@_0DG@BDJOKEC@?$FL?$CFs?$FN?5RetrieveClassVar?5class?5var?5@ 0048bdcc     sendmsg.obj
 0002:00016e04       ??_C@_0DJ@CAGJOFIM@?$FL?$CFs?$FN?5RetrieveClassVar?5can?8t?5find@ 0048be04     sendmsg.obj
 0002:00016e40       ??_C@_0FG@KFKDOMDL@?$FL?$CFs?$FN?5RetrieveClassVar?5can?8t?5retr@ 0048be40     sendmsg.obj
 0002:00016e98       ??_C@_0M@CJNNIAFH@?$CF?915s?$CF?920s?6?$AA@ 0048be98     sendmsg.obj
 0002:00016ea4       ??_C@_0M@EGLGEMHP@?$CF?915s?$CF?920s?5?$AA@ 0048bea4     sendmsg.obj
 0002:00016eb0       ??_C@_0N@CLKMIBPB@?$CFs?5?$DN?5?$CFs?5?$CFs?0?5?$AA@ 0048beb0     sendmsg.obj
 0002:00016ec0       ??_C@_0EJ@OEBPOMJN@PostBlakodMessage?5can?8t?5post?5MES@ 0048bec0     sendmsg.obj
 0002:00016f10       ??_C@_0EK@OAFFOPGN@SendTopLevelBlakodMessage?5called@ 0048bf10     sendmsg.obj
 0002:00016f60       ??_C@_0EF@FEJLLOPJ@SendTopLevelBlakodMessage?5too?5ma@ 0048bf60     sendmsg.obj
 0002:00016fa8       ??_C@_0EH@HEIEJNCI@?5?5OBJECT?5?$CFi?5CLASS?5?$CFs?5MESSAGE?5?$CFs?5@ 0048bfa8     sendmsg.obj
 0002:00016ff0       ??_C@_0EN@LLHDNOLB@SendTopLevelBlakodMessage?5return@ 0048bff0     sendmsg.obj
 0002:00017040       ??_C@_0CI@EPKNELHM@SendBlakodMessage?5can?8t?5find?5OBJ@ 0048c040     sendmsg.obj
 0002:00017068       ??_C@_0DB@NLHGGFGN@SendBlakodMessage?5OBJECT?5?$CFi?5can?8@ 0048c068     sendmsg.obj
 0002:000170a0       ??_C@_0FE@GJGEBDFK@SendBlakodMessage?5CLASS?5?$CFs?5?$CI?$CFi?$CJ?5@ 0048c0a0     sendmsg.obj
 0002:000170f8       ??_C@_0ED@DMHCNCMH@SendBlakodMessage?5sending?5to?5CLA@ 0048c0f8     sendmsg.obj
 0002:00017140       ??_C@_0EE@EDPFEKLC@SendBlakodMessage?5can?8t?5propagat@ 0048c140     sendmsg.obj
 0002:00017188       ??_C@_0FL@GKPGDCND@SendBlakodMessage?5can?8t?5find?5cla@ 0048c188     sendmsg.obj
 0002:000171e4       ??_C@_0M@MLGGMLIA@?$CIpropagate?$CJ?$AA@ 0048c1e4     sendmsg.obj
 0002:000171f0       ??_C@_0HG@NHDGMENH@InterpretAtMessage?5found?5too?5man@ 0048c1f0     sendmsg.obj
 0002:00017268       ??_C@_0EG@MMIJGNIA@InterpretAtMessage?5interpreted?5t@ 0048c268     sendmsg.obj
 0002:000172b0       ??_C@_0BL@KGNLMBM@Infinite?5loop?5at?5depth?5?$CFi?6?$AA@ 0048c2b0     sendmsg.obj
 0002:000172d0       ??_C@_0EB@DMGIFEIM@?5?5OBJECT?5?$CFi?5CLASS?5?$CFs?5MESSAGE?5?$CFs?5@ 0048c2d0     sendmsg.obj
 0002:00017314       ??_C@_0BE@PNBPJPKO@?5?5Local?5variables?3?6?$AA@ 0048c314     sendmsg.obj
 0002:00017328       ??_C@_0BA@KJAKDMHB@?5?5?$CF3i?5?3?5?$CFs?5?$CF5i?6?$AA@ 0048c328     sendmsg.obj
 0002:00017338       ??_C@_0DL@LEBGBAIA@InterpretAtMessage?5found?5INVALID@ 0048c338     sendmsg.obj
 0002:00017374       ??_C@_0DF@LOCOGJP@?$FL?$CFs?$FN?5StoreValue?5can?8t?5write?5to?5i@ 0048c374     sendmsg.obj
 0002:000173ac       ??_C@_0CG@EJMLFCCI@?$FL?$CFs?$FN?5StoreValue?5can?8t?5find?5objec@ 0048c3ac     sendmsg.obj
 0002:000173d4       ??_C@_0DN@ILONDLMG@?$FL?$CFs?$FN?5StoreValue?5can?8t?5write?5to?5i@ 0048c3d4     sendmsg.obj
 0002:00017414       ??_C@_0CI@LMJMAMKF@?$FL?$CFs?$FN?5StoreValue?5can?8t?5identify?5t@ 0048c414     sendmsg.obj
 0002:0001743c       ??_C@_0DF@KIIFJHLO@?$FL?$CFs?$FN?5StoreLocal?5can?8t?5write?5to?5i@ 0048c43c     sendmsg.obj
 0002:00017474       ??_C@_06LGMEBDBC@Server?$AA@ 0048c474     sendmsg.obj
 0002:0001747c       ??_C@_0BB@HOJBHGHP@Invalid?5class?5?$CFi?$AA@ 0048c47c     sendmsg.obj
 0002:00017490       ??_C@_07JEHKNHKJ@?$CFs?5?$CI?$CFi?$CJ?$AA@ 0048c490     sendmsg.obj
 0002:00017498       ??_C@_0BH@JGJNLJCN@?$CL?$CL?$CL?$CL?$CL?$CL?$CL?$CL?$CL?$CL?$CL?$CL?$CL?$CL?$CL?$CL?$CL?$CL?$CL?$CL?$CL?$CL?$AA@ 0048c498     sendmsg.obj
 0002:000174b0       ??_C@_0L@FJIHLPCD@?$CF?4?$CKs?$CFs?3?3?$CFs?$AA@ 0048c4b0     sendmsg.obj
 0002:000174bc       ??_C@_01ODHLEDKK@?$CI?$AA@ 0048c4bc     sendmsg.obj
 0002:000174c0       ??_C@_09OIKHLFMN@?$CD?$CFs?$DN?$CFs?5?$CFs?$AA@ 0048c4c0     sendmsg.obj
 0002:000174cc       ??_C@_01PKGAHCOL@?$CJ?$AA@ 0048c4cc     sendmsg.obj
 0002:000174d0       ??_C@_08JFKAJOMN@?5?$CFs?5?$CI?$CFi?$CJ?$AA@ 0048c4d0     sendmsg.obj
 0002:000174dc       ??_C@_0N@FJOHNNE@?6?4?4?4and?5more?$AA@ 0048c4dc     sendmsg.obj
 0002:000174ec       ??_C@_0CN@KHEAIGEI@InterpretUnaryNot_L?5can?8t?5NOT?5no@ 0048c4ec     sendmsg.obj
 0002:0001751c       ??_C@_0CN@FKPHJANC@InterpretUnaryNot_P?5can?8t?5NOT?5no@ 0048c51c     sendmsg.obj
 0002:0001754c       ??_C@_0DA@IGEJILAG@InterpretUnaryNeg_L?5can?8t?5negate@ 0048c54c     sendmsg.obj
 0002:0001757c       ??_C@_0DA@DPFACFCF@InterpretUnaryNeg_P?5can?8t?5negate@ 0048c57c     sendmsg.obj
 0002:000175ac       ??_C@_0DI@DLJBMBGK@InterpretUnaryBitNot_L?5can?8t?5bit@ 0048c5ac     sendmsg.obj
 0002:000175e4       ??_C@_0DI@DGLEHHIG@InterpretUnaryBitNot_P?5can?8t?5bit@ 0048c5e4     sendmsg.obj
 0002:0001761c       ??_C@_0DK@PKKAIFCL@InterpretUnaryPostInc?5can?8t?5post@ 0048c61c     sendmsg.obj
 0002:00017658       ??_C@_0DK@MNHIECOI@InterpretUnaryPostDec?5can?8t?5post@ 0048c658     sendmsg.obj
 0002:00017694       ??_C@_0DJ@LGFADLMF@InterpretUnaryPostDec?5can?8t?5pre?9@ 0048c694     sendmsg.obj
 0002:000176d0       ??_C@_0DI@DOBPIKEL@InterpretUnaryPreDec?5can?8t?5pre?9d@ 0048c6d0     sendmsg.obj
 0002:00017708       ??_C@_0DH@COPIMGFL@InterpretBinaryAdd_L?5can?8t?5add?52@ 0048c708     sendmsg.obj
 0002:00017740       ??_C@_0DH@IHEJENLO@InterpretBinaryAdd_P?5can?8t?5add?52@ 0048c740     sendmsg.obj
 0002:00017778       ??_C@_0DH@KOBKAFFE@InterpretBinarySub_L?5can?8t?5sub?52@ 0048c778     sendmsg.obj
 0002:000177b0       ??_C@_0DH@HKLIOLB@InterpretBinarySub_P?5can?8t?5sub?52@ 0048c7b0     sendmsg.obj
 0002:000177e8       ??_C@_0DH@CAPNNLGG@InterpretBinaryMul_L?5can?8t?5mul?52@ 0048c7e8     sendmsg.obj
 0002:00017820       ??_C@_0DH@IJEMFAID@InterpretBinaryMul_P?5can?8t?5mul?52@ 0048c820     sendmsg.obj
 0002:00017858       ??_C@_0DH@OHNNNCBM@InterpretBinaryDiv_L?5can?8t?5div?52@ 0048c858     sendmsg.obj
 0002:00017890       ??_C@_0CF@NBCPMPGN@InterpretBinaryDiv_L?5can?8t?5div?5b@ 0048c890     sendmsg.obj
 0002:000178b8       ??_C@_0DH@EOGMFJPJ@InterpretBinaryDiv_P?5can?8t?5div?52@ 0048c8b8     sendmsg.obj
 0002:000178f0       ??_C@_0CF@ODHFOKHP@InterpretBinaryDiv_P?5can?8t?5div?5b@ 0048c8f0     sendmsg.obj
 0002:00017918       ??_C@_0DH@DECEKINO@InterpretBinaryMod_L?5can?8t?5mod?52@ 0048c918     sendmsg.obj
 0002:00017950       ??_C@_0CF@KDHBFFMC@InterpretBinaryMod_L?5can?8t?5div?5b@ 0048c950     sendmsg.obj
 0002:00017978       ??_C@_0DH@JNJFCDDL@InterpretBinaryMod_P?5can?8t?5mod?52@ 0048c978     sendmsg.obj
 0002:000179b0       ??_C@_0CF@JBCLHANA@InterpretBinaryMod_P?5can?8t?5div?5b@ 0048c9b0     sendmsg.obj
 0002:000179d8       ??_C@_0DH@LACICDDB@InterpretBinaryAnd_L?5can?8t?5AND?52@ 0048c9d8     sendmsg.obj
 0002:00017a10       ??_C@_0DH@BJJJKINE@InterpretBinaryAnd_P?5can?8t?5AND?52@ 0048ca10     sendmsg.obj
 0002:00017a48       ??_C@_0DF@BAFEPOND@InterpretBinaryOr_L?5can?8t?5OR?52?5v@ 0048ca48     sendmsg.obj
 0002:00017a80       ??_C@_0DF@BNHBEIDP@InterpretBinaryOr_P?5can?8t?5OR?52?5v@ 0048ca80     sendmsg.obj
 0002:00017ab8       ??_C@_0DG@JGJCIJNC@InterpretBinaryLess_L?5can?8t?5?$DM?52?5@ 0048cab8     sendmsg.obj
 0002:00017af0       ??_C@_0DG@NOEOFLFI@InterpretBinaryLess_P?5can?8t?5?$DM?52?5@ 0048caf0     sendmsg.obj
 0002:00017b28       ??_C@_0DJ@KPDHHCOL@InterpretBinaryGreater_L?5can?8t?5?$DO@ 0048cb28     sendmsg.obj
 0002:00017b64       ??_C@_0DJ@OHOLKAGB@InterpretBinaryGreater_P?5can?8t?5?$DO@ 0048cb64     sendmsg.obj
 0002:00017ba0       ??_C@_0DG@BHIMONCF@InterpretBinaryLEq_L?5can?8t?5?$DM?$DN?52?5@ 0048cba0     sendmsg.obj
 0002:00017bd8       ??_C@_0DG@BKKJFLMJ@InterpretBinaryLEq_P?5can?8t?5?$DM?$DN?52?5@ 0048cbd8     sendmsg.obj
 0002:00017c10       ??_C@_0DG@NEJANH@InterpretBinaryGEq_L?5can?8t?5?$DO?$DN?52?5@ 0048cc10     sendmsg.obj
 0002:00017c48       ??_C@_0DG@NPBCGDL@InterpretBinaryGEq_P?5can?8t?5?$DO?$DN?52?5@ 0048cc48     sendmsg.obj
 0002:00017c80       ??_C@_0DI@KADEMPBK@InterpretBinaryBitAnd_L?5can?8t?5?$CG?5@ 0048cc80     sendmsg.obj
 0002:00017cb8       ??_C@_0DI@OIOIBNJA@InterpretBinaryBitAnd_P?5can?8t?5?$CG?5@ 0048ccb8     sendmsg.obj
 0002:00017cf0       ??_C@_0DH@NNKMCHEC@InterpretBinaryBitOr_L?5can?8t?5?$HM?52@ 0048ccf0     sendmsg.obj
 0002:00017d28       ??_C@_0DH@JFHAPFMI@InterpretBinaryBitOr_P?5can?8t?5?$HM?52@ 0048cd28     sendmsg.obj
 0002:00017d60       ??_C@_0DF@HJDFHICG@InterpretIsClass_L?5can?8t?5deal?5wi@ 0048cd60     sendmsg.obj
 0002:00017d98       ??_C@_0DD@CDLOGBCH@InterpretIsClass_L?5can?8t?5look?5fo@ 0048cd98     sendmsg.obj
 0002:00017dcc       ??_C@_0CJ@LFGMDFFL@InterpretIsClass_L?5can?8t?5find?5ob@ 0048cdcc     sendmsg.obj
 0002:00017df8       ??_C@_0DF@PAPBJENF@InterpretIsClass_L?5can?8t?5find?5cl@ 0048cdf8     sendmsg.obj
 0002:00017e30       ??_C@_0DF@NAIEPDMD@InterpretIsClass_P?5can?8t?5deal?5wi@ 0048ce30     sendmsg.obj
 0002:00017e68       ??_C@_0DD@GLGCLDKN@InterpretIsClass_P?5can?8t?5look?5fo@ 0048ce68     sendmsg.obj
 0002:00017e9c       ??_C@_0CJ@HBAMOIIH@InterpretIsClass_P?5can?8t?5find?5ob@ 0048ce9c     sendmsg.obj
 0002:00017ec8       ??_C@_0DF@FJEABPDA@InterpretIsClass_P?5can?8t?5find?5cl@ 0048cec8     sendmsg.obj
 0002:00017f00       ??_C@_0DK@JMFDMPAD@InterpretIsClassConst_L?5can?8t?5de@ 0048cf00     sendmsg.obj
 0002:00017f3c       ??_C@_0CO@LPEEALCE@InterpretIsClassConst_L?5can?8t?5fi@ 0048cf3c     sendmsg.obj
 0002:00017f6c       ??_C@_0DK@BFJHCDPA@InterpretIsClassConst_L?5can?8t?5fi@ 0048cf6c     sendmsg.obj
 0002:00017fa8       ??_C@_0DK@DFOCEEOG@InterpretIsClassConst_P?5can?8t?5de@ 0048cfa8     sendmsg.obj
 0002:00017fe4       ??_C@_0CO@HLCENGPI@InterpretIsClassConst_P?5can?8t?5fi@ 0048cfe4     sendmsg.obj
 0002:00018014       ??_C@_0DK@LMCGKIBF@InterpretIsClassConst_P?5can?8t?5fi@ 0048d014     sendmsg.obj
 0002:00018050       ??_C@_09HLMDFMIM@session?4c?$AA@ 0048d050     session.obj
 0002:0001805c       ??_C@_0M@OMDFBFKO@Maintenance?$AA@ 0048d05c     session.obj
 0002:00018068       ??_C@_0O@PKJKIEDN@Game?5?9?5beacon?$AA@ 0048d068     session.obj
 0002:00018078       ??_C@_0M@JHAKPBEH@Game?5?9?5sync?$AA@ 0048d078     session.obj
 0002:00018084       ??_C@_0M@EALCMFFD@Game?5?9?5pick?$AA@ 0048d084     session.obj
 0002:00018090       ??_C@_07HJHGMEOC@TrySync?$AA@ 0048d090     session.obj
 0002:00018098       ??_C@_0N@FMLJEODB@Synchronized?$AA@ 0048d098     session.obj
 0002:000180a8       ??_C@_0BK@GGMNJBDE@Synchronized?5?9?5validating?$AA@ 0048d0a8     session.obj
 0002:000180c4       ??_C@_0BA@IFCDGJKK@Transferring?5?$CFi?$AA@ 0048d0c4     session.obj
 0002:000180d4       ??_C@_0CJ@NNNGFFN@Overflowed?5buf?5in?5GetStateName?5s@ 0048d0d4     session.obj
 0002:00018100       ??_C@_06CKDMONLB@Resync?$AA@ 0048d100     session.obj
 0002:00018108       ??_C@_0DE@HELCJDMG@CreateSession?5closing?5connection@ 0048d108     session.obj
 0002:0001813c       ??_C@_0CE@MEFEKGDN@CloseSession?5can?8t?5find?5session?5@ 0048d13c     session.obj
 0002:00018160       ??_C@_0DB@KMCDNLND@CloseSession?5can?8t?5close?5unconne@ 0048d160     session.obj
 0002:00018194       ??_C@_0DG@GLKBNGDH@CloseSession?5closing?5session?5wit@ 0048d194     session.obj
 0002:000181cc       ??_C@_0BP@FFLHOPAL@CloseSession?14?5logging?5off?5?$CFi?6?$AA@ 0048d1cc     session.obj
 0002:000181ec       ??_C@_0CO@NGFFFHGG@CloseSession?5couldn?8t?5get?5sessio@ 0048d1ec     session.obj
 0002:0001821c       ??_C@_0DB@DLGEGMBG@CloseSession?5couldn?8t?5get?5sessio@ 0048d21c     session.obj
 0002:00018250       ??_C@_0DN@LLGCCLAP@CloseSession?5error?5?$CI?$CFs?$CJ?5closing?5@ 0048d250     session.obj
 0002:00018290       ??_C@_0EA@BMOFLJCC@CloseSession?5error?5?$CI?$CFs?$CJ?5closing?5@ 0048d290     session.obj
 0002:000182d0       ??_C@_0DE@FAFFFHJL@PollSession?5bailed?5waiting?5for?5m@ 0048d2d0     session.obj
 0002:00018304       ??_C@_0DI@CJPEBHIF@PollSession?5released?5mutex?5it?5di@ 0048d304     session.obj
 0002:0001833c       ??_C@_1BE@LHJDMNAE@?$AAs?$AAe?$AAs?$AAs?$AAi?$AAo?$AAn?$AA?4?$AAc?$AA?$AA@ 0048d33c     session.obj
 0002:00018350       ??_C@_1BE@NNGOKIGJ@?$AAs?$AAe?$AAq?$AAn?$AAo?$AA?$DO?$AA2?$AA5?$AA5?$AA?$AA@ 0048d350     session.obj
 0002:00018364       ??_C@_0CL@BPKEDHHH@SendBytes?5couldn?8t?5get?5session?5?$CF@ 0048d364     session.obj
 0002:00018390       ??_C@_0DA@OIAEIPLH@SendBufferList?5couldn?8t?5get?5sess@ 0048d390     session.obj
 0002:000183c0       ??_C@_08FADOEBKD@string?4c?$AA@ 0048d3c0     string.obj
 0002:000183cc       ??_C@_0CP@PGGJFGEG@AllocateStringNode?5resized?5to?5?$CFi@ 0048d3cc     string.obj
 0002:000183fc       ??_C@_0DA@GOPBBMEE@GetStringByID?5can?8t?5retrieve?5inv@ 0048d3fc     string.obj
 0002:0001842c       ??_C@_0CF@IGNEMPCP@LoadString?5didn?8t?5make?5string?5id@ 0048d42c     string.obj
 0002:00018454       ??_C@_0BK@DGKKECIH@FreeString?5can?8t?5find?5?$CFi?6?$AA@ 0048d454     string.obj
 0002:00018470       ??_C@_0DH@OOFABLPG@MoveString?5can?8t?5find?5source?5?$CFi?0@ 0048d470     string.obj
 0002:000184a8       ??_C@_0DF@BMPNOLGK@MoveString?5can?8t?5find?5dest?5?$CFi?0?5t@ 0048d4a8     string.obj
 0002:000184e0       ??_C@_0BA@IFHKLFJL@stringinthash?4c?$AA@ 0048d4e0     stringinthash.obj
 0002:000184f0       ??_C@_0DF@GKLMOJKO@SynchedProcessSessionBuffer?5got?5@ 0048d4f0     synched.obj
 0002:00018528       ??_C@_0CP@HEPHNJND@SynchedProtocolParse?5account?5?$CFu?5@ 0048d528     synched.obj
 0002:00018558       ??_C@_0DH@JEIOOJBG@SynchedProtocolParse?5AP_GETCLIEN@ 0048d558     synched.obj
 0002:00018590       ??_C@_0DH@JMIDOAPD@SynchedProtocolParse?5AP_ADMINNOT@ 0048d590     synched.obj
 0002:000185c8       ??_C@_0DG@IGLDJPHG@SynchedProtocolParse?5AP_REGISTER@ 0048d5c8     synched.obj
 0002:00018600       ??_C@_0DL@CIDDPPNM@ACCOUNT?5?$CFi?5?$CI?$CFs?$CJ?5in?5use?$DL?5new?5conn@ 0048d600     synched.obj
 0002:00018640       ??_C@_0EJ@FCJMODHI@SynchedProtocolParse?5got?5invalid@ 0048d640     synched.obj
 0002:0001868c       ??_C@_0L@GBLDALMJ@Windows?598?$AA@ 0048d68c     synched.obj
 0002:00018698       ??_C@_0BP@EBCNJNIM@LogUserData?14?5got?5?$CFi?5from?5?$CFs?0?5?$AA@ 0048d698     synched.obj
 0002:000186b8       ??_C@_0L@PJEFFBLH@Windows?5NT?$AA@ 0048d6b8     synched.obj
 0002:000186c4       ??_C@_0L@NEBNHFIE@Windows?595?$AA@ 0048d6c4     synched.obj
 0002:000186d0       ??_C@_03JPEBFCPB@386?$AA@  0048d6d0     synched.obj
 0002:000186d4       ??_C@_0L@LEAMPJKK@?0?5?$CFi?0?5?$CFi?0?5?$AA@ 0048d6d4     synched.obj
 0002:000186e0       ??_C@_07OMJOJPOP@Pentium?$AA@ 0048d6e0     synched.obj
 0002:000186e8       ??_C@_03CJGGKEI@486?$AA@   0048d6e8     synched.obj
 0002:000186ec       ??_C@_05JHEBEDMP@?$CFi?5MB?$AA@ 0048d6ec     synched.obj
 0002:000186f4       ??_C@_02KEGNLNML@?0?5?$AA@ 0048d6f4     synched.obj
 0002:000186f8       ??_C@_0N@OOCNMJLA@?0?5Partner?5?$CFd?$AA@ 0048d6f8     synched.obj
 0002:00018708       ??_C@_0BC@IEEDLPNE@?$CFix?$CFix?$CFi?5?$CI0x?$CF08X?$CJ?$AA@ 0048d708     synched.obj
 0002:0001871c       ??_C@_0BD@GOKMKJHB@?5client?5version?5?$CFi?$AA@ 0048d71c     synched.obj
 0002:00018730       ??_C@_0EI@NJBOLDIH@CreateSysTimer?5got?5timer?5type?5?$CFd@ 0048d730     systimer.obj
 0002:00018778       ??_C@_0BL@FKKJFJNK@ProcessOneSysTimer?5saving?6?$AA@ 0048d778     systimer.obj
 0002:00018794       ??_C@_0CH@FHLLBNLE@ProcessOneSysTimer?5garbage?5colle@ 0048d794     systimer.obj
 0002:000187bc       ??_C@_0DG@MJBAJOBG@In?5last?5?$CFi?5seconds?0?5server?5has?5t@ 0048d7bc     systimer.obj
 0002:000187f4       ??_C@_0CE@NCKNBHFF@AllocateTable?5resized?5to?5?$CFi?5tabl@ 0048d7f4     table.obj
 0002:00018818       ??_C@_07PGADJIAP@table?4c?$AA@ 0048d818     table.obj
 0002:00018820       ??_C@_0CO@KGNPDDN@GetTableByID?5can?8t?5retrieve?5inva@ 0048d820     table.obj
 0002:00018850       ??_C@_0DN@BHFAEAJL@CreateTable?5got?5out?5of?5bounds?5ta@ 0048d850     table.obj
 0002:00018890       ??_C@_0DD@PFLNJONO@InsertTable?5can?8t?5insert?5into?5ze@ 0048d890     table.obj
 0002:000188c4       ??_C@_0CB@ICAMBIEL@InsertTable?5can?8t?5find?5table?5?$CFi?6@ 0048d8c4     table.obj
 0002:000188e8       ??_C@_0CD@MGLDAMBN@GetTableEntry?5can?8t?5find?5table?5?$CF@ 0048d8e8     table.obj
 0002:0001890c       ??_C@_0CE@HDNOCHOL@Insert?5tbl?5?$CFi?0?5index?5?$CFi?0?5key?5?$CFi?0@ 0048d90c     table.obj
 0002:00018930       ??_C@_0DD@IHNCIHA@DeleteTableEntry?5can?8t?5delete?5?$CFi@ 0048d930     table.obj
 0002:00018964       ??_C@_0CG@JJFBKCOL@DeleteTableEntry?5can?8t?5find?5tabl@ 0048d964     table.obj
 0002:0001898c       ??_C@_0CJ@OMAFLHF@EqualTableEntry?5can?8t?5find?5strin@ 0048d98c     table.obj
 0002:000189b8       ??_C@_0CL@MHKFFIDL@EqualTableEntry?5can?8t?5find?5resou@ 0048d9b8     table.obj
 0002:000189e4       ??_C@_0CF@KKEHGHDA@GetTableHash?5can?8t?5find?5resource@ 0048d9e4     table.obj
 0002:00018a0c       ??_C@_0CO@KDCGJHLH@EqualTableEntry?5can?8t?5match?5?$CFi?0?$CF@ 0048da0c     table.obj
 0002:00018a3c       ??_C@_0CD@KKEEGINO@GetTableHash?5can?8t?5find?5string?5?$CF@ 0048da3c     table.obj
 0002:00018a60       ??_C@_0DE@NLPNFMOB@MoveTable?5can?8t?5find?5dest?5?$CFi?0?5to@ 0048da60     table.obj
 0002:00018a94       ??_C@_0DG@GDCCLLFJ@MoveTable?5can?8t?5find?5source?5?$CFi?0?5@ 0048da94     table.obj
 0002:00018acc       ??_C@_01EPMOAMKG@$?$AA@    0048dacc     term.obj
 0002:00018ad0       ??_C@_06IAMCMNFI@OBJECT?$AA@ 0048dad0     term.obj
 0002:00018ad8       ??_C@_03JMHEAPMO@INT?$AA@  0048dad8     term.obj
 0002:00018adc       ??_C@_08KGDJAKPA@RESOURCE?$AA@ 0048dadc     term.obj
 0002:00018ae8       ??_C@_04PCOPKCKE@LIST?$AA@ 0048dae8     term.obj
 0002:00018af0       ??_C@_07FBMOPOOO@SESSION?$AA@ 0048daf0     term.obj
 0002:00018af8       ??_C@_05BLGDNOJI@TIMER?$AA@ 0048daf8     term.obj
 0002:00018b00       ??_C@_0M@GNIJIKJN@TEMP_STRING?$AA@ 0048db00     term.obj
 0002:00018b0c       ??_C@_09IEAKEKAJ@ROOM_DATA?$AA@ 0048db0c     term.obj
 0002:00018b18       ??_C@_05IGDGDCPA@CLASS?$AA@ 0048db18     term.obj
 0002:00018b20       ??_C@_06IGECGLFO@STRING?$AA@ 0048db20     term.obj
 0002:00018b28       ??_C@_08KEHBBFGI@DEBUGSTR?$AA@ 0048db28     term.obj
 0002:00018b34       ??_C@_07BAKMHNGL@MESSAGE?$AA@ 0048db34     term.obj
 0002:00018b3c       ??_C@_08ICLDDLKE@OVERRIDE?$AA@ 0048db3c     term.obj
 0002:00018b48       ??_C@_09MDKDGMOI@HASHTABLE?$AA@ 0048db48     term.obj
 0002:00018b54       ??_C@_05HKAKDGKI@EMPTY?$AA@ 0048db54     term.obj
 0002:00018b5c       ??_C@_0DH@FBPEICKG@GetTagData?5error?0?5message?5tag?5sa@ 0048db5c     term.obj
 0002:00018b94       ??_C@_0CK@JLDIEPIP@GetTagData?5error?0?5can?8t?5find?5cla@ 0048db94     term.obj
 0002:00018bc0       ??_C@_0DH@OJCKBKHN@Recognized?5TAG_TEMP_STRING?5type?0@ 0048dbc0     term.obj
 0002:00018bf8       ??_C@_0DK@LHOLJJJP@GetTimeZoneOffset?5got?5invalid?5ti@ 0048dbf8     time.obj
 0002:00018c34       ??_C@_0N@PNNMNICF@Invalid?5Time?$AA@ 0048dc34     time.obj
 0002:00018c44       ??_C@_05DHPMCAIC@Never?$AA@ 0048dc44     time.obj
 0002:00018c4c       ??_C@_0BD@BGCBNHEJ@?$CFb?5?$CF?$CDd?5?$CFY?5?$CFH?3?$CFM?3?$CFS?$AA@ 0048dc4c     time.obj
 0002:00018c60       ??_C@_0BE@EKOFHJDP@?$CFb?5?5?$CF?$CDd?5?$CFY?5?$CFH?3?$CFM?3?$CFS?$AA@ 0048dc60     time.obj
 0002:00018c74       ??_C@_0O@MFLAGABD@?$CFb?5?5?$CF?$CDd?5?$CFH?3?$CFM?$AA@ 0048dc74     time.obj
 0002:00018c90       ??_C@_0BF@DDBGLCNF@Time?5string?5too?5long?$AA@ 0048dc90     time.obj
 0002:00018ca8       ??_C@_0N@EOBOPHHP@?$CFb?5?$CF?$CDd?5?$CFH?3?$CFM?$AA@ 0048dca8     time.obj
 0002:00018cb8       ??_C@_09KAPLJBKE@?$CFi?5day?$CFs?5?$AA@ 0048dcb8     time.obj
 0002:00018cc4       ??_C@_0N@FHOLHHKC@?$CFi?5minute?$CFs?5?$AA@ 0048dcc4     time.obj
 0002:00018cd4       ??_C@_0L@DOGCMFOH@?$CFi?5hour?$CFs?5?$AA@ 0048dcd4     time.obj
 0002:00018ce0       ??_C@_05PCMAEICI@0?5sec?$AA@ 0048dce0     time.obj
 0002:00018ce8       ??_C@_0M@NKHHIDGL@?$CFi?5second?$CFs?$AA@ 0048dce8     time.obj
 0002:00018cf4       ??_C@_0CD@JBCHJLLI@GetMicroCount?5can?8t?5get?5frequenc@ 0048dcf4     time.obj
 0002:00018d18       ??_C@_0CD@KALKLKPB@GetMilliCount?5can?8t?5get?5frequenc@ 0048dd18     time.obj
 0002:00018d3c       ??_C@_0CB@JJGJEAHI@TimerHeapCheck?5error?5on?5level?5?$CFi@ 0048dd3c     timer.obj
 0002:00018d60       ??_C@_0CN@IEEKOILD@ReallocTimerNodes?5resized?5to?5?$CFi?5@ 0048dd60     timer.obj
 0002:00018d90       ??_C@_0DA@IBJKOGHE@UnpauseTimers?5called?5when?5they?5w@ 0048dd90     timer.obj
 0002:00018dc0       ??_C@_0DI@EOJCDPPF@PauseTimers?5called?5when?5they?5wer@ 0048ddc0     timer.obj
 0002:00018df8       ??_C@_0CG@MPPAEPCP@LoadTimer?5can?8t?5find?5message?5nam@ 0048ddf8     timer.obj
 0002:00018e20       ??_C@_0CA@CEENGDBO@LoadTimer?5can?8t?5find?5object?5?$CFi?6?$AA@ 0048de20     timer.obj
 0002:00018e40       ??_C@_0BF@FFJGLLAP@Status?3?5?$CFi?5accounts?6?$AA@ 0048de40     timer.obj
 0002:00018e58       ??_C@_0CB@GJIFBJCB@DeleteTimer?5can?8t?5find?5timer?5?$CFi?6@ 0048de58     timer.obj
 0002:00018e7c       ??_C@_0CG@DMNOJDPC@ServiceTimers?5got?5unknown?5messag@ 0048de7c     timer.obj
 0002:00018ea4       ??_C@_0CI@LLIDFOJD@ServiceTimers?5shutting?5down?5the?5@ 0048dea4     timer.obj
 0002:00018ecc       ??_C@_0BA@BGJEJBOM@aoeuaoeuaoeutha?$AA@ 0048decc     trysync.obj
 0002:00018edc       ??_C@_0O@CKPOMNKF@User?$CFi?$CFi?$CFI64i?$AA@ 0048dedc     user.obj
 0002:00018eec       ??_C@_0CM@BJDFPCKM@BlakSton?5Server?5v2?41?5?$CIMar?510?5201@ 0048deec     version.obj
 0002:00018f18       __real@00000000            0048df18     roofile.obj
 0002:00018f1c       __real@38d1b717            0048df1c     roofile.obj
 0002:00018f20       __real@39800000            0048df20     roofile.obj
 0002:00018f24       __real@3a800000            0048df24     roofile.obj
 0002:00018f28       __real@3b000000            0048df28     roofile.obj
 0002:00018f2c       __real@3b800000            0048df2c     roofile.obj
 0002:00018f30       __real@3d800000            0048df30     roofile.obj
